Archive member included to satisfy reference by file (symbol)

.pioenvs\bluepill_f103c8\lib931\liblogger.a(logger.o)
                              .pioenvs\bluepill_f103c8\src\main.o (debug_flush)
.pioenvs\bluepill_f103c8\lib635\libcodal-core.a(CodalFiber.o)
                              .pioenvs\bluepill_f103c8\src\main.o (codal::fiber_sleep(unsigned long))
.pioenvs\bluepill_f103c8\lib635\libcodal-core.a(CodalHeapAllocator.o)
                              .pioenvs\bluepill_f103c8\lib635\libcodal-core.a(CodalFiber.o) (malloc)
.pioenvs\bluepill_f103c8\lib635\libcodal-core.a(CodalListener.o)
                              .pioenvs\bluepill_f103c8\lib635\libcodal-core.a(CodalFiber.o) (codal::Listener::Listener(unsigned short, unsigned short, void (*)(codal::Event), unsigned short))
.pioenvs\bluepill_f103c8\lib635\libcodal-core.a(Timer.o)
                              .pioenvs\bluepill_f103c8\src\main.o (codal::Timer::getTime())
.pioenvs\bluepill_f103c8\lib635\libcodal-core.a(Event.o)
                              .pioenvs\bluepill_f103c8\lib635\libcodal-core.a(CodalListener.o) (codal::Event::Event())
.pioenvs\bluepill_f103c8\libd0a\libcocoOS_5.0.3.a(os_event.o)
                              .pioenvs\bluepill_f103c8\src\wisol.o (event_create)
.pioenvs\bluepill_f103c8\libd0a\libcocoOS_5.0.3.a(os_kernel.o)
                              .pioenvs\bluepill_f103c8\src\uart.o (running_tid)
.pioenvs\bluepill_f103c8\libd0a\libcocoOS_5.0.3.a(os_msgqueue.o)
                              .pioenvs\bluepill_f103c8\libd0a\libcocoOS_5.0.3.a(os_kernel.o) (os_msgQ_init)
.pioenvs\bluepill_f103c8\libd0a\libcocoOS_5.0.3.a(os_sem.o)
                              .pioenvs\bluepill_f103c8\libd0a\libcocoOS_5.0.3.a(os_kernel.o) (os_sem_init)
.pioenvs\bluepill_f103c8\libd0a\libcocoOS_5.0.3.a(os_task.o)
                              .pioenvs\bluepill_f103c8\libd0a\libcocoOS_5.0.3.a(os_kernel.o) (os_task_init)
.pioenvs\bluepill_f103c8\libd0a\libcocoOS_5.0.3.a(os_assert.o)
                              .pioenvs\bluepill_f103c8\libd0a\libcocoOS_5.0.3.a(os_event.o) (os_on_assert)
.pioenvs\bluepill_f103c8\libd0a\libcocoOS_5.0.3.a(os_cbk.o)
                              .pioenvs\bluepill_f103c8\libd0a\libcocoOS_5.0.3.a(os_kernel.o) (os_cbkSleep)
.pioenvs\bluepill_f103c8\liba13\libnewlib.a(memcpy.o)
                              .pioenvs\bluepill_f103c8\lib635\libcodal-core.a(CodalHeapAllocator.o) (memcpy)
.pioenvs\bluepill_f103c8\liba13\libnewlib.a(memset.o)
                              .pioenvs\bluepill_f103c8\lib635\libcodal-core.a(CodalFiber.o) (memset)
.pioenvs\bluepill_f103c8\liba13\libnewlib.a(strlen.o)
                              .pioenvs\bluepill_f103c8\src\aggregate.o (strlen)
.pioenvs\bluepill_f103c8\liba13\libnewlib.a(strncat.o)
                              .pioenvs\bluepill_f103c8\src\wisol.o (strncat)
.pioenvs\bluepill_f103c8\liba13\libnewlib.a(strncmp.o)
                              .pioenvs\bluepill_f103c8\src\aggregate.o (strncmp)
.pioenvs\bluepill_f103c8\liba13\libnewlib.a(strncpy.o)
                              .pioenvs\bluepill_f103c8\src\aggregate.o (strncpy)
.pioenvs\bluepill_f103c8\liba13\libnewlib.a(strstr.o)
                              .pioenvs\bluepill_f103c8\src\wisol.o (strstr)
.pioenvs\bluepill_f103c8\lib0e4\libunity.a(unity.o)
                              .pioenvs\bluepill_f103c8\src\unit_test.o (UnityAssertEqualNumber)
.pioenvs\bluepill_f103c8\libc64\libnano-float.a(functions.o)
                              .pioenvs\bluepill_f103c8\src\unit_test.o (get_float_usage)
.pioenvs\bluepill_f103c8\lib24c\libcm.a(CmPin.o)
                              .pioenvs\bluepill_f103c8\src\main.o (codal::_cm::Pin::setDigitalValue(int))
.pioenvs\bluepill_f103c8\lib24c\libcm.a(codal_target_hal.o)
                              .pioenvs\bluepill_f103c8\src\main.o (target_enable_debug)
.pioenvs\bluepill_f103c8\libff7\libbluepill.a(STM32BluePill.o)
                              .pioenvs\bluepill_f103c8\src\main.o (codal::STM32BluePill::init())
.pioenvs\bluepill_f103c8\libff7\libbluepill.a(STM32BluePillIO.o)
                              .pioenvs\bluepill_f103c8\libff7\libbluepill.a(STM32BluePill.o) (codal::STM32BluePillIO::STM32BluePillIO())
.pioenvs\bluepill_f103c8\libff7\libbluepill.a(bluepill.o)
                              .pioenvs\bluepill_f103c8\lib24c\libcm.a(codal_target_hal.o) (platform_setup)
.pioenvs\bluepill_f103c8\libff7\libbluepill.a(led.o)
                              .pioenvs\bluepill_f103c8\libff7\libbluepill.a(bluepill.o) (led_setup)
.pioenvs\bluepill_f103c8\libff7\libbluepill.a(timer.o)
                              .pioenvs\bluepill_f103c8\lib24c\libcm.a(codal_target_hal.o) (platform_start_timer)
.pioenvs\bluepill_f103c8\lib443\libbootloader.a(bootloader.o)
                              .pioenvs\bluepill_f103c8\lib24c\libcm.a(codal_target_hal.o) (bootloader_start)
.pioenvs\bluepill_f103c8\lib443\libbootloader.a(target_stm32f103.o)
                              .pioenvs\bluepill_f103c8\lib443\libbootloader.a(bootloader.o) (target_set_led)
.pioenvs\bluepill_f103c8\lib443\libbootloader.a(usb_conf.o)
                              .pioenvs\bluepill_f103c8\lib443\libbootloader.a(bootloader.o) (usb_setup)
.pioenvs\bluepill_f103c8\lib443\libbootloader.a(webusb.o)
                              .pioenvs\bluepill_f103c8\lib443\libbootloader.a(usb_conf.o) (webusb_setup)
.pioenvs\bluepill_f103c8\lib443\libbootloader.a(winusb.o)
                              .pioenvs\bluepill_f103c8\lib443\libbootloader.a(usb_conf.o) (winusb_setup)
.pioenvs\bluepill_f103c8\lib443\libbootloader.a(cdc.o)
                              .pioenvs\bluepill_f103c8\lib443\libbootloader.a(usb_conf.o) (cdc_setup)
.pioenvs\bluepill_f103c8\lib443\libbootloader.a(hf2.o)
                              .pioenvs\bluepill_f103c8\lib443\libbootloader.a(usb_conf.o) (hf2_setup)
.pioenvs\bluepill_f103c8\lib443\libbootloader.a(backup.o)
                              .pioenvs\bluepill_f103c8\lib443\libbootloader.a(target_stm32f103.o) (backup_write)
.pioenvs\bluepill_f103c8\lib443\libbootloader.a(usb21_standard.o)
                              .pioenvs\bluepill_f103c8\lib443\libbootloader.a(usb_conf.o) (usb21_setup)
.pioenvs\bluepill_f103c8\lib443\libbootloader.a(ghostfat.o)
                              .pioenvs\bluepill_f103c8\lib443\libbootloader.a(hf2.o) (flash_write)
.pioenvs\bluepill_f103c8\lib492\libuartint.a(uartint.o)
                              .pioenvs\bluepill_f103c8\src\uart.o (UARTInterface::UARTInterface(unsigned int, unsigned int))
c:/users/guppy/.platformio/packages/toolchain-gccarmnoneeabi/bin/../lib/gcc/arm-none-eabi/7.2.1/thumb/v7-m\libgcc.a(_arm_addsubdf3.o)
                              .pioenvs\bluepill_f103c8\lib0e4\libunity.a(unity.o) (__aeabi_dsub)
c:/users/guppy/.platformio/packages/toolchain-gccarmnoneeabi/bin/../lib/gcc/arm-none-eabi/7.2.1/thumb/v7-m\libgcc.a(_arm_muldivdf3.o)
                              .pioenvs\bluepill_f103c8\src\unit_test.o (__aeabi_dmul)
c:/users/guppy/.platformio/packages/toolchain-gccarmnoneeabi/bin/../lib/gcc/arm-none-eabi/7.2.1/thumb/v7-m\libgcc.a(_arm_cmpdf2.o)
                              .pioenvs\bluepill_f103c8\lib0e4\libunity.a(unity.o) (__aeabi_dcmpeq)
c:/users/guppy/.platformio/packages/toolchain-gccarmnoneeabi/bin/../lib/gcc/arm-none-eabi/7.2.1/thumb/v7-m\libgcc.a(_arm_unorddf2.o)
                              .pioenvs\bluepill_f103c8\libc64\libnano-float.a(functions.o) (__aeabi_dcmpun)
c:/users/guppy/.platformio/packages/toolchain-gccarmnoneeabi/bin/../lib/gcc/arm-none-eabi/7.2.1/thumb/v7-m\libgcc.a(_arm_fixdfsi.o)
                              .pioenvs\bluepill_f103c8\src\unit_test.o (__aeabi_d2iz)
c:/users/guppy/.platformio/packages/toolchain-gccarmnoneeabi/bin/../lib/gcc/arm-none-eabi/7.2.1/thumb/v7-m\libgcc.a(_arm_truncdfsf2.o)
                              .pioenvs\bluepill_f103c8\lib0e4\libunity.a(unity.o) (__aeabi_d2f)
c:/users/guppy/.platformio/packages/toolchain-gccarmnoneeabi/bin/../lib/gcc/arm-none-eabi/7.2.1/thumb/v7-m\libgcc.a(_arm_addsubsf3.o)
                              .pioenvs\bluepill_f103c8\lib0e4\libunity.a(unity.o) (__aeabi_fsub)
c:/users/guppy/.platformio/packages/toolchain-gccarmnoneeabi/bin/../lib/gcc/arm-none-eabi/7.2.1/thumb/v7-m\libgcc.a(_arm_muldivsf3.o)
                              .pioenvs\bluepill_f103c8\src\aggregate.o (__aeabi_fmul)
c:/users/guppy/.platformio/packages/toolchain-gccarmnoneeabi/bin/../lib/gcc/arm-none-eabi/7.2.1/thumb/v7-m\libgcc.a(_arm_cmpsf2.o)
                              .pioenvs\bluepill_f103c8\lib931\liblogger.a(logger.o) (__aeabi_fcmpeq)
c:/users/guppy/.platformio/packages/toolchain-gccarmnoneeabi/bin/../lib/gcc/arm-none-eabi/7.2.1/thumb/v7-m\libgcc.a(_arm_fixsfsi.o)
                              .pioenvs\bluepill_f103c8\src\aggregate.o (__aeabi_f2iz)
c:/users/guppy/.platformio/packages/toolchain-gccarmnoneeabi/bin/../lib/gcc/arm-none-eabi/7.2.1/thumb/v7-m\libgcc.a(_arm_fixunssfsi.o)
                              .pioenvs\bluepill_f103c8\lib931\liblogger.a(logger.o) (__aeabi_f2uiz)
.pioenvs\bluepill_f103c8\libFrameworkLibOpenCM3.a(desig.o)
                              .pioenvs\bluepill_f103c8\lib443\libbootloader.a(target_stm32f103.o) (desig_get_unique_id_as_string)
.pioenvs\bluepill_f103c8\libFrameworkLibOpenCM3.a(flash.o)
                              .pioenvs\bluepill_f103c8\lib443\libbootloader.a(target_stm32f103.o) (flash_program_half_word)
.pioenvs\bluepill_f103c8\libFrameworkLibOpenCM3.a(gpio.o)
                              .pioenvs\bluepill_f103c8\lib24c\libcm.a(CmPin.o) (gpio_set_mode)
.pioenvs\bluepill_f103c8\libFrameworkLibOpenCM3.a(rcc.o)
                              .pioenvs\bluepill_f103c8\libff7\libbluepill.a(timer.o) (rcc_enable_rtc_clock)
.pioenvs\bluepill_f103c8\libFrameworkLibOpenCM3.a(rtc.o)
                              .pioenvs\bluepill_f103c8\libff7\libbluepill.a(timer.o) (rtc_enter_config_mode)
.pioenvs\bluepill_f103c8\libFrameworkLibOpenCM3.a(gpio_common_all.o)
                              .pioenvs\bluepill_f103c8\lib24c\libcm.a(CmPin.o) (gpio_set)
.pioenvs\bluepill_f103c8\libFrameworkLibOpenCM3.a(pwr_common_all.o)
                              .pioenvs\bluepill_f103c8\libff7\libbluepill.a(timer.o) (pwr_disable_backup_domain_write_protect)
.pioenvs\bluepill_f103c8\libFrameworkLibOpenCM3.a(usart_common_all.o)
                              .pioenvs\bluepill_f103c8\lib492\libuartint.a(uartint.o) (usart_set_baudrate)
.pioenvs\bluepill_f103c8\libFrameworkLibOpenCM3.a(usart_common_f124.o)
                              .pioenvs\bluepill_f103c8\lib492\libuartint.a(uartint.o) (usart_send)
.pioenvs\bluepill_f103c8\libFrameworkLibOpenCM3.a(rcc_common_all.o)
                              .pioenvs\bluepill_f103c8\lib24c\libcm.a(CmPin.o) (rcc_periph_clock_enable)
.pioenvs\bluepill_f103c8\libFrameworkLibOpenCM3.a(exti_common_all.o)
                              .pioenvs\bluepill_f103c8\libff7\libbluepill.a(timer.o) (exti_set_trigger)
.pioenvs\bluepill_f103c8\libFrameworkLibOpenCM3.a(flash_common_f01.o)
                              .pioenvs\bluepill_f103c8\libFrameworkLibOpenCM3.a(rcc.o) (flash_set_ws)
.pioenvs\bluepill_f103c8\libFrameworkLibOpenCM3.a(usb.o)
                              .pioenvs\bluepill_f103c8\lib443\libbootloader.a(usb_conf.o) (usbd_init)
.pioenvs\bluepill_f103c8\libFrameworkLibOpenCM3.a(usb_control.o)
                              .pioenvs\bluepill_f103c8\lib443\libbootloader.a(usb_conf.o) (usbd_register_control_callback)
.pioenvs\bluepill_f103c8\libFrameworkLibOpenCM3.a(usb_standard.o)
                              .pioenvs\bluepill_f103c8\lib443\libbootloader.a(usb_conf.o) (usbd_register_set_config_callback)
.pioenvs\bluepill_f103c8\libFrameworkLibOpenCM3.a(st_usbfs_v1.o)
                              .pioenvs\bluepill_f103c8\lib443\libbootloader.a(target_stm32f103.o) (st_usbfs_v1_usb_driver)
.pioenvs\bluepill_f103c8\libFrameworkLibOpenCM3.a(vector.o)
                              (reset_handler)
.pioenvs\bluepill_f103c8\libFrameworkLibOpenCM3.a(scb.o)
                              .pioenvs\bluepill_f103c8\lib443\libbootloader.a(target_stm32f103.o) (scb_reset_system)
.pioenvs\bluepill_f103c8\libFrameworkLibOpenCM3.a(nvic.o)
                              .pioenvs\bluepill_f103c8\libff7\libbluepill.a(timer.o) (nvic_enable_irq)
.pioenvs\bluepill_f103c8\libFrameworkLibOpenCM3.a(assert.o)
                              .pioenvs\bluepill_f103c8\libFrameworkLibOpenCM3.a(rcc.o) (cm3_assert_failed)
.pioenvs\bluepill_f103c8\libFrameworkLibOpenCM3.a(st_usbfs_core.o)
                              .pioenvs\bluepill_f103c8\libFrameworkLibOpenCM3.a(st_usbfs_v1.o) (st_usbfs_set_address)
.pioenvs\bluepill_f103c8\lib635\libcodal-core.a(CodalCompat.o)
                              .pioenvs\bluepill_f103c8\lib24c\libcm.a(codal_target_hal.o) (codal::seed_random(unsigned long))
.pioenvs\bluepill_f103c8\lib635\libcodal-core.a(CodalComponent.o)
                              .pioenvs\bluepill_f103c8\libff7\libbluepill.a(STM32BluePill.o) (codal::CodalComponent::addComponent())
.pioenvs\bluepill_f103c8\lib635\libcodal-core.a(CodalDmesg.o)
                              .pioenvs\bluepill_f103c8\lib24c\libcm.a(codal_target_hal.o) (codal_dmesg_set_flush_fn)
.pioenvs\bluepill_f103c8\lib635\libcodal-core.a(Serial.o)
                              .pioenvs\bluepill_f103c8\libff7\libbluepill.a(STM32BluePill.o) (codal::Serial::~Serial())
.pioenvs\bluepill_f103c8\lib635\libcodal-core.a(MessageBus.o)
                              .pioenvs\bluepill_f103c8\libff7\libbluepill.a(STM32BluePill.o) (codal::MessageBus::~MessageBus())
.pioenvs\bluepill_f103c8\lib635\libcodal-core.a(ManagedString.o)
                              .pioenvs\bluepill_f103c8\lib635\libcodal-core.a(Serial.o) (codal::ManagedString::~ManagedString())
.pioenvs\bluepill_f103c8\lib635\libcodal-core.a(RefCounted.o)
                              .pioenvs\bluepill_f103c8\lib635\libcodal-core.a(ManagedString.o) (codal::RefCounted::incr())
.pioenvs\bluepill_f103c8\lib635\libcodal-core.a(RefCountedInit.o)
                              .pioenvs\bluepill_f103c8\lib635\libcodal-core.a(RefCounted.o) (codal::RefCounted::destroy())
.pioenvs\bluepill_f103c8\lib635\libcodal-core.a(MemberFunctionCallback.o)
                              .pioenvs\bluepill_f103c8\lib635\libcodal-core.a(MessageBus.o) (codal::MemberFunctionCallback::fire(codal::Event))
.pioenvs\bluepill_f103c8\liba13\libnewlib.a(memcmp.o)
                              .pioenvs\bluepill_f103c8\lib443\libbootloader.a(ghostfat.o) (memcmp)
.pioenvs\bluepill_f103c8\liba13\libnewlib.a(memmove.o)
                              .pioenvs\bluepill_f103c8\lib635\libcodal-core.a(CodalDmesg.o) (memmove)
.pioenvs\bluepill_f103c8\liba13\libnewlib.a(strcmp.o)
                              .pioenvs\bluepill_f103c8\lib635\libcodal-core.a(ManagedString.o) (strcmp)
.pioenvs\bluepill_f103c8\lib46d\libqfplib.a(qfplib.o)
                              .pioenvs\bluepill_f103c8\libc64\libnano-float.a(functions.o) (qfp_fadd)
.pioenvs\bluepill_f103c8\lib24c\libcm.a(CmI2C.o)
                              .pioenvs\bluepill_f103c8\libff7\libbluepill.a(STM32BluePill.o) (codal::_cm::I2C::I2C(codal::Pin&, codal::Pin&))
.pioenvs\bluepill_f103c8\lib24c\libcm.a(CmSPI.o)
                              .pioenvs\bluepill_f103c8\libff7\libbluepill.a(STM32BluePill.o) (codal::_cm::SPI::SPI(codal::_cm::Pin&, codal::_cm::Pin&, codal::_cm::Pin&, codal::_cm::Pin&))
.pioenvs\bluepill_f103c8\lib24c\libcm.a(CmSerial.o)
                              .pioenvs\bluepill_f103c8\libff7\libbluepill.a(STM32BluePill.o) (codal::_cm::Serial::Serial(codal::_cm::Pin&, codal::_cm::Pin&, unsigned char, unsigned char))
.pioenvs\bluepill_f103c8\lib24c\libcm.a(CmTimer.o)
                              .pioenvs\bluepill_f103c8\libff7\libbluepill.a(STM32BluePill.o) (codal::_cm::Timer::Timer())
.pioenvs\bluepill_f103c8\lib24c\libcm.a(CmPinMap.o)
                              .pioenvs\bluepill_f103c8\lib24c\libcm.a(CmSPI.o) (pinmap_peripheral)
.pioenvs\bluepill_f103c8\lib635\libcodal-core.a(I2C.o)
                              .pioenvs\bluepill_f103c8\lib24c\libcm.a(CmI2C.o) (codal::I2C::start())

Allocating common symbols
Common symbol       size              file

wrState             0x38              .pioenvs\bluepill_f103c8\lib443\libbootloader.a(ghostfat.o)
pkt                 0x1044            .pioenvs\bluepill_f103c8\lib443\libbootloader.a(hf2.o)
msTimer             0x4               .pioenvs\bluepill_f103c8\lib443\libbootloader.a(bootloader.o)
dataToSend          0x4               .pioenvs\bluepill_f103c8\lib443\libbootloader.a(hf2.o)
Unity               0x28              .pioenvs\bluepill_f103c8\lib0e4\libunity.a(unity.o)
dataToSendLength    0x4               .pioenvs\bluepill_f103c8\lib443\libbootloader.a(hf2.o)
st_usbfs_dev        0xf8              .pioenvs\bluepill_f103c8\libFrameworkLibOpenCM3.a(st_usbfs_core.o)
running_tid         0x1               .pioenvs\bluepill_f103c8\libd0a\libcocoOS_5.0.3.a(os_kernel.o)
running             0x1               .pioenvs\bluepill_f103c8\libd0a\libcocoOS_5.0.3.a(os_kernel.o)
dataToSendFlag      0x1               .pioenvs\bluepill_f103c8\lib443\libbootloader.a(hf2.o)
last_running_task   0x1               .pioenvs\bluepill_f103c8\libd0a\libcocoOS_5.0.3.a(os_kernel.o)
st_usbfs_force_nak  0x8               .pioenvs\bluepill_f103c8\libFrameworkLibOpenCM3.a(st_usbfs_core.o)

Discarded input sections

 .data          0x00000000        0x0 asm/CortexContextSwitch.s.o
 .bss           0x00000000        0x0 asm/CortexContextSwitch.s.o
 .text          0x00000000        0x0 .pioenvs\bluepill_f103c8\src\aggregate.o
 .data          0x00000000        0x0 .pioenvs\bluepill_f103c8\src\aggregate.o
 .bss           0x00000000        0x0 .pioenvs\bluepill_f103c8\src\aggregate.o
 .text._ZL12recallSensorPKc
                0x00000000       0x7c .pioenvs\bluepill_f103c8\src\aggregate.o
 .text._ZL13addPayloadIntPciPKcii.constprop.0
                0x00000000       0xa8 .pioenvs\bluepill_f103c8\src\aggregate.o
 .text.aggregate_sensor_data
                0x00000000      0x13c .pioenvs\bluepill_f103c8\src\aggregate.o
 .text.setup_aggregate
                0x00000000       0x20 .pioenvs\bluepill_f103c8\src\aggregate.o
 .bss._ZL10sensorData
                0x00000000       0x60 .pioenvs\bluepill_f103c8\src\aggregate.o
 .bss._ZL7payload
                0x00000000       0x19 .pioenvs\bluepill_f103c8\src\aggregate.o
 .bss._ZZ21aggregate_sensor_dataE14sequenceNumber
                0x00000000        0x4 .pioenvs\bluepill_f103c8\src\aggregate.o
 .rodata._ZL12recallSensorPKc.str1.1
                0x00000000       0x25 .pioenvs\bluepill_f103c8\src\aggregate.o
 .rodata._ZL13addPayloadIntPciPKcii.constprop.0.str1.1
                0x00000000       0x5f .pioenvs\bluepill_f103c8\src\aggregate.o
 .rodata._ZZ21aggregate_sensor_dataE11sendSensors
                0x00000000       0x10 .pioenvs\bluepill_f103c8\src\aggregate.o
 .rodata.aggregate_sensor_data.str1.1
                0x00000000       0x2c .pioenvs\bluepill_f103c8\src\aggregate.o
 .rodata.str1.1
                0x00000000        0xc .pioenvs\bluepill_f103c8\src\aggregate.o
 .comment       0x00000000       0x7f .pioenvs\bluepill_f103c8\src\aggregate.o
 .ARM.attributes
                0x00000000       0x33 .pioenvs\bluepill_f103c8\src\aggregate.o
 .text          0x00000000        0x0 .pioenvs\bluepill_f103c8\src\downlink.o
 .data          0x00000000        0x0 .pioenvs\bluepill_f103c8\src\downlink.o
 .bss           0x00000000        0x0 .pioenvs\bluepill_f103c8\src\downlink.o
 .text.process_downlink_msg
                0x00000000       0x20 .pioenvs\bluepill_f103c8\src\downlink.o
 .rodata.process_downlink_msg.str1.1
                0x00000000       0x3d .pioenvs\bluepill_f103c8\src\downlink.o
 .comment       0x00000000       0x7f .pioenvs\bluepill_f103c8\src\downlink.o
 .ARM.attributes
                0x00000000       0x33 .pioenvs\bluepill_f103c8\src\downlink.o
 .text          0x00000000        0x0 .pioenvs\bluepill_f103c8\src\main.o
 .data          0x00000000        0x0 .pioenvs\bluepill_f103c8\src\main.o
 .bss           0x00000000        0x0 .pioenvs\bluepill_f103c8\src\main.o
 .text          0x00000000        0x0 .pioenvs\bluepill_f103c8\src\sensor.o
 .data          0x00000000        0x0 .pioenvs\bluepill_f103c8\src\sensor.o
 .bss           0x00000000        0x0 .pioenvs\bluepill_f103c8\src\sensor.o
 .comment       0x00000000       0x7f .pioenvs\bluepill_f103c8\src\sensor.o
 .ARM.attributes
                0x00000000       0x33 .pioenvs\bluepill_f103c8\src\sensor.o
 .text          0x00000000        0x0 .pioenvs\bluepill_f103c8\src\sensor_display.o
 .data          0x00000000        0x0 .pioenvs\bluepill_f103c8\src\sensor_display.o
 .bss           0x00000000        0x0 .pioenvs\bluepill_f103c8\src\sensor_display.o
 .text.debug    0x00000000       0x30 .pioenvs\bluepill_f103c8\src\sensor_display.o
 .rodata.debug.str1.1
                0x00000000        0x1 .pioenvs\bluepill_f103c8\src\sensor_display.o
 .comment       0x00000000       0x7f .pioenvs\bluepill_f103c8\src\sensor_display.o
 .ARM.attributes
                0x00000000       0x33 .pioenvs\bluepill_f103c8\src\sensor_display.o
 .text          0x00000000        0x0 .pioenvs\bluepill_f103c8\src\uart.o
 .data          0x00000000        0x0 .pioenvs\bluepill_f103c8\src\uart.o
 .bss           0x00000000        0x0 .pioenvs\bluepill_f103c8\src\uart.o
 .text._ZL7logCharc
                0x00000000       0x34 .pioenvs\bluepill_f103c8\src\uart.o
 .text._ZL9logBufferPKcS0_cPhh
                0x00000000       0x6a .pioenvs\bluepill_f103c8\src\uart.o
 .text.uart_task
                0x00000000      0x424 .pioenvs\bluepill_f103c8\src\uart.o
 .text.setup_uart
                0x00000000        0x4 .pioenvs\bluepill_f103c8\src\uart.o
 .bss._ZL9markerPos
                0x00000000        0x5 .pioenvs\bluepill_f103c8\src\uart.o
 .bss._ZZ9uart_taskE3msg
                0x00000000       0x20 .pioenvs\bluepill_f103c8\src\uart.o
 .rodata._ZL11nibbleToHex
                0x00000000       0x11 .pioenvs\bluepill_f103c8\src\uart.o
 .rodata._ZL7logCharc.str1.1
                0x00000000        0x6 .pioenvs\bluepill_f103c8\src\uart.o
 .rodata.uart_task.str1.1
                0x00000000       0xb2 .pioenvs\bluepill_f103c8\src\uart.o
 .text          0x00000000        0x0 .pioenvs\bluepill_f103c8\src\unit_test.o
 .data          0x00000000        0x0 .pioenvs\bluepill_f103c8\src\unit_test.o
 .bss           0x00000000        0x0 .pioenvs\bluepill_f103c8\src\unit_test.o
 .bss.xi        0x00000000        0x4 .pioenvs\bluepill_f103c8\src\unit_test.o
 .bss.xu        0x00000000        0x4 .pioenvs\bluepill_f103c8\src\unit_test.o
 .bss.yi        0x00000000        0x4 .pioenvs\bluepill_f103c8\src\unit_test.o
 .bss.yu        0x00000000        0x4 .pioenvs\bluepill_f103c8\src\unit_test.o
 .text          0x00000000        0x0 .pioenvs\bluepill_f103c8\src\wisol.o
 .data          0x00000000        0x0 .pioenvs\bluepill_f103c8\src\wisol.o
 .bss           0x00000000        0x0 .pioenvs\bluepill_f103c8\src\wisol.o
 .text._ZL15processResponseP14NetworkContext
                0x00000000       0x4c .pioenvs\bluepill_f103c8\src\wisol.o
 .text._Z5getIDP14NetworkContextPKc
                0x00000000       0x28 .pioenvs\bluepill_f103c8\src\wisol.o
 .text._Z6getPACP14NetworkContextPKc
                0x00000000       0x28 .pioenvs\bluepill_f103c8\src\wisol.o
 .text._ZL6addCmdP10NetworkCmdiS_
                0x00000000       0x6c .pioenvs\bluepill_f103c8\src\wisol.o
 .text._Z12getStepBeginP14NetworkContextP10NetworkCmdi
                0x00000000       0x90 .pioenvs\bluepill_f103c8\src\wisol.o
 .text._Z11getDownlinkP14NetworkContextPKc
                0x00000000       0x70 .pioenvs\bluepill_f103c8\src\wisol.o
 .text._Z12checkChannelP14NetworkContextPKc
                0x00000000       0x60 .pioenvs\bluepill_f103c8\src\wisol.o
 .text._Z11getStepSendP14NetworkContextP10NetworkCmdiPKcb
                0x00000000       0xd8 .pioenvs\bluepill_f103c8\src\wisol.o
 .text.network_task
                0x00000000      0x48c .pioenvs\bluepill_f103c8\src\wisol.o
 .text.setup_wisol
                0x00000000       0x58 .pioenvs\bluepill_f103c8\src\wisol.o
 .rodata        0x00000000       0x64 .pioenvs\bluepill_f103c8\src\wisol.o
 .bss._ZL11responseMsg
                0x00000000       0x20 .pioenvs\bluepill_f103c8\src\wisol.o
 .bss._ZL12failureEvent
                0x00000000        0x1 .pioenvs\bluepill_f103c8\src\wisol.o
 .bss._ZL12successEvent
                0x00000000        0x1 .pioenvs\bluepill_f103c8\src\wisol.o
 .bss._ZL13sendSemaphore
                0x00000000        0x1 .pioenvs\bluepill_f103c8\src\wisol.o
 .bss._ZL3msg   0x00000000       0x20 .pioenvs\bluepill_f103c8\src\wisol.o
 .bss._ZL7cmdList
                0x00000000       0x64 .pioenvs\bluepill_f103c8\src\wisol.o
 .bss._ZL7uartMsg
                0x00000000       0x20 .pioenvs\bluepill_f103c8\src\wisol.o
 .bss._ZL8uartData
                0x00000000       0x24 .pioenvs\bluepill_f103c8\src\wisol.o
 .bss.endOfList
                0x00000000       0x14 .pioenvs\bluepill_f103c8\src\wisol.o
 .rodata._Z11getDownlinkP14NetworkContextPKc.str1.1
                0x00000000        0x7 .pioenvs\bluepill_f103c8\src\wisol.o
 .rodata._Z11getStepSendP14NetworkContextP10NetworkCmdiPKcb.str1.1
                0x00000000        0xa .pioenvs\bluepill_f103c8\src\wisol.o
 .rodata._Z12checkChannelP14NetworkContextPKc.str1.1
                0x00000000       0x8c .pioenvs\bluepill_f103c8\src\wisol.o
 .rodata._Z12getStepBeginP14NetworkContextP10NetworkCmdi.str1.1
                0x00000000       0x12 .pioenvs\bluepill_f103c8\src\wisol.o
 .rodata._Z5getIDP14NetworkContextPKc.str1.1
                0x00000000       0x11 .pioenvs\bluepill_f103c8\src\wisol.o
 .rodata._Z6getPACP14NetworkContextPKc.str1.1
                0x00000000       0x12 .pioenvs\bluepill_f103c8\src\wisol.o
 .rodata._ZL15processResponseP14NetworkContext.str1.1
                0x00000000       0x6d .pioenvs\bluepill_f103c8\src\wisol.o
 .rodata._ZL6addCmdP10NetworkCmdiS_.str1.1
                0x00000000       0x22 .pioenvs\bluepill_f103c8\src\wisol.o
 .rodata.network_task.str1.1
                0x00000000       0x9f .pioenvs\bluepill_f103c8\src\wisol.o
 .rodata.str1.1
                0x00000000       0x27 .pioenvs\bluepill_f103c8\src\wisol.o
 .comment       0x00000000       0x7f .pioenvs\bluepill_f103c8\src\wisol.o
 .ARM.attributes
                0x00000000       0x33 .pioenvs\bluepill_f103c8\src\wisol.o
 .text          0x00000000        0x0 .pioenvs\bluepill_f103c8\src\wstring.o
 .data          0x00000000        0x0 .pioenvs\bluepill_f103c8\src\wstring.o
 .bss           0x00000000        0x0 .pioenvs\bluepill_f103c8\src\wstring.o
 .comment       0x00000000       0x7f .pioenvs\bluepill_f103c8\src\wstring.o
 .ARM.attributes
                0x00000000       0x33 .pioenvs\bluepill_f103c8\src\wstring.o
 .text          0x00000000        0x0 .pioenvs\bluepill_f103c8\lib931\liblogger.a(logger.o)
 .data          0x00000000        0x0 .pioenvs\bluepill_f103c8\lib931\liblogger.a(logger.o)
 .bss           0x00000000        0x0 .pioenvs\bluepill_f103c8\lib931\liblogger.a(logger.o)
 .text.disable_log
                0x00000000       0x14 .pioenvs\bluepill_f103c8\lib931\liblogger.a(logger.o)
 .text.debug_begin
                0x00000000        0x2 .pioenvs\bluepill_f103c8\lib931\liblogger.a(logger.o)
 .text._Z11debug_printf
                0x00000000       0x88 .pioenvs\bluepill_f103c8\lib931\liblogger.a(logger.o)
 .text._Z11debug_printc
                0x00000000       0x16 .pioenvs\bluepill_f103c8\lib931\liblogger.a(logger.o)
 .text._Z13debug_printlnj
                0x00000000       0x18 .pioenvs\bluepill_f103c8\lib931\liblogger.a(logger.o)
 .text._Z13debug_printlnc
                0x00000000       0x18 .pioenvs\bluepill_f103c8\lib931\liblogger.a(logger.o)
 .text._Z13debug_printlnf
                0x00000000       0x18 .pioenvs\bluepill_f103c8\lib931\liblogger.a(logger.o)
 .text.debug_print_int
                0x00000000        0x4 .pioenvs\bluepill_f103c8\lib931\liblogger.a(logger.o)
 .text.debug_print_char
                0x00000000        0x4 .pioenvs\bluepill_f103c8\lib931\liblogger.a(logger.o)
 .text.debug_print_float
                0x00000000        0x4 .pioenvs\bluepill_f103c8\lib931\liblogger.a(logger.o)
 .rodata._Z11debug_printf.str1.1
                0x00000000        0x7 .pioenvs\bluepill_f103c8\lib931\liblogger.a(logger.o)
 .group         0x00000000        0xc .pioenvs\bluepill_f103c8\lib635\libcodal-core.a(CodalFiber.o)
 .group         0x00000000        0xc .pioenvs\bluepill_f103c8\lib635\libcodal-core.a(CodalFiber.o)
 .text          0x00000000        0x0 .pioenvs\bluepill_f103c8\lib635\libcodal-core.a(CodalFiber.o)
 .data          0x00000000        0x0 .pioenvs\bluepill_f103c8\lib635\libcodal-core.a(CodalFiber.o)
 .bss           0x00000000        0x0 .pioenvs\bluepill_f103c8\lib635\libcodal-core.a(CodalFiber.o)
 .text._ZL15get_fibers_fromPPPN5codal5FiberEPiS1_
                0x00000000       0x30 .pioenvs\bluepill_f103c8\lib635\libcodal-core.a(CodalFiber.o)
 .text._ZN5codal11list_fibersEPPNS_5FiberE
                0x00000000       0x5c .pioenvs\bluepill_f103c8\lib635\libcodal-core.a(CodalFiber.o)
 .text._ZN5codal12create_fiberEPFvvES1_
                0x00000000       0x1a .pioenvs\bluepill_f103c8\lib635\libcodal-core.a(CodalFiber.o)
 .text._ZN5codal6invokeEPFvvE
                0x00000000       0x74 .pioenvs\bluepill_f103c8\lib635\libcodal-core.a(CodalFiber.o)
 .text          0x00000000        0x0 .pioenvs\bluepill_f103c8\lib635\libcodal-core.a(CodalHeapAllocator.o)
 .data          0x00000000        0x0 .pioenvs\bluepill_f103c8\lib635\libcodal-core.a(CodalHeapAllocator.o)
 .bss           0x00000000        0x0 .pioenvs\bluepill_f103c8\lib635\libcodal-core.a(CodalHeapAllocator.o)
 .text._Z16device_heap_sizeh
                0x00000000       0x24 .pioenvs\bluepill_f103c8\lib635\libcodal-core.a(CodalHeapAllocator.o)
 .text.calloc   0x00000000       0x20 .pioenvs\bluepill_f103c8\lib635\libcodal-core.a(CodalHeapAllocator.o)
 .text.device_realloc
                0x00000000       0x2e .pioenvs\bluepill_f103c8\lib635\libcodal-core.a(CodalHeapAllocator.o)
 .text._malloc_r
                0x00000000        0xa .pioenvs\bluepill_f103c8\lib635\libcodal-core.a(CodalHeapAllocator.o)
 .text._free_r  0x00000000        0xa .pioenvs\bluepill_f103c8\lib635\libcodal-core.a(CodalHeapAllocator.o)
 .text          0x00000000        0x0 .pioenvs\bluepill_f103c8\lib635\libcodal-core.a(CodalListener.o)
 .data          0x00000000        0x0 .pioenvs\bluepill_f103c8\lib635\libcodal-core.a(CodalListener.o)
 .bss           0x00000000        0x0 .pioenvs\bluepill_f103c8\lib635\libcodal-core.a(CodalListener.o)
 .text._ZN5codal8ListenerC2EttPFvNS_5EventEPvES2_t
                0x00000000       0x2e .pioenvs\bluepill_f103c8\lib635\libcodal-core.a(CodalListener.o)
 .text          0x00000000        0x0 .pioenvs\bluepill_f103c8\lib635\libcodal-core.a(Timer.o)
 .data          0x00000000        0x0 .pioenvs\bluepill_f103c8\lib635\libcodal-core.a(Timer.o)
 .bss           0x00000000        0x0 .pioenvs\bluepill_f103c8\lib635\libcodal-core.a(Timer.o)
 .text._ZN5codal5Timer6cancelEtt
                0x00000000       0x32 .pioenvs\bluepill_f103c8\lib635\libcodal-core.a(Timer.o)
 .text._ZN5codal5Timer12eventAfterUsEmtt
                0x00000000        0xe .pioenvs\bluepill_f103c8\lib635\libcodal-core.a(Timer.o)
 .text._ZN5codal5Timer10eventAfterEmtt
                0x00000000        0xe .pioenvs\bluepill_f103c8\lib635\libcodal-core.a(Timer.o)
 .text._ZN5codal5Timer10eventEveryEmtt
                0x00000000        0xe .pioenvs\bluepill_f103c8\lib635\libcodal-core.a(Timer.o)
 .text._ZN5codal28system_timer_current_time_usEv
                0x00000000       0x10 .pioenvs\bluepill_f103c8\lib635\libcodal-core.a(Timer.o)
 .text._ZN5codal27system_timer_event_after_usEmtt
                0x00000000       0x24 .pioenvs\bluepill_f103c8\lib635\libcodal-core.a(Timer.o)
 .text._ZN5codal24system_timer_event_everyEmtt
                0x00000000       0x24 .pioenvs\bluepill_f103c8\lib635\libcodal-core.a(Timer.o)
 .text._ZN5codal24system_timer_event_afterEmtt
                0x00000000       0x24 .pioenvs\bluepill_f103c8\lib635\libcodal-core.a(Timer.o)
 .text._ZN5codal25system_timer_cancel_eventEtt
                0x00000000       0x1c .pioenvs\bluepill_f103c8\lib635\libcodal-core.a(Timer.o)
 .text._ZN5codal20system_timer_wait_usEm
                0x00000000       0x2c .pioenvs\bluepill_f103c8\lib635\libcodal-core.a(Timer.o)
 .text._ZN5codal20system_timer_wait_msEm
                0x00000000        0xa .pioenvs\bluepill_f103c8\lib635\libcodal-core.a(Timer.o)
 .text          0x00000000        0x0 .pioenvs\bluepill_f103c8\lib635\libcodal-core.a(Event.o)
 .data          0x00000000        0x0 .pioenvs\bluepill_f103c8\lib635\libcodal-core.a(Event.o)
 .bss           0x00000000        0x0 .pioenvs\bluepill_f103c8\lib635\libcodal-core.a(Event.o)
 .text          0x00000000        0x0 .pioenvs\bluepill_f103c8\libd0a\libcocoOS_5.0.3.a(os_event.o)
 .data          0x00000000        0x0 .pioenvs\bluepill_f103c8\libd0a\libcocoOS_5.0.3.a(os_event.o)
 .bss           0x00000000        0x0 .pioenvs\bluepill_f103c8\libd0a\libcocoOS_5.0.3.a(os_event.o)
 .text.event_create
                0x00000000       0x34 .pioenvs\bluepill_f103c8\libd0a\libcocoOS_5.0.3.a(os_event.o)
 .text.event_signaling_taskId_get
                0x00000000       0x10 .pioenvs\bluepill_f103c8\libd0a\libcocoOS_5.0.3.a(os_event.o)
 .text.event_last_signaled_get
                0x00000000        0xc .pioenvs\bluepill_f103c8\libd0a\libcocoOS_5.0.3.a(os_event.o)
 .text.os_wait_event
                0x00000000       0x28 .pioenvs\bluepill_f103c8\libd0a\libcocoOS_5.0.3.a(os_event.o)
 .text.os_signal_event
                0x00000000        0xc .pioenvs\bluepill_f103c8\libd0a\libcocoOS_5.0.3.a(os_event.o)
 .text.os_event_set_signaling_tid
                0x00000000       0x10 .pioenvs\bluepill_f103c8\libd0a\libcocoOS_5.0.3.a(os_event.o)
 .text.os_wait_multiple
                0x00000000       0x48 .pioenvs\bluepill_f103c8\libd0a\libcocoOS_5.0.3.a(os_event.o)
 .bss.eventList
                0x00000000        0xe .pioenvs\bluepill_f103c8\libd0a\libcocoOS_5.0.3.a(os_event.o)
 .data.lastSignaledEvent
                0x00000000        0x1 .pioenvs\bluepill_f103c8\libd0a\libcocoOS_5.0.3.a(os_event.o)
 .text          0x00000000        0x0 .pioenvs\bluepill_f103c8\libd0a\libcocoOS_5.0.3.a(os_kernel.o)
 .data          0x00000000        0x0 .pioenvs\bluepill_f103c8\libd0a\libcocoOS_5.0.3.a(os_kernel.o)
 .bss           0x00000000        0x0 .pioenvs\bluepill_f103c8\libd0a\libcocoOS_5.0.3.a(os_kernel.o)
 .text.os_schedule
                0x00000000       0x28 .pioenvs\bluepill_f103c8\libd0a\libcocoOS_5.0.3.a(os_kernel.o)
 .text.os_start
                0x00000000       0x14 .pioenvs\bluepill_f103c8\libd0a\libcocoOS_5.0.3.a(os_kernel.o)
 .text.os_tick  0x00000000        0x8 .pioenvs\bluepill_f103c8\libd0a\libcocoOS_5.0.3.a(os_kernel.o)
 .text.os_sub_tick
                0x00000000        0xa .pioenvs\bluepill_f103c8\libd0a\libcocoOS_5.0.3.a(os_kernel.o)
 .text.os_sub_nTick
                0x00000000        0x8 .pioenvs\bluepill_f103c8\libd0a\libcocoOS_5.0.3.a(os_kernel.o)
 .text.os_running
                0x00000000        0xc .pioenvs\bluepill_f103c8\libd0a\libcocoOS_5.0.3.a(os_kernel.o)
 .text.os_get_running_tid
                0x00000000        0xc .pioenvs\bluepill_f103c8\libd0a\libcocoOS_5.0.3.a(os_kernel.o)
 .text.os_run   0x00000000       0x10 .pioenvs\bluepill_f103c8\libd0a\libcocoOS_5.0.3.a(os_kernel.o)
 .text.os_run_until_taskState
                0x00000000       0x20 .pioenvs\bluepill_f103c8\libd0a\libcocoOS_5.0.3.a(os_kernel.o)
 .text.os_get_task_state
                0x00000000        0x4 .pioenvs\bluepill_f103c8\libd0a\libcocoOS_5.0.3.a(os_kernel.o)
 .text          0x00000000        0x0 .pioenvs\bluepill_f103c8\libd0a\libcocoOS_5.0.3.a(os_msgqueue.o)
 .data          0x00000000        0x0 .pioenvs\bluepill_f103c8\libd0a\libcocoOS_5.0.3.a(os_msgqueue.o)
 .bss           0x00000000        0x0 .pioenvs\bluepill_f103c8\libd0a\libcocoOS_5.0.3.a(os_msgqueue.o)
 .text.os_msgQ_create
                0x00000000       0x54 .pioenvs\bluepill_f103c8\libd0a\libcocoOS_5.0.3.a(os_msgqueue.o)
 .text.os_msgQ_find
                0x00000000       0x30 .pioenvs\bluepill_f103c8\libd0a\libcocoOS_5.0.3.a(os_msgqueue.o)
 .text.os_msgQ_event_get
                0x00000000       0x1c .pioenvs\bluepill_f103c8\libd0a\libcocoOS_5.0.3.a(os_msgqueue.o)
 .text.os_msg_post
                0x00000000       0x68 .pioenvs\bluepill_f103c8\libd0a\libcocoOS_5.0.3.a(os_msgqueue.o)
 .text.os_msg_receive
                0x00000000       0xe0 .pioenvs\bluepill_f103c8\libd0a\libcocoOS_5.0.3.a(os_msgqueue.o)
 .text.os_msgQ_tick
                0x00000000       0x54 .pioenvs\bluepill_f103c8\libd0a\libcocoOS_5.0.3.a(os_msgqueue.o)
 .text          0x00000000        0x0 .pioenvs\bluepill_f103c8\libd0a\libcocoOS_5.0.3.a(os_sem.o)
 .data          0x00000000        0x0 .pioenvs\bluepill_f103c8\libd0a\libcocoOS_5.0.3.a(os_sem.o)
 .bss           0x00000000        0x0 .pioenvs\bluepill_f103c8\libd0a\libcocoOS_5.0.3.a(os_sem.o)
 .text.sem_bin_create
                0x00000000       0x3c .pioenvs\bluepill_f103c8\libd0a\libcocoOS_5.0.3.a(os_sem.o)
 .text.sem_counting_create
                0x00000000       0x38 .pioenvs\bluepill_f103c8\libd0a\libcocoOS_5.0.3.a(os_sem.o)
 .text.os_sem_larger_than_zero
                0x00000000       0x14 .pioenvs\bluepill_f103c8\libd0a\libcocoOS_5.0.3.a(os_sem.o)
 .text.os_sem_decrement
                0x00000000       0x14 .pioenvs\bluepill_f103c8\libd0a\libcocoOS_5.0.3.a(os_sem.o)
 .text.os_sem_increment
                0x00000000       0x1c .pioenvs\bluepill_f103c8\libd0a\libcocoOS_5.0.3.a(os_sem.o)
 .bss.semList   0x00000000       0x18 .pioenvs\bluepill_f103c8\libd0a\libcocoOS_5.0.3.a(os_sem.o)
 .text          0x00000000        0x0 .pioenvs\bluepill_f103c8\libd0a\libcocoOS_5.0.3.a(os_task.o)
 .data          0x00000000        0x0 .pioenvs\bluepill_f103c8\libd0a\libcocoOS_5.0.3.a(os_task.o)
 .bss           0x00000000        0x0 .pioenvs\bluepill_f103c8\libd0a\libcocoOS_5.0.3.a(os_task.o)
 .text.task_create
                0x00000000       0xc0 .pioenvs\bluepill_f103c8\libd0a\libcocoOS_5.0.3.a(os_task.o)
 .text.task_state_get
                0x00000000       0x28 .pioenvs\bluepill_f103c8\libd0a\libcocoOS_5.0.3.a(os_task.o)
 .text.task_get_data
                0x00000000       0x18 .pioenvs\bluepill_f103c8\libd0a\libcocoOS_5.0.3.a(os_task.o)
 .text.os_task_highest_prio_ready_task
                0x00000000       0x34 .pioenvs\bluepill_f103c8\libd0a\libcocoOS_5.0.3.a(os_task.o)
 .text.os_task_next_ready_task
                0x00000000       0x54 .pioenvs\bluepill_f103c8\libd0a\libcocoOS_5.0.3.a(os_task.o)
 .text.os_task_release_waiting_task
                0x00000000       0x58 .pioenvs\bluepill_f103c8\libd0a\libcocoOS_5.0.3.a(os_task.o)
 .text.os_task_waiting_this_semaphore
                0x00000000       0x38 .pioenvs\bluepill_f103c8\libd0a\libcocoOS_5.0.3.a(os_task.o)
 .text.os_task_wait_sem_set
                0x00000000       0x34 .pioenvs\bluepill_f103c8\libd0a\libcocoOS_5.0.3.a(os_task.o)
 .text.os_task_ready_set
                0x00000000       0x2c .pioenvs\bluepill_f103c8\libd0a\libcocoOS_5.0.3.a(os_task.o)
 .text.os_task_suspend
                0x00000000       0x48 .pioenvs\bluepill_f103c8\libd0a\libcocoOS_5.0.3.a(os_task.o)
 .text.os_task_resume
                0x00000000       0x30 .pioenvs\bluepill_f103c8\libd0a\libcocoOS_5.0.3.a(os_task.o)
 .text.os_task_kill
                0x00000000       0x2c .pioenvs\bluepill_f103c8\libd0a\libcocoOS_5.0.3.a(os_task.o)
 .text.task_kill
                0x00000000        0x4 .pioenvs\bluepill_f103c8\libd0a\libcocoOS_5.0.3.a(os_task.o)
 .text.os_task_prio_get
                0x00000000       0x28 .pioenvs\bluepill_f103c8\libd0a\libcocoOS_5.0.3.a(os_task.o)
 .text.os_task_clear_wait_queue
                0x00000000       0x14 .pioenvs\bluepill_f103c8\libd0a\libcocoOS_5.0.3.a(os_task.o)
 .text.os_task_wait_time_set
                0x00000000       0x3c .pioenvs\bluepill_f103c8\libd0a\libcocoOS_5.0.3.a(os_task.o)
 .text.os_task_wait_event
                0x00000000       0x50 .pioenvs\bluepill_f103c8\libd0a\libcocoOS_5.0.3.a(os_task.o)
 .text.os_task_tick
                0x00000000       0x88 .pioenvs\bluepill_f103c8\libd0a\libcocoOS_5.0.3.a(os_task.o)
 .text.os_task_signal_event
                0x00000000       0x64 .pioenvs\bluepill_f103c8\libd0a\libcocoOS_5.0.3.a(os_task.o)
 .text.os_task_run
                0x00000000       0x34 .pioenvs\bluepill_f103c8\libd0a\libcocoOS_5.0.3.a(os_task.o)
 .text.os_task_internal_state_get
                0x00000000       0x10 .pioenvs\bluepill_f103c8\libd0a\libcocoOS_5.0.3.a(os_task.o)
 .text.os_task_internal_state_set
                0x00000000       0x10 .pioenvs\bluepill_f103c8\libd0a\libcocoOS_5.0.3.a(os_task.o)
 .text.os_task_msgQ_get
                0x00000000       0x10 .pioenvs\bluepill_f103c8\libd0a\libcocoOS_5.0.3.a(os_task.o)
 .text.os_task_set_wait_queue
                0x00000000       0x10 .pioenvs\bluepill_f103c8\libd0a\libcocoOS_5.0.3.a(os_task.o)
 .text.os_task_get_wait_queue
                0x00000000       0x10 .pioenvs\bluepill_f103c8\libd0a\libcocoOS_5.0.3.a(os_task.o)
 .text.os_task_set_change_event
                0x00000000       0x10 .pioenvs\bluepill_f103c8\libd0a\libcocoOS_5.0.3.a(os_task.o)
 .text.os_task_get_change_event
                0x00000000       0x10 .pioenvs\bluepill_f103c8\libd0a\libcocoOS_5.0.3.a(os_task.o)
 .text.os_task_set_msg_result
                0x00000000       0x10 .pioenvs\bluepill_f103c8\libd0a\libcocoOS_5.0.3.a(os_task.o)
 .text.os_task_get_msg_result
                0x00000000       0x10 .pioenvs\bluepill_f103c8\libd0a\libcocoOS_5.0.3.a(os_task.o)
 .text.os_task_timeout_get
                0x00000000       0x10 .pioenvs\bluepill_f103c8\libd0a\libcocoOS_5.0.3.a(os_task.o)
 .text          0x00000000        0x0 .pioenvs\bluepill_f103c8\libd0a\libcocoOS_5.0.3.a(os_assert.o)
 .data          0x00000000        0x0 .pioenvs\bluepill_f103c8\libd0a\libcocoOS_5.0.3.a(os_assert.o)
 .bss           0x00000000        0x0 .pioenvs\bluepill_f103c8\libd0a\libcocoOS_5.0.3.a(os_assert.o)
 .text.os_on_assert
                0x00000000       0x10 .pioenvs\bluepill_f103c8\libd0a\libcocoOS_5.0.3.a(os_assert.o)
 .bss.l.4346    0x00000000        0x2 .pioenvs\bluepill_f103c8\libd0a\libcocoOS_5.0.3.a(os_assert.o)
 .comment       0x00000000       0x7f .pioenvs\bluepill_f103c8\libd0a\libcocoOS_5.0.3.a(os_assert.o)
 .ARM.attributes
                0x00000000       0x33 .pioenvs\bluepill_f103c8\libd0a\libcocoOS_5.0.3.a(os_assert.o)
 .text          0x00000000        0x0 .pioenvs\bluepill_f103c8\libd0a\libcocoOS_5.0.3.a(os_cbk.o)
 .data          0x00000000        0x0 .pioenvs\bluepill_f103c8\libd0a\libcocoOS_5.0.3.a(os_cbk.o)
 .bss           0x00000000        0x0 .pioenvs\bluepill_f103c8\libd0a\libcocoOS_5.0.3.a(os_cbk.o)
 .text.os_cbkSleep
                0x00000000        0x2 .pioenvs\bluepill_f103c8\libd0a\libcocoOS_5.0.3.a(os_cbk.o)
 .comment       0x00000000       0x7f .pioenvs\bluepill_f103c8\libd0a\libcocoOS_5.0.3.a(os_cbk.o)
 .ARM.attributes
                0x00000000       0x33 .pioenvs\bluepill_f103c8\libd0a\libcocoOS_5.0.3.a(os_cbk.o)
 .text          0x00000000        0x0 .pioenvs\bluepill_f103c8\liba13\libnewlib.a(memcpy.o)
 .data          0x00000000        0x0 .pioenvs\bluepill_f103c8\liba13\libnewlib.a(memcpy.o)
 .bss           0x00000000        0x0 .pioenvs\bluepill_f103c8\liba13\libnewlib.a(memcpy.o)
 .text          0x00000000        0x0 .pioenvs\bluepill_f103c8\liba13\libnewlib.a(memset.o)
 .data          0x00000000        0x0 .pioenvs\bluepill_f103c8\liba13\libnewlib.a(memset.o)
 .bss           0x00000000        0x0 .pioenvs\bluepill_f103c8\liba13\libnewlib.a(memset.o)
 .text          0x00000000        0x0 .pioenvs\bluepill_f103c8\liba13\libnewlib.a(strlen.o)
 .data          0x00000000        0x0 .pioenvs\bluepill_f103c8\liba13\libnewlib.a(strlen.o)
 .bss           0x00000000        0x0 .pioenvs\bluepill_f103c8\liba13\libnewlib.a(strlen.o)
 .text          0x00000000        0x0 .pioenvs\bluepill_f103c8\liba13\libnewlib.a(strncat.o)
 .data          0x00000000        0x0 .pioenvs\bluepill_f103c8\liba13\libnewlib.a(strncat.o)
 .bss           0x00000000        0x0 .pioenvs\bluepill_f103c8\liba13\libnewlib.a(strncat.o)
 .text          0x00000000        0x0 .pioenvs\bluepill_f103c8\liba13\libnewlib.a(strncmp.o)
 .data          0x00000000        0x0 .pioenvs\bluepill_f103c8\liba13\libnewlib.a(strncmp.o)
 .bss           0x00000000        0x0 .pioenvs\bluepill_f103c8\liba13\libnewlib.a(strncmp.o)
 .text.strncmp  0x00000000       0x24 .pioenvs\bluepill_f103c8\liba13\libnewlib.a(strncmp.o)
 .comment       0x00000000       0x7f .pioenvs\bluepill_f103c8\liba13\libnewlib.a(strncmp.o)
 .ARM.attributes
                0x00000000       0x33 .pioenvs\bluepill_f103c8\liba13\libnewlib.a(strncmp.o)
 .text          0x00000000        0x0 .pioenvs\bluepill_f103c8\liba13\libnewlib.a(strncpy.o)
 .data          0x00000000        0x0 .pioenvs\bluepill_f103c8\liba13\libnewlib.a(strncpy.o)
 .bss           0x00000000        0x0 .pioenvs\bluepill_f103c8\liba13\libnewlib.a(strncpy.o)
 .text          0x00000000        0x0 .pioenvs\bluepill_f103c8\liba13\libnewlib.a(strstr.o)
 .data          0x00000000        0x0 .pioenvs\bluepill_f103c8\liba13\libnewlib.a(strstr.o)
 .bss           0x00000000        0x0 .pioenvs\bluepill_f103c8\liba13\libnewlib.a(strstr.o)
 .text.strstr   0x00000000       0x2e .pioenvs\bluepill_f103c8\liba13\libnewlib.a(strstr.o)
 .comment       0x00000000       0x7f .pioenvs\bluepill_f103c8\liba13\libnewlib.a(strstr.o)
 .ARM.attributes
                0x00000000       0x33 .pioenvs\bluepill_f103c8\liba13\libnewlib.a(strstr.o)
 .text          0x00000000        0x0 .pioenvs\bluepill_f103c8\lib0e4\libunity.a(unity.o)
 .data          0x00000000        0x0 .pioenvs\bluepill_f103c8\lib0e4\libunity.a(unity.o)
 .bss           0x00000000        0x0 .pioenvs\bluepill_f103c8\lib0e4\libunity.a(unity.o)
 .text.suiteSetUp
                0x00000000        0x2 .pioenvs\bluepill_f103c8\lib0e4\libunity.a(unity.o)
 .text.suiteTearDown
                0x00000000        0x2 .pioenvs\bluepill_f103c8\lib0e4\libunity.a(unity.o)
 .text.UnityIsOneArrayNull
                0x00000000       0x38 .pioenvs\bluepill_f103c8\lib0e4\libunity.a(unity.o)
 .text.UnityPrintExpectedAndActualStrings
                0x00000000       0x5c .pioenvs\bluepill_f103c8\lib0e4\libunity.a(unity.o)
 .text.UnityPrintLen
                0x00000000       0x58 .pioenvs\bluepill_f103c8\lib0e4\libunity.a(unity.o)
 .text.UnityPrintMask
                0x00000000       0x2a .pioenvs\bluepill_f103c8\lib0e4\libunity.a(unity.o)
 .text.UnityAssertBits
                0x00000000       0x5c .pioenvs\bluepill_f103c8\lib0e4\libunity.a(unity.o)
 .text.UnityAssertGreaterOrLessOrEqualNumber
                0x00000000       0xc0 .pioenvs\bluepill_f103c8\lib0e4\libunity.a(unity.o)
 .text.UnityAssertEqualIntArray
                0x00000000      0x108 .pioenvs\bluepill_f103c8\lib0e4\libunity.a(unity.o)
 .text.UnityAssertEqualFloatArray
                0x00000000       0xe4 .pioenvs\bluepill_f103c8\lib0e4\libunity.a(unity.o)
 .text.UnityAssertFloatSpecial
                0x00000000      0x130 .pioenvs\bluepill_f103c8\lib0e4\libunity.a(unity.o)
 .text.UnityAssertEqualDoubleArray
                0x00000000       0xe4 .pioenvs\bluepill_f103c8\lib0e4\libunity.a(unity.o)
 .text.UnityAssertDoubleSpecial
                0x00000000      0x168 .pioenvs\bluepill_f103c8\lib0e4\libunity.a(unity.o)
 .text.UnityAssertNumbersWithin
                0x00000000       0x98 .pioenvs\bluepill_f103c8\lib0e4\libunity.a(unity.o)
 .text.UnityAssertEqualString
                0x00000000       0x60 .pioenvs\bluepill_f103c8\lib0e4\libunity.a(unity.o)
 .text.UnityAssertEqualStringLen
                0x00000000       0xb0 .pioenvs\bluepill_f103c8\lib0e4\libunity.a(unity.o)
 .text.UnityAssertEqualStringArray
                0x00000000       0xd8 .pioenvs\bluepill_f103c8\lib0e4\libunity.a(unity.o)
 .text.UnityAssertEqualMemory
                0x00000000      0x108 .pioenvs\bluepill_f103c8\lib0e4\libunity.a(unity.o)
 .text.UnityNumToPtr
                0x00000000       0x1c .pioenvs\bluepill_f103c8\lib0e4\libunity.a(unity.o)
 .text.UnityFloatToPtr
                0x00000000        0xc .pioenvs\bluepill_f103c8\lib0e4\libunity.a(unity.o)
 .text.UnityDoubleToPtr
                0x00000000       0x10 .pioenvs\bluepill_f103c8\lib0e4\libunity.a(unity.o)
 .text.UnityFail
                0x00000000       0x74 .pioenvs\bluepill_f103c8\lib0e4\libunity.a(unity.o)
 .text.UnityIgnore
                0x00000000       0x3c .pioenvs\bluepill_f103c8\lib0e4\libunity.a(unity.o)
 .rodata        0x00000000       0x10 .pioenvs\bluepill_f103c8\lib0e4\libunity.a(unity.o)
 .bss.UnityQuickCompare
                0x00000000        0x8 .pioenvs\bluepill_f103c8\lib0e4\libunity.a(unity.o)
 .rodata.UnityStrByte
                0x00000000        0x7 .pioenvs\bluepill_f103c8\lib0e4\libunity.a(unity.o)
 .rodata.UnityStrDelta
                0x00000000       0x1a .pioenvs\bluepill_f103c8\lib0e4\libunity.a(unity.o)
 .rodata.UnityStrDet
                0x00000000        0xc .pioenvs\bluepill_f103c8\lib0e4\libunity.a(unity.o)
 .rodata.UnityStrElement
                0x00000000        0xa .pioenvs\bluepill_f103c8\lib0e4\libunity.a(unity.o)
 .rodata.UnityStrErr64
                0x00000000       0x1e .pioenvs\bluepill_f103c8\lib0e4\libunity.a(unity.o)
 .rodata.UnityStrErrDouble
                0x00000000       0x20 .pioenvs\bluepill_f103c8\lib0e4\libunity.a(unity.o)
 .rodata.UnityStrErrFloat
                0x00000000       0x1e .pioenvs\bluepill_f103c8\lib0e4\libunity.a(unity.o)
 .rodata.UnityStrGt
                0x00000000       0x15 .pioenvs\bluepill_f103c8\lib0e4\libunity.a(unity.o)
 .rodata.UnityStrIgnore
                0x00000000        0x7 .pioenvs\bluepill_f103c8\lib0e4\libunity.a(unity.o)
 .rodata.UnityStrInf
                0x00000000        0x9 .pioenvs\bluepill_f103c8\lib0e4\libunity.a(unity.o)
 .rodata.UnityStrInvalidFloatTrait
                0x00000000       0x14 .pioenvs\bluepill_f103c8\lib0e4\libunity.a(unity.o)
 .rodata.UnityStrLt
                0x00000000       0x12 .pioenvs\bluepill_f103c8\lib0e4\libunity.a(unity.o)
 .rodata.UnityStrMemory
                0x00000000       0x12 .pioenvs\bluepill_f103c8\lib0e4\libunity.a(unity.o)
 .rodata.UnityStrNaN
                0x00000000        0x4 .pioenvs\bluepill_f103c8\lib0e4\libunity.a(unity.o)
 .rodata.UnityStrNegInf
                0x00000000       0x12 .pioenvs\bluepill_f103c8\lib0e4\libunity.a(unity.o)
 .rodata.UnityStrNot
                0x00000000        0x5 .pioenvs\bluepill_f103c8\lib0e4\libunity.a(unity.o)
 .rodata.UnityStrNull
                0x00000000        0x5 .pioenvs\bluepill_f103c8\lib0e4\libunity.a(unity.o)
 .rodata.UnityStrNullPointerForActual
                0x00000000       0x19 .pioenvs\bluepill_f103c8\lib0e4\libunity.a(unity.o)
 .rodata.UnityStrNullPointerForExpected
                0x00000000       0x1d .pioenvs\bluepill_f103c8\lib0e4\libunity.a(unity.o)
 .rodata.UnityStrOrEqual
                0x00000000        0xd .pioenvs\bluepill_f103c8\lib0e4\libunity.a(unity.o)
 .rodata.UnityStrPointless
                0x00000000       0x37 .pioenvs\bluepill_f103c8\lib0e4\libunity.a(unity.o)
 .text          0x00000000        0x0 .pioenvs\bluepill_f103c8\libc64\libnano-float.a(functions.o)
 .data          0x00000000        0x0 .pioenvs\bluepill_f103c8\libc64\libnano-float.a(functions.o)
 .bss           0x00000000        0x0 .pioenvs\bluepill_f103c8\libc64\libnano-float.a(functions.o)
 .text.fabs     0x00000000       0x74 .pioenvs\bluepill_f103c8\libc64\libnano-float.a(functions.o)
 .group         0x00000000        0x8 .pioenvs\bluepill_f103c8\lib24c\libcm.a(CmPin.o)
 .group         0x00000000        0x8 .pioenvs\bluepill_f103c8\lib24c\libcm.a(CmPin.o)
 .group         0x00000000        0x8 .pioenvs\bluepill_f103c8\lib24c\libcm.a(CmPin.o)
 .text          0x00000000        0x0 .pioenvs\bluepill_f103c8\lib24c\libcm.a(CmPin.o)
 .data          0x00000000        0x0 .pioenvs\bluepill_f103c8\lib24c\libcm.a(CmPin.o)
 .bss           0x00000000        0x0 .pioenvs\bluepill_f103c8\lib24c\libcm.a(CmPin.o)
 .text._ZN5codal3_cm3PinC2Ei7PinNameNS_13PinCapabilityE
                0x00000000       0x54 .pioenvs\bluepill_f103c8\lib24c\libcm.a(CmPin.o)
 .text._ZN5codal3_cm3Pin10disconnectEv
                0x00000000        0x6 .pioenvs\bluepill_f103c8\lib24c\libcm.a(CmPin.o)
 .text._ZN5codal3_cm3Pin19obtainAnalogChannelEv
                0x00000000        0x4 .pioenvs\bluepill_f103c8\lib24c\libcm.a(CmPin.o)
 .text._ZN5codal3_cm3Pin15setServoPulseUsEi
                0x00000000        0x4 .pioenvs\bluepill_f103c8\lib24c\libcm.a(CmPin.o)
 .text._ZN5codal3_cm3Pin15pulseWidthEventEi
                0x00000000        0x2 .pioenvs\bluepill_f103c8\lib24c\libcm.a(CmPin.o)
 .text._ZN5codal3_cm3Pin6onRiseEv
                0x00000000       0x1a .pioenvs\bluepill_f103c8\lib24c\libcm.a(CmPin.o)
 .text._ZN5codal3_cm3Pin6onFallEv
                0x00000000       0x1a .pioenvs\bluepill_f103c8\lib24c\libcm.a(CmPin.o)
 .text._ZN5codal3_cm3Pin20enableRiseFallEventsEi
                0x00000000        0x4 .pioenvs\bluepill_f103c8\lib24c\libcm.a(CmPin.o)
 .rodata._ZN5codal3_cm3PinC2Ei7PinNameNS_13PinCapabilityE.str1.1
                0x00000000       0x17 .pioenvs\bluepill_f103c8\lib24c\libcm.a(CmPin.o)
 .text          0x00000000        0x0 .pioenvs\bluepill_f103c8\lib24c\libcm.a(codal_target_hal.o)
 .data          0x00000000        0x0 .pioenvs\bluepill_f103c8\lib24c\libcm.a(codal_target_hal.o)
 .bss           0x00000000        0x0 .pioenvs\bluepill_f103c8\lib24c\libcm.a(codal_target_hal.o)
 .text.target_disable_debug
                0x00000000        0x4 .pioenvs\bluepill_f103c8\lib24c\libcm.a(codal_target_hal.o)
 .text.target_reset
                0x00000000       0x14 .pioenvs\bluepill_f103c8\lib24c\libcm.a(codal_target_hal.o)
 .text.target_in_isr
                0x00000000       0x10 .pioenvs\bluepill_f103c8\lib24c\libcm.a(codal_target_hal.o)
 .text.target_enter_sleep_mode
                0x00000000       0x1c .pioenvs\bluepill_f103c8\lib24c\libcm.a(codal_target_hal.o)
 .text.target_enter_deep_sleep_stop_mode
                0x00000000       0x1c .pioenvs\bluepill_f103c8\lib24c\libcm.a(codal_target_hal.o)
 .text.target_enter_deep_sleep_standby_mode
                0x00000000       0x1c .pioenvs\bluepill_f103c8\lib24c\libcm.a(codal_target_hal.o)
 .text.target_seed_random
                0x00000000        0x4 .pioenvs\bluepill_f103c8\lib24c\libcm.a(codal_target_hal.o)
 .text.target_random
                0x00000000        0x4 .pioenvs\bluepill_f103c8\lib24c\libcm.a(codal_target_hal.o)
 .text.target_get_serial
                0x00000000        0xc .pioenvs\bluepill_f103c8\lib24c\libcm.a(codal_target_hal.o)
 .text.assert_failed
                0x00000000        0xc .pioenvs\bluepill_f103c8\lib24c\libcm.a(codal_target_hal.o)
 .rodata.target_reset.str1.1
                0x00000000       0x11 .pioenvs\bluepill_f103c8\lib24c\libcm.a(codal_target_hal.o)
 .group         0x00000000        0x8 .pioenvs\bluepill_f103c8\libff7\libbluepill.a(STM32BluePill.o)
 .group         0x00000000        0x8 .pioenvs\bluepill_f103c8\libff7\libbluepill.a(STM32BluePill.o)
 .group         0x00000000        0x8 .pioenvs\bluepill_f103c8\libff7\libbluepill.a(STM32BluePill.o)
 .group         0x00000000       0x14 .pioenvs\bluepill_f103c8\libff7\libbluepill.a(STM32BluePill.o)
 .group         0x00000000       0x14 .pioenvs\bluepill_f103c8\libff7\libbluepill.a(STM32BluePill.o)
 .group         0x00000000        0xc .pioenvs\bluepill_f103c8\libff7\libbluepill.a(STM32BluePill.o)
 .text          0x00000000        0x0 .pioenvs\bluepill_f103c8\libff7\libbluepill.a(STM32BluePill.o)
 .data          0x00000000        0x0 .pioenvs\bluepill_f103c8\libff7\libbluepill.a(STM32BluePill.o)
 .bss           0x00000000        0x0 .pioenvs\bluepill_f103c8\libff7\libbluepill.a(STM32BluePill.o)
 .text._ZN5codal13STM32BluePill11enableDebugEv
                0x00000000        0x4 .pioenvs\bluepill_f103c8\libff7\libbluepill.a(STM32BluePill.o)
 .text._ZN5codal13STM32BluePill12disableDebugEv
                0x00000000        0x4 .pioenvs\bluepill_f103c8\libff7\libbluepill.a(STM32BluePill.o)
 .text          0x00000000        0x0 .pioenvs\bluepill_f103c8\libff7\libbluepill.a(STM32BluePillIO.o)
 .data          0x00000000        0x0 .pioenvs\bluepill_f103c8\libff7\libbluepill.a(STM32BluePillIO.o)
 .bss           0x00000000        0x0 .pioenvs\bluepill_f103c8\libff7\libbluepill.a(STM32BluePillIO.o)
 .rodata.PinMap_I2C_SCL
                0x00000000       0x30 .pioenvs\bluepill_f103c8\libff7\libbluepill.a(STM32BluePillIO.o)
 .rodata.PinMap_I2C_SDA
                0x00000000       0x30 .pioenvs\bluepill_f103c8\libff7\libbluepill.a(STM32BluePillIO.o)
 .rodata.PinMap_UART_RX
                0x00000000       0x24 .pioenvs\bluepill_f103c8\libff7\libbluepill.a(STM32BluePillIO.o)
 .rodata.PinMap_UART_TX
                0x00000000       0x24 .pioenvs\bluepill_f103c8\libff7\libbluepill.a(STM32BluePillIO.o)
 .text          0x00000000        0x0 .pioenvs\bluepill_f103c8\libff7\libbluepill.a(bluepill.o)
 .data          0x00000000        0x0 .pioenvs\bluepill_f103c8\libff7\libbluepill.a(bluepill.o)
 .bss           0x00000000        0x0 .pioenvs\bluepill_f103c8\libff7\libbluepill.a(bluepill.o)
 .text.disable_debug
                0x00000000       0x10 .pioenvs\bluepill_f103c8\libff7\libbluepill.a(bluepill.o)
 .text.convert_pin_to_port
                0x00000000       0x14 .pioenvs\bluepill_f103c8\libff7\libbluepill.a(bluepill.o)
 .text.convert_port_to_pin
                0x00000000       0x4c .pioenvs\bluepill_f103c8\libff7\libbluepill.a(bluepill.o)
 .rodata._ZL7allPins
                0x00000000       0x1c .pioenvs\bluepill_f103c8\libff7\libbluepill.a(bluepill.o)
 .text          0x00000000        0x0 .pioenvs\bluepill_f103c8\libff7\libbluepill.a(led.o)
 .data          0x00000000        0x0 .pioenvs\bluepill_f103c8\libff7\libbluepill.a(led.o)
 .bss           0x00000000        0x0 .pioenvs\bluepill_f103c8\libff7\libbluepill.a(led.o)
 .text.led_toggle
                0x00000000       0x10 .pioenvs\bluepill_f103c8\libff7\libbluepill.a(led.o)
 .text          0x00000000        0x0 .pioenvs\bluepill_f103c8\libff7\libbluepill.a(timer.o)
 .data          0x00000000        0x0 .pioenvs\bluepill_f103c8\libff7\libbluepill.a(timer.o)
 .bss           0x00000000        0x0 .pioenvs\bluepill_f103c8\libff7\libbluepill.a(timer.o)
 .text.platform_get_alarm
                0x00000000        0x4 .pioenvs\bluepill_f103c8\libff7\libbluepill.a(timer.o)
 .text          0x00000000        0x0 .pioenvs\bluepill_f103c8\lib443\libbootloader.a(bootloader.o)
 .data          0x00000000        0x0 .pioenvs\bluepill_f103c8\lib443\libbootloader.a(bootloader.o)
 .bss           0x00000000        0x0 .pioenvs\bluepill_f103c8\lib443\libbootloader.a(bootloader.o)
 .text.validate_application
                0x00000000       0x1c .pioenvs\bluepill_f103c8\lib443\libbootloader.a(bootloader.o)
 .text          0x00000000        0x0 .pioenvs\bluepill_f103c8\lib443\libbootloader.a(target_stm32f103.o)
 .data          0x00000000        0x0 .pioenvs\bluepill_f103c8\lib443\libbootloader.a(target_stm32f103.o)
 .bss           0x00000000        0x0 .pioenvs\bluepill_f103c8\lib443\libbootloader.a(target_stm32f103.o)
 .text.target_clock_setup
                0x00000000        0x4 .pioenvs\bluepill_f103c8\lib443\libbootloader.a(target_stm32f103.o)
 .text.target_manifest_app
                0x00000000       0x14 .pioenvs\bluepill_f103c8\lib443\libbootloader.a(target_stm32f103.o)
 .text.target_get_force_app
                0x00000000       0x24 .pioenvs\bluepill_f103c8\lib443\libbootloader.a(target_stm32f103.o)
 .text.target_get_max_firmware_size
                0x00000000        0x6 .pioenvs\bluepill_f103c8\lib443\libbootloader.a(target_stm32f103.o)
 .text.target_relocate_vector_table
                0x00000000       0x10 .pioenvs\bluepill_f103c8\lib443\libbootloader.a(target_stm32f103.o)
 .text          0x00000000        0x0 .pioenvs\bluepill_f103c8\lib443\libbootloader.a(usb_conf.o)
 .data          0x00000000        0x0 .pioenvs\bluepill_f103c8\lib443\libbootloader.a(usb_conf.o)
 .bss           0x00000000        0x0 .pioenvs\bluepill_f103c8\lib443\libbootloader.a(usb_conf.o)
 .data.device_address
                0x00000000        0x2 .pioenvs\bluepill_f103c8\lib443\libbootloader.a(usb_conf.o)
 .text          0x00000000        0x0 .pioenvs\bluepill_f103c8\lib443\libbootloader.a(webusb.o)
 .data          0x00000000        0x0 .pioenvs\bluepill_f103c8\lib443\libbootloader.a(webusb.o)
 .bss           0x00000000        0x0 .pioenvs\bluepill_f103c8\lib443\libbootloader.a(webusb.o)
 .rodata.webusb_platform_capability_descriptor_no_landing_page
                0x00000000       0x18 .pioenvs\bluepill_f103c8\lib443\libbootloader.a(webusb.o)
 .text          0x00000000        0x0 .pioenvs\bluepill_f103c8\lib443\libbootloader.a(winusb.o)
 .data          0x00000000        0x0 .pioenvs\bluepill_f103c8\lib443\libbootloader.a(winusb.o)
 .bss           0x00000000        0x0 .pioenvs\bluepill_f103c8\lib443\libbootloader.a(winusb.o)
 .text          0x00000000        0x0 .pioenvs\bluepill_f103c8\lib443\libbootloader.a(cdc.o)
 .data          0x00000000        0x0 .pioenvs\bluepill_f103c8\lib443\libbootloader.a(cdc.o)
 .bss           0x00000000        0x0 .pioenvs\bluepill_f103c8\lib443\libbootloader.a(cdc.o)
 .text          0x00000000        0x0 .pioenvs\bluepill_f103c8\lib443\libbootloader.a(hf2.o)
 .data          0x00000000        0x0 .pioenvs\bluepill_f103c8\lib443\libbootloader.a(hf2.o)
 .bss           0x00000000        0x0 .pioenvs\bluepill_f103c8\lib443\libbootloader.a(hf2.o)
 .text          0x00000000        0x0 .pioenvs\bluepill_f103c8\lib443\libbootloader.a(backup.o)
 .data          0x00000000        0x0 .pioenvs\bluepill_f103c8\lib443\libbootloader.a(backup.o)
 .bss           0x00000000        0x0 .pioenvs\bluepill_f103c8\lib443\libbootloader.a(backup.o)
 .text          0x00000000        0x0 .pioenvs\bluepill_f103c8\lib443\libbootloader.a(usb21_standard.o)
 .data          0x00000000        0x0 .pioenvs\bluepill_f103c8\lib443\libbootloader.a(usb21_standard.o)
 .bss           0x00000000        0x0 .pioenvs\bluepill_f103c8\lib443\libbootloader.a(usb21_standard.o)
 .text          0x00000000        0x0 .pioenvs\bluepill_f103c8\lib443\libbootloader.a(ghostfat.o)
 .data          0x00000000        0x0 .pioenvs\bluepill_f103c8\lib443\libbootloader.a(ghostfat.o)
 .bss           0x00000000        0x0 .pioenvs\bluepill_f103c8\lib443\libbootloader.a(ghostfat.o)
 .text.ghostfat_1ms
                0x00000000       0x50 .pioenvs\bluepill_f103c8\lib443\libbootloader.a(ghostfat.o)
 .text.read_block
                0x00000000      0x170 .pioenvs\bluepill_f103c8\lib443\libbootloader.a(ghostfat.o)
 .text.write_block
                0x00000000      0x120 .pioenvs\bluepill_f103c8\lib443\libbootloader.a(ghostfat.o)
 .bss.resetTime
                0x00000000        0x4 .pioenvs\bluepill_f103c8\lib443\libbootloader.a(ghostfat.o)
 .rodata.BootBlock
                0x00000000       0x3e .pioenvs\bluepill_f103c8\lib443\libbootloader.a(ghostfat.o)
 .rodata.ghostfat_1ms.str1.1
                0x00000000       0x21 .pioenvs\bluepill_f103c8\lib443\libbootloader.a(ghostfat.o)
 .rodata.indexFile
                0x00000000       0x74 .pioenvs\bluepill_f103c8\lib443\libbootloader.a(ghostfat.o)
 .rodata.info   0x00000000       0x30 .pioenvs\bluepill_f103c8\lib443\libbootloader.a(ghostfat.o)
 .rodata.write_block.str1.1
                0x00000000       0x29 .pioenvs\bluepill_f103c8\lib443\libbootloader.a(ghostfat.o)
 COMMON         0x00000000       0x38 .pioenvs\bluepill_f103c8\lib443\libbootloader.a(ghostfat.o)
 .text          0x00000000        0x0 .pioenvs\bluepill_f103c8\lib492\libuartint.a(uartint.o)
 .data          0x00000000        0x0 .pioenvs\bluepill_f103c8\lib492\libuartint.a(uartint.o)
 .bss           0x00000000        0x0 .pioenvs\bluepill_f103c8\lib492\libuartint.a(uartint.o)
 .text._ZN13UARTInterface5beginEt
                0x00000000       0x88 .pioenvs\bluepill_f103c8\lib492\libuartint.a(uartint.o)
 .text._ZN13UARTInterface6listenEv
                0x00000000       0x24 .pioenvs\bluepill_f103c8\lib492\libuartint.a(uartint.o)
 .text._ZN13UARTInterface3endEv
                0x00000000       0x34 .pioenvs\bluepill_f103c8\lib492\libuartint.a(uartint.o)
 .text._ZN13UARTInterface9availableEv
                0x00000000       0x18 .pioenvs\bluepill_f103c8\lib492\libuartint.a(uartint.o)
 .text._ZN13UARTInterface4readEv
                0x00000000       0x30 .pioenvs\bluepill_f103c8\lib492\libuartint.a(uartint.o)
 .text._ZN13UARTInterface5writeEh
                0x00000000        0xc .pioenvs\bluepill_f103c8\lib492\libuartint.a(uartint.o)
 .rodata._ZN13UARTInterface3endEv.str1.1
                0x00000000        0xc .pioenvs\bluepill_f103c8\lib492\libuartint.a(uartint.o)
 .rodata._ZN13UARTInterface5beginEt.str1.1
                0x00000000        0xe .pioenvs\bluepill_f103c8\lib492\libuartint.a(uartint.o)
 .data          0x00000000        0x0 c:/users/guppy/.platformio/packages/toolchain-gccarmnoneeabi/bin/../lib/gcc/arm-none-eabi/7.2.1/thumb/v7-m\libgcc.a(_arm_addsubdf3.o)
 .bss           0x00000000        0x0 c:/users/guppy/.platformio/packages/toolchain-gccarmnoneeabi/bin/../lib/gcc/arm-none-eabi/7.2.1/thumb/v7-m\libgcc.a(_arm_addsubdf3.o)
 .data          0x00000000        0x0 c:/users/guppy/.platformio/packages/toolchain-gccarmnoneeabi/bin/../lib/gcc/arm-none-eabi/7.2.1/thumb/v7-m\libgcc.a(_arm_muldivdf3.o)
 .bss           0x00000000        0x0 c:/users/guppy/.platformio/packages/toolchain-gccarmnoneeabi/bin/../lib/gcc/arm-none-eabi/7.2.1/thumb/v7-m\libgcc.a(_arm_muldivdf3.o)
 .data          0x00000000        0x0 c:/users/guppy/.platformio/packages/toolchain-gccarmnoneeabi/bin/../lib/gcc/arm-none-eabi/7.2.1/thumb/v7-m\libgcc.a(_arm_cmpdf2.o)
 .bss           0x00000000        0x0 c:/users/guppy/.platformio/packages/toolchain-gccarmnoneeabi/bin/../lib/gcc/arm-none-eabi/7.2.1/thumb/v7-m\libgcc.a(_arm_cmpdf2.o)
 .data          0x00000000        0x0 c:/users/guppy/.platformio/packages/toolchain-gccarmnoneeabi/bin/../lib/gcc/arm-none-eabi/7.2.1/thumb/v7-m\libgcc.a(_arm_unorddf2.o)
 .bss           0x00000000        0x0 c:/users/guppy/.platformio/packages/toolchain-gccarmnoneeabi/bin/../lib/gcc/arm-none-eabi/7.2.1/thumb/v7-m\libgcc.a(_arm_unorddf2.o)
 .data          0x00000000        0x0 c:/users/guppy/.platformio/packages/toolchain-gccarmnoneeabi/bin/../lib/gcc/arm-none-eabi/7.2.1/thumb/v7-m\libgcc.a(_arm_fixdfsi.o)
 .bss           0x00000000        0x0 c:/users/guppy/.platformio/packages/toolchain-gccarmnoneeabi/bin/../lib/gcc/arm-none-eabi/7.2.1/thumb/v7-m\libgcc.a(_arm_fixdfsi.o)
 .data          0x00000000        0x0 c:/users/guppy/.platformio/packages/toolchain-gccarmnoneeabi/bin/../lib/gcc/arm-none-eabi/7.2.1/thumb/v7-m\libgcc.a(_arm_truncdfsf2.o)
 .bss           0x00000000        0x0 c:/users/guppy/.platformio/packages/toolchain-gccarmnoneeabi/bin/../lib/gcc/arm-none-eabi/7.2.1/thumb/v7-m\libgcc.a(_arm_truncdfsf2.o)
 .data          0x00000000        0x0 c:/users/guppy/.platformio/packages/toolchain-gccarmnoneeabi/bin/../lib/gcc/arm-none-eabi/7.2.1/thumb/v7-m\libgcc.a(_arm_addsubsf3.o)
 .bss           0x00000000        0x0 c:/users/guppy/.platformio/packages/toolchain-gccarmnoneeabi/bin/../lib/gcc/arm-none-eabi/7.2.1/thumb/v7-m\libgcc.a(_arm_addsubsf3.o)
 .data          0x00000000        0x0 c:/users/guppy/.platformio/packages/toolchain-gccarmnoneeabi/bin/../lib/gcc/arm-none-eabi/7.2.1/thumb/v7-m\libgcc.a(_arm_muldivsf3.o)
 .bss           0x00000000        0x0 c:/users/guppy/.platformio/packages/toolchain-gccarmnoneeabi/bin/../lib/gcc/arm-none-eabi/7.2.1/thumb/v7-m\libgcc.a(_arm_muldivsf3.o)
 .data          0x00000000        0x0 c:/users/guppy/.platformio/packages/toolchain-gccarmnoneeabi/bin/../lib/gcc/arm-none-eabi/7.2.1/thumb/v7-m\libgcc.a(_arm_cmpsf2.o)
 .bss           0x00000000        0x0 c:/users/guppy/.platformio/packages/toolchain-gccarmnoneeabi/bin/../lib/gcc/arm-none-eabi/7.2.1/thumb/v7-m\libgcc.a(_arm_cmpsf2.o)
 .text          0x00000000       0x4c c:/users/guppy/.platformio/packages/toolchain-gccarmnoneeabi/bin/../lib/gcc/arm-none-eabi/7.2.1/thumb/v7-m\libgcc.a(_arm_fixsfsi.o)
 .data          0x00000000        0x0 c:/users/guppy/.platformio/packages/toolchain-gccarmnoneeabi/bin/../lib/gcc/arm-none-eabi/7.2.1/thumb/v7-m\libgcc.a(_arm_fixsfsi.o)
 .bss           0x00000000        0x0 c:/users/guppy/.platformio/packages/toolchain-gccarmnoneeabi/bin/../lib/gcc/arm-none-eabi/7.2.1/thumb/v7-m\libgcc.a(_arm_fixsfsi.o)
 .debug_frame   0x00000000       0x24 c:/users/guppy/.platformio/packages/toolchain-gccarmnoneeabi/bin/../lib/gcc/arm-none-eabi/7.2.1/thumb/v7-m\libgcc.a(_arm_fixsfsi.o)
 .ARM.attributes
                0x00000000       0x1d c:/users/guppy/.platformio/packages/toolchain-gccarmnoneeabi/bin/../lib/gcc/arm-none-eabi/7.2.1/thumb/v7-m\libgcc.a(_arm_fixsfsi.o)
 .text          0x00000000       0x40 c:/users/guppy/.platformio/packages/toolchain-gccarmnoneeabi/bin/../lib/gcc/arm-none-eabi/7.2.1/thumb/v7-m\libgcc.a(_arm_fixunssfsi.o)
 .data          0x00000000        0x0 c:/users/guppy/.platformio/packages/toolchain-gccarmnoneeabi/bin/../lib/gcc/arm-none-eabi/7.2.1/thumb/v7-m\libgcc.a(_arm_fixunssfsi.o)
 .bss           0x00000000        0x0 c:/users/guppy/.platformio/packages/toolchain-gccarmnoneeabi/bin/../lib/gcc/arm-none-eabi/7.2.1/thumb/v7-m\libgcc.a(_arm_fixunssfsi.o)
 .debug_frame   0x00000000       0x24 c:/users/guppy/.platformio/packages/toolchain-gccarmnoneeabi/bin/../lib/gcc/arm-none-eabi/7.2.1/thumb/v7-m\libgcc.a(_arm_fixunssfsi.o)
 .ARM.attributes
                0x00000000       0x1d c:/users/guppy/.platformio/packages/toolchain-gccarmnoneeabi/bin/../lib/gcc/arm-none-eabi/7.2.1/thumb/v7-m\libgcc.a(_arm_fixunssfsi.o)
 .text          0x00000000        0x0 .pioenvs\bluepill_f103c8\libFrameworkLibOpenCM3.a(desig.o)
 .data          0x00000000        0x0 .pioenvs\bluepill_f103c8\libFrameworkLibOpenCM3.a(desig.o)
 .bss           0x00000000        0x0 .pioenvs\bluepill_f103c8\libFrameworkLibOpenCM3.a(desig.o)
 .text.desig_get_flash_size
                0x00000000        0xc .pioenvs\bluepill_f103c8\libFrameworkLibOpenCM3.a(desig.o)
 .text          0x00000000        0x0 .pioenvs\bluepill_f103c8\libFrameworkLibOpenCM3.a(flash.o)
 .data          0x00000000        0x0 .pioenvs\bluepill_f103c8\libFrameworkLibOpenCM3.a(flash.o)
 .bss           0x00000000        0x0 .pioenvs\bluepill_f103c8\libFrameworkLibOpenCM3.a(flash.o)
 .text.flash_halfcycle_enable
                0x00000000       0x10 .pioenvs\bluepill_f103c8\libFrameworkLibOpenCM3.a(flash.o)
 .text.flash_halfcycle_disable
                0x00000000       0x10 .pioenvs\bluepill_f103c8\libFrameworkLibOpenCM3.a(flash.o)
 .text.flash_unlock_upper
                0x00000000       0x34 .pioenvs\bluepill_f103c8\libFrameworkLibOpenCM3.a(flash.o)
 .text.flash_lock_upper
                0x00000000       0x10 .pioenvs\bluepill_f103c8\libFrameworkLibOpenCM3.a(flash.o)
 .text.flash_clear_pgerr_flag_upper
                0x00000000       0x20 .pioenvs\bluepill_f103c8\libFrameworkLibOpenCM3.a(flash.o)
 .text.flash_clear_eop_flag_upper
                0x00000000       0x20 .pioenvs\bluepill_f103c8\libFrameworkLibOpenCM3.a(flash.o)
 .text.flash_clear_wrprterr_flag_upper
                0x00000000       0x20 .pioenvs\bluepill_f103c8\libFrameworkLibOpenCM3.a(flash.o)
 .text.flash_clear_bsy_flag_upper
                0x00000000       0x20 .pioenvs\bluepill_f103c8\libFrameworkLibOpenCM3.a(flash.o)
 .text.flash_clear_status_flags
                0x00000000       0x38 .pioenvs\bluepill_f103c8\libFrameworkLibOpenCM3.a(flash.o)
 .text.flash_erase_all_pages
                0x00000000       0x48 .pioenvs\bluepill_f103c8\libFrameworkLibOpenCM3.a(flash.o)
 .text          0x00000000        0x0 .pioenvs\bluepill_f103c8\libFrameworkLibOpenCM3.a(gpio.o)
 .data          0x00000000        0x0 .pioenvs\bluepill_f103c8\libFrameworkLibOpenCM3.a(gpio.o)
 .bss           0x00000000        0x0 .pioenvs\bluepill_f103c8\libFrameworkLibOpenCM3.a(gpio.o)
 .text.gpio_set_eventout
                0x00000000       0x10 .pioenvs\bluepill_f103c8\libFrameworkLibOpenCM3.a(gpio.o)
 .text.gpio_primary_remap
                0x00000000       0x18 .pioenvs\bluepill_f103c8\libFrameworkLibOpenCM3.a(gpio.o)
 .text.gpio_secondary_remap
                0x00000000       0x10 .pioenvs\bluepill_f103c8\libFrameworkLibOpenCM3.a(gpio.o)
 .text          0x00000000        0x0 .pioenvs\bluepill_f103c8\libFrameworkLibOpenCM3.a(rcc.o)
 .data          0x00000000        0x0 .pioenvs\bluepill_f103c8\libFrameworkLibOpenCM3.a(rcc.o)
 .bss           0x00000000        0x0 .pioenvs\bluepill_f103c8\libFrameworkLibOpenCM3.a(rcc.o)
 .text.rcc_osc_ready_int_clear
                0x00000000       0x5c .pioenvs\bluepill_f103c8\libFrameworkLibOpenCM3.a(rcc.o)
 .text.rcc_osc_ready_int_enable
                0x00000000       0x5c .pioenvs\bluepill_f103c8\libFrameworkLibOpenCM3.a(rcc.o)
 .text.rcc_osc_ready_int_disable
                0x00000000       0x5c .pioenvs\bluepill_f103c8\libFrameworkLibOpenCM3.a(rcc.o)
 .text.rcc_osc_ready_int_flag
                0x00000000       0x54 .pioenvs\bluepill_f103c8\libFrameworkLibOpenCM3.a(rcc.o)
 .text.rcc_css_int_clear
                0x00000000       0x10 .pioenvs\bluepill_f103c8\libFrameworkLibOpenCM3.a(rcc.o)
 .text.rcc_css_int_flag
                0x00000000       0x10 .pioenvs\bluepill_f103c8\libFrameworkLibOpenCM3.a(rcc.o)
 .text.rcc_osc_off
                0x00000000       0x58 .pioenvs\bluepill_f103c8\libFrameworkLibOpenCM3.a(rcc.o)
 .text.rcc_css_enable
                0x00000000       0x10 .pioenvs\bluepill_f103c8\libFrameworkLibOpenCM3.a(rcc.o)
 .text.rcc_css_disable
                0x00000000       0x10 .pioenvs\bluepill_f103c8\libFrameworkLibOpenCM3.a(rcc.o)
 .text.rcc_osc_bypass_enable
                0x00000000       0x28 .pioenvs\bluepill_f103c8\libFrameworkLibOpenCM3.a(rcc.o)
 .text.rcc_osc_bypass_disable
                0x00000000       0x28 .pioenvs\bluepill_f103c8\libFrameworkLibOpenCM3.a(rcc.o)
 .text.rcc_set_pll2_multiplication_factor
                0x00000000       0x14 .pioenvs\bluepill_f103c8\libFrameworkLibOpenCM3.a(rcc.o)
 .text.rcc_set_pll3_multiplication_factor
                0x00000000       0x14 .pioenvs\bluepill_f103c8\libFrameworkLibOpenCM3.a(rcc.o)
 .text.rcc_rtc_clock_enabled_flag
                0x00000000       0x10 .pioenvs\bluepill_f103c8\libFrameworkLibOpenCM3.a(rcc.o)
 .text.rcc_set_usbpre
                0x00000000       0x18 .pioenvs\bluepill_f103c8\libFrameworkLibOpenCM3.a(rcc.o)
 .text.rcc_set_prediv1
                0x00000000       0x14 .pioenvs\bluepill_f103c8\libFrameworkLibOpenCM3.a(rcc.o)
 .text.rcc_set_prediv2
                0x00000000       0x14 .pioenvs\bluepill_f103c8\libFrameworkLibOpenCM3.a(rcc.o)
 .text.rcc_set_prediv1_source
                0x00000000       0x18 .pioenvs\bluepill_f103c8\libFrameworkLibOpenCM3.a(rcc.o)
 .text.rcc_system_clock_source
                0x00000000       0x10 .pioenvs\bluepill_f103c8\libFrameworkLibOpenCM3.a(rcc.o)
 .text.rcc_clock_setup_in_hsi_out_64mhz
                0x00000000       0x74 .pioenvs\bluepill_f103c8\libFrameworkLibOpenCM3.a(rcc.o)
 .text.rcc_clock_setup_in_hsi_out_48mhz
                0x00000000       0x84 .pioenvs\bluepill_f103c8\libFrameworkLibOpenCM3.a(rcc.o)
 .text.rcc_clock_setup_in_hsi_out_24mhz
                0x00000000       0x70 .pioenvs\bluepill_f103c8\libFrameworkLibOpenCM3.a(rcc.o)
 .text.rcc_clock_setup_in_hse_8mhz_out_24mhz
                0x00000000       0x88 .pioenvs\bluepill_f103c8\libFrameworkLibOpenCM3.a(rcc.o)
 .text.rcc_clock_setup_in_hse_12mhz_out_72mhz
                0x00000000       0x8c .pioenvs\bluepill_f103c8\libFrameworkLibOpenCM3.a(rcc.o)
 .text.rcc_clock_setup_in_hse_16mhz_out_72mhz
                0x00000000       0x8c .pioenvs\bluepill_f103c8\libFrameworkLibOpenCM3.a(rcc.o)
 .text.rcc_clock_setup_in_hse_25mhz_out_72mhz
                0x00000000       0xac .pioenvs\bluepill_f103c8\libFrameworkLibOpenCM3.a(rcc.o)
 .text.rcc_backupdomain_reset
                0x00000000       0x18 .pioenvs\bluepill_f103c8\libFrameworkLibOpenCM3.a(rcc.o)
 .text          0x00000000        0x0 .pioenvs\bluepill_f103c8\libFrameworkLibOpenCM3.a(rtc.o)
 .data          0x00000000        0x0 .pioenvs\bluepill_f103c8\libFrameworkLibOpenCM3.a(rtc.o)
 .bss           0x00000000        0x0 .pioenvs\bluepill_f103c8\libFrameworkLibOpenCM3.a(rtc.o)
 .text.rtc_awake_from_off
                0x00000000       0x6c .pioenvs\bluepill_f103c8\libFrameworkLibOpenCM3.a(rtc.o)
 .text.rtc_enable_alarm
                0x00000000       0x1c .pioenvs\bluepill_f103c8\libFrameworkLibOpenCM3.a(rtc.o)
 .text.rtc_disable_alarm
                0x00000000       0x1c .pioenvs\bluepill_f103c8\libFrameworkLibOpenCM3.a(rtc.o)
 .text.rtc_get_prescale_div_val
                0x00000000       0x14 .pioenvs\bluepill_f103c8\libFrameworkLibOpenCM3.a(rtc.o)
 .text.rtc_get_alarm_val
                0x00000000       0x14 .pioenvs\bluepill_f103c8\libFrameworkLibOpenCM3.a(rtc.o)
 .text.rtc_awake_from_standby
                0x00000000       0x34 .pioenvs\bluepill_f103c8\libFrameworkLibOpenCM3.a(rtc.o)
 .text.rtc_auto_awake
                0x00000000       0x34 .pioenvs\bluepill_f103c8\libFrameworkLibOpenCM3.a(rtc.o)
 .text          0x00000000        0x0 .pioenvs\bluepill_f103c8\libFrameworkLibOpenCM3.a(gpio_common_all.o)
 .data          0x00000000        0x0 .pioenvs\bluepill_f103c8\libFrameworkLibOpenCM3.a(gpio_common_all.o)
 .bss           0x00000000        0x0 .pioenvs\bluepill_f103c8\libFrameworkLibOpenCM3.a(gpio_common_all.o)
 .text.gpio_get
                0x00000000        0x6 .pioenvs\bluepill_f103c8\libFrameworkLibOpenCM3.a(gpio_common_all.o)
 .text.gpio_toggle
                0x00000000       0x12 .pioenvs\bluepill_f103c8\libFrameworkLibOpenCM3.a(gpio_common_all.o)
 .text.gpio_port_read
                0x00000000        0x6 .pioenvs\bluepill_f103c8\libFrameworkLibOpenCM3.a(gpio_common_all.o)
 .text.gpio_port_write
                0x00000000        0x4 .pioenvs\bluepill_f103c8\libFrameworkLibOpenCM3.a(gpio_common_all.o)
 .text.gpio_port_config_lock
                0x00000000       0x10 .pioenvs\bluepill_f103c8\libFrameworkLibOpenCM3.a(gpio_common_all.o)
 .text          0x00000000        0x0 .pioenvs\bluepill_f103c8\libFrameworkLibOpenCM3.a(pwr_common_all.o)
 .data          0x00000000        0x0 .pioenvs\bluepill_f103c8\libFrameworkLibOpenCM3.a(pwr_common_all.o)
 .bss           0x00000000        0x0 .pioenvs\bluepill_f103c8\libFrameworkLibOpenCM3.a(pwr_common_all.o)
 .text.pwr_enable_power_voltage_detect
                0x00000000       0x1c .pioenvs\bluepill_f103c8\libFrameworkLibOpenCM3.a(pwr_common_all.o)
 .text.pwr_disable_power_voltage_detect
                0x00000000       0x10 .pioenvs\bluepill_f103c8\libFrameworkLibOpenCM3.a(pwr_common_all.o)
 .text.pwr_clear_standby_flag
                0x00000000       0x10 .pioenvs\bluepill_f103c8\libFrameworkLibOpenCM3.a(pwr_common_all.o)
 .text.pwr_clear_wakeup_flag
                0x00000000       0x10 .pioenvs\bluepill_f103c8\libFrameworkLibOpenCM3.a(pwr_common_all.o)
 .text.pwr_set_standby_mode
                0x00000000       0x10 .pioenvs\bluepill_f103c8\libFrameworkLibOpenCM3.a(pwr_common_all.o)
 .text.pwr_set_stop_mode
                0x00000000       0x10 .pioenvs\bluepill_f103c8\libFrameworkLibOpenCM3.a(pwr_common_all.o)
 .text.pwr_voltage_regulator_on_in_stop
                0x00000000       0x10 .pioenvs\bluepill_f103c8\libFrameworkLibOpenCM3.a(pwr_common_all.o)
 .text.pwr_voltage_regulator_low_power_in_stop
                0x00000000       0x10 .pioenvs\bluepill_f103c8\libFrameworkLibOpenCM3.a(pwr_common_all.o)
 .text.pwr_enable_wakeup_pin
                0x00000000       0x10 .pioenvs\bluepill_f103c8\libFrameworkLibOpenCM3.a(pwr_common_all.o)
 .text.pwr_disable_wakeup_pin
                0x00000000       0x10 .pioenvs\bluepill_f103c8\libFrameworkLibOpenCM3.a(pwr_common_all.o)
 .text.pwr_voltage_high
                0x00000000       0x10 .pioenvs\bluepill_f103c8\libFrameworkLibOpenCM3.a(pwr_common_all.o)
 .text.pwr_get_standby_flag
                0x00000000       0x10 .pioenvs\bluepill_f103c8\libFrameworkLibOpenCM3.a(pwr_common_all.o)
 .text.pwr_get_wakeup_flag
                0x00000000       0x10 .pioenvs\bluepill_f103c8\libFrameworkLibOpenCM3.a(pwr_common_all.o)
 .text          0x00000000        0x0 .pioenvs\bluepill_f103c8\libFrameworkLibOpenCM3.a(usart_common_all.o)
 .data          0x00000000        0x0 .pioenvs\bluepill_f103c8\libFrameworkLibOpenCM3.a(usart_common_all.o)
 .bss           0x00000000        0x0 .pioenvs\bluepill_f103c8\libFrameworkLibOpenCM3.a(usart_common_all.o)
 .text.usart_set_baudrate
                0x00000000       0x28 .pioenvs\bluepill_f103c8\libFrameworkLibOpenCM3.a(usart_common_all.o)
 .text.usart_set_databits
                0x00000000       0x12 .pioenvs\bluepill_f103c8\libFrameworkLibOpenCM3.a(usart_common_all.o)
 .text.usart_set_stopbits
                0x00000000        0xc .pioenvs\bluepill_f103c8\libFrameworkLibOpenCM3.a(usart_common_all.o)
 .text.usart_set_parity
                0x00000000        0xc .pioenvs\bluepill_f103c8\libFrameworkLibOpenCM3.a(usart_common_all.o)
 .text.usart_set_mode
                0x00000000        0xc .pioenvs\bluepill_f103c8\libFrameworkLibOpenCM3.a(usart_common_all.o)
 .text.usart_set_flow_control
                0x00000000        0xc .pioenvs\bluepill_f103c8\libFrameworkLibOpenCM3.a(usart_common_all.o)
 .text.usart_enable
                0x00000000        0xa .pioenvs\bluepill_f103c8\libFrameworkLibOpenCM3.a(usart_common_all.o)
 .text.usart_disable
                0x00000000        0xa .pioenvs\bluepill_f103c8\libFrameworkLibOpenCM3.a(usart_common_all.o)
 .text.usart_send_blocking
                0x00000000       0x16 .pioenvs\bluepill_f103c8\libFrameworkLibOpenCM3.a(usart_common_all.o)
 .text.usart_recv_blocking
                0x00000000       0x12 .pioenvs\bluepill_f103c8\libFrameworkLibOpenCM3.a(usart_common_all.o)
 .text.usart_enable_rx_dma
                0x00000000        0xa .pioenvs\bluepill_f103c8\libFrameworkLibOpenCM3.a(usart_common_all.o)
 .text.usart_disable_rx_dma
                0x00000000        0xa .pioenvs\bluepill_f103c8\libFrameworkLibOpenCM3.a(usart_common_all.o)
 .text.usart_enable_tx_dma
                0x00000000        0xa .pioenvs\bluepill_f103c8\libFrameworkLibOpenCM3.a(usart_common_all.o)
 .text.usart_disable_tx_dma
                0x00000000        0xa .pioenvs\bluepill_f103c8\libFrameworkLibOpenCM3.a(usart_common_all.o)
 .text.usart_enable_rx_interrupt
                0x00000000        0xa .pioenvs\bluepill_f103c8\libFrameworkLibOpenCM3.a(usart_common_all.o)
 .text.usart_disable_rx_interrupt
                0x00000000        0xa .pioenvs\bluepill_f103c8\libFrameworkLibOpenCM3.a(usart_common_all.o)
 .text.usart_enable_tx_interrupt
                0x00000000        0xa .pioenvs\bluepill_f103c8\libFrameworkLibOpenCM3.a(usart_common_all.o)
 .text.usart_disable_tx_interrupt
                0x00000000        0xa .pioenvs\bluepill_f103c8\libFrameworkLibOpenCM3.a(usart_common_all.o)
 .text.usart_enable_error_interrupt
                0x00000000        0xa .pioenvs\bluepill_f103c8\libFrameworkLibOpenCM3.a(usart_common_all.o)
 .text.usart_disable_error_interrupt
                0x00000000        0xa .pioenvs\bluepill_f103c8\libFrameworkLibOpenCM3.a(usart_common_all.o)
 .comment       0x00000000       0x7f .pioenvs\bluepill_f103c8\libFrameworkLibOpenCM3.a(usart_common_all.o)
 .ARM.attributes
                0x00000000       0x33 .pioenvs\bluepill_f103c8\libFrameworkLibOpenCM3.a(usart_common_all.o)
 .text          0x00000000        0x0 .pioenvs\bluepill_f103c8\libFrameworkLibOpenCM3.a(usart_common_f124.o)
 .data          0x00000000        0x0 .pioenvs\bluepill_f103c8\libFrameworkLibOpenCM3.a(usart_common_f124.o)
 .bss           0x00000000        0x0 .pioenvs\bluepill_f103c8\libFrameworkLibOpenCM3.a(usart_common_f124.o)
 .text.usart_send
                0x00000000        0x8 .pioenvs\bluepill_f103c8\libFrameworkLibOpenCM3.a(usart_common_f124.o)
 .text.usart_wait_send_ready
                0x00000000        0x8 .pioenvs\bluepill_f103c8\libFrameworkLibOpenCM3.a(usart_common_f124.o)
 .text.usart_wait_recv_ready
                0x00000000        0x8 .pioenvs\bluepill_f103c8\libFrameworkLibOpenCM3.a(usart_common_f124.o)
 .text.usart_get_flag
                0x00000000        0xc .pioenvs\bluepill_f103c8\libFrameworkLibOpenCM3.a(usart_common_f124.o)
 .text.usart_get_interrupt_source
                0x00000000       0x2c .pioenvs\bluepill_f103c8\libFrameworkLibOpenCM3.a(usart_common_f124.o)
 .text          0x00000000        0x0 .pioenvs\bluepill_f103c8\libFrameworkLibOpenCM3.a(rcc_common_all.o)
 .data          0x00000000        0x0 .pioenvs\bluepill_f103c8\libFrameworkLibOpenCM3.a(rcc_common_all.o)
 .bss           0x00000000        0x0 .pioenvs\bluepill_f103c8\libFrameworkLibOpenCM3.a(rcc_common_all.o)
 .text.rcc_peripheral_enable_clock
                0x00000000        0x8 .pioenvs\bluepill_f103c8\libFrameworkLibOpenCM3.a(rcc_common_all.o)
 .text.rcc_peripheral_disable_clock
                0x00000000        0xa .pioenvs\bluepill_f103c8\libFrameworkLibOpenCM3.a(rcc_common_all.o)
 .text.rcc_peripheral_reset
                0x00000000        0x8 .pioenvs\bluepill_f103c8\libFrameworkLibOpenCM3.a(rcc_common_all.o)
 .text.rcc_peripheral_clear_reset
                0x00000000        0xa .pioenvs\bluepill_f103c8\libFrameworkLibOpenCM3.a(rcc_common_all.o)
 .text.rcc_periph_clock_disable
                0x00000000       0x1e .pioenvs\bluepill_f103c8\libFrameworkLibOpenCM3.a(rcc_common_all.o)
 .text.rcc_periph_reset_hold
                0x00000000       0x1a .pioenvs\bluepill_f103c8\libFrameworkLibOpenCM3.a(rcc_common_all.o)
 .text.rcc_periph_reset_release
                0x00000000       0x1e .pioenvs\bluepill_f103c8\libFrameworkLibOpenCM3.a(rcc_common_all.o)
 .text.rcc_set_mco
                0x00000000       0x14 .pioenvs\bluepill_f103c8\libFrameworkLibOpenCM3.a(rcc_common_all.o)
 .text          0x00000000        0x0 .pioenvs\bluepill_f103c8\libFrameworkLibOpenCM3.a(exti_common_all.o)
 .data          0x00000000        0x0 .pioenvs\bluepill_f103c8\libFrameworkLibOpenCM3.a(exti_common_all.o)
 .bss           0x00000000        0x0 .pioenvs\bluepill_f103c8\libFrameworkLibOpenCM3.a(exti_common_all.o)
 .text.exti_disable_request
                0x00000000       0x1c .pioenvs\bluepill_f103c8\libFrameworkLibOpenCM3.a(exti_common_all.o)
 .text.exti_get_flag_status
                0x00000000        0xc .pioenvs\bluepill_f103c8\libFrameworkLibOpenCM3.a(exti_common_all.o)
 .text.exti_select_source
                0x00000000       0xa0 .pioenvs\bluepill_f103c8\libFrameworkLibOpenCM3.a(exti_common_all.o)
 .text          0x00000000        0x0 .pioenvs\bluepill_f103c8\libFrameworkLibOpenCM3.a(flash_common_f01.o)
 .data          0x00000000        0x0 .pioenvs\bluepill_f103c8\libFrameworkLibOpenCM3.a(flash_common_f01.o)
 .bss           0x00000000        0x0 .pioenvs\bluepill_f103c8\libFrameworkLibOpenCM3.a(flash_common_f01.o)
 .text.flash_prefetch_buffer_enable
                0x00000000       0x10 .pioenvs\bluepill_f103c8\libFrameworkLibOpenCM3.a(flash_common_f01.o)
 .text.flash_prefetch_buffer_disable
                0x00000000       0x10 .pioenvs\bluepill_f103c8\libFrameworkLibOpenCM3.a(flash_common_f01.o)
 .text.flash_clear_pgerr_flag
                0x00000000       0x10 .pioenvs\bluepill_f103c8\libFrameworkLibOpenCM3.a(flash_common_f01.o)
 .text.flash_clear_eop_flag
                0x00000000       0x10 .pioenvs\bluepill_f103c8\libFrameworkLibOpenCM3.a(flash_common_f01.o)
 .text.flash_clear_wrprterr_flag
                0x00000000       0x10 .pioenvs\bluepill_f103c8\libFrameworkLibOpenCM3.a(flash_common_f01.o)
 .text.flash_clear_bsy_flag
                0x00000000       0x10 .pioenvs\bluepill_f103c8\libFrameworkLibOpenCM3.a(flash_common_f01.o)
 .text.flash_program_word
                0x00000000       0x18 .pioenvs\bluepill_f103c8\libFrameworkLibOpenCM3.a(flash_common_f01.o)
 .text.flash_unlock_option_bytes
                0x00000000       0x18 .pioenvs\bluepill_f103c8\libFrameworkLibOpenCM3.a(flash_common_f01.o)
 .text.flash_erase_option_bytes
                0x00000000       0x34 .pioenvs\bluepill_f103c8\libFrameworkLibOpenCM3.a(flash_common_f01.o)
 .text.flash_program_option_bytes
                0x00000000       0x34 .pioenvs\bluepill_f103c8\libFrameworkLibOpenCM3.a(flash_common_f01.o)
 .text          0x00000000        0x0 .pioenvs\bluepill_f103c8\libFrameworkLibOpenCM3.a(usb.o)
 .data          0x00000000        0x0 .pioenvs\bluepill_f103c8\libFrameworkLibOpenCM3.a(usb.o)
 .bss           0x00000000        0x0 .pioenvs\bluepill_f103c8\libFrameworkLibOpenCM3.a(usb.o)
 .text.usbd_register_reset_callback
                0x00000000        0x4 .pioenvs\bluepill_f103c8\libFrameworkLibOpenCM3.a(usb.o)
 .text.usbd_register_suspend_callback
                0x00000000        0x4 .pioenvs\bluepill_f103c8\libFrameworkLibOpenCM3.a(usb.o)
 .text.usbd_register_resume_callback
                0x00000000        0x4 .pioenvs\bluepill_f103c8\libFrameworkLibOpenCM3.a(usb.o)
 .text.usbd_register_sof_callback
                0x00000000        0x4 .pioenvs\bluepill_f103c8\libFrameworkLibOpenCM3.a(usb.o)
 .text.usbd_disconnect
                0x00000000        0xc .pioenvs\bluepill_f103c8\libFrameworkLibOpenCM3.a(usb.o)
 .text.usbd_ep_nak_set
                0x00000000        0x8 .pioenvs\bluepill_f103c8\libFrameworkLibOpenCM3.a(usb.o)
 .text          0x00000000        0x0 .pioenvs\bluepill_f103c8\libFrameworkLibOpenCM3.a(usb_control.o)
 .data          0x00000000        0x0 .pioenvs\bluepill_f103c8\libFrameworkLibOpenCM3.a(usb_control.o)
 .bss           0x00000000        0x0 .pioenvs\bluepill_f103c8\libFrameworkLibOpenCM3.a(usb_control.o)
 .text          0x00000000        0x0 .pioenvs\bluepill_f103c8\libFrameworkLibOpenCM3.a(usb_standard.o)
 .data          0x00000000        0x0 .pioenvs\bluepill_f103c8\libFrameworkLibOpenCM3.a(usb_standard.o)
 .bss           0x00000000        0x0 .pioenvs\bluepill_f103c8\libFrameworkLibOpenCM3.a(usb_standard.o)
 .text.usbd_register_set_altsetting_callback
                0x00000000        0x6 .pioenvs\bluepill_f103c8\libFrameworkLibOpenCM3.a(usb_standard.o)
 .text          0x00000000        0x0 .pioenvs\bluepill_f103c8\libFrameworkLibOpenCM3.a(st_usbfs_v1.o)
 .data          0x00000000        0x0 .pioenvs\bluepill_f103c8\libFrameworkLibOpenCM3.a(st_usbfs_v1.o)
 .bss           0x00000000        0x0 .pioenvs\bluepill_f103c8\libFrameworkLibOpenCM3.a(st_usbfs_v1.o)
 .text          0x00000000        0x0 .pioenvs\bluepill_f103c8\libFrameworkLibOpenCM3.a(vector.o)
 .data          0x00000000        0x0 .pioenvs\bluepill_f103c8\libFrameworkLibOpenCM3.a(vector.o)
 .bss           0x00000000        0x0 .pioenvs\bluepill_f103c8\libFrameworkLibOpenCM3.a(vector.o)
 .text          0x00000000        0x0 .pioenvs\bluepill_f103c8\libFrameworkLibOpenCM3.a(scb.o)
 .data          0x00000000        0x0 .pioenvs\bluepill_f103c8\libFrameworkLibOpenCM3.a(scb.o)
 .bss           0x00000000        0x0 .pioenvs\bluepill_f103c8\libFrameworkLibOpenCM3.a(scb.o)
 .text.scb_reset_core
                0x00000000       0x10 .pioenvs\bluepill_f103c8\libFrameworkLibOpenCM3.a(scb.o)
 .text.scb_reset_system
                0x00000000       0x10 .pioenvs\bluepill_f103c8\libFrameworkLibOpenCM3.a(scb.o)
 .text.scb_set_priority_grouping
                0x00000000       0x14 .pioenvs\bluepill_f103c8\libFrameworkLibOpenCM3.a(scb.o)
 .comment       0x00000000       0x7f .pioenvs\bluepill_f103c8\libFrameworkLibOpenCM3.a(scb.o)
 .ARM.attributes
                0x00000000       0x33 .pioenvs\bluepill_f103c8\libFrameworkLibOpenCM3.a(scb.o)
 .text          0x00000000        0x0 .pioenvs\bluepill_f103c8\libFrameworkLibOpenCM3.a(nvic.o)
 .data          0x00000000        0x0 .pioenvs\bluepill_f103c8\libFrameworkLibOpenCM3.a(nvic.o)
 .bss           0x00000000        0x0 .pioenvs\bluepill_f103c8\libFrameworkLibOpenCM3.a(nvic.o)
 .text.nvic_disable_irq
                0x00000000       0x18 .pioenvs\bluepill_f103c8\libFrameworkLibOpenCM3.a(nvic.o)
 .text.nvic_get_pending_irq
                0x00000000       0x22 .pioenvs\bluepill_f103c8\libFrameworkLibOpenCM3.a(nvic.o)
 .text.nvic_set_pending_irq
                0x00000000       0x1a .pioenvs\bluepill_f103c8\libFrameworkLibOpenCM3.a(nvic.o)
 .text.nvic_clear_pending_irq
                0x00000000       0x18 .pioenvs\bluepill_f103c8\libFrameworkLibOpenCM3.a(nvic.o)
 .text.nvic_get_irq_enabled
                0x00000000       0x22 .pioenvs\bluepill_f103c8\libFrameworkLibOpenCM3.a(nvic.o)
 .text.nvic_set_priority
                0x00000000       0x20 .pioenvs\bluepill_f103c8\libFrameworkLibOpenCM3.a(nvic.o)
 .text.nvic_get_active_irq
                0x00000000       0x22 .pioenvs\bluepill_f103c8\libFrameworkLibOpenCM3.a(nvic.o)
 .text.nvic_generate_software_interrupt
                0x00000000       0x14 .pioenvs\bluepill_f103c8\libFrameworkLibOpenCM3.a(nvic.o)
 .text          0x00000000        0x0 .pioenvs\bluepill_f103c8\libFrameworkLibOpenCM3.a(assert.o)
 .data          0x00000000        0x0 .pioenvs\bluepill_f103c8\libFrameworkLibOpenCM3.a(assert.o)
 .bss           0x00000000        0x0 .pioenvs\bluepill_f103c8\libFrameworkLibOpenCM3.a(assert.o)
 .text.cm3_assert_failed
                0x00000000        0x2 .pioenvs\bluepill_f103c8\libFrameworkLibOpenCM3.a(assert.o)
 .text.cm3_assert_failed_verbose
                0x00000000        0x6 .pioenvs\bluepill_f103c8\libFrameworkLibOpenCM3.a(assert.o)
 .comment       0x00000000       0x7f .pioenvs\bluepill_f103c8\libFrameworkLibOpenCM3.a(assert.o)
 .ARM.attributes
                0x00000000       0x33 .pioenvs\bluepill_f103c8\libFrameworkLibOpenCM3.a(assert.o)
 .text          0x00000000        0x0 .pioenvs\bluepill_f103c8\libFrameworkLibOpenCM3.a(st_usbfs_core.o)
 .data          0x00000000        0x0 .pioenvs\bluepill_f103c8\libFrameworkLibOpenCM3.a(st_usbfs_core.o)
 .bss           0x00000000        0x0 .pioenvs\bluepill_f103c8\libFrameworkLibOpenCM3.a(st_usbfs_core.o)
 .text          0x00000000        0x0 .pioenvs\bluepill_f103c8\lib635\libcodal-core.a(CodalCompat.o)
 .data          0x00000000        0x0 .pioenvs\bluepill_f103c8\lib635\libcodal-core.a(CodalCompat.o)
 .bss           0x00000000        0x0 .pioenvs\bluepill_f103c8\lib635\libcodal-core.a(CodalCompat.o)
 .text._ZN5codal11seed_randomEm
                0x00000000        0xc .pioenvs\bluepill_f103c8\lib635\libcodal-core.a(CodalCompat.o)
 .text._ZN5codal6randomEi
                0x00000000       0x54 .pioenvs\bluepill_f103c8\lib635\libcodal-core.a(CodalCompat.o)
 .bss._ZL12random_value
                0x00000000        0x4 .pioenvs\bluepill_f103c8\lib635\libcodal-core.a(CodalCompat.o)
 .group         0x00000000        0xc .pioenvs\bluepill_f103c8\lib635\libcodal-core.a(CodalComponent.o)
 .text          0x00000000        0x0 .pioenvs\bluepill_f103c8\lib635\libcodal-core.a(CodalComponent.o)
 .data          0x00000000        0x0 .pioenvs\bluepill_f103c8\lib635\libcodal-core.a(CodalComponent.o)
 .bss           0x00000000        0x0 .pioenvs\bluepill_f103c8\lib635\libcodal-core.a(CodalComponent.o)
 .text._ZN5codal10EventModel6listenEiiPFvNS_5EventEEt
                0x00000000       0x60 .pioenvs\bluepill_f103c8\lib635\libcodal-core.a(CodalComponent.o)
 .text          0x00000000        0x0 .pioenvs\bluepill_f103c8\lib635\libcodal-core.a(CodalDmesg.o)
 .data          0x00000000        0x0 .pioenvs\bluepill_f103c8\lib635\libcodal-core.a(CodalDmesg.o)
 .bss           0x00000000        0x0 .pioenvs\bluepill_f103c8\lib635\libcodal-core.a(CodalDmesg.o)
 .text._ZL8writeNumPcmb
                0x00000000       0x32 .pioenvs\bluepill_f103c8\lib635\libcodal-core.a(CodalDmesg.o)
 .text._ZL8logwritePKc
                0x00000000       0x14 .pioenvs\bluepill_f103c8\lib635\libcodal-core.a(CodalDmesg.o)
 .text._ZL9logwritenPKci
                0x00000000       0x70 .pioenvs\bluepill_f103c8\lib635\libcodal-core.a(CodalDmesg.o)
 .text.codal_vdmesg
                0x00000000       0xc0 .pioenvs\bluepill_f103c8\lib635\libcodal-core.a(CodalDmesg.o)
 .text.codal_dmesg
                0x00000000       0x1a .pioenvs\bluepill_f103c8\lib635\libcodal-core.a(CodalDmesg.o)
 .text.codal_dmesgf
                0x00000000       0x1e .pioenvs\bluepill_f103c8\lib635\libcodal-core.a(CodalDmesg.o)
 .rodata._ZL9logwritenPKci.str1.1
                0x00000000       0x16 .pioenvs\bluepill_f103c8\lib635\libcodal-core.a(CodalDmesg.o)
 .rodata.codal_vdmesg.str1.1
                0x00000000        0xc .pioenvs\bluepill_f103c8\lib635\libcodal-core.a(CodalDmesg.o)
 .group         0x00000000        0x8 .pioenvs\bluepill_f103c8\lib635\libcodal-core.a(Serial.o)
 .group         0x00000000        0x8 .pioenvs\bluepill_f103c8\lib635\libcodal-core.a(Serial.o)
 .group         0x00000000        0x8 .pioenvs\bluepill_f103c8\lib635\libcodal-core.a(Serial.o)
 .group         0x00000000       0x14 .pioenvs\bluepill_f103c8\lib635\libcodal-core.a(Serial.o)
 .group         0x00000000        0xc .pioenvs\bluepill_f103c8\lib635\libcodal-core.a(Serial.o)
 .text          0x00000000        0x0 .pioenvs\bluepill_f103c8\lib635\libcodal-core.a(Serial.o)
 .data          0x00000000        0x0 .pioenvs\bluepill_f103c8\lib635\libcodal-core.a(Serial.o)
 .bss           0x00000000        0x0 .pioenvs\bluepill_f103c8\lib635\libcodal-core.a(Serial.o)
 .text._ZN5codal14CodalComponent4initEv
                0x00000000        0x8 .pioenvs\bluepill_f103c8\lib635\libcodal-core.a(Serial.o)
 .text._ZN5codal14CodalComponent16periodicCallbackEv
                0x00000000        0x2 .pioenvs\bluepill_f103c8\lib635\libcodal-core.a(Serial.o)
 .text._ZN5codal14CodalComponent12idleCallbackEv
                0x00000000        0x2 .pioenvs\bluepill_f103c8\lib635\libcodal-core.a(Serial.o)
 .text._ZN5codal14CodalComponentD2Ev
                0x00000000       0x18 .pioenvs\bluepill_f103c8\lib635\libcodal-core.a(Serial.o)
 .text._ZN5codal14CodalComponentD0Ev
                0x00000000       0x12 .pioenvs\bluepill_f103c8\lib635\libcodal-core.a(Serial.o)
 .text._ZN5codal6Serial12dataReceivedEc
                0x00000000       0x84 .pioenvs\bluepill_f103c8\lib635\libcodal-core.a(Serial.o)
 .text._ZN5codal6Serial15dataTransmittedEv
                0x00000000       0x4e .pioenvs\bluepill_f103c8\lib635\libcodal-core.a(Serial.o)
 .text._ZN5codal6Serial14setTxInterruptEPhiNS_10SerialModeE
                0x00000000       0x50 .pioenvs\bluepill_f103c8\lib635\libcodal-core.a(Serial.o)
 .text._ZN5codal6Serial6lockRxEv
                0x00000000        0xa .pioenvs\bluepill_f103c8\lib635\libcodal-core.a(Serial.o)
 .text._ZN5codal6Serial6lockTxEv
                0x00000000        0xa .pioenvs\bluepill_f103c8\lib635\libcodal-core.a(Serial.o)
 .text._ZN5codal6Serial8unlockRxEv
                0x00000000        0xa .pioenvs\bluepill_f103c8\lib635\libcodal-core.a(Serial.o)
 .text._ZN5codal6Serial8unlockTxEv
                0x00000000        0xa .pioenvs\bluepill_f103c8\lib635\libcodal-core.a(Serial.o)
 .text._ZN5codal6Serial12initialiseTxEv
                0x00000000       0x42 .pioenvs\bluepill_f103c8\lib635\libcodal-core.a(Serial.o)
 .text._ZN5codal6Serial6printfEPKcz
                0x00000000       0xb8 .pioenvs\bluepill_f103c8\lib635\libcodal-core.a(Serial.o)
 .text._ZN5codal6Serial7setBaudEi
                0x00000000       0x1a .pioenvs\bluepill_f103c8\lib635\libcodal-core.a(Serial.o)
 .text._ZN5codal6Serial10eventAfterEiNS_10SerialModeE
                0x00000000       0x2e .pioenvs\bluepill_f103c8\lib635\libcodal-core.a(Serial.o)
 .text._ZN5codal6Serial7getCharENS_10SerialModeE
                0x00000000       0x4c .pioenvs\bluepill_f103c8\lib635\libcodal-core.a(Serial.o)
 .text._ZN5codal6Serial4readENS_10SerialModeE
                0x00000000       0x3c .pioenvs\bluepill_f103c8\lib635\libcodal-core.a(Serial.o)
 .text._ZN5codal6Serial10isReadableEv
                0x00000000        0xc .pioenvs\bluepill_f103c8\lib635\libcodal-core.a(Serial.o)
 .text._ZN5codal6Serial11isWriteableEv
                0x00000000        0xe .pioenvs\bluepill_f103c8\lib635\libcodal-core.a(Serial.o)
 .text._ZN5codal6Serial15setRxBufferSizeEh
                0x00000000       0x2c .pioenvs\bluepill_f103c8\lib635\libcodal-core.a(Serial.o)
 .text._ZN5codal6Serial15setTxBufferSizeEh
                0x00000000       0x2c .pioenvs\bluepill_f103c8\lib635\libcodal-core.a(Serial.o)
 .text._ZN5codal6Serial15getRxBufferSizeEv
                0x00000000        0x4 .pioenvs\bluepill_f103c8\lib635\libcodal-core.a(Serial.o)
 .text._ZN5codal6Serial15getTxBufferSizeEv
                0x00000000        0x6 .pioenvs\bluepill_f103c8\lib635\libcodal-core.a(Serial.o)
 .text._ZN5codal6Serial13clearRxBufferEv
                0x00000000       0x20 .pioenvs\bluepill_f103c8\lib635\libcodal-core.a(Serial.o)
 .text._ZN5codal6Serial13clearTxBufferEv
                0x00000000       0x20 .pioenvs\bluepill_f103c8\lib635\libcodal-core.a(Serial.o)
 .text._ZN5codal6Serial14rxBufferedSizeEv
                0x00000000       0x14 .pioenvs\bluepill_f103c8\lib635\libcodal-core.a(Serial.o)
 .text._ZN5codal6Serial4readEPhiNS_10SerialModeE
                0x00000000       0xb8 .pioenvs\bluepill_f103c8\lib635\libcodal-core.a(Serial.o)
 .text._ZN5codal6Serial4readEiNS_10SerialModeE
                0x00000000       0x4c .pioenvs\bluepill_f103c8\lib635\libcodal-core.a(Serial.o)
 .text._ZN5codal6Serial14txBufferedSizeEv
                0x00000000       0x1a .pioenvs\bluepill_f103c8\lib635\libcodal-core.a(Serial.o)
 .text._ZN5codal6Serial4sendENS_10SerialModeE
                0x00000000       0x22 .pioenvs\bluepill_f103c8\lib635\libcodal-core.a(Serial.o)
 .text._ZN5codal6Serial8sendCharEcNS_10SerialModeE
                0x00000000       0x5c .pioenvs\bluepill_f103c8\lib635\libcodal-core.a(Serial.o)
 .text._ZN5codal6Serial4sendEPhiNS_10SerialModeE
                0x00000000       0x6c .pioenvs\bluepill_f103c8\lib635\libcodal-core.a(Serial.o)
 .text._ZN5codal6Serial4sendENS_13ManagedStringENS_10SerialModeE
                0x00000000        0xe .pioenvs\bluepill_f103c8\lib635\libcodal-core.a(Serial.o)
 .text._ZN5codal6Serial8redirectERNS_3PinES2_
                0x00000000       0x78 .pioenvs\bluepill_f103c8\lib635\libcodal-core.a(Serial.o)
 .text._ZN5codal6Serial7rxInUseEv
                0x00000000        0x8 .pioenvs\bluepill_f103c8\lib635\libcodal-core.a(Serial.o)
 .text._ZN5codal6Serial7txInUseEv
                0x00000000        0x8 .pioenvs\bluepill_f103c8\lib635\libcodal-core.a(Serial.o)
 .text._ZN5codal6SerialD0Ev
                0x00000000       0x12 .pioenvs\bluepill_f103c8\lib635\libcodal-core.a(Serial.o)
 .rodata._ZTVN5codal14CodalComponentE
                0x00000000       0x1c .pioenvs\bluepill_f103c8\lib635\libcodal-core.a(Serial.o)
 .group         0x00000000        0x8 .pioenvs\bluepill_f103c8\lib635\libcodal-core.a(MessageBus.o)
 .group         0x00000000        0x8 .pioenvs\bluepill_f103c8\lib635\libcodal-core.a(MessageBus.o)
 .group         0x00000000        0x8 .pioenvs\bluepill_f103c8\lib635\libcodal-core.a(MessageBus.o)
 .group         0x00000000        0x8 .pioenvs\bluepill_f103c8\lib635\libcodal-core.a(MessageBus.o)
 .group         0x00000000        0x8 .pioenvs\bluepill_f103c8\lib635\libcodal-core.a(MessageBus.o)
 .group         0x00000000        0x8 .pioenvs\bluepill_f103c8\lib635\libcodal-core.a(MessageBus.o)
 .group         0x00000000       0x14 .pioenvs\bluepill_f103c8\lib635\libcodal-core.a(MessageBus.o)
 .group         0x00000000        0x8 .pioenvs\bluepill_f103c8\lib635\libcodal-core.a(MessageBus.o)
 .group         0x00000000        0xc .pioenvs\bluepill_f103c8\lib635\libcodal-core.a(MessageBus.o)
 .group         0x00000000        0xc .pioenvs\bluepill_f103c8\lib635\libcodal-core.a(MessageBus.o)
 .text          0x00000000        0x0 .pioenvs\bluepill_f103c8\lib635\libcodal-core.a(MessageBus.o)
 .data          0x00000000        0x0 .pioenvs\bluepill_f103c8\lib635\libcodal-core.a(MessageBus.o)
 .bss           0x00000000        0x0 .pioenvs\bluepill_f103c8\lib635\libcodal-core.a(MessageBus.o)
 .text._ZN5codal14CodalComponent4initEv
                0x00000000        0x8 .pioenvs\bluepill_f103c8\lib635\libcodal-core.a(MessageBus.o)
 .text._ZN5codal14CodalComponent16periodicCallbackEv
                0x00000000        0x2 .pioenvs\bluepill_f103c8\lib635\libcodal-core.a(MessageBus.o)
 .text._ZN5codal14CodalComponent12idleCallbackEv
                0x00000000        0x2 .pioenvs\bluepill_f103c8\lib635\libcodal-core.a(MessageBus.o)
 .text._ZN5codal14CodalComponentD2Ev
                0x00000000       0x18 .pioenvs\bluepill_f103c8\lib635\libcodal-core.a(MessageBus.o)
 .text._ZN5codal14CodalComponentD0Ev
                0x00000000       0x12 .pioenvs\bluepill_f103c8\lib635\libcodal-core.a(MessageBus.o)
 .rodata._ZTVN5codal14CodalComponentE
                0x00000000       0x1c .pioenvs\bluepill_f103c8\lib635\libcodal-core.a(MessageBus.o)
 .text          0x00000000        0x0 .pioenvs\bluepill_f103c8\lib635\libcodal-core.a(ManagedString.o)
 .data          0x00000000        0x0 .pioenvs\bluepill_f103c8\lib635\libcodal-core.a(ManagedString.o)
 .bss           0x00000000        0x0 .pioenvs\bluepill_f103c8\lib635\libcodal-core.a(ManagedString.o)
 .text._ZN5codal13ManagedString9initEmptyEv
                0x00000000        0xc .pioenvs\bluepill_f103c8\lib635\libcodal-core.a(ManagedString.o)
 .text._ZN5codal13ManagedStringC2EPNS_10StringDataE
                0x00000000       0x1c .pioenvs\bluepill_f103c8\lib635\libcodal-core.a(ManagedString.o)
 .text._ZN5codal13ManagedString8leakDataEv
                0x00000000       0x10 .pioenvs\bluepill_f103c8\lib635\libcodal-core.a(ManagedString.o)
 .text._ZN5codal13ManagedStringC2Ec
                0x00000000       0x1e .pioenvs\bluepill_f103c8\lib635\libcodal-core.a(ManagedString.o)
 .text._ZN5codal13ManagedStringC2EPKc
                0x00000000       0x2c .pioenvs\bluepill_f103c8\lib635\libcodal-core.a(ManagedString.o)
 .text._ZN5codal13ManagedStringC2ERKS0_S2_
                0x00000000       0x5a .pioenvs\bluepill_f103c8\lib635\libcodal-core.a(ManagedString.o)
 .text._ZN5codal13ManagedStringC2ENS_13ManagedBufferE
                0x00000000       0x12 .pioenvs\bluepill_f103c8\lib635\libcodal-core.a(ManagedString.o)
 .text._ZN5codal13ManagedStringeqERKS0_
                0x00000000       0x22 .pioenvs\bluepill_f103c8\lib635\libcodal-core.a(ManagedString.o)
 .text._ZN5codal13ManagedStringltERKS0_
                0x00000000       0x12 .pioenvs\bluepill_f103c8\lib635\libcodal-core.a(ManagedString.o)
 .text._ZN5codal13ManagedStringgtERKS0_
                0x00000000       0x18 .pioenvs\bluepill_f103c8\lib635\libcodal-core.a(ManagedString.o)
 .text._ZN5codal13ManagedString9substringEss
                0x00000000       0x34 .pioenvs\bluepill_f103c8\lib635\libcodal-core.a(ManagedString.o)
 .text._ZN5codalplERKNS_13ManagedStringES2_
                0x00000000       0x28 .pioenvs\bluepill_f103c8\lib635\libcodal-core.a(ManagedString.o)
 .text          0x00000000        0x0 .pioenvs\bluepill_f103c8\lib635\libcodal-core.a(RefCounted.o)
 .data          0x00000000        0x0 .pioenvs\bluepill_f103c8\lib635\libcodal-core.a(RefCounted.o)
 .bss           0x00000000        0x0 .pioenvs\bluepill_f103c8\lib635\libcodal-core.a(RefCounted.o)
 .text._ZN5codal10RefCounted10isReadOnlyEv
                0x00000000        0x4 .pioenvs\bluepill_f103c8\lib635\libcodal-core.a(RefCounted.o)
 .text          0x00000000        0x0 .pioenvs\bluepill_f103c8\lib635\libcodal-core.a(RefCountedInit.o)
 .data          0x00000000        0x0 .pioenvs\bluepill_f103c8\lib635\libcodal-core.a(RefCountedInit.o)
 .bss           0x00000000        0x0 .pioenvs\bluepill_f103c8\lib635\libcodal-core.a(RefCountedInit.o)
 .text          0x00000000        0x0 .pioenvs\bluepill_f103c8\lib635\libcodal-core.a(MemberFunctionCallback.o)
 .data          0x00000000        0x0 .pioenvs\bluepill_f103c8\lib635\libcodal-core.a(MemberFunctionCallback.o)
 .bss           0x00000000        0x0 .pioenvs\bluepill_f103c8\lib635\libcodal-core.a(MemberFunctionCallback.o)
 .text          0x00000000        0x0 .pioenvs\bluepill_f103c8\liba13\libnewlib.a(memcmp.o)
 .data          0x00000000        0x0 .pioenvs\bluepill_f103c8\liba13\libnewlib.a(memcmp.o)
 .bss           0x00000000        0x0 .pioenvs\bluepill_f103c8\liba13\libnewlib.a(memcmp.o)
 .text          0x00000000        0x0 .pioenvs\bluepill_f103c8\liba13\libnewlib.a(memmove.o)
 .data          0x00000000        0x0 .pioenvs\bluepill_f103c8\liba13\libnewlib.a(memmove.o)
 .bss           0x00000000        0x0 .pioenvs\bluepill_f103c8\liba13\libnewlib.a(memmove.o)
 .text.memmove  0x00000000       0x32 .pioenvs\bluepill_f103c8\liba13\libnewlib.a(memmove.o)
 .comment       0x00000000       0x7f .pioenvs\bluepill_f103c8\liba13\libnewlib.a(memmove.o)
 .ARM.attributes
                0x00000000       0x33 .pioenvs\bluepill_f103c8\liba13\libnewlib.a(memmove.o)
 .text          0x00000000        0x0 .pioenvs\bluepill_f103c8\liba13\libnewlib.a(strcmp.o)
 .data          0x00000000        0x0 .pioenvs\bluepill_f103c8\liba13\libnewlib.a(strcmp.o)
 .bss           0x00000000        0x0 .pioenvs\bluepill_f103c8\liba13\libnewlib.a(strcmp.o)
 .text.strcmp   0x00000000       0x16 .pioenvs\bluepill_f103c8\liba13\libnewlib.a(strcmp.o)
 .comment       0x00000000       0x7f .pioenvs\bluepill_f103c8\liba13\libnewlib.a(strcmp.o)
 .ARM.attributes
                0x00000000       0x33 .pioenvs\bluepill_f103c8\liba13\libnewlib.a(strcmp.o)
 .data          0x00000000        0x0 .pioenvs\bluepill_f103c8\lib46d\libqfplib.a(qfplib.o)
 .bss           0x00000000        0x0 .pioenvs\bluepill_f103c8\lib46d\libqfplib.a(qfplib.o)
 .text          0x00000000        0x0 .pioenvs\bluepill_f103c8\lib24c\libcm.a(CmI2C.o)
 .data          0x00000000        0x0 .pioenvs\bluepill_f103c8\lib24c\libcm.a(CmI2C.o)
 .bss           0x00000000        0x0 .pioenvs\bluepill_f103c8\lib24c\libcm.a(CmI2C.o)
 .text._ZN5codal3_cm3I2C4initEv
                0x00000000        0x2 .pioenvs\bluepill_f103c8\lib24c\libcm.a(CmI2C.o)
 .text          0x00000000        0x0 .pioenvs\bluepill_f103c8\lib24c\libcm.a(CmSPI.o)
 .data          0x00000000        0x0 .pioenvs\bluepill_f103c8\lib24c\libcm.a(CmSPI.o)
 .bss           0x00000000        0x0 .pioenvs\bluepill_f103c8\lib24c\libcm.a(CmSPI.o)
 .text._ZN5codal3_cm3SPIC2ERNS0_3PinES3_S3_
                0x00000000       0x60 .pioenvs\bluepill_f103c8\lib24c\libcm.a(CmSPI.o)
 .text._ZN5codal3_cm3SPI8completeEv
                0x00000000       0x34 .pioenvs\bluepill_f103c8\lib24c\libcm.a(CmSPI.o)
 .text._ZN5codal3_cm3SPI4_irqEPS1_
                0x00000000        0x2 .pioenvs\bluepill_f103c8\lib24c\libcm.a(CmSPI.o)
 .text._ZN5codal3_cm3SPI5_findEPS1_
                0x00000000       0x7c .pioenvs\bluepill_f103c8\lib24c\libcm.a(CmSPI.o)
 .text._ZN5codal3_cm3SPI9_completeEPS1_
                0x00000000       0x12 .pioenvs\bluepill_f103c8\lib24c\libcm.a(CmSPI.o)
 .rodata._ZN5codal3_cm3SPI8completeEv.str1.1
                0x00000000       0x12 .pioenvs\bluepill_f103c8\lib24c\libcm.a(CmSPI.o)
 .group         0x00000000        0x8 .pioenvs\bluepill_f103c8\lib24c\libcm.a(CmSerial.o)
 .group         0x00000000        0x8 .pioenvs\bluepill_f103c8\lib24c\libcm.a(CmSerial.o)
 .group         0x00000000        0x8 .pioenvs\bluepill_f103c8\lib24c\libcm.a(CmSerial.o)
 .group         0x00000000        0x8 .pioenvs\bluepill_f103c8\lib24c\libcm.a(CmSerial.o)
 .group         0x00000000        0x8 .pioenvs\bluepill_f103c8\lib24c\libcm.a(CmSerial.o)
 .group         0x00000000        0x8 .pioenvs\bluepill_f103c8\lib24c\libcm.a(CmSerial.o)
 .group         0x00000000        0x8 .pioenvs\bluepill_f103c8\lib24c\libcm.a(CmSerial.o)
 .group         0x00000000        0x8 .pioenvs\bluepill_f103c8\lib24c\libcm.a(CmSerial.o)
 .group         0x00000000        0x8 .pioenvs\bluepill_f103c8\lib24c\libcm.a(CmSerial.o)
 .group         0x00000000       0x14 .pioenvs\bluepill_f103c8\lib24c\libcm.a(CmSerial.o)
 .text          0x00000000        0x0 .pioenvs\bluepill_f103c8\lib24c\libcm.a(CmSerial.o)
 .data          0x00000000        0x0 .pioenvs\bluepill_f103c8\lib24c\libcm.a(CmSerial.o)
 .bss           0x00000000        0x0 .pioenvs\bluepill_f103c8\lib24c\libcm.a(CmSerial.o)
 .text._ZN5codal14CodalComponent4initEv
                0x00000000        0x8 .pioenvs\bluepill_f103c8\lib24c\libcm.a(CmSerial.o)
 .text._ZN5codal14CodalComponent16periodicCallbackEv
                0x00000000        0x2 .pioenvs\bluepill_f103c8\lib24c\libcm.a(CmSerial.o)
 .text._ZN5codal14CodalComponent12idleCallbackEv
                0x00000000        0x2 .pioenvs\bluepill_f103c8\lib24c\libcm.a(CmSerial.o)
 .text._ZN5codal3_cm6Serial12dataReceivedEv
                0x00000000       0x80 .pioenvs\bluepill_f103c8\lib24c\libcm.a(CmSerial.o)
 .text._ZN5codal3_cm6Serial11dataWrittenEv
                0x00000000       0x3c .pioenvs\bluepill_f103c8\lib24c\libcm.a(CmSerial.o)
 .text._ZN5codal3_cm6Serial14setTxInterruptEPhiNS_10SerialModeE
                0x00000000       0x44 .pioenvs\bluepill_f103c8\lib24c\libcm.a(CmSerial.o)
 .text._ZN5codal3_cm6Serial6lockRxEv
                0x00000000        0xa .pioenvs\bluepill_f103c8\lib24c\libcm.a(CmSerial.o)
 .text._ZN5codal3_cm6Serial6lockTxEv
                0x00000000        0xa .pioenvs\bluepill_f103c8\lib24c\libcm.a(CmSerial.o)
 .text._ZN5codal3_cm6Serial8unlockRxEv
                0x00000000        0xa .pioenvs\bluepill_f103c8\lib24c\libcm.a(CmSerial.o)
 .text._ZN5codal3_cm6Serial8unlockTxEv
                0x00000000        0xa .pioenvs\bluepill_f103c8\lib24c\libcm.a(CmSerial.o)
 .text._ZN5codal3_cm6Serial12initialiseTxEv
                0x00000000       0x3a .pioenvs\bluepill_f103c8\lib24c\libcm.a(CmSerial.o)
 .text._ZN5codal3_cm6Serial4baudEi
                0x00000000        0xe .pioenvs\bluepill_f103c8\lib24c\libcm.a(CmSerial.o)
 .text._ZN5codal3_cm6Serial10eventAfterEiNS_10SerialModeE
                0x00000000       0x2e .pioenvs\bluepill_f103c8\lib24c\libcm.a(CmSerial.o)
 .text._ZN5codal3_cm6Serial7getCharENS_10SerialModeE
                0x00000000       0x4c .pioenvs\bluepill_f103c8\lib24c\libcm.a(CmSerial.o)
 .text._ZN5codal3_cm6Serial4readENS_10SerialModeE
                0x00000000       0x3c .pioenvs\bluepill_f103c8\lib24c\libcm.a(CmSerial.o)
 .text._ZN5codal3_cm6Serial10isReadableEv
                0x00000000        0xc .pioenvs\bluepill_f103c8\lib24c\libcm.a(CmSerial.o)
 .text._ZN5codal3_cm6Serial11isWriteableEv
                0x00000000        0xe .pioenvs\bluepill_f103c8\lib24c\libcm.a(CmSerial.o)
 .text._ZN5codal3_cm6Serial15setRxBufferSizeEh
                0x00000000       0x2c .pioenvs\bluepill_f103c8\lib24c\libcm.a(CmSerial.o)
 .text._ZN5codal3_cm6Serial15setTxBufferSizeEh
                0x00000000       0x2c .pioenvs\bluepill_f103c8\lib24c\libcm.a(CmSerial.o)
 .text._ZN5codal3_cm6Serial15getRxBufferSizeEv
                0x00000000        0x4 .pioenvs\bluepill_f103c8\lib24c\libcm.a(CmSerial.o)
 .text._ZN5codal3_cm6Serial15getTxBufferSizeEv
                0x00000000        0x6 .pioenvs\bluepill_f103c8\lib24c\libcm.a(CmSerial.o)
 .text._ZN5codal3_cm6Serial13clearRxBufferEv
                0x00000000       0x20 .pioenvs\bluepill_f103c8\lib24c\libcm.a(CmSerial.o)
 .text._ZN5codal3_cm6Serial13clearTxBufferEv
                0x00000000       0x20 .pioenvs\bluepill_f103c8\lib24c\libcm.a(CmSerial.o)
 .text._ZN5codal3_cm6Serial14rxBufferedSizeEv
                0x00000000       0x14 .pioenvs\bluepill_f103c8\lib24c\libcm.a(CmSerial.o)
 .text._ZN5codal3_cm6Serial4readEPhiNS_10SerialModeE
                0x00000000       0xb8 .pioenvs\bluepill_f103c8\lib24c\libcm.a(CmSerial.o)
 .text._ZN5codal3_cm6Serial4readEiNS_10SerialModeE
                0x00000000       0x4c .pioenvs\bluepill_f103c8\lib24c\libcm.a(CmSerial.o)
 .text._ZN5codal3_cm6Serial14txBufferedSizeEv
                0x00000000       0x1a .pioenvs\bluepill_f103c8\lib24c\libcm.a(CmSerial.o)
 .text._ZN5codal3_cm6Serial4sendENS_10SerialModeE
                0x00000000       0x22 .pioenvs\bluepill_f103c8\lib24c\libcm.a(CmSerial.o)
 .text._ZN5codal3_cm6Serial8sendCharEcNS_10SerialModeE
                0x00000000       0x5c .pioenvs\bluepill_f103c8\lib24c\libcm.a(CmSerial.o)
 .text._ZN5codal3_cm6Serial4sendEPhiNS_10SerialModeE
                0x00000000       0x6c .pioenvs\bluepill_f103c8\lib24c\libcm.a(CmSerial.o)
 .text._ZN5codal3_cm6Serial4sendENS_13ManagedStringENS_10SerialModeE
                0x00000000        0xe .pioenvs\bluepill_f103c8\lib24c\libcm.a(CmSerial.o)
 .text._ZN5codal3_cm6Serial8redirectE7PinNameS2_
                0x00000000       0x30 .pioenvs\bluepill_f103c8\lib24c\libcm.a(CmSerial.o)
 .text._ZN5codal3_cm6Serial7rxInUseEv
                0x00000000        0x8 .pioenvs\bluepill_f103c8\lib24c\libcm.a(CmSerial.o)
 .text._ZN5codal3_cm6Serial7txInUseEv
                0x00000000        0x8 .pioenvs\bluepill_f103c8\lib24c\libcm.a(CmSerial.o)
 .text._ZN5codal3_cm6Serial6attachENS_19SerialInterruptTypeEMS1_FvvE
                0x00000000        0xe .pioenvs\bluepill_f103c8\lib24c\libcm.a(CmSerial.o)
 .text._ZN5codal3_cm6Serial6detachENS_19SerialInterruptTypeE
                0x00000000        0x4 .pioenvs\bluepill_f103c8\lib24c\libcm.a(CmSerial.o)
 .text          0x00000000        0x0 .pioenvs\bluepill_f103c8\lib24c\libcm.a(CmTimer.o)
 .data          0x00000000        0x0 .pioenvs\bluepill_f103c8\lib24c\libcm.a(CmTimer.o)
 .bss           0x00000000        0x0 .pioenvs\bluepill_f103c8\lib24c\libcm.a(CmTimer.o)
 .text.TIM5_IRQHandler
                0x00000000        0x2 .pioenvs\bluepill_f103c8\lib24c\libcm.a(CmTimer.o)
 .text.wait_us  0x00000000        0x4 .pioenvs\bluepill_f103c8\lib24c\libcm.a(CmTimer.o)
 .text          0x00000000        0x0 .pioenvs\bluepill_f103c8\lib24c\libcm.a(CmPinMap.o)
 .data          0x00000000        0x0 .pioenvs\bluepill_f103c8\lib24c\libcm.a(CmPinMap.o)
 .bss           0x00000000        0x0 .pioenvs\bluepill_f103c8\lib24c\libcm.a(CmPinMap.o)
 .text          0x00000000        0x0 .pioenvs\bluepill_f103c8\lib635\libcodal-core.a(I2C.o)
 .data          0x00000000        0x0 .pioenvs\bluepill_f103c8\lib635\libcodal-core.a(I2C.o)
 .bss           0x00000000        0x0 .pioenvs\bluepill_f103c8\lib635\libcodal-core.a(I2C.o)

Memory Configuration

Name             Origin             Length             Attributes
bootrom          0x08000000         0x00008000         xr
rom              0x08008000         0x00008000         xr
bootram          0x20000000         0x00002800         xrw
ram              0x20002800         0x00002800         xrw
*default*        0x00000000         0xffffffff

Linker script and memory map


.boot_text      0x08000000     0x1020
 *(SORT_BY_ALIGNMENT(.vectors))
 .vectors       0x08000000      0x150 .pioenvs\bluepill_f103c8\libFrameworkLibOpenCM3.a(vector.o)
                0x08000000                vector_table
 liblibopencm3.a:*(SORT_BY_ALIGNMENT(.text*))
 libFrameworkLibOpenCM3.a:*(SORT_BY_ALIGNMENT(.text*))
                0x08000150                . = ALIGN (0x4)
 *(SORT_BY_ALIGNMENT(.rodata*))
 .rodata._ZTVN5codal5TimerE
                0x08000150       0x18 .pioenvs\bluepill_f103c8\lib635\libcodal-core.a(Timer.o)
                0x08000150                vtable for codal::Timer
 .rodata._ZTVN5codal3_cm3PinE
                0x08000168       0x54 .pioenvs\bluepill_f103c8\lib24c\libcm.a(CmPin.o)
                0x08000168                vtable for codal::_cm::Pin
 .rodata._ZTVN5codal14CodalComponentE
                0x080001bc       0x1c .pioenvs\bluepill_f103c8\libff7\libbluepill.a(STM32BluePill.o)
                0x080001bc                vtable for codal::CodalComponent
 .rodata._ZTVN5codal13STM32BluePillE
                0x080001d8       0x1c .pioenvs\bluepill_f103c8\libff7\libbluepill.a(STM32BluePill.o)
                0x080001d8                vtable for codal::STM32BluePill
 .rodata.PinMap_SPI_MISO
                0x080001f4       0x48 .pioenvs\bluepill_f103c8\libff7\libbluepill.a(STM32BluePillIO.o)
                0x080001f4                PinMap_SPI_MISO
 .rodata.PinMap_SPI_MOSI
                0x0800023c       0x48 .pioenvs\bluepill_f103c8\libff7\libbluepill.a(STM32BluePillIO.o)
                0x0800023c                PinMap_SPI_MOSI
 .rodata.PinMap_SPI_NSS
                0x08000284       0x48 .pioenvs\bluepill_f103c8\libff7\libbluepill.a(STM32BluePillIO.o)
                0x08000284                PinMap_SPI_NSS
 .rodata.PinMap_SPI_SCK
                0x080002cc       0x48 .pioenvs\bluepill_f103c8\libff7\libbluepill.a(STM32BluePillIO.o)
                0x080002cc                PinMap_SPI_SCK
 .rodata.interfaces
                0x08000314       0x30 .pioenvs\bluepill_f103c8\lib443\libbootloader.a(usb_conf.o)
 .rodata.st_usbfs_v1_usb_driver
                0x08000344       0x34 .pioenvs\bluepill_f103c8\libFrameworkLibOpenCM3.a(st_usbfs_v1.o)
                0x08000344                st_usbfs_v1_usb_driver
 .rodata._ZTVN5codal6SerialE
                0x08000378       0x38 .pioenvs\bluepill_f103c8\lib635\libcodal-core.a(Serial.o)
                0x08000378                vtable for codal::Serial
 .rodata._ZTVN5codal10EventModelE
                0x080003b0       0x14 .pioenvs\bluepill_f103c8\lib635\libcodal-core.a(MessageBus.o)
                0x080003b0                vtable for codal::EventModel
 .rodata._ZTVN5codal10MessageBusE
                0x080003c4       0x3c .pioenvs\bluepill_f103c8\lib635\libcodal-core.a(MessageBus.o)
                0x080003c4                vtable for codal::MessageBus
 .rodata._ZL9emptyData
                0x08000400        0x4 .pioenvs\bluepill_f103c8\lib635\libcodal-core.a(ManagedString.o)
 .rodata._ZTVN5codal3_cm3I2CE
                0x08000404       0x2c .pioenvs\bluepill_f103c8\lib24c\libcm.a(CmI2C.o)
                0x08000404                vtable for codal::_cm::I2C
 .rodata._ZTVN5codal3_cm3SPIE
                0x08000430       0x1c .pioenvs\bluepill_f103c8\lib24c\libcm.a(CmSPI.o)
                0x08000430                vtable for codal::_cm::SPI
 .rodata._ZTVN5codal3_cm6SerialE
                0x0800044c       0x38 .pioenvs\bluepill_f103c8\lib24c\libcm.a(CmSerial.o)
                0x0800044c                vtable for codal::_cm::Serial
 .rodata._ZTVN5codal3_cm5TimerE
                0x08000484       0x18 .pioenvs\bluepill_f103c8\lib24c\libcm.a(CmTimer.o)
                0x08000484                vtable for codal::_cm::Timer
 .rodata._ZTVN5codal3I2CE
                0x0800049c       0x2c .pioenvs\bluepill_f103c8\lib635\libcodal-core.a(I2C.o)
                0x0800049c                vtable for codal::I2C
 .rodata._Z10Blink_mainRN5codal13STM32BluePillE.str1.1
                0x080004c8       0x1f .pioenvs\bluepill_f103c8\src\main.o
 .rodata._ZL10debug_dumpRN5codal13STM32BluePillEPKc.str1.1
                0x080004e7       0x21 .pioenvs\bluepill_f103c8\src\main.o
                                 0x22 (size before relaxing)
 .rodata.test_nanofloat.str1.1
                0x08000508      0x21f .pioenvs\bluepill_f103c8\src\unit_test.o
                                0x220 (size before relaxing)
 .rodata._Z11debug_printi.str1.1
                0x08000727        0x2 .pioenvs\bluepill_f103c8\lib931\liblogger.a(logger.o)
                                  0x4 (size before relaxing)
 .rodata._Z11debug_printj.str1.1
                0x08000729        0xb .pioenvs\bluepill_f103c8\lib931\liblogger.a(logger.o)
 .rodata.debug_println.str1.1
                0x08000734        0x2 .pioenvs\bluepill_f103c8\lib931\liblogger.a(logger.o)
 .rodata.UnityPrintFloat.str1.1
                0x08000736        0x8 .pioenvs\bluepill_f103c8\lib0e4\libunity.a(unity.o)
                                  0xa (size before relaxing)
 .rodata.UnityStrBreaker
                0x0800073e       0x18 .pioenvs\bluepill_f103c8\lib0e4\libunity.a(unity.o)
 .rodata.UnityStrDetail1Name
                0x08000756        0xa .pioenvs\bluepill_f103c8\lib0e4\libunity.a(unity.o)
 .rodata.UnityStrDetail2Name
                0x08000760        0xb .pioenvs\bluepill_f103c8\lib0e4\libunity.a(unity.o)
 .rodata.UnityStrExpected
                0x0800076b        0xb .pioenvs\bluepill_f103c8\lib0e4\libunity.a(unity.o)
 .rodata.UnityStrFail
                0x08000776        0x5 .pioenvs\bluepill_f103c8\lib0e4\libunity.a(unity.o)
 .rodata.UnityStrOk
                0x0800077b        0x3 .pioenvs\bluepill_f103c8\lib0e4\libunity.a(unity.o)
 .rodata.UnityStrPass
                0x0800077e        0x5 .pioenvs\bluepill_f103c8\lib0e4\libunity.a(unity.o)
 .rodata.UnityStrResultsFailures
                0x08000783        0xb .pioenvs\bluepill_f103c8\lib0e4\libunity.a(unity.o)
 .rodata.UnityStrResultsIgnored
                0x0800078e        0xa .pioenvs\bluepill_f103c8\lib0e4\libunity.a(unity.o)
 .rodata.UnityStrResultsTests
                0x08000798        0x8 .pioenvs\bluepill_f103c8\lib0e4\libunity.a(unity.o)
 .rodata.UnityStrSpacer
                0x080007a0        0x3 .pioenvs\bluepill_f103c8\lib0e4\libunity.a(unity.o)
 .rodata.UnityStrWas
                0x080007a3        0x6 .pioenvs\bluepill_f103c8\lib0e4\libunity.a(unity.o)
 .rodata._ZN5codal3_cm3Pin15setDigitalValueEi.str1.1
                0x080007a9       0x42 .pioenvs\bluepill_f103c8\lib24c\libcm.a(CmPin.o)
 .rodata.target_panic.str1.1
                0x080007eb       0x13 .pioenvs\bluepill_f103c8\lib24c\libcm.a(codal_target_hal.o)
 .rodata.target_wait.str1.1
                0x080007fe       0x10 .pioenvs\bluepill_f103c8\lib24c\libcm.a(codal_target_hal.o)
 .rodata.target_wait_us.str1.1
                0x0800080e       0x13 .pioenvs\bluepill_f103c8\lib24c\libcm.a(codal_target_hal.o)
 .rodata.test_codal.str1.1
                0x08000821       0x34 .pioenvs\bluepill_f103c8\lib24c\libcm.a(codal_target_hal.o)
 .rodata.platform_setup.str1.1
                0x08000855       0x13 .pioenvs\bluepill_f103c8\libff7\libbluepill.a(bluepill.o)
 .rodata.platform_start_timer.str1.1
                0x08000868       0x2f .pioenvs\bluepill_f103c8\libff7\libbluepill.a(timer.o)
 .rodata.bootloader_start.str1.1
                0x08000897       0x74 .pioenvs\bluepill_f103c8\lib443\libbootloader.a(bootloader.o)
 .rodata.target_flash_program_array.str1.1
                0x0800090b       0x6a .pioenvs\bluepill_f103c8\lib443\libbootloader.a(target_stm32f103.o)
                                 0x6b (size before relaxing)
 .rodata.aggregate_callback.str1.1
                0x08000975        0x4 .pioenvs\bluepill_f103c8\lib443\libbootloader.a(usb_conf.o)
 .rodata.aggregate_register_callback.str1.1
                0x08000979       0x26 .pioenvs\bluepill_f103c8\lib443\libbootloader.a(usb_conf.o)
 .rodata.aggregate_register_config_callback.str1.1
                0x0800099f       0x25 .pioenvs\bluepill_f103c8\lib443\libbootloader.a(usb_conf.o)
 .rodata.bos_descriptor
                0x080009c4        0x9 .pioenvs\bluepill_f103c8\lib443\libbootloader.a(usb_conf.o)
 .rodata.cdc_iface_assoc
                0x080009cd        0x8 .pioenvs\bluepill_f103c8\lib443\libbootloader.a(usb_conf.o)
 .rodata.cdcacm_functional_descriptors
                0x080009d5       0x13 .pioenvs\bluepill_f103c8\lib443\libbootloader.a(usb_conf.o)
 .rodata.comm_endp
                0x080009e8        0xf .pioenvs\bluepill_f103c8\lib443\libbootloader.a(usb_conf.o)
 .rodata.comm_iface
                0x080009f7       0x15 .pioenvs\bluepill_f103c8\lib443\libbootloader.a(usb_conf.o)
 .rodata.config
                0x08000a0c        0xd .pioenvs\bluepill_f103c8\lib443\libbootloader.a(usb_conf.o)
 .rodata.data_endp
                0x08000a19       0x1e .pioenvs\bluepill_f103c8\lib443\libbootloader.a(usb_conf.o)
 .rodata.data_iface
                0x08000a37       0x15 .pioenvs\bluepill_f103c8\lib443\libbootloader.a(usb_conf.o)
 .rodata.dev    0x08000a4c       0x12 .pioenvs\bluepill_f103c8\lib443\libbootloader.a(usb_conf.o)
 .rodata.dump_buffer.str1.1
                0x08000a5e       0x25 .pioenvs\bluepill_f103c8\lib443\libbootloader.a(usb_conf.o)
                                  0x7 (size before relaxing)
 .rodata.dump_usb_request.str1.1
                0x08000a5e       0x6c .pioenvs\bluepill_f103c8\lib443\libbootloader.a(usb_conf.o)
                                 0x70 (size before relaxing)
 .rodata.hf2_endp
                0x08000aca       0x1e .pioenvs\bluepill_f103c8\lib443\libbootloader.a(usb_conf.o)
 .rodata.hf2_iface
                0x08000ae8       0x15 .pioenvs\bluepill_f103c8\lib443\libbootloader.a(usb_conf.o)
 .rodata.set_aggregate_callback.str1.1
                0x08000afd       0x40 .pioenvs\bluepill_f103c8\lib443\libbootloader.a(usb_conf.o)
 .rodata.str1.1
                0x08000b3d       0x7e .pioenvs\bluepill_f103c8\lib443\libbootloader.a(usb_conf.o)
 .rodata.usb_setup.str1.1
                0x08000bbb       0x2e .pioenvs\bluepill_f103c8\lib443\libbootloader.a(usb_conf.o)
 .rodata.webusb_control_vendor_request.str1.1
                0x08000be9       0x3c .pioenvs\bluepill_f103c8\lib443\libbootloader.a(webusb.o)
                                 0x3d (size before relaxing)
 .rodata.webusb_platform_capability_descriptor
                0x08000c25       0x18 .pioenvs\bluepill_f103c8\lib443\libbootloader.a(webusb.o)
                0x08000c25                webusb_platform_capability_descriptor
 .rodata.webusb_set_config.str1.1
                0x08000c3d       0x1d .pioenvs\bluepill_f103c8\lib443\libbootloader.a(webusb.o)
 .rodata.webusb_setup.str1.1
                0x08000c5a       0x18 .pioenvs\bluepill_f103c8\lib443\libbootloader.a(webusb.o)
 .rodata.guid   0x08000c72       0x92 .pioenvs\bluepill_f103c8\lib443\libbootloader.a(winusb.o)
 .rodata.microsoft_platform_capability_descriptor
                0x08000d04       0x1c .pioenvs\bluepill_f103c8\lib443\libbootloader.a(winusb.o)
                0x08000d04                microsoft_platform_capability_descriptor
 .rodata.winusb_control_vendor_request.str1.1
                0x08000d20       0x14 .pioenvs\bluepill_f103c8\lib443\libbootloader.a(winusb.o)
 .rodata.winusb_descriptor_request.str1.1
                0x08000d34        0x6 .pioenvs\bluepill_f103c8\lib443\libbootloader.a(winusb.o)
 .rodata.winusb_set_config.str1.1
                0x08000d3a       0x1d .pioenvs\bluepill_f103c8\lib443\libbootloader.a(winusb.o)
 .rodata.winusb_setup.str1.1
                0x08000d57       0x18 .pioenvs\bluepill_f103c8\lib443\libbootloader.a(winusb.o)
 .rodata.winusb_string_descriptor
                0x08000d6f       0x12 .pioenvs\bluepill_f103c8\lib443\libbootloader.a(winusb.o)
 .rodata.cdc_setup.str1.1
                0x08000d81       0x15 .pioenvs\bluepill_f103c8\lib443\libbootloader.a(cdc.o)
 .rodata.cdcacm_comm_cb.str1.1
                0x08000d96        0x5 .pioenvs\bluepill_f103c8\lib443\libbootloader.a(cdc.o)
 .rodata.cdcacm_control_request.str1.1
                0x08000d9b       0x28 .pioenvs\bluepill_f103c8\lib443\libbootloader.a(cdc.o)
                                 0x30 (size before relaxing)
 .rodata.cdcacm_data_rx_cb.str1.1
                0x08000dc3        0x4 .pioenvs\bluepill_f103c8\lib443\libbootloader.a(cdc.o)
 .rodata.cdcacm_set_config.str1.1
                0x08000dc7       0x1d .pioenvs\bluepill_f103c8\lib443\libbootloader.a(cdc.o)
 .rodata.line_coding
                0x08000de4        0x7 .pioenvs\bluepill_f103c8\lib443\libbootloader.a(cdc.o)
 .rodata.assert.part.0.str1.1
                0x08000deb        0xc .pioenvs\bluepill_f103c8\lib443\libbootloader.a(hf2.o)
 .rodata.bad_packet_message
                0x08000df7        0xb .pioenvs\bluepill_f103c8\lib443\libbootloader.a(hf2.o)
 .rodata.hf2_data_rx_cb.str1.1
                0x08000e02       0x88 .pioenvs\bluepill_f103c8\lib443\libbootloader.a(hf2.o)
                                 0x89 (size before relaxing)
 .rodata.hf2_set_config.str1.1
                0x08000e8a        0xb .pioenvs\bluepill_f103c8\lib443\libbootloader.a(hf2.o)
 .rodata.hf2_setup.str1.1
                0x08000e95       0x15 .pioenvs\bluepill_f103c8\lib443\libbootloader.a(hf2.o)
 .rodata.send_hf2_response.str1.1
                0x08000eaa        0x7 .pioenvs\bluepill_f103c8\lib443\libbootloader.a(hf2.o)
 .rodata.usb21_set_config.str1.1
                0x08000eb1       0x1c .pioenvs\bluepill_f103c8\lib443\libbootloader.a(usb21_standard.o)
 .rodata.usb21_setup.str1.1
                0x08000ecd       0x17 .pioenvs\bluepill_f103c8\lib443\libbootloader.a(usb21_standard.o)
 .rodata.usb21_standard_get_descriptor.str1.1
                0x08000ee4       0x21 .pioenvs\bluepill_f103c8\lib443\libbootloader.a(usb21_standard.o)
 .rodata.flushFlash.str1.1
                0x08000f05       0x1e .pioenvs\bluepill_f103c8\lib443\libbootloader.a(ghostfat.o)
                                 0x1f (size before relaxing)
 .rodata.infoUf2File
                0x08000f23       0x55 .pioenvs\bluepill_f103c8\lib443\libbootloader.a(ghostfat.o)
                0x08000f23                infoUf2File
 .rodata.chars.4166
                0x08000f78       0x11 .pioenvs\bluepill_f103c8\libFrameworkLibOpenCM3.a(desig.o)
 .rodata._ZN5codal3_cm3SPI4initEv.str1.1
                0x08000f89       0x10 .pioenvs\bluepill_f103c8\lib24c\libcm.a(CmSPI.o)
 .rodata._ZN5codal3_cm3SPIC2ERNS0_3PinES3_S3_.str1.1
                0x08000f99       0x22 .pioenvs\bluepill_f103c8\lib24c\libcm.a(CmSPI.o)
                                 0x23 (size before relaxing)
 .rodata._ZN5codal3_cm3SPIC2ERNS0_3PinES3_S3_S3_.str1.1
                0x08000fbb        0x6 .pioenvs\bluepill_f103c8\lib24c\libcm.a(CmSPI.o)
                                 0x10 (size before relaxing)
 .rodata._ZN5codal3_cm5Timer4initEv.str1.1
                0x08000fc1        0xb .pioenvs\bluepill_f103c8\lib24c\libcm.a(CmTimer.o)
 .rodata.pinmap_cnf.str1.1
                0x08000fcc       0x19 .pioenvs\bluepill_f103c8\lib24c\libcm.a(CmPinMap.o)
 .rodata.pinmap_mode.str1.1
                0x08000fe5       0x1a .pioenvs\bluepill_f103c8\lib24c\libcm.a(CmPinMap.o)
 .rodata.pinmap_peripheral.str1.1
                0x08000fff       0x20 .pioenvs\bluepill_f103c8\lib24c\libcm.a(CmPinMap.o)
                0x08001020                . = ALIGN (0x4)
 *fill*         0x0800101f        0x1 

.text           0x08008000     0xb50c
 *(SORT_BY_ALIGNMENT(.vectors))
 *(SORT_BY_ALIGNMENT(.text*))
 .text.test_fabs
                0x08008000      0x160 .pioenvs\bluepill_f103c8\src\unit_test.o
                0x08008000                test_fabs
 .text.test_aeabi_ddiv
                0x08008160      0x19c .pioenvs\bluepill_f103c8\src\unit_test.o
                0x08008160                test_aeabi_ddiv
 *fill*         0x080082fc        0x4 
 .text.test_aeabi_dmul
                0x08008300      0x19c .pioenvs\bluepill_f103c8\src\unit_test.o
                0x08008300                test_aeabi_dmul
 *fill*         0x0800849c        0x4 
 .text.test_aeabi_dcmpeq
                0x080084a0      0x1a4 .pioenvs\bluepill_f103c8\src\unit_test.o
                0x080084a0                test_aeabi_dcmpeq
 *fill*         0x08008644        0x4 
 .text.test_aeabi_dcmplt
                0x08008648      0x1a4 .pioenvs\bluepill_f103c8\src\unit_test.o
                0x08008648                test_aeabi_dcmplt
 *fill*         0x080087ec        0x4 
 .text.test_aeabi_dcmple
                0x080087f0      0x1a4 .pioenvs\bluepill_f103c8\src\unit_test.o
                0x080087f0                test_aeabi_dcmple
 *fill*         0x08008994        0x4 
 .text.test_aeabi_dcmpge
                0x08008998      0x1a4 .pioenvs\bluepill_f103c8\src\unit_test.o
                0x08008998                test_aeabi_dcmpge
 *fill*         0x08008b3c        0x4 
 .text.test_aeabi_dcmpgt
                0x08008b40      0x1a4 .pioenvs\bluepill_f103c8\src\unit_test.o
                0x08008b40                test_aeabi_dcmpgt
 *fill*         0x08008ce4        0x4 
 .text.test_aeabi_dcmpun
                0x08008ce8      0x1a4 .pioenvs\bluepill_f103c8\src\unit_test.o
                0x08008ce8                test_aeabi_dcmpun
 *fill*         0x08008e8c        0x4 
 .text.test_aeabi_d2iz
                0x08008e90       0x94 .pioenvs\bluepill_f103c8\src\unit_test.o
                0x08008e90                test_aeabi_d2iz
 *fill*         0x08008f24        0x4 
 .text.test_aeabi_d2uiz
                0x08008f28       0x90 .pioenvs\bluepill_f103c8\src\unit_test.o
                0x08008f28                test_aeabi_d2uiz
 .text.test_sqrt
                0x08008fb8       0xc8 .pioenvs\bluepill_f103c8\src\unit_test.o
                0x08008fb8                test_sqrt
 .text.test_log
                0x08009080       0xd0 .pioenvs\bluepill_f103c8\src\unit_test.o
                0x08009080                test_log
 .text.test_exp
                0x08009150      0x128 .pioenvs\bluepill_f103c8\src\unit_test.o
                0x08009150                test_exp
 .text.test_log2
                0x08009278      0x10c .pioenvs\bluepill_f103c8\src\unit_test.o
                0x08009278                test_log2
 *fill*         0x08009384        0x4 
 .text.test_log10
                0x08009388       0xd0 .pioenvs\bluepill_f103c8\src\unit_test.o
                0x08009388                test_log10
 .text.test_pow
                0x08009458      0x110 .pioenvs\bluepill_f103c8\src\unit_test.o
                0x08009458                test_pow
 .text.test_ldexp
                0x08009568       0xc4 .pioenvs\bluepill_f103c8\src\unit_test.o
                0x08009568                test_ldexp
 *fill*         0x0800962c        0x4 
 .text.test_sin
                0x08009630      0x150 .pioenvs\bluepill_f103c8\src\unit_test.o
                0x08009630                test_sin
 .text.test_cos
                0x08009780      0x158 .pioenvs\bluepill_f103c8\src\unit_test.o
                0x08009780                test_cos
 .text.test_tan
                0x080098d8      0x148 .pioenvs\bluepill_f103c8\src\unit_test.o
                0x080098d8                test_tan
 .text.test_atan2
                0x08009a20      0x218 .pioenvs\bluepill_f103c8\src\unit_test.o
                0x08009a20                test_atan2
 .text.test_atan
                0x08009c38       0xc4 .pioenvs\bluepill_f103c8\src\unit_test.o
                0x08009c38                test_atan
 *fill*         0x08009cfc        0x4 
 .text.test_asin
                0x08009d00       0xa8 .pioenvs\bluepill_f103c8\src\unit_test.o
                0x08009d00                test_asin
 .text.test_acos
                0x08009da8      0x174 .pioenvs\bluepill_f103c8\src\unit_test.o
                0x08009da8                test_acos
 *fill*         0x08009f1c        0x4 
 .text.test_sinh
                0x08009f20      0x110 .pioenvs\bluepill_f103c8\src\unit_test.o
                0x08009f20                test_sinh
 .text.test_cosh
                0x0800a030      0x110 .pioenvs\bluepill_f103c8\src\unit_test.o
                0x0800a030                test_cosh
 .text.test_tanh
                0x0800a140      0x110 .pioenvs\bluepill_f103c8\src\unit_test.o
                0x0800a140                test_tanh
 .text.test_asinh
                0x0800a250      0x110 .pioenvs\bluepill_f103c8\src\unit_test.o
                0x0800a250                test_asinh
 .text.test_acosh
                0x0800a360       0x90 .pioenvs\bluepill_f103c8\src\unit_test.o
                0x0800a360                test_acosh
 .text.test_atanh
                0x0800a3f0       0xc8 .pioenvs\bluepill_f103c8\src\unit_test.o
                0x0800a3f0                test_atanh
 .text.test_trunc
                0x0800a4b8      0x178 .pioenvs\bluepill_f103c8\src\unit_test.o
                0x0800a4b8                test_trunc
 .text.test_floor
                0x0800a630      0x17c .pioenvs\bluepill_f103c8\src\unit_test.o
                0x0800a630                test_floor
 *fill*         0x0800a7ac        0x4 
 .text.test_ceil
                0x0800a7b0      0x17c .pioenvs\bluepill_f103c8\src\unit_test.o
                0x0800a7b0                test_ceil
 *fill*         0x0800a92c        0x4 
 .text.test_fmod
                0x0800a930      0x1d8 .pioenvs\bluepill_f103c8\src\unit_test.o
                0x0800a930                test_fmod
 .text.UnityPrintFloat
                0x0800ab08      0x344 .pioenvs\bluepill_f103c8\lib0e4\libunity.a(unity.o)
                0x0800ab08                UnityPrintFloat
 *fill*         0x0800ae4c        0x4 
 .text.acos     0x0800ae50       0xbc .pioenvs\bluepill_f103c8\libc64\libnano-float.a(functions.o)
                0x0800ae50                acos
 .text          0x0800af0c      0x124 asm/CortexContextSwitch.s.o
                0x0800af0c                swap_context
                0x0800af8e                save_context
                0x0800afd2                save_register_context
                0x0800b002                restore_register_context
 .text._ZL10debug_dumpRN5codal13STM32BluePillEPKc
                0x0800b030       0x7c .pioenvs\bluepill_f103c8\src\main.o
 .text._Z10Blink_mainRN5codal13STM32BluePillE
                0x0800b0ac       0x74 .pioenvs\bluepill_f103c8\src\main.o
                0x0800b0ac                Blink_main(codal::STM32BluePill&)
 .text.startup._GLOBAL__sub_I_serialPort
                0x0800b120       0x10 .pioenvs\bluepill_f103c8\src\uart.o
 .text.test_aeabi_fdiv
                0x0800b130      0x100 .pioenvs\bluepill_f103c8\src\unit_test.o
                0x0800b130                test_aeabi_fdiv
 .text.test_nanofloat
                0x0800b230      0x438 .pioenvs\bluepill_f103c8\src\unit_test.o
                0x0800b230                test_nanofloat
 .text.enable_log
                0x0800b668       0x18 .pioenvs\bluepill_f103c8\lib931\liblogger.a(logger.o)
                0x0800b668                enable_log
 .text.debug_flush
                0x0800b680       0x38 .pioenvs\bluepill_f103c8\lib931\liblogger.a(logger.o)
                0x0800b680                debug_flush
 .text._ZL12debug_appendPKcj
                0x0800b6b8       0x50 .pioenvs\bluepill_f103c8\lib931\liblogger.a(logger.o)
 .text._Z11debug_printj
                0x0800b708       0x7c .pioenvs\bluepill_f103c8\lib931\liblogger.a(logger.o)
                0x0800b708                debug_print(unsigned int)
 .text._Z11debug_printi
                0x0800b784       0x30 .pioenvs\bluepill_f103c8\lib931\liblogger.a(logger.o)
                0x0800b784                debug_print(int)
 .text.debug_println
                0x0800b7b4       0x1c .pioenvs\bluepill_f103c8\lib931\liblogger.a(logger.o)
                0x0800b7b4                debug_println
 .text._Z13debug_printlni
                0x0800b7d0       0x18 .pioenvs\bluepill_f103c8\lib931\liblogger.a(logger.o)
                0x0800b7d0                debug_println(int)
 .text._ZN5codal10EventModel6listenEiiPFvNS_5EventEEt
                0x0800b7e8       0x60 .pioenvs\bluepill_f103c8\lib635\libcodal-core.a(CodalFiber.o)
                0x0800b7e8                codal::EventModel::listen(int, int, void (*)(codal::Event), unsigned short)
 .text._ZN5codal14scheduler_tickENS_5EventE
                0x0800b848       0x38 .pioenvs\bluepill_f103c8\lib635\libcodal-core.a(CodalFiber.o)
                0x0800b848                codal::scheduler_tick(codal::Event)
 .text._ZN5codal15scheduler_eventENS_5EventE
                0x0800b880       0xc0 .pioenvs\bluepill_f103c8\lib635\libcodal-core.a(CodalFiber.o)
                0x0800b880                codal::scheduler_event(codal::Event)
 .text._Z15getFiberContextv
                0x0800b940       0x50 .pioenvs\bluepill_f103c8\lib635\libcodal-core.a(CodalFiber.o)
                0x0800b940                getFiberContext()
 .text._ZL10handle_fobv
                0x0800b990       0x2c .pioenvs\bluepill_f103c8\lib635\libcodal-core.a(CodalFiber.o)
 .text._ZN5codal23fiber_scheduler_runningEv
                0x0800b9bc       0x10 .pioenvs\bluepill_f103c8\lib635\libcodal-core.a(CodalFiber.o)
                0x0800b9bc                codal::fiber_scheduler_running()
 .text._ZN5codal14scheduler_initERNS_10EventModelE
                0x0800b9cc       0xac .pioenvs\bluepill_f103c8\lib635\libcodal-core.a(CodalFiber.o)
                0x0800b9cc                codal::scheduler_init(codal::EventModel&)
 .text._ZN5codal19fiber_wake_on_eventEtt
                0x0800ba78       0x5c .pioenvs\bluepill_f103c8\lib635\libcodal-core.a(CodalFiber.o)
                0x0800ba78                codal::fiber_wake_on_event(unsigned short, unsigned short)
 .text._Z14__create_fibermmmi
                0x0800bad4       0x64 .pioenvs\bluepill_f103c8\lib635\libcodal-core.a(CodalFiber.o)
                0x0800bad4                __create_fiber(unsigned long, unsigned long, unsigned long, int)
 .text._ZN5codal17verify_stack_sizeEPNS_5FiberE
                0x0800bb38       0x44 .pioenvs\bluepill_f103c8\lib635\libcodal-core.a(CodalFiber.o)
                0x0800bb38                codal::verify_stack_size(codal::Fiber*)
 .text._ZN5codal24scheduler_runqueue_emptyEv
                0x0800bb7c       0x10 .pioenvs\bluepill_f103c8\lib635\libcodal-core.a(CodalFiber.o)
                0x0800bb7c                codal::scheduler_runqueue_empty()
 .text._ZN5codal4idleEv
                0x0800bb8c       0x3c .pioenvs\bluepill_f103c8\lib635\libcodal-core.a(CodalFiber.o)
                0x0800bb8c                codal::idle()
 .text._ZN5codal8scheduleEv
                0x0800bbc8      0x108 .pioenvs\bluepill_f103c8\lib635\libcodal-core.a(CodalFiber.o)
                0x0800bbc8                codal::schedule()
 .text._ZN5codal11fiber_sleepEm
                0x0800bcd0       0x3c .pioenvs\bluepill_f103c8\lib635\libcodal-core.a(CodalFiber.o)
                0x0800bcd0                codal::fiber_sleep(unsigned long)
 .text._ZN5codal13release_fiberEv
                0x0800bd0c       0x6c .pioenvs\bluepill_f103c8\lib635\libcodal-core.a(CodalFiber.o)
                0x0800bd0c                codal::release_fiber()
 .text._ZN5codal6invokeEPFvPvES0_
                0x0800bd78       0x80 .pioenvs\bluepill_f103c8\lib635\libcodal-core.a(CodalFiber.o)
                0x0800bd78                codal::invoke(void (*)(void*), void*)
 .text._Z18device_create_heapmm
                0x0800bdf8       0x3c .pioenvs\bluepill_f103c8\lib635\libcodal-core.a(CodalHeapAllocator.o)
                0x0800bdf8                device_create_heap(unsigned long, unsigned long)
 .text.device_malloc
                0x0800be34       0x48 .pioenvs\bluepill_f103c8\lib635\libcodal-core.a(CodalHeapAllocator.o)
                0x0800be34                device_malloc
                0x0800be34                malloc
 .text.device_free
                0x0800be7c       0x40 .pioenvs\bluepill_f103c8\lib635\libcodal-core.a(CodalHeapAllocator.o)
                0x0800be7c                free
                0x0800be7c                device_free
 .text._ZN5codal5TimerC2Ev
                0x0800bebc       0x34 .pioenvs\bluepill_f103c8\lib635\libcodal-core.a(Timer.o)
                0x0800bebc                codal::Timer::Timer()
                0x0800bebc                codal::Timer::Timer()
 .text._ZN5codal25system_timer_current_timeEv
                0x0800bef0       0x10 .pioenvs\bluepill_f103c8\lib635\libcodal-core.a(Timer.o)
                0x0800bef0                codal::system_timer_current_time()
 .text._ZN5codal27system_timer_event_every_usEmtt
                0x0800bf00       0x24 .pioenvs\bluepill_f103c8\lib635\libcodal-core.a(Timer.o)
                0x0800bf00                codal::system_timer_event_every_us(unsigned long, unsigned short, unsigned short)
 .text._ZN5codal5Event4fireEv
                0x0800bf24       0x20 .pioenvs\bluepill_f103c8\lib635\libcodal-core.a(Event.o)
                0x0800bf24                codal::Event::fire()
 .text.os_event_init
                0x0800bf44        0xc .pioenvs\bluepill_f103c8\libd0a\libcocoOS_5.0.3.a(os_event.o)
                0x0800bf44                os_event_init
 .text.os_init  0x0800bf50       0x34 .pioenvs\bluepill_f103c8\libd0a\libcocoOS_5.0.3.a(os_kernel.o)
                0x0800bf50                os_init
 .text.os_msgQ_init
                0x0800bf84       0x24 .pioenvs\bluepill_f103c8\libd0a\libcocoOS_5.0.3.a(os_msgqueue.o)
                0x0800bf84                os_msgQ_init
 .text.os_sem_init
                0x0800bfa8        0xc .pioenvs\bluepill_f103c8\libd0a\libcocoOS_5.0.3.a(os_sem.o)
                0x0800bfa8                os_sem_init
 .text.os_task_init
                0x0800bfb4       0x40 .pioenvs\bluepill_f103c8\libd0a\libcocoOS_5.0.3.a(os_task.o)
                0x0800bfb4                os_task_init
 .text.UnityTestResultsBegin
                0x0800bff4       0x30 .pioenvs\bluepill_f103c8\lib0e4\libunity.a(unity.o)
 .text.UnityTestResultsFailBegin
                0x0800c024       0x24 .pioenvs\bluepill_f103c8\lib0e4\libunity.a(unity.o)
 .text.UnityAddMsgIfSpecified
                0x0800c048       0x50 .pioenvs\bluepill_f103c8\lib0e4\libunity.a(unity.o)
 .text.UnityConcludeTest
                0x0800c098       0x44 .pioenvs\bluepill_f103c8\lib0e4\libunity.a(unity.o)
                0x0800c098                UnityConcludeTest
 .text.UnityAssertEqualNumber
                0x0800c0dc       0x58 .pioenvs\bluepill_f103c8\lib0e4\libunity.a(unity.o)
                0x0800c0dc                UnityAssertEqualNumber
 .text.UnityAssertFloatsWithin
                0x0800c134       0x58 .pioenvs\bluepill_f103c8\lib0e4\libunity.a(unity.o)
                0x0800c134                UnityAssertFloatsWithin
 .text.UnityAssertDoublesWithin
                0x0800c18c       0x60 .pioenvs\bluepill_f103c8\lib0e4\libunity.a(unity.o)
                0x0800c18c                UnityAssertDoublesWithin
 .text.UnityDefaultTestRun
                0x0800c1ec       0x2c .pioenvs\bluepill_f103c8\lib0e4\libunity.a(unity.o)
                0x0800c1ec                UnityDefaultTestRun
 .text.UnityBegin
                0x0800c218       0x20 .pioenvs\bluepill_f103c8\lib0e4\libunity.a(unity.o)
                0x0800c218                UnityBegin
 .text.UnityEnd
                0x0800c238       0x74 .pioenvs\bluepill_f103c8\lib0e4\libunity.a(unity.o)
                0x0800c238                UnityEnd
 .text.get_float_usage
                0x0800c2ac        0xc .pioenvs\bluepill_f103c8\libc64\libnano-float.a(functions.o)
                0x0800c2ac                get_float_usage
 .text.__wrap___aeabi_ddiv
                0x0800c2b8       0x30 .pioenvs\bluepill_f103c8\libc64\libnano-float.a(functions.o)
                0x0800c2b8                __wrap___aeabi_ddiv
 .text.__wrap___aeabi_dmul
                0x0800c2e8       0x30 .pioenvs\bluepill_f103c8\libc64\libnano-float.a(functions.o)
                0x0800c2e8                __wrap___aeabi_dmul
 .text.__wrap___aeabi_dcmpeq
                0x0800c318       0x34 .pioenvs\bluepill_f103c8\libc64\libnano-float.a(functions.o)
                0x0800c318                __wrap___aeabi_dcmpeq
 .text.__wrap___aeabi_dcmplt
                0x0800c34c       0x30 .pioenvs\bluepill_f103c8\libc64\libnano-float.a(functions.o)
                0x0800c34c                __wrap___aeabi_dcmplt
 .text.__wrap___aeabi_dcmple
                0x0800c37c       0x34 .pioenvs\bluepill_f103c8\libc64\libnano-float.a(functions.o)
                0x0800c37c                __wrap___aeabi_dcmple
 .text.__wrap___aeabi_dcmpge
                0x0800c3b0       0x30 .pioenvs\bluepill_f103c8\libc64\libnano-float.a(functions.o)
                0x0800c3b0                __wrap___aeabi_dcmpge
 .text.__wrap___aeabi_dcmpgt
                0x0800c3e0       0x34 .pioenvs\bluepill_f103c8\libc64\libnano-float.a(functions.o)
                0x0800c3e0                __wrap___aeabi_dcmpgt
 .text.__wrap___aeabi_dcmpun
                0x0800c414       0x34 .pioenvs\bluepill_f103c8\libc64\libnano-float.a(functions.o)
                0x0800c414                __wrap___aeabi_dcmpun
 .text.__wrap___aeabi_fdiv
                0x0800c448       0x10 .pioenvs\bluepill_f103c8\libc64\libnano-float.a(functions.o)
                0x0800c448                __wrap___aeabi_fdiv
 .text.__wrap___aeabi_d2iz
                0x0800c458       0x2c .pioenvs\bluepill_f103c8\libc64\libnano-float.a(functions.o)
                0x0800c458                __wrap___aeabi_d2iz
 .text.__wrap___aeabi_d2uiz
                0x0800c484       0x38 .pioenvs\bluepill_f103c8\libc64\libnano-float.a(functions.o)
                0x0800c484                __wrap___aeabi_d2uiz
 .text.sqrt     0x0800c4bc       0x1c .pioenvs\bluepill_f103c8\libc64\libnano-float.a(functions.o)
                0x0800c4bc                sqrt
 .text.log      0x0800c4d8       0x1c .pioenvs\bluepill_f103c8\libc64\libnano-float.a(functions.o)
                0x0800c4d8                log
 .text.exp      0x0800c4f4       0x1c .pioenvs\bluepill_f103c8\libc64\libnano-float.a(functions.o)
                0x0800c4f4                exp
 .text.log2     0x0800c510       0x28 .pioenvs\bluepill_f103c8\libc64\libnano-float.a(functions.o)
                0x0800c510                log2
 .text.log10    0x0800c538       0x28 .pioenvs\bluepill_f103c8\libc64\libnano-float.a(functions.o)
                0x0800c538                log10
 .text.pow      0x0800c560       0x88 .pioenvs\bluepill_f103c8\libc64\libnano-float.a(functions.o)
                0x0800c560                pow
 .text.ldexp    0x0800c5e8       0x40 .pioenvs\bluepill_f103c8\libc64\libnano-float.a(functions.o)
                0x0800c5e8                ldexp
 .text.sin      0x0800c628       0x1c .pioenvs\bluepill_f103c8\libc64\libnano-float.a(functions.o)
                0x0800c628                sin
 .text.cos      0x0800c644       0x34 .pioenvs\bluepill_f103c8\libc64\libnano-float.a(functions.o)
                0x0800c644                cos
 .text.tan      0x0800c678       0x1c .pioenvs\bluepill_f103c8\libc64\libnano-float.a(functions.o)
                0x0800c678                tan
 .text.atan2    0x0800c694       0x50 .pioenvs\bluepill_f103c8\libc64\libnano-float.a(functions.o)
                0x0800c694                atan2
 .text.atan     0x0800c6e4       0xa8 .pioenvs\bluepill_f103c8\libc64\libnano-float.a(functions.o)
                0x0800c6e4                atan
 .text.asin     0x0800c78c       0x88 .pioenvs\bluepill_f103c8\libc64\libnano-float.a(functions.o)
                0x0800c78c                asin
 .text.sinh     0x0800c814       0x94 .pioenvs\bluepill_f103c8\libc64\libnano-float.a(functions.o)
                0x0800c814                sinh
 .text.cosh     0x0800c8a8       0x9c .pioenvs\bluepill_f103c8\libc64\libnano-float.a(functions.o)
                0x0800c8a8                cosh
 .text.tanh     0x0800c944       0xac .pioenvs\bluepill_f103c8\libc64\libnano-float.a(functions.o)
                0x0800c944                tanh
 .text.asinh    0x0800c9f0       0x94 .pioenvs\bluepill_f103c8\libc64\libnano-float.a(functions.o)
                0x0800c9f0                asinh
 .text.acosh    0x0800ca84       0xac .pioenvs\bluepill_f103c8\libc64\libnano-float.a(functions.o)
                0x0800ca84                acosh
 .text.atanh    0x0800cb30       0xbc .pioenvs\bluepill_f103c8\libc64\libnano-float.a(functions.o)
                0x0800cb30                atanh
 .text.trunc    0x0800cbec       0x80 .pioenvs\bluepill_f103c8\libc64\libnano-float.a(functions.o)
                0x0800cbec                trunc
 .text.floor    0x0800cc6c       0x7c .pioenvs\bluepill_f103c8\libc64\libnano-float.a(functions.o)
                0x0800cc6c                floor
 .text.ceil     0x0800cce8       0x80 .pioenvs\bluepill_f103c8\libc64\libnano-float.a(functions.o)
                0x0800cce8                ceil
 .text.fmod     0x0800cd68      0x148 .pioenvs\bluepill_f103c8\libc64\libnano-float.a(functions.o)
                0x0800cd68                fmod
 .text._ZN5codal3_cm3Pin14setAnalogValueEi
                0x0800ceb0       0x1c .pioenvs\bluepill_f103c8\lib24c\libcm.a(CmPin.o)
                0x0800ceb0                codal::_cm::Pin::setAnalogValue(int)
 .text._ZN5codal3_cm3Pin13setServoValueEiii
                0x0800cecc       0x2c .pioenvs\bluepill_f103c8\lib24c\libcm.a(CmPin.o)
                0x0800cecc                codal::_cm::Pin::setServoValue(int, int, int)
 .text._ZN5codal3_cm3Pin9isTouchedEv
                0x0800cef8        0x8 .pioenvs\bluepill_f103c8\lib24c\libcm.a(CmPin.o)
                0x0800cef8                codal::_cm::Pin::isTouched()
 .text._ZN5codal3_cm3Pin17getAnalogPeriodUsEv
                0x0800cf00        0x8 .pioenvs\bluepill_f103c8\lib24c\libcm.a(CmPin.o)
                0x0800cf00                codal::_cm::Pin::getAnalogPeriodUs()
 .text._ZN5codal3_cm3Pin15setDigitalValueEi
                0x0800cf08       0x80 .pioenvs\bluepill_f103c8\lib24c\libcm.a(CmPin.o)
                0x0800cf08                codal::_cm::Pin::setDigitalValue(int)
 .text._ZN5codal3_cm3PinC2EhmmtNS_13PinCapabilityE
                0x0800cf88       0x2c .pioenvs\bluepill_f103c8\lib24c\libcm.a(CmPin.o)
                0x0800cf88                codal::_cm::Pin::Pin(unsigned char, unsigned long, unsigned long, unsigned short, codal::PinCapability)
                0x0800cf88                codal::_cm::Pin::Pin(unsigned char, unsigned long, unsigned long, unsigned short, codal::PinCapability)
 .text._ZL10timer_tickv
                0x0800cfb4       0x10 .pioenvs\bluepill_f103c8\lib24c\libcm.a(codal_target_hal.o)
 .text._ZL11timer_alarmv
                0x0800cfc4       0x10 .pioenvs\bluepill_f103c8\lib24c\libcm.a(codal_target_hal.o)
 .text._Z25stm32bluepill_dmesg_flushv
                0x0800cfd4       0x38 .pioenvs\bluepill_f103c8\lib24c\libcm.a(codal_target_hal.o)
                0x0800cfd4                stm32bluepill_dmesg_flush()
 .text.target_set_tick_callback
                0x0800d00c        0xc .pioenvs\bluepill_f103c8\lib24c\libcm.a(codal_target_hal.o)
                0x0800d00c                target_set_tick_callback
 .text.target_set_alarm_callback
                0x0800d018        0xc .pioenvs\bluepill_f103c8\lib24c\libcm.a(codal_target_hal.o)
                0x0800d018                target_set_alarm_callback
 .text.target_init
                0x0800d024       0x3c .pioenvs\bluepill_f103c8\lib24c\libcm.a(codal_target_hal.o)
                0x0800d024                target_init
 .text.target_wait
                0x0800d060       0x24 .pioenvs\bluepill_f103c8\lib24c\libcm.a(codal_target_hal.o)
                0x0800d060                target_wait
 .text.target_wait_us
                0x0800d084       0x2c .pioenvs\bluepill_f103c8\lib24c\libcm.a(codal_target_hal.o)
                0x0800d084                target_wait_us
 .text.target_panic
                0x0800d0b0       0x20 .pioenvs\bluepill_f103c8\lib24c\libcm.a(codal_target_hal.o)
                0x0800d0b0                target_panic
 .text.fiber_initial_stack_base
                0x0800d0d0        0x8 .pioenvs\bluepill_f103c8\lib24c\libcm.a(codal_target_hal.o)
                0x0800d0d0                fiber_initial_stack_base
 .text.test_codal
                0x0800d0d8       0x70 .pioenvs\bluepill_f103c8\lib24c\libcm.a(codal_target_hal.o)
                0x0800d0d8                test_codal
 .text._ZN5codal14CodalComponent4initEv
                0x0800d148        0x8 .pioenvs\bluepill_f103c8\libff7\libbluepill.a(STM32BluePill.o)
                0x0800d148                codal::CodalComponent::init()
 .text._ZN5codal14CodalComponentD2Ev
                0x0800d150       0x18 .pioenvs\bluepill_f103c8\libff7\libbluepill.a(STM32BluePill.o)
                0x0800d150                codal::CodalComponent::~CodalComponent()
                0x0800d150                codal::CodalComponent::~CodalComponent()
 .text._ZN5codal13STM32BluePill4initEv
                0x0800d168       0x4c .pioenvs\bluepill_f103c8\libff7\libbluepill.a(STM32BluePill.o)
                0x0800d168                codal::STM32BluePill::init()
 .text._ZN5codal13STM32BluePillC2Ev
                0x0800d1b4       0x98 .pioenvs\bluepill_f103c8\libff7\libbluepill.a(STM32BluePill.o)
                0x0800d1b4                codal::STM32BluePill::STM32BluePill()
                0x0800d1b4                codal::STM32BluePill::STM32BluePill()
 .text._ZN5codal13STM32BluePillD2Ev
                0x0800d24c       0x40 .pioenvs\bluepill_f103c8\libff7\libbluepill.a(STM32BluePill.o)
                0x0800d24c                codal::STM32BluePill::~STM32BluePill()
                0x0800d24c                codal::STM32BluePill::~STM32BluePill()
 .text._ZN5codal15STM32BluePillIOC2Ev
                0x0800d28c      0xaf0 .pioenvs\bluepill_f103c8\libff7\libbluepill.a(STM32BluePillIO.o)
                0x0800d28c                codal::STM32BluePillIO::STM32BluePillIO()
                0x0800d28c                codal::STM32BluePillIO::STM32BluePillIO()
 .text.platform_setup
                0x0800dd7c       0x4c .pioenvs\bluepill_f103c8\libff7\libbluepill.a(bluepill.o)
                0x0800dd7c                platform_setup
 .text.enable_debug
                0x0800ddc8       0x10 .pioenvs\bluepill_f103c8\libff7\libbluepill.a(bluepill.o)
                0x0800ddc8                enable_debug
 .text.led_setup
                0x0800ddd8       0x20 .pioenvs\bluepill_f103c8\libff7\libbluepill.a(led.o)
                0x0800ddd8                led_setup
 .text.led_on   0x0800ddf8       0x10 .pioenvs\bluepill_f103c8\libff7\libbluepill.a(led.o)
                0x0800ddf8                led_on
 .text.led_off  0x0800de08       0x10 .pioenvs\bluepill_f103c8\libff7\libbluepill.a(led.o)
                0x0800de08                led_off
 .text.led_wait
                0x0800de18       0x10 .pioenvs\bluepill_f103c8\libff7\libbluepill.a(led.o)
                0x0800de18                led_wait
 .text.platform_start_timer
                0x0800de28      0x114 .pioenvs\bluepill_f103c8\libff7\libbluepill.a(timer.o)
                0x0800de28                platform_start_timer
 .text.rtc_isr  0x0800df3c       0x30 .pioenvs\bluepill_f103c8\libff7\libbluepill.a(timer.o)
                0x0800df3c                rtc_isr
 .text.rtc_alarm_isr
                0x0800df6c       0x30 .pioenvs\bluepill_f103c8\libff7\libbluepill.a(timer.o)
                0x0800df6c                rtc_alarm_isr
 .text.platform_alarm_count
                0x0800df9c        0xc .pioenvs\bluepill_f103c8\libff7\libbluepill.a(timer.o)
                0x0800df9c                platform_alarm_count
 .text.platform_tick_count
                0x0800dfa8        0xc .pioenvs\bluepill_f103c8\libff7\libbluepill.a(timer.o)
                0x0800dfa8                platform_tick_count
 .text.bootloader_start
                0x0800dfb4       0xcc .pioenvs\bluepill_f103c8\lib443\libbootloader.a(bootloader.o)
                0x0800dfb4                bootloader_start
 .text.target_set_led
                0x0800e080       0x18 .pioenvs\bluepill_f103c8\lib443\libbootloader.a(target_stm32f103.o)
                0x0800e080                target_set_led
 .text.target_gpio_setup
                0x0800e098       0x70 .pioenvs\bluepill_f103c8\lib443\libbootloader.a(target_stm32f103.o)
                0x0800e098                target_gpio_setup
 .text.target_usb_init
                0x0800e108       0x2c .pioenvs\bluepill_f103c8\lib443\libbootloader.a(target_stm32f103.o)
                0x0800e108                target_usb_init
 .text.target_get_force_bootloader
                0x0800e134       0x34 .pioenvs\bluepill_f103c8\lib443\libbootloader.a(target_stm32f103.o)
                0x0800e134                target_get_force_bootloader
 .text.target_flash_program_array
                0x0800e168       0xdc .pioenvs\bluepill_f103c8\lib443\libbootloader.a(target_stm32f103.o)
                0x0800e168                target_flash_program_array
 .text.set_aggregate_callback
                0x0800e244       0x5c .pioenvs\bluepill_f103c8\lib443\libbootloader.a(usb_conf.o)
 .text.usb_setup
                0x0800e2a0       0x90 .pioenvs\bluepill_f103c8\lib443\libbootloader.a(usb_conf.o)
                0x0800e2a0                usb_setup
 .text.aggregate_register_config_callback
                0x0800e330       0x38 .pioenvs\bluepill_f103c8\lib443\libbootloader.a(usb_conf.o)
                0x0800e330                aggregate_register_config_callback
 .text.aggregate_register_callback
                0x0800e368       0x4c .pioenvs\bluepill_f103c8\lib443\libbootloader.a(usb_conf.o)
                0x0800e368                aggregate_register_callback
 .text.usb_set_serial_number
                0x0800e3b4       0x1c .pioenvs\bluepill_f103c8\lib443\libbootloader.a(usb_conf.o)
                0x0800e3b4                usb_set_serial_number
 .text.dump_buffer
                0x0800e3d0       0x4c .pioenvs\bluepill_f103c8\lib443\libbootloader.a(usb_conf.o)
                0x0800e3d0                dump_buffer
 .text.dump_usb_request
                0x0800e41c      0x130 .pioenvs\bluepill_f103c8\lib443\libbootloader.a(usb_conf.o)
                0x0800e41c                dump_usb_request
 .text.aggregate_callback
                0x0800e54c       0x64 .pioenvs\bluepill_f103c8\lib443\libbootloader.a(usb_conf.o)
 .text.webusb_set_config
                0x0800e5b0       0x28 .pioenvs\bluepill_f103c8\lib443\libbootloader.a(webusb.o)
 .text.webusb_control_vendor_request
                0x0800e5d8       0x9c .pioenvs\bluepill_f103c8\lib443\libbootloader.a(webusb.o)
 .text.webusb_setup
                0x0800e674       0x4c .pioenvs\bluepill_f103c8\lib443\libbootloader.a(webusb.o)
                0x0800e674                webusb_setup
 .text.winusb_control_vendor_request
                0x0800e6c0       0x94 .pioenvs\bluepill_f103c8\lib443\libbootloader.a(winusb.o)
 .text.winusb_set_config
                0x0800e754       0x28 .pioenvs\bluepill_f103c8\lib443\libbootloader.a(winusb.o)
 .text.winusb_descriptor_request
                0x0800e77c       0x48 .pioenvs\bluepill_f103c8\lib443\libbootloader.a(winusb.o)
 .text.winusb_setup
                0x0800e7c4       0x5c .pioenvs\bluepill_f103c8\lib443\libbootloader.a(winusb.o)
                0x0800e7c4                winusb_setup
 .text.cdcacm_comm_cb
                0x0800e820       0x14 .pioenvs\bluepill_f103c8\lib443\libbootloader.a(cdc.o)
 .text.cdcacm_data_rx_cb
                0x0800e834       0x4c .pioenvs\bluepill_f103c8\lib443\libbootloader.a(cdc.o)
 .text.cdcacm_set_config
                0x0800e880       0x68 .pioenvs\bluepill_f103c8\lib443\libbootloader.a(cdc.o)
 .text.cdcacm_control_request
                0x0800e8e8       0x68 .pioenvs\bluepill_f103c8\lib443\libbootloader.a(cdc.o)
 .text.cdc_setup
                0x0800e950       0x24 .pioenvs\bluepill_f103c8\lib443\libbootloader.a(cdc.o)
                0x0800e950                cdc_setup
 .text.hf2_set_config
                0x0800e974       0x3c .pioenvs\bluepill_f103c8\lib443\libbootloader.a(hf2.o)
 .text.assert.part.0
                0x0800e9b0       0x1c .pioenvs\bluepill_f103c8\lib443\libbootloader.a(hf2.o)
 .text.pokeSend
                0x0800e9cc       0x84 .pioenvs\bluepill_f103c8\lib443\libbootloader.a(hf2.o)
 .text.send_hf2_response
                0x0800ea50       0x38 .pioenvs\bluepill_f103c8\lib443\libbootloader.a(hf2.o)
 .text.hf2_data_rx_cb
                0x0800ea88      0x19c .pioenvs\bluepill_f103c8\lib443\libbootloader.a(hf2.o)
 .text.hf2_setup
                0x0800ec24       0x2c .pioenvs\bluepill_f103c8\lib443\libbootloader.a(hf2.o)
                0x0800ec24                hf2_setup
 .text.backup_write
                0x0800ec50       0x38 .pioenvs\bluepill_f103c8\lib443\libbootloader.a(backup.o)
                0x0800ec50                backup_write
 .text.backup_read
                0x0800ec88       0x18 .pioenvs\bluepill_f103c8\lib443\libbootloader.a(backup.o)
                0x0800ec88                backup_read
 .text.usb21_set_config
                0x0800eca0       0x28 .pioenvs\bluepill_f103c8\lib443\libbootloader.a(usb21_standard.o)
 .text.usb21_standard_get_descriptor
                0x0800ecc8       0xcc .pioenvs\bluepill_f103c8\lib443\libbootloader.a(usb21_standard.o)
 .text.usb21_setup
                0x0800ed94       0x38 .pioenvs\bluepill_f103c8\lib443\libbootloader.a(usb21_standard.o)
                0x0800ed94                usb21_setup
 .text.flushFlash
                0x0800edcc       0x94 .pioenvs\bluepill_f103c8\lib443\libbootloader.a(ghostfat.o)
 .text.flash_write
                0x0800ee60       0x48 .pioenvs\bluepill_f103c8\lib443\libbootloader.a(ghostfat.o)
                0x0800ee60                flash_write
 .text.usart2_isr
                0x0800eea8       0x50 .pioenvs\bluepill_f103c8\lib492\libuartint.a(uartint.o)
                0x0800eea8                usart2_isr
 .text.startup._GLOBAL__sub_I__ZN13UARTInterfaceC2Ejj
                0x0800eef8       0x10 .pioenvs\bluepill_f103c8\lib492\libuartint.a(uartint.o)
 .text          0x0800ef08      0x378 c:/users/guppy/.platformio/packages/toolchain-gccarmnoneeabi/bin/../lib/gcc/arm-none-eabi/7.2.1/thumb/v7-m\libgcc.a(_arm_addsubdf3.o)
                0x0800ef08                __aeabi_drsub
                0x0800ef10                __aeabi_dsub
                0x0800ef10                __subdf3
                0x0800ef14                __aeabi_dadd
                0x0800ef14                __adddf3
                0x0800f18c                __floatunsidf
                0x0800f18c                __aeabi_ui2d
                0x0800f1ac                __floatsidf
                0x0800f1ac                __aeabi_i2d
                0x0800f1d0                __aeabi_f2d
                0x0800f1d0                __extendsfdf2
                0x0800f214                __floatundidf
                0x0800f214                __aeabi_ul2d
                0x0800f224                __floatdidf
                0x0800f224                __aeabi_l2d
 .text          0x0800f280      0x424 c:/users/guppy/.platformio/packages/toolchain-gccarmnoneeabi/bin/../lib/gcc/arm-none-eabi/7.2.1/thumb/v7-m\libgcc.a(_arm_muldivdf3.o)
                0x0800f280                __aeabi_dmul
                0x0800f280                __muldf3
                0x0800f4d4                __divdf3
                0x0800f4d4                __aeabi_ddiv
 .text          0x0800f6a4      0x110 c:/users/guppy/.platformio/packages/toolchain-gccarmnoneeabi/bin/../lib/gcc/arm-none-eabi/7.2.1/thumb/v7-m\libgcc.a(_arm_cmpdf2.o)
                0x0800f6a4                __gtdf2
                0x0800f6a4                __gedf2
                0x0800f6ac                __ltdf2
                0x0800f6ac                __ledf2
                0x0800f6b4                __nedf2
                0x0800f6b4                __eqdf2
                0x0800f6b4                __cmpdf2
                0x0800f730                __aeabi_cdrcmple
                0x0800f740                __aeabi_cdcmpeq
                0x0800f740                __aeabi_cdcmple
                0x0800f750                __aeabi_dcmpeq
                0x0800f764                __aeabi_dcmplt
                0x0800f778                __aeabi_dcmple
                0x0800f78c                __aeabi_dcmpge
                0x0800f7a0                __aeabi_dcmpgt
 .text          0x0800f7b4       0x2c c:/users/guppy/.platformio/packages/toolchain-gccarmnoneeabi/bin/../lib/gcc/arm-none-eabi/7.2.1/thumb/v7-m\libgcc.a(_arm_unorddf2.o)
                0x0800f7b4                __unorddf2
                0x0800f7b4                __aeabi_dcmpun
 .text          0x0800f7e0       0x50 c:/users/guppy/.platformio/packages/toolchain-gccarmnoneeabi/bin/../lib/gcc/arm-none-eabi/7.2.1/thumb/v7-m\libgcc.a(_arm_fixdfsi.o)
                0x0800f7e0                __aeabi_d2iz
                0x0800f7e0                __fixdfsi
 .text          0x0800f830       0xa0 c:/users/guppy/.platformio/packages/toolchain-gccarmnoneeabi/bin/../lib/gcc/arm-none-eabi/7.2.1/thumb/v7-m\libgcc.a(_arm_truncdfsf2.o)
                0x0800f830                __truncdfsf2
                0x0800f830                __aeabi_d2f
 .text          0x0800f8d0      0x21c c:/users/guppy/.platformio/packages/toolchain-gccarmnoneeabi/bin/../lib/gcc/arm-none-eabi/7.2.1/thumb/v7-m\libgcc.a(_arm_addsubsf3.o)
                0x0800f8d0                __aeabi_frsub
                0x0800f8d8                __subsf3
                0x0800f8d8                __aeabi_fsub
                0x0800f8dc                __aeabi_fadd
                0x0800f8dc                __addsf3
                0x0800fa3c                __aeabi_ui2f
                0x0800fa3c                __floatunsisf
                0x0800fa44                __aeabi_i2f
                0x0800fa44                __floatsisf
                0x0800fa60                __aeabi_ul2f
                0x0800fa60                __floatundisf
                0x0800fa70                __aeabi_l2f
                0x0800fa70                __floatdisf
 .text          0x0800faec      0x2a0 c:/users/guppy/.platformio/packages/toolchain-gccarmnoneeabi/bin/../lib/gcc/arm-none-eabi/7.2.1/thumb/v7-m\libgcc.a(_arm_muldivsf3.o)
                0x0800faec                __mulsf3
                0x0800faec                __aeabi_fmul
                0x0800fc54                __aeabi_fdiv
                0x0800fc54                __divsf3
 .text          0x0800fd8c       0xec c:/users/guppy/.platformio/packages/toolchain-gccarmnoneeabi/bin/../lib/gcc/arm-none-eabi/7.2.1/thumb/v7-m\libgcc.a(_arm_cmpsf2.o)
                0x0800fd8c                __gesf2
                0x0800fd8c                __gtsf2
                0x0800fd94                __lesf2
                0x0800fd94                __ltsf2
                0x0800fd9c                __nesf2
                0x0800fd9c                __eqsf2
                0x0800fd9c                __cmpsf2
                0x0800fdfc                __aeabi_cfrcmple
                0x0800fe04                __aeabi_cfcmpeq
                0x0800fe04                __aeabi_cfcmple
                0x0800fe14                __aeabi_fcmpeq
                0x0800fe28                __aeabi_fcmplt
                0x0800fe3c                __aeabi_fcmple
                0x0800fe50                __aeabi_fcmpge
                0x0800fe64                __aeabi_fcmpgt
 .text.desig_get_unique_id
                0x0800fe78       0x20 .pioenvs\bluepill_f103c8\libFrameworkLibOpenCM3.a(desig.o)
                0x0800fe78                desig_get_unique_id
 .text.desig_get_unique_id_as_string
                0x0800fe98       0x48 .pioenvs\bluepill_f103c8\libFrameworkLibOpenCM3.a(desig.o)
                0x0800fe98                desig_get_unique_id_as_string
 .text.flash_get_status_flags
                0x0800fee0       0x28 .pioenvs\bluepill_f103c8\libFrameworkLibOpenCM3.a(flash.o)
                0x0800fee0                flash_get_status_flags
 .text.flash_program_half_word
                0x0800ff08       0x60 .pioenvs\bluepill_f103c8\libFrameworkLibOpenCM3.a(flash.o)
                0x0800ff08                flash_program_half_word
 .text.flash_erase_page
                0x0800ff68       0x78 .pioenvs\bluepill_f103c8\libFrameworkLibOpenCM3.a(flash.o)
                0x0800ff68                flash_erase_page
 .text.rcc_osc_on.part.0
                0x0800ffe0       0x10 .pioenvs\bluepill_f103c8\libFrameworkLibOpenCM3.a(rcc.o)
 .text.rcc_wait_for_osc_ready
                0x0800fff0       0x64 .pioenvs\bluepill_f103c8\libFrameworkLibOpenCM3.a(rcc.o)
                0x0800fff0                rcc_wait_for_osc_ready
 .text.rcc_osc_on
                0x08010054       0x54 .pioenvs\bluepill_f103c8\libFrameworkLibOpenCM3.a(rcc.o)
                0x08010054                rcc_osc_on
 .text.rcc_set_sysclk_source
                0x080100a8       0x14 .pioenvs\bluepill_f103c8\libFrameworkLibOpenCM3.a(rcc.o)
                0x080100a8                rcc_set_sysclk_source
 .text.rcc_set_pll_multiplication_factor
                0x080100bc       0x14 .pioenvs\bluepill_f103c8\libFrameworkLibOpenCM3.a(rcc.o)
                0x080100bc                rcc_set_pll_multiplication_factor
 .text.rcc_set_pll_source
                0x080100d0       0x14 .pioenvs\bluepill_f103c8\libFrameworkLibOpenCM3.a(rcc.o)
                0x080100d0                rcc_set_pll_source
 .text.rcc_set_pllxtpre
                0x080100e4       0x14 .pioenvs\bluepill_f103c8\libFrameworkLibOpenCM3.a(rcc.o)
                0x080100e4                rcc_set_pllxtpre
 .text.rcc_enable_rtc_clock
                0x080100f8       0x10 .pioenvs\bluepill_f103c8\libFrameworkLibOpenCM3.a(rcc.o)
                0x080100f8                rcc_enable_rtc_clock
 .text.rcc_set_rtc_clock_source
                0x08010108       0x90 .pioenvs\bluepill_f103c8\libFrameworkLibOpenCM3.a(rcc.o)
                0x08010108                rcc_set_rtc_clock_source
 .text.rcc_set_adcpre
                0x08010198       0x14 .pioenvs\bluepill_f103c8\libFrameworkLibOpenCM3.a(rcc.o)
                0x08010198                rcc_set_adcpre
 .text.rcc_set_ppre2
                0x080101ac       0x14 .pioenvs\bluepill_f103c8\libFrameworkLibOpenCM3.a(rcc.o)
                0x080101ac                rcc_set_ppre2
 .text.rcc_set_ppre1
                0x080101c0       0x14 .pioenvs\bluepill_f103c8\libFrameworkLibOpenCM3.a(rcc.o)
                0x080101c0                rcc_set_ppre1
 .text.rcc_set_hpre
                0x080101d4       0x14 .pioenvs\bluepill_f103c8\libFrameworkLibOpenCM3.a(rcc.o)
                0x080101d4                rcc_set_hpre
 .text.rcc_clock_setup_in_hse_8mhz_out_72mhz
                0x080101e8       0x8c .pioenvs\bluepill_f103c8\libFrameworkLibOpenCM3.a(rcc.o)
                0x080101e8                rcc_clock_setup_in_hse_8mhz_out_72mhz
 .text.rtc_enter_config_mode
                0x08010274       0x18 .pioenvs\bluepill_f103c8\libFrameworkLibOpenCM3.a(rtc.o)
                0x08010274                rtc_enter_config_mode
 .text.rtc_exit_config_mode
                0x0801028c       0x18 .pioenvs\bluepill_f103c8\libFrameworkLibOpenCM3.a(rtc.o)
                0x0801028c                rtc_exit_config_mode
 .text.rtc_set_alarm_time
                0x080102a4       0x20 .pioenvs\bluepill_f103c8\libFrameworkLibOpenCM3.a(rtc.o)
                0x080102a4                rtc_set_alarm_time
 .text.rtc_set_prescale_val
                0x080102c4       0x20 .pioenvs\bluepill_f103c8\libFrameworkLibOpenCM3.a(rtc.o)
                0x080102c4                rtc_set_prescale_val
 .text.rtc_get_counter_val
                0x080102e4       0x14 .pioenvs\bluepill_f103c8\libFrameworkLibOpenCM3.a(rtc.o)
                0x080102e4                rtc_get_counter_val
 .text.rtc_set_counter_val
                0x080102f8       0x1c .pioenvs\bluepill_f103c8\libFrameworkLibOpenCM3.a(rtc.o)
                0x080102f8                rtc_set_counter_val
 .text.rtc_interrupt_enable
                0x08010314       0x3c .pioenvs\bluepill_f103c8\libFrameworkLibOpenCM3.a(rtc.o)
                0x08010314                rtc_interrupt_enable
 .text.rtc_interrupt_disable
                0x08010350       0x3c .pioenvs\bluepill_f103c8\libFrameworkLibOpenCM3.a(rtc.o)
                0x08010350                rtc_interrupt_disable
 .text.rtc_clear_flag
                0x0801038c       0x30 .pioenvs\bluepill_f103c8\libFrameworkLibOpenCM3.a(rtc.o)
                0x0801038c                rtc_clear_flag
 .text.rtc_check_flag
                0x080103bc       0x30 .pioenvs\bluepill_f103c8\libFrameworkLibOpenCM3.a(rtc.o)
                0x080103bc                rtc_check_flag
 .text.pwr_disable_backup_domain_write_protect
                0x080103ec       0x10 .pioenvs\bluepill_f103c8\libFrameworkLibOpenCM3.a(pwr_common_all.o)
                0x080103ec                pwr_disable_backup_domain_write_protect
 .text.pwr_enable_backup_domain_write_protect
                0x080103fc       0x10 .pioenvs\bluepill_f103c8\libFrameworkLibOpenCM3.a(pwr_common_all.o)
                0x080103fc                pwr_enable_backup_domain_write_protect
 .text.exti_set_trigger
                0x0801040c       0x3c .pioenvs\bluepill_f103c8\libFrameworkLibOpenCM3.a(exti_common_all.o)
                0x0801040c                exti_set_trigger
 .text.exti_enable_request
                0x08010448       0x14 .pioenvs\bluepill_f103c8\libFrameworkLibOpenCM3.a(exti_common_all.o)
                0x08010448                exti_enable_request
 .text.exti_reset_request
                0x0801045c        0xc .pioenvs\bluepill_f103c8\libFrameworkLibOpenCM3.a(exti_common_all.o)
                0x0801045c                exti_reset_request
 .text.flash_set_ws
                0x08010468       0x14 .pioenvs\bluepill_f103c8\libFrameworkLibOpenCM3.a(flash_common_f01.o)
                0x08010468                flash_set_ws
 .text.flash_unlock
                0x0801047c       0x24 .pioenvs\bluepill_f103c8\libFrameworkLibOpenCM3.a(flash_common_f01.o)
                0x0801047c                flash_unlock
 .text.flash_lock
                0x080104a0       0x10 .pioenvs\bluepill_f103c8\libFrameworkLibOpenCM3.a(flash_common_f01.o)
                0x080104a0                flash_lock
 .text.usbd_init
                0x080104b0       0x50 .pioenvs\bluepill_f103c8\libFrameworkLibOpenCM3.a(usb.o)
                0x080104b0                usbd_init
 .text._usbd_standard_request_device
                0x08010500       0x48 .pioenvs\bluepill_f103c8\libFrameworkLibOpenCM3.a(usb_standard.o)
                0x08010500                _usbd_standard_request_device
 .text._usbd_standard_request_interface
                0x08010548       0x30 .pioenvs\bluepill_f103c8\libFrameworkLibOpenCM3.a(usb_standard.o)
                0x08010548                _usbd_standard_request_interface
 .text._usbd_standard_request_endpoint
                0x08010578       0x3c .pioenvs\bluepill_f103c8\libFrameworkLibOpenCM3.a(usb_standard.o)
                0x08010578                _usbd_standard_request_endpoint
 .text.st_usbfs_v1_usbd_init
                0x080105b4       0x30 .pioenvs\bluepill_f103c8\libFrameworkLibOpenCM3.a(st_usbfs_v1.o)
 .text.reset_handler
                0x080105e4       0x90 .pioenvs\bluepill_f103c8\libFrameworkLibOpenCM3.a(vector.o)
                0x080105e4                reset_handler
 .text.st_usbfs_set_address
                0x08010674       0x10 .pioenvs\bluepill_f103c8\libFrameworkLibOpenCM3.a(st_usbfs_core.o)
                0x08010674                st_usbfs_set_address
 .text.st_usbfs_set_ep_rx_bufsize
                0x08010684       0x48 .pioenvs\bluepill_f103c8\libFrameworkLibOpenCM3.a(st_usbfs_core.o)
                0x08010684                st_usbfs_set_ep_rx_bufsize
 .text.st_usbfs_ep_setup
                0x080106cc      0x150 .pioenvs\bluepill_f103c8\libFrameworkLibOpenCM3.a(st_usbfs_core.o)
                0x080106cc                st_usbfs_ep_setup
 .text.st_usbfs_endpoints_reset
                0x0801081c       0x44 .pioenvs\bluepill_f103c8\libFrameworkLibOpenCM3.a(st_usbfs_core.o)
                0x0801081c                st_usbfs_endpoints_reset
 .text.st_usbfs_ep_stall_set
                0x08010860       0xe4 .pioenvs\bluepill_f103c8\libFrameworkLibOpenCM3.a(st_usbfs_core.o)
                0x08010860                st_usbfs_ep_stall_set
 .text.st_usbfs_ep_nak_set
                0x08010944       0x58 .pioenvs\bluepill_f103c8\libFrameworkLibOpenCM3.a(st_usbfs_core.o)
                0x08010944                st_usbfs_ep_nak_set
 .text.st_usbfs_ep_write_packet
                0x0801099c       0x8c .pioenvs\bluepill_f103c8\libFrameworkLibOpenCM3.a(st_usbfs_core.o)
                0x0801099c                st_usbfs_ep_write_packet
 .text.st_usbfs_ep_read_packet
                0x08010a28       0xb8 .pioenvs\bluepill_f103c8\libFrameworkLibOpenCM3.a(st_usbfs_core.o)
                0x08010a28                st_usbfs_ep_read_packet
 .text.st_usbfs_poll
                0x08010ae0       0xd0 .pioenvs\bluepill_f103c8\libFrameworkLibOpenCM3.a(st_usbfs_core.o)
                0x08010ae0                st_usbfs_poll
 .text._Z18component_callbackN5codal5EventE
                0x08010bb0       0x58 .pioenvs\bluepill_f103c8\lib635\libcodal-core.a(CodalComponent.o)
                0x08010bb0                component_callback(codal::Event)
 .text._ZN5codal14CodalComponent12addComponentEv
                0x08010c08       0x70 .pioenvs\bluepill_f103c8\lib635\libcodal-core.a(CodalComponent.o)
                0x08010c08                codal::CodalComponent::addComponent()
 .text._ZN5codal14CodalComponent15removeComponentEv
                0x08010c78       0x20 .pioenvs\bluepill_f103c8\lib635\libcodal-core.a(CodalComponent.o)
                0x08010c78                codal::CodalComponent::removeComponent()
 .text.codal_dmesg_set_flush_fn
                0x08010c98        0xc .pioenvs\bluepill_f103c8\lib635\libcodal-core.a(CodalDmesg.o)
                0x08010c98                codal_dmesg_set_flush_fn
 .text.codal_dmesg_flush
                0x08010ca4       0x10 .pioenvs\bluepill_f103c8\lib635\libcodal-core.a(CodalDmesg.o)
                0x08010ca4                codal_dmesg_flush
 .text._ZN5codal6SerialC2ERNS_3PinES2_hht
                0x08010cb4       0x5c .pioenvs\bluepill_f103c8\lib635\libcodal-core.a(Serial.o)
                0x08010cb4                codal::Serial::Serial(codal::Pin&, codal::Pin&, unsigned char, unsigned char, unsigned short)
                0x08010cb4                codal::Serial::Serial(codal::Pin&, codal::Pin&, unsigned char, unsigned char, unsigned short)
 .text._ZN5codal6SerialD2Ev
                0x08010d10       0x1c .pioenvs\bluepill_f103c8\lib635\libcodal-core.a(Serial.o)
                0x08010d10                codal::Serial::~Serial()
                0x08010d10                codal::Serial::~Serial()
 .text._ZN5codal10EventModel4sendENS_5EventE
                0x08010d2c       0x14 .pioenvs\bluepill_f103c8\lib635\libcodal-core.a(MessageBus.o)
                0x08010d2c                codal::EventModel::send(codal::Event)
 .text._ZN5codal10EventModel3addEPNS_8ListenerE
                0x08010d40        0x8 .pioenvs\bluepill_f103c8\lib635\libcodal-core.a(MessageBus.o)
                0x08010d40                codal::EventModel::add(codal::Listener*)
 .text._ZN5codal10EventModel6removeEPNS_8ListenerE
                0x08010d48        0x8 .pioenvs\bluepill_f103c8\lib635\libcodal-core.a(MessageBus.o)
                0x08010d48                codal::EventModel::remove(codal::Listener*)
 .text._ZN5codal10MessageBus6removeEPNS_8ListenerE
                0x08010d50       0x70 .pioenvs\bluepill_f103c8\lib635\libcodal-core.a(MessageBus.o)
                0x08010d50                codal::MessageBus::remove(codal::Listener*)
 .text._ZN5codal10MessageBus3addEPNS_8ListenerE
                0x08010dc0       0xbc .pioenvs\bluepill_f103c8\lib635\libcodal-core.a(MessageBus.o)
                0x08010dc0                codal::MessageBus::add(codal::Listener*)
 .text._ZN5codal10MessageBusD2Ev
                0x08010e7c       0x78 .pioenvs\bluepill_f103c8\lib635\libcodal-core.a(MessageBus.o)
                0x08010e7c                codal::MessageBus::~MessageBus()
                0x08010e7c                codal::MessageBus::~MessageBus()
 .text._ZN5codal10MessageBusC2Ev
                0x08010ef4       0xa8 .pioenvs\bluepill_f103c8\lib635\libcodal-core.a(MessageBus.o)
                0x08010ef4                codal::MessageBus::MessageBus()
                0x08010ef4                codal::MessageBus::MessageBus()
 .text._ZN5codal10MessageBus7processERNS_5EventEb
                0x08010f9c       0x84 .pioenvs\bluepill_f103c8\lib635\libcodal-core.a(MessageBus.o)
                0x08010f9c                codal::MessageBus::process(codal::Event&, bool)
 .text._ZN5codal19allocateNotifyEventEv
                0x08011020       0x10 .pioenvs\bluepill_f103c8\lib635\libcodal-core.a(MessageBus.o)
                0x08011020                codal::allocateNotifyEvent()
 .text._ZN5codal13ManagedStringC2EPKcs
                0x08011030       0x34 .pioenvs\bluepill_f103c8\lib635\libcodal-core.a(ManagedString.o)
                0x08011030                codal::ManagedString::ManagedString(char const*, short)
                0x08011030                codal::ManagedString::ManagedString(char const*, short)
 .text._ZN5codal13ManagedStringC2Ev
                0x08011064        0xc .pioenvs\bluepill_f103c8\lib635\libcodal-core.a(ManagedString.o)
                0x08011064                codal::ManagedString::ManagedString()
                0x08011064                codal::ManagedString::ManagedString()
 .text.startup._GLOBAL__sub_I__ZN5codal13ManagedString9initEmptyEv
                0x08011070       0x2c .pioenvs\bluepill_f103c8\lib635\libcodal-core.a(ManagedString.o)
 .text          0x0801109c      0x4c8 .pioenvs\bluepill_f103c8\lib46d\libqfplib.a(qfplib.o)
                0x08011164                qfp_fsub
                0x0801116a                qfp_fadd
                0x080111ac                qfp_fcmp
                0x080111c8                qfp_fmul
                0x080111d8                qfp_fdiv
                0x0801121a                qfp_fdiv_fast
                0x0801126a                qfp_fsqrt_fast
                0x080112e0                qfp_float2int
                0x080112e2                qfp_float2fix
                0x0801130a                qfp_float2uint
                0x0801130c                qfp_float2ufix
                0x08011326                qfp_int2float
                0x08011328                qfp_fix2float
                0x08011332                qfp_uint2float
                0x08011334                qfp_ufix2float
                0x080113ca                qfp_fsin
                0x0801140c                qfp_fcos
                0x08011416                qfp_ftan
                0x0801141e                qfp_fexp
                0x0801144e                qfp_fsqrt
                0x08011488                qfp_fln
                0x080114ac                qfp_fatan2
 .text._ZN5codal3_cm3I2CC2ERNS_3PinES3_
                0x08011564       0x1c .pioenvs\bluepill_f103c8\lib24c\libcm.a(CmI2C.o)
                0x08011564                codal::_cm::I2C::I2C(codal::Pin&, codal::Pin&)
                0x08011564                codal::_cm::I2C::I2C(codal::Pin&, codal::Pin&)
 .text._ZN5codal3_cm3SPI4initEv
                0x08011580       0x5c .pioenvs\bluepill_f103c8\lib24c\libcm.a(CmSPI.o)
                0x08011580                codal::_cm::SPI::init()
 .text._ZN5codal3_cm3SPIC2ERNS0_3PinES3_S3_S3_
                0x080115dc       0x9c .pioenvs\bluepill_f103c8\lib24c\libcm.a(CmSPI.o)
                0x080115dc                codal::_cm::SPI::SPI(codal::_cm::Pin&, codal::_cm::Pin&, codal::_cm::Pin&, codal::_cm::Pin&)
                0x080115dc                codal::_cm::SPI::SPI(codal::_cm::Pin&, codal::_cm::Pin&, codal::_cm::Pin&, codal::_cm::Pin&)
 .text._ZN5codal3_cm6SerialD2Ev
                0x08011678       0x14 .pioenvs\bluepill_f103c8\lib24c\libcm.a(CmSerial.o)
                0x08011678                codal::_cm::Serial::~Serial()
                0x08011678                codal::_cm::Serial::~Serial()
 .text._ZN5codal3_cm6SerialC2ERNS0_3PinES3_hh
                0x0801168c       0x4c .pioenvs\bluepill_f103c8\lib24c\libcm.a(CmSerial.o)
                0x0801168c                codal::_cm::Serial::Serial(codal::_cm::Pin&, codal::_cm::Pin&, unsigned char, unsigned char)
                0x0801168c                codal::_cm::Serial::Serial(codal::_cm::Pin&, codal::_cm::Pin&, unsigned char, unsigned char)
 .text._ZN5codal3_cm13tick_callbackEv
                0x080116d8       0x10 .pioenvs\bluepill_f103c8\lib24c\libcm.a(CmTimer.o)
                0x080116d8                codal::_cm::tick_callback()
 .text._ZN5codal3_cm5Timer4initEv
                0x080116e8       0x2c .pioenvs\bluepill_f103c8\lib24c\libcm.a(CmTimer.o)
                0x080116e8                codal::_cm::Timer::init()
 .text._ZN5codal3_cm5TimerC2Ev
                0x08011714       0x28 .pioenvs\bluepill_f103c8\lib24c\libcm.a(CmTimer.o)
                0x08011714                codal::_cm::Timer::Timer()
                0x08011714                codal::_cm::Timer::Timer()
 .text.pinmap_peripheral
                0x0801173c       0x30 .pioenvs\bluepill_f103c8\lib24c\libcm.a(CmPinMap.o)
                0x0801173c                pinmap_peripheral
 .text.pinmap_mode
                0x0801176c       0x2c .pioenvs\bluepill_f103c8\lib24c\libcm.a(CmPinMap.o)
                0x0801176c                pinmap_mode
 .text.pinmap_cnf
                0x08011798       0x2c .pioenvs\bluepill_f103c8\lib24c\libcm.a(CmPinMap.o)
                0x08011798                pinmap_cnf
 .text._ZN5codal3I2CC2ERNS_3PinES2_
                0x080117c4        0xc .pioenvs\bluepill_f103c8\lib635\libcodal-core.a(I2C.o)
                0x080117c4                codal::I2C::I2C(codal::Pin&, codal::Pin&)
                0x080117c4                codal::I2C::I2C(codal::Pin&, codal::Pin&)
 .text.startup.main
                0x080117d0       0x26 .pioenvs\bluepill_f103c8\src\main.o
                0x080117d0                main
 .text.unity_output_char
                0x080117f6        0x6 .pioenvs\bluepill_f103c8\src\unit_test.o
                0x080117f6                unity_output_char
 .text.debug_write
                0x080117fc       0x16 .pioenvs\bluepill_f103c8\lib931\liblogger.a(logger.o)
                0x080117fc                debug_write
 .text.debug_print
                0x08011812       0x1a .pioenvs\bluepill_f103c8\lib931\liblogger.a(logger.o)
                0x08011812                debug_print
 .text.debug_print_unsigned
                0x0801182c        0x4 .pioenvs\bluepill_f103c8\lib931\liblogger.a(logger.o)
                0x0801182c                debug_print_unsigned
 .text.debug_printhex
                0x08011830       0x42 .pioenvs\bluepill_f103c8\lib931\liblogger.a(logger.o)
                0x08011830                debug_printhex
 .text.debug_printhex_unsigned
                0x08011872       0x24 .pioenvs\bluepill_f103c8\lib931\liblogger.a(logger.o)
                0x08011872                debug_printhex_unsigned
 .text._ZN5codal11queue_fiberEPNS_5FiberEPS1_
                0x08011896       0x2e .pioenvs\bluepill_f103c8\lib635\libcodal-core.a(CodalFiber.o)
                0x08011896                codal::queue_fiber(codal::Fiber*, codal::Fiber**)
 .text._ZN5codal13dequeue_fiberEPNS_5FiberE
                0x080118c4       0x34 .pioenvs\bluepill_f103c8\lib635\libcodal-core.a(CodalFiber.o)
                0x080118c4                codal::dequeue_fiber(codal::Fiber*)
 .text._ZN5codal12create_fiberEPFvPvES0_S2_
                0x080118f8       0x1e .pioenvs\bluepill_f103c8\lib635\libcodal-core.a(CodalFiber.o)
                0x080118f8                codal::create_fiber(void (*)(void*), void*, void (*)(void*))
 .text._ZN5codal20fiber_wait_for_eventEtt
                0x08011916       0x12 .pioenvs\bluepill_f103c8\lib635\libcodal-core.a(CodalFiber.o)
                0x08011916                codal::fiber_wait_for_event(unsigned short, unsigned short)
 .text._ZN5codal16launch_new_fiberEPFvvES1_
                0x08011928       0x10 .pioenvs\bluepill_f103c8\lib635\libcodal-core.a(CodalFiber.o)
                0x08011928                codal::launch_new_fiber(void (*)(), void (*)())
 .text._ZN5codal13release_fiberEPv
                0x08011938       0x12 .pioenvs\bluepill_f103c8\lib635\libcodal-core.a(CodalFiber.o)
                0x08011938                codal::release_fiber(void*)
 .text._ZN5codal22launch_new_fiber_paramEPFvPvES2_S0_
                0x0801194a       0x1a .pioenvs\bluepill_f103c8\lib635\libcodal-core.a(CodalFiber.o)
                0x0801194a                codal::launch_new_fiber_param(void (*)(void*), void (*)(void*), void*)
 .text._ZN5codal9idle_taskEv
                0x08011964        0xc .pioenvs\bluepill_f103c8\lib635\libcodal-core.a(CodalFiber.o)
                0x08011964                codal::idle_task()
 .text._Z16device_malloc_injR14HeapDefinition
                0x08011970       0x84 .pioenvs\bluepill_f103c8\lib635\libcodal-core.a(CodalHeapAllocator.o)
                0x08011970                device_malloc_in(unsigned int, HeapDefinition&)
 .text._ZN5codal8ListenerC2EttPFvNS_5EventEEt
                0x080119f4       0x28 .pioenvs\bluepill_f103c8\lib635\libcodal-core.a(CodalListener.o)
                0x080119f4                codal::Listener::Listener(unsigned short, unsigned short, void (*)(codal::Event), unsigned short)
                0x080119f4                codal::Listener::Listener(unsigned short, unsigned short, void (*)(codal::Event), unsigned short)
 .text._ZN5codal8ListenerD2Ev
                0x08011a1c       0x14 .pioenvs\bluepill_f103c8\lib635\libcodal-core.a(CodalListener.o)
                0x08011a1c                codal::Listener::~Listener()
                0x08011a1c                codal::Listener::~Listener()
 .text._ZN5codal8Listener5queueENS_5EventE
                0x08011a30       0x5c .pioenvs\bluepill_f103c8\lib635\libcodal-core.a(CodalListener.o)
                0x08011a30                codal::Listener::queue(codal::Event)
 .text._ZN5codal5Timer17disableInterruptsEv
                0x08011a8c        0xa .pioenvs\bluepill_f103c8\lib635\libcodal-core.a(Timer.o)
                0x08011a8c                codal::Timer::disableInterrupts()
 .text._ZN5codal5Timer16enableInterruptsEv
                0x08011a96        0xa .pioenvs\bluepill_f103c8\lib635\libcodal-core.a(Timer.o)
                0x08011a96                codal::Timer::enableInterrupts()
 .text._ZN5codal5Timer13getTimerEventEv
                0x08011aa0       0x22 .pioenvs\bluepill_f103c8\lib635\libcodal-core.a(Timer.o)
                0x08011aa0                codal::Timer::getTimerEvent()
 .text._ZN5codal5Timer17releaseTimerEventEPNS_10TimerEventE
                0x08011ac2        0xe .pioenvs\bluepill_f103c8\lib635\libcodal-core.a(Timer.o)
                0x08011ac2                codal::Timer::releaseTimerEvent(codal::TimerEvent*)
 .text._ZN5codal5Timer7getTimeEv
                0x08011ad0        0xe .pioenvs\bluepill_f103c8\lib635\libcodal-core.a(Timer.o)
                0x08011ad0                codal::Timer::getTime()
 .text._ZN5codal5Timer9getTimeUsEv
                0x08011ade        0xe .pioenvs\bluepill_f103c8\lib635\libcodal-core.a(Timer.o)
                0x08011ade                codal::Timer::getTimeUs()
 .text._ZN5codal5Timer8setEventEmttb
                0x08011aec       0x66 .pioenvs\bluepill_f103c8\lib635\libcodal-core.a(Timer.o)
                0x08011aec                codal::Timer::setEvent(unsigned long, unsigned short, unsigned short, bool)
 .text._ZN5codal5Timer12eventEveryUsEmtt
                0x08011b52        0xe .pioenvs\bluepill_f103c8\lib635\libcodal-core.a(Timer.o)
                0x08011b52                codal::Timer::eventEveryUs(unsigned long, unsigned short, unsigned short)
 .text._ZN5codal5Timer4syncEm
                0x08011b60       0x24 .pioenvs\bluepill_f103c8\lib635\libcodal-core.a(Timer.o)
                0x08011b60                codal::Timer::sync(unsigned long)
 .text._ZN5codal5Timer7triggerEv
                0x08011b84       0x92 .pioenvs\bluepill_f103c8\lib635\libcodal-core.a(Timer.o)
                0x08011b84                codal::Timer::trigger()
 .text._ZN5codal5TimerD2Ev
                0x08011c16        0x2 .pioenvs\bluepill_f103c8\lib635\libcodal-core.a(Timer.o)
                0x08011c16                codal::Timer::~Timer()
                0x08011c16                codal::Timer::~Timer()
 .text._ZN5codal5EventC2Ev
                0x08011c18       0x12 .pioenvs\bluepill_f103c8\lib635\libcodal-core.a(Event.o)
                0x08011c18                codal::Event::Event()
                0x08011c18                codal::Event::Event()
 .text._ZN5codal5EventC2EttNS_15EventLaunchModeE
                0x08011c2a       0x1c .pioenvs\bluepill_f103c8\lib635\libcodal-core.a(Event.o)
                0x08011c2a                codal::Event::Event(unsigned short, unsigned short, codal::EventLaunchMode)
                0x08011c2a                codal::Event::Event(unsigned short, unsigned short, codal::EventLaunchMode)
 .text._ZN5codal5EventC2EttmNS_15EventLaunchModeE
                0x08011c46       0x18 .pioenvs\bluepill_f103c8\lib635\libcodal-core.a(Event.o)
                0x08011c46                codal::Event::Event(unsigned short, unsigned short, unsigned long, codal::EventLaunchMode)
                0x08011c46                codal::Event::Event(unsigned short, unsigned short, unsigned long, codal::EventLaunchMode)
 .text._ZN5codal14EventQueueItemC2ENS_5EventE
                0x08011c5e       0x20 .pioenvs\bluepill_f103c8\lib635\libcodal-core.a(Event.o)
                0x08011c5e                codal::EventQueueItem::EventQueueItem(codal::Event)
                0x08011c5e                codal::EventQueueItem::EventQueueItem(codal::Event)
 .text.memcpy   0x08011c7e       0x1c .pioenvs\bluepill_f103c8\liba13\libnewlib.a(memcpy.o)
                0x08011c7e                memcpy
 .text.memset   0x08011c9a       0x10 .pioenvs\bluepill_f103c8\liba13\libnewlib.a(memset.o)
                0x08011c9a                memset
 .text.strlen   0x08011caa       0x10 .pioenvs\bluepill_f103c8\liba13\libnewlib.a(strlen.o)
                0x08011caa                strlen
 .text.strncat  0x08011cba       0x28 .pioenvs\bluepill_f103c8\liba13\libnewlib.a(strncat.o)
                0x08011cba                strncat
 .text.strncpy  0x08011ce2       0x2a .pioenvs\bluepill_f103c8\liba13\libnewlib.a(strncpy.o)
                0x08011ce2                strncpy
 .text.UnityFloatsWithin
                0x08011d0c       0xe4 .pioenvs\bluepill_f103c8\lib0e4\libunity.a(unity.o)
 .text.UnityDoublesWithin
                0x08011df0      0x11c .pioenvs\bluepill_f103c8\lib0e4\libunity.a(unity.o)
 .text.setUp    0x08011f0c        0x2 .pioenvs\bluepill_f103c8\lib0e4\libunity.a(unity.o)
                0x08011f0c                setUp
 .text.tearDown
                0x08011f0e        0x2 .pioenvs\bluepill_f103c8\lib0e4\libunity.a(unity.o)
                0x08011f0e                tearDown
 .text.UnityPrintNumberUnsigned
                0x08011f10       0x34 .pioenvs\bluepill_f103c8\lib0e4\libunity.a(unity.o)
                0x08011f10                UnityPrintNumberUnsigned
 .text.UnityPrintNumber
                0x08011f44       0x18 .pioenvs\bluepill_f103c8\lib0e4\libunity.a(unity.o)
                0x08011f44                UnityPrintNumber
 .text.UnityPrintNumberHex
                0x08011f5c       0x2e .pioenvs\bluepill_f103c8\lib0e4\libunity.a(unity.o)
                0x08011f5c                UnityPrintNumberHex
 .text.UnityPrint.part.0
                0x08011f8a       0x4c .pioenvs\bluepill_f103c8\lib0e4\libunity.a(unity.o)
 .text.UnityPrint
                0x08011fd6        0x8 .pioenvs\bluepill_f103c8\lib0e4\libunity.a(unity.o)
                0x08011fd6                UnityPrint
 .text.UnityPrintNumberByStyle
                0x08011fde       0x3a .pioenvs\bluepill_f103c8\lib0e4\libunity.a(unity.o)
                0x08011fde                UnityPrintNumberByStyle
 .text._ZN5codal3Pin15setServoPulseUsEm
                0x08012018        0x6 .pioenvs\bluepill_f103c8\lib24c\libcm.a(CmPin.o)
                0x08012018                codal::Pin::setServoPulseUs(unsigned long)
 .text._ZN5codal3Pin17setAnalogPeriodUsEm
                0x0801201e        0x6 .pioenvs\bluepill_f103c8\lib24c\libcm.a(CmPin.o)
                0x0801201e                codal::Pin::setAnalogPeriodUs(unsigned long)
 .text._ZN5codal3Pin8drainPinEv
                0x08012024        0x6 .pioenvs\bluepill_f103c8\lib24c\libcm.a(CmPin.o)
                0x08012024                codal::Pin::drainPin()
 .text._ZN5codal3_cm3Pin15getDigitalValueEv
                0x0801202a        0x4 .pioenvs\bluepill_f103c8\lib24c\libcm.a(CmPin.o)
                0x0801202a                codal::_cm::Pin::getDigitalValue()
 .text._ZN5codal3_cm3Pin15getDigitalValueENS_8PullModeE
                0x0801202e       0x16 .pioenvs\bluepill_f103c8\lib24c\libcm.a(CmPin.o)
                0x0801202e                codal::_cm::Pin::getDigitalValue(codal::PullMode)
 .text._ZN5codal3_cm3Pin14getAnalogValueEv
                0x08012044        0x4 .pioenvs\bluepill_f103c8\lib24c\libcm.a(CmPin.o)
                0x08012044                codal::_cm::Pin::getAnalogValue()
 .text._ZN5codal3_cm3Pin7isInputEv
                0x08012048        0xe .pioenvs\bluepill_f103c8\lib24c\libcm.a(CmPin.o)
                0x08012048                codal::_cm::Pin::isInput()
 .text._ZN5codal3_cm3Pin8isOutputEv
                0x08012056        0xe .pioenvs\bluepill_f103c8\lib24c\libcm.a(CmPin.o)
                0x08012056                codal::_cm::Pin::isOutput()
 .text._ZN5codal3_cm3Pin9isDigitalEv
                0x08012064        0xc .pioenvs\bluepill_f103c8\lib24c\libcm.a(CmPin.o)
                0x08012064                codal::_cm::Pin::isDigital()
 .text._ZN5codal3_cm3Pin8isAnalogEv
                0x08012070        0xe .pioenvs\bluepill_f103c8\lib24c\libcm.a(CmPin.o)
                0x08012070                codal::_cm::Pin::isAnalog()
 .text._ZN5codal3_cm3Pin15getAnalogPeriodEv
                0x0801207e       0x12 .pioenvs\bluepill_f103c8\lib24c\libcm.a(CmPin.o)
                0x0801207e                codal::_cm::Pin::getAnalogPeriod()
 .text._ZN5codal3_cm3Pin7setPullENS_8PullModeE
                0x08012090        0x6 .pioenvs\bluepill_f103c8\lib24c\libcm.a(CmPin.o)
                0x08012090                codal::_cm::Pin::setPull(codal::PullMode)
 .text._ZN5codal3_cm3Pin5setupEhh
                0x08012096       0x1e .pioenvs\bluepill_f103c8\lib24c\libcm.a(CmPin.o)
                0x08012096                codal::_cm::Pin::setup(unsigned char, unsigned char)
 .text._ZN5codal3_cm3Pin17setAnalogPeriodUsEi
                0x080120b4       0x12 .pioenvs\bluepill_f103c8\lib24c\libcm.a(CmPin.o)
                0x080120b4                codal::_cm::Pin::setAnalogPeriodUs(int)
 .text._ZN5codal3_cm3Pin15setAnalogPeriodEi
                0x080120c6        0xa .pioenvs\bluepill_f103c8\lib24c\libcm.a(CmPin.o)
                0x080120c6                codal::_cm::Pin::setAnalogPeriod(int)
 .text._ZN5codal3_cm3Pin13disableEventsEv
                0x080120d0       0x10 .pioenvs\bluepill_f103c8\lib24c\libcm.a(CmPin.o)
                0x080120d0                codal::_cm::Pin::disableEvents()
 .text._ZN5codal3_cm3Pin7eventOnEi
                0x080120e0       0x26 .pioenvs\bluepill_f103c8\lib24c\libcm.a(CmPin.o)
                0x080120e0                codal::_cm::Pin::eventOn(int)
 .text.target_enable_debug
                0x08012106        0x4 .pioenvs\bluepill_f103c8\lib24c\libcm.a(codal_target_hal.o)
                0x08012106                target_enable_debug
 .text.target_enable_irq
                0x0801210a        0x4 .pioenvs\bluepill_f103c8\lib24c\libcm.a(codal_target_hal.o)
                0x0801210a                target_enable_irq
 .text.target_disable_irq
                0x0801210e        0x4 .pioenvs\bluepill_f103c8\lib24c\libcm.a(codal_target_hal.o)
                0x0801210e                target_disable_irq
 .text.target_wait_for_event
                0x08012112        0xa .pioenvs\bluepill_f103c8\lib24c\libcm.a(codal_target_hal.o)
                0x08012112                target_wait_for_event
 .text.tcb_allocate
                0x0801211c        0x6 .pioenvs\bluepill_f103c8\lib24c\libcm.a(codal_target_hal.o)
                0x0801211c                tcb_allocate
 .text.tcb_configure_lr
                0x08012122        0x4 .pioenvs\bluepill_f103c8\lib24c\libcm.a(codal_target_hal.o)
                0x08012122                tcb_configure_lr
 .text.tcb_configure_sp
                0x08012126        0x4 .pioenvs\bluepill_f103c8\lib24c\libcm.a(codal_target_hal.o)
                0x08012126                tcb_configure_sp
 .text.tcb_configure_stack_base
                0x0801212a        0x4 .pioenvs\bluepill_f103c8\lib24c\libcm.a(codal_target_hal.o)
                0x0801212a                tcb_configure_stack_base
 .text.tcb_get_stack_base
                0x0801212e        0x4 .pioenvs\bluepill_f103c8\lib24c\libcm.a(codal_target_hal.o)
                0x0801212e                tcb_get_stack_base
 .text.get_current_sp
                0x08012132        0x4 .pioenvs\bluepill_f103c8\lib24c\libcm.a(codal_target_hal.o)
                0x08012132                get_current_sp
 .text.tcb_get_sp
                0x08012136        0x4 .pioenvs\bluepill_f103c8\lib24c\libcm.a(codal_target_hal.o)
                0x08012136                tcb_get_sp
 .text.tcb_configure_args
                0x0801213a        0x8 .pioenvs\bluepill_f103c8\lib24c\libcm.a(codal_target_hal.o)
                0x0801213a                tcb_configure_args
 .text._fini    0x08012142        0x2 .pioenvs\bluepill_f103c8\lib24c\libcm.a(codal_target_hal.o)
                0x08012142                _fini
 .text.__aeabi_atexit
                0x08012144        0x4 .pioenvs\bluepill_f103c8\lib24c\libcm.a(codal_target_hal.o)
                0x08012144                __aeabi_atexit
 .text._ZN5codal14CodalComponent16periodicCallbackEv
                0x08012148        0x2 .pioenvs\bluepill_f103c8\libff7\libbluepill.a(STM32BluePill.o)
                0x08012148                codal::CodalComponent::periodicCallback()
 .text._ZN5codal14CodalComponent12idleCallbackEv
                0x0801214a        0x2 .pioenvs\bluepill_f103c8\libff7\libbluepill.a(STM32BluePill.o)
                0x0801214a                codal::CodalComponent::idleCallback()
 .text._ZN5codal13STM32BluePill16periodicCallbackEv
                0x0801214c        0x2 .pioenvs\bluepill_f103c8\libff7\libbluepill.a(STM32BluePill.o)
                0x0801214c                codal::STM32BluePill::periodicCallback()
 .text._ZN5codal14CodalComponentD0Ev
                0x0801214e       0x12 .pioenvs\bluepill_f103c8\libff7\libbluepill.a(STM32BluePill.o)
                0x0801214e                codal::CodalComponent::~CodalComponent()
 .text._ZN5codal13STM32BluePill12idleCallbackEv
                0x08012160        0x4 .pioenvs\bluepill_f103c8\libff7\libbluepill.a(STM32BluePill.o)
                0x08012160                codal::STM32BluePill::idleCallback()
 .text._ZN5codal13STM32BluePillD0Ev
                0x08012164       0x12 .pioenvs\bluepill_f103c8\libff7\libbluepill.a(STM32BluePill.o)
                0x08012164                codal::STM32BluePill::~STM32BluePill()
 .text.__cxa_pure_virtual
                0x08012176        0x8 .pioenvs\bluepill_f103c8\libff7\libbluepill.a(bluepill.o)
                0x08012176                __cxa_pure_virtual
 .text._Znwj    0x0801217e        0x4 .pioenvs\bluepill_f103c8\libff7\libbluepill.a(bluepill.o)
                0x0801217e                operator new(unsigned int)
 .text._ZdlPv   0x08012182        0x4 .pioenvs\bluepill_f103c8\libff7\libbluepill.a(bluepill.o)
                0x08012182                operator delete(void*)
 .text.platform_set_alarm
                0x08012186        0x4 .pioenvs\bluepill_f103c8\libff7\libbluepill.a(timer.o)
                0x08012186                platform_set_alarm
 .text.millis   0x0801218a        0x4 .pioenvs\bluepill_f103c8\libff7\libbluepill.a(timer.o)
                0x0801218a                millis
 .text.target_get_serial_number
                0x0801218e        0x6 .pioenvs\bluepill_f103c8\lib443\libbootloader.a(target_stm32f103.o)
                0x0801218e                target_get_serial_number
 .text.target_flash_unlock
                0x08012194        0x4 .pioenvs\bluepill_f103c8\lib443\libbootloader.a(target_stm32f103.o)
                0x08012194                target_flash_unlock
 .text.target_flash_lock
                0x08012198        0x4 .pioenvs\bluepill_f103c8\lib443\libbootloader.a(target_stm32f103.o)
                0x08012198                target_flash_lock
 .text.hf2_data_tx_cb
                0x0801219c        0x4 .pioenvs\bluepill_f103c8\lib443\libbootloader.a(hf2.o)
 .text._ZN13UARTInterfaceC2Ejj
                0x080121a0        0x2 .pioenvs\bluepill_f103c8\lib492\libuartint.a(uartint.o)
                0x080121a0                UARTInterface::UARTInterface(unsigned int, unsigned int)
                0x080121a0                UARTInterface::UARTInterface(unsigned int, unsigned int)
 .text.gpio_set_mode
                0x080121a2       0x62 .pioenvs\bluepill_f103c8\libFrameworkLibOpenCM3.a(gpio.o)
                0x080121a2                gpio_set_mode
 .text.gpio_set
                0x08012204        0x4 .pioenvs\bluepill_f103c8\libFrameworkLibOpenCM3.a(gpio_common_all.o)
                0x08012204                gpio_set
 .text.gpio_clear
                0x08012208        0x6 .pioenvs\bluepill_f103c8\libFrameworkLibOpenCM3.a(gpio_common_all.o)
                0x08012208                gpio_clear
 .text.usart_recv
                0x0801220e        0x8 .pioenvs\bluepill_f103c8\libFrameworkLibOpenCM3.a(usart_common_f124.o)
                0x0801220e                usart_recv
 .text.rcc_periph_clock_enable
                0x08012216       0x1a .pioenvs\bluepill_f103c8\libFrameworkLibOpenCM3.a(rcc_common_all.o)
                0x08012216                rcc_periph_clock_enable
 .text.rcc_periph_reset_pulse
                0x08012230       0x22 .pioenvs\bluepill_f103c8\libFrameworkLibOpenCM3.a(rcc_common_all.o)
                0x08012230                rcc_periph_reset_pulse
 .text.flash_wait_for_last_operation
                0x08012252        0xc .pioenvs\bluepill_f103c8\libFrameworkLibOpenCM3.a(flash_common_f01.o)
                0x08012252                flash_wait_for_last_operation
 .text.usbd_poll
                0x0801225e        0x8 .pioenvs\bluepill_f103c8\libFrameworkLibOpenCM3.a(usb.o)
                0x0801225e                usbd_poll
 .text.usbd_ep_setup
                0x08012266        0xe .pioenvs\bluepill_f103c8\libFrameworkLibOpenCM3.a(usb.o)
                0x08012266                usbd_ep_setup
 .text._usbd_reset
                0x08012274       0x32 .pioenvs\bluepill_f103c8\libFrameworkLibOpenCM3.a(usb.o)
                0x08012274                _usbd_reset
 .text.usbd_ep_write_packet
                0x080122a6        0xe .pioenvs\bluepill_f103c8\libFrameworkLibOpenCM3.a(usb.o)
                0x080122a6                usbd_ep_write_packet
 .text.usbd_ep_read_packet
                0x080122b4        0xe .pioenvs\bluepill_f103c8\libFrameworkLibOpenCM3.a(usb.o)
                0x080122b4                usbd_ep_read_packet
 .text.usbd_ep_stall_set
                0x080122c2        0x8 .pioenvs\bluepill_f103c8\libFrameworkLibOpenCM3.a(usb.o)
                0x080122c2                usbd_ep_stall_set
 .text.usbd_ep_stall_get
                0x080122ca        0x8 .pioenvs\bluepill_f103c8\libFrameworkLibOpenCM3.a(usb.o)
                0x080122ca                usbd_ep_stall_get
 .text.stall_transaction
                0x080122d2       0x14 .pioenvs\bluepill_f103c8\libFrameworkLibOpenCM3.a(usb_control.o)
 .text.usb_control_recv_chunk
                0x080122e6       0x3c .pioenvs\bluepill_f103c8\libFrameworkLibOpenCM3.a(usb_control.o)
 .text.usb_control_send_chunk
                0x08012322       0x44 .pioenvs\bluepill_f103c8\libFrameworkLibOpenCM3.a(usb_control.o)
 .text.usb_control_request_dispatch
                0x08012366       0x62 .pioenvs\bluepill_f103c8\libFrameworkLibOpenCM3.a(usb_control.o)
 .text.usb_control_setup_read
                0x080123c8       0x42 .pioenvs\bluepill_f103c8\libFrameworkLibOpenCM3.a(usb_control.o)
 .text.usbd_register_control_callback
                0x0801240a       0x26 .pioenvs\bluepill_f103c8\libFrameworkLibOpenCM3.a(usb_control.o)
                0x0801240a                usbd_register_control_callback
 .text._usbd_control_setup
                0x08012430       0x5a .pioenvs\bluepill_f103c8\libFrameworkLibOpenCM3.a(usb_control.o)
                0x08012430                _usbd_control_setup
 .text._usbd_control_out
                0x0801248a       0x82 .pioenvs\bluepill_f103c8\libFrameworkLibOpenCM3.a(usb_control.o)
                0x0801248a                _usbd_control_out
 .text._usbd_control_in
                0x0801250c       0x56 .pioenvs\bluepill_f103c8\libFrameworkLibOpenCM3.a(usb_control.o)
                0x0801250c                _usbd_control_in
 .text.usb_standard_set_configuration
                0x08012562       0x92 .pioenvs\bluepill_f103c8\libFrameworkLibOpenCM3.a(usb_standard.o)
 .text.usb_standard_get_configuration
                0x080125f4       0x20 .pioenvs\bluepill_f103c8\libFrameworkLibOpenCM3.a(usb_standard.o)
 .text.usb_standard_get_interface
                0x08012614       0x34 .pioenvs\bluepill_f103c8\libFrameworkLibOpenCM3.a(usb_standard.o)
 .text.usb_standard_device_get_status
                0x08012648       0x18 .pioenvs\bluepill_f103c8\libFrameworkLibOpenCM3.a(usb_standard.o)
 .text.usb_standard_endpoint_get_status
                0x08012660       0x2a .pioenvs\bluepill_f103c8\libFrameworkLibOpenCM3.a(usb_standard.o)
 .text.usb_standard_endpoint_stall
                0x0801268a       0x10 .pioenvs\bluepill_f103c8\libFrameworkLibOpenCM3.a(usb_standard.o)
 .text.usb_standard_endpoint_unstall
                0x0801269a       0x10 .pioenvs\bluepill_f103c8\libFrameworkLibOpenCM3.a(usb_standard.o)
 .text.usb_standard_set_address
                0x080126aa       0x28 .pioenvs\bluepill_f103c8\libFrameworkLibOpenCM3.a(usb_standard.o)
 .text.usb_standard_set_interface
                0x080126d2       0x4e .pioenvs\bluepill_f103c8\libFrameworkLibOpenCM3.a(usb_standard.o)
 .text.usb_standard_get_descriptor
                0x08012720      0x256 .pioenvs\bluepill_f103c8\libFrameworkLibOpenCM3.a(usb_standard.o)
 .text.usb_standard_interface_get_status
                0x08012976       0x18 .pioenvs\bluepill_f103c8\libFrameworkLibOpenCM3.a(usb_standard.o)
 .text.usbd_register_set_config_callback
                0x0801298e       0x26 .pioenvs\bluepill_f103c8\libFrameworkLibOpenCM3.a(usb_standard.o)
                0x0801298e                usbd_register_set_config_callback
 .text._usbd_standard_request
                0x080129b4       0x30 .pioenvs\bluepill_f103c8\libFrameworkLibOpenCM3.a(usb_standard.o)
                0x080129b4                _usbd_standard_request
 .text.st_usbfs_copy_to_pm
                0x080129e4       0x1c .pioenvs\bluepill_f103c8\libFrameworkLibOpenCM3.a(st_usbfs_v1.o)
                0x080129e4                st_usbfs_copy_to_pm
 .text.st_usbfs_copy_from_pm
                0x08012a00       0x2a .pioenvs\bluepill_f103c8\libFrameworkLibOpenCM3.a(st_usbfs_v1.o)
                0x08012a00                st_usbfs_copy_from_pm
 .text.blocking_handler
                0x08012a2a        0x2 .pioenvs\bluepill_f103c8\libFrameworkLibOpenCM3.a(vector.o)
                0x08012a2a                usart3_isr
                0x08012a2a                tim7_isr
                0x08012a2a                adc1_2_isr
                0x08012a2a                tim1_trg_com_isr
                0x08012a2a                usb_hp_can_tx_isr
                0x08012a2a                tim6_isr
                0x08012a2a                usb_wakeup_isr
                0x08012a2a                blocking_handler
                0x08012a2a                tim5_isr
                0x08012a2a                otg_fs_isr
                0x08012a2a                spi1_isr
                0x08012a2a                exti2_isr
                0x08012a2a                dma1_channel6_isr
                0x08012a2a                can_rx1_isr
                0x08012a2a                dma1_channel5_isr
                0x08012a2a                dma2_channel5_isr
                0x08012a2a                usart1_isr
                0x08012a2a                usage_fault_handler
                0x08012a2a                tim8_trg_com_isr
                0x08012a2a                can2_rx0_isr
                0x08012a2a                tim1_brk_isr
                0x08012a2a                can2_rx1_isr
                0x08012a2a                tim1_cc_isr
                0x08012a2a                sdio_isr
                0x08012a2a                eth_isr
                0x08012a2a                dma1_channel4_isr
                0x08012a2a                tim8_brk_isr
                0x08012a2a                dma2_channel4_5_isr
                0x08012a2a                pvd_isr
                0x08012a2a                rcc_isr
                0x08012a2a                flash_isr
                0x08012a2a                uart4_isr
                0x08012a2a                exti15_10_isr
                0x08012a2a                hard_fault_handler
                0x08012a2a                exti1_isr
                0x08012a2a                i2c1_ev_isr
                0x08012a2a                dma2_channel1_isr
                0x08012a2a                spi2_isr
                0x08012a2a                tim8_up_isr
                0x08012a2a                dma2_channel2_isr
                0x08012a2a                exti3_isr
                0x08012a2a                adc3_isr
                0x08012a2a                tim3_isr
                0x08012a2a                usb_lp_can_rx0_isr
                0x08012a2a                i2c2_er_isr
                0x08012a2a                i2c2_ev_isr
                0x08012a2a                uart5_isr
                0x08012a2a                fsmc_isr
                0x08012a2a                dma1_channel1_isr
                0x08012a2a                exti4_isr
                0x08012a2a                mem_manage_handler
                0x08012a2a                can2_tx_isr
                0x08012a2a                exti9_5_isr
                0x08012a2a                dma2_channel3_isr
                0x08012a2a                dma1_channel7_isr
                0x08012a2a                tim1_up_isr
                0x08012a2a                can2_sce_isr
                0x08012a2a                tim4_isr
                0x08012a2a                dma1_channel2_isr
                0x08012a2a                i2c1_er_isr
                0x08012a2a                can_sce_isr
                0x08012a2a                tim8_cc_isr
                0x08012a2a                tamper_isr
                0x08012a2a                eth_wkup_isr
                0x08012a2a                bus_fault_handler
                0x08012a2a                wwdg_isr
                0x08012a2a                dma1_channel3_isr
                0x08012a2a                spi3_isr
                0x08012a2a                tim2_isr
                0x08012a2a                exti0_isr
 .text.null_handler
                0x08012a2c        0x2 .pioenvs\bluepill_f103c8\libFrameworkLibOpenCM3.a(vector.o)
                0x08012a2c                sv_call_handler
                0x08012a2c                pend_sv_handler
                0x08012a2c                debug_monitor_handler
                0x08012a2c                sys_tick_handler
                0x08012a2c                nmi_handler
                0x08012a2c                null_handler
 .text.nvic_enable_irq
                0x08012a2e       0x1a .pioenvs\bluepill_f103c8\libFrameworkLibOpenCM3.a(nvic.o)
                0x08012a2e                nvic_enable_irq
 .text.st_usbfs_ep_stall_get
                0x08012a48       0x38 .pioenvs\bluepill_f103c8\libFrameworkLibOpenCM3.a(st_usbfs_core.o)
                0x08012a48                st_usbfs_ep_stall_get
 .text._ZN5codal14string_reverseEPc
                0x08012a80       0x2a .pioenvs\bluepill_f103c8\lib635\libcodal-core.a(CodalCompat.o)
                0x08012a80                codal::string_reverse(char*)
 .text._ZN5codal4itoaEiPc
                0x08012aaa       0x50 .pioenvs\bluepill_f103c8\lib635\libcodal-core.a(CodalCompat.o)
                0x08012aaa                codal::itoa(int, char*)
 .text._ZN5codal6Serial12initialiseRxEv
                0x08012afa       0x4c .pioenvs\bluepill_f103c8\lib635\libcodal-core.a(Serial.o)
                0x08012afa                codal::Serial::initialiseRx()
 .text._ZN5codal6Serial12circularCopyEPhhS1_tt
                0x08012b46       0x26 .pioenvs\bluepill_f103c8\lib635\libcodal-core.a(Serial.o)
                0x08012b46                codal::Serial::circularCopy(unsigned char*, unsigned char, unsigned char*, unsigned short, unsigned short)
 .text._ZN5codal6Serial7eventOnENS_13ManagedStringENS_10SerialModeE
                0x08012b6c       0x26 .pioenvs\bluepill_f103c8\lib635\libcodal-core.a(Serial.o)
                0x08012b6c                codal::Serial::eventOn(codal::ManagedString, codal::SerialMode)
 .text._ZN5codal6Serial9readUntilENS_13ManagedStringENS_10SerialModeE
                0x08012b92      0x1a6 .pioenvs\bluepill_f103c8\lib635\libcodal-core.a(Serial.o)
                0x08012b92                codal::Serial::readUntil(codal::ManagedString, codal::SerialMode)
 .text._ZN5codal10MessageBus9elementAtEi
                0x08012d38       0x10 .pioenvs\bluepill_f103c8\lib635\libcodal-core.a(MessageBus.o)
                0x08012d38                codal::MessageBus::elementAt(int)
 .text._ZN5codal22MemberFunctionCallback10methodCallINS_10MessageBusEEEvPvPmNS_5EventE
                0x08012d48       0x30 .pioenvs\bluepill_f103c8\lib635\libcodal-core.a(MessageBus.o)
                0x08012d48                void codal::MemberFunctionCallback::methodCall<codal::MessageBus>(void*, unsigned long*, codal::Event)
 .text._Z14async_callbackPv
                0x08012d78       0x7c .pioenvs\bluepill_f103c8\lib635\libcodal-core.a(MessageBus.o)
                0x08012d78                async_callback(void*)
 .text._ZThn8_N5codal10MessageBusD1Ev
                0x08012df4        0x8 .pioenvs\bluepill_f103c8\lib635\libcodal-core.a(MessageBus.o)
                0x08012df4                non-virtual thunk to codal::MessageBus::~MessageBus()
 .text._ZN5codal10MessageBusD0Ev
                0x08012dfc       0x12 .pioenvs\bluepill_f103c8\lib635\libcodal-core.a(MessageBus.o)
                0x08012dfc                codal::MessageBus::~MessageBus()
 .text._ZThn8_N5codal10MessageBusD0Ev
                0x08012e0e        0x8 .pioenvs\bluepill_f103c8\lib635\libcodal-core.a(MessageBus.o)
                0x08012e0e                non-virtual thunk to codal::MessageBus::~MessageBus()
 .text._ZN5codal10MessageBus12dequeueEventEv
                0x08012e16       0x22 .pioenvs\bluepill_f103c8\lib635\libcodal-core.a(MessageBus.o)
                0x08012e16                codal::MessageBus::dequeueEvent()
 .text._ZN5codal10MessageBus21deleteMarkedListenersEv
                0x08012e38       0x42 .pioenvs\bluepill_f103c8\lib635\libcodal-core.a(MessageBus.o)
                0x08012e38                codal::MessageBus::deleteMarkedListeners()
 .text._ZN5codal10MessageBus10queueEventERNS_5EventE
                0x08012e7a       0x5e .pioenvs\bluepill_f103c8\lib635\libcodal-core.a(MessageBus.o)
                0x08012e7a                codal::MessageBus::queueEvent(codal::Event&)
 .text._ZN5codal10MessageBus4sendENS_5EventE
                0x08012ed8       0x16 .pioenvs\bluepill_f103c8\lib635\libcodal-core.a(MessageBus.o)
                0x08012ed8                codal::MessageBus::send(codal::Event)
 .text._ZN5codal10MessageBus4idleENS_5EventE
                0x08012eee       0x34 .pioenvs\bluepill_f103c8\lib635\libcodal-core.a(MessageBus.o)
                0x08012eee                codal::MessageBus::idle(codal::Event)
 .text._ZN5codal13ManagedStringD2Ev
                0x08012f22        0xe .pioenvs\bluepill_f103c8\lib635\libcodal-core.a(ManagedString.o)
                0x08012f22                codal::ManagedString::~ManagedString()
                0x08012f22                codal::ManagedString::~ManagedString()
 .text._ZN5codal13ManagedString10initStringEPKci
                0x08012f30       0x2e .pioenvs\bluepill_f103c8\lib635\libcodal-core.a(ManagedString.o)
                0x08012f30                codal::ManagedString::initString(char const*, int)
 .text._ZN5codal13ManagedStringC2Ei
                0x08012f5e       0x22 .pioenvs\bluepill_f103c8\lib635\libcodal-core.a(ManagedString.o)
                0x08012f5e                codal::ManagedString::ManagedString(int)
                0x08012f5e                codal::ManagedString::ManagedString(int)
 .text._ZN5codal13ManagedStringC2ERKS0_
                0x08012f80       0x10 .pioenvs\bluepill_f103c8\lib635\libcodal-core.a(ManagedString.o)
                0x08012f80                codal::ManagedString::ManagedString(codal::ManagedString const&)
                0x08012f80                codal::ManagedString::ManagedString(codal::ManagedString const&)
 .text._ZN5codal13ManagedStringaSERKS0_
                0x08012f90       0x1e .pioenvs\bluepill_f103c8\lib635\libcodal-core.a(ManagedString.o)
                0x08012f90                codal::ManagedString::operator=(codal::ManagedString const&)
 .text._ZN5codal13ManagedString6charAtEs
                0x08012fae       0x18 .pioenvs\bluepill_f103c8\lib635\libcodal-core.a(ManagedString.o)
                0x08012fae                codal::ManagedString::charAt(short)
 .text._ZL16isReadOnlyInlinePN5codal10RefCountedE
                0x08012fc6       0x22 .pioenvs\bluepill_f103c8\lib635\libcodal-core.a(RefCounted.o)
 .text._ZN5codal10RefCounted4incrEv
                0x08012fe8       0x12 .pioenvs\bluepill_f103c8\lib635\libcodal-core.a(RefCounted.o)
                0x08012fe8                codal::RefCounted::incr()
 .text._ZN5codal10RefCounted4decrEv
                0x08012ffa       0x22 .pioenvs\bluepill_f103c8\lib635\libcodal-core.a(RefCounted.o)
                0x08012ffa                codal::RefCounted::decr()
 .text._ZN5codal10RefCounted7destroyEv
                0x0801301c        0x4 .pioenvs\bluepill_f103c8\lib635\libcodal-core.a(RefCountedInit.o)
                0x0801301c                codal::RefCounted::destroy()
 .text._ZN5codal10RefCounted4initEv
                0x08013020        0x6 .pioenvs\bluepill_f103c8\lib635\libcodal-core.a(RefCountedInit.o)
                0x08013020                codal::RefCounted::init()
 .text._ZN5codal22MemberFunctionCallback4fireENS_5EventE
                0x08013026       0x18 .pioenvs\bluepill_f103c8\lib635\libcodal-core.a(MemberFunctionCallback.o)
                0x08013026                codal::MemberFunctionCallback::fire(codal::Event)
 .text._ZN5codal22MemberFunctionCallbackeqERKS0_
                0x0801303e       0x20 .pioenvs\bluepill_f103c8\lib635\libcodal-core.a(MemberFunctionCallback.o)
                0x0801303e                codal::MemberFunctionCallback::operator==(codal::MemberFunctionCallback const&)
 .text.memcmp   0x0801305e       0x1e .pioenvs\bluepill_f103c8\liba13\libnewlib.a(memcmp.o)
                0x0801305e                memcmp
 .text._ZN5codal3_cm3I2C12setFrequencyEm
                0x0801307c        0x4 .pioenvs\bluepill_f103c8\lib24c\libcm.a(CmI2C.o)
                0x0801307c                codal::_cm::I2C::setFrequency(unsigned long)
 .text._ZN5codal3_cm3I2C5writeEtPhib
                0x08013080        0x4 .pioenvs\bluepill_f103c8\lib24c\libcm.a(CmI2C.o)
                0x08013080                codal::_cm::I2C::write(unsigned short, unsigned char*, int, bool)
                0x08013080                codal::_cm::I2C::read(unsigned short, unsigned char*, int, bool)
 .text._ZN5codal3_cm3I2C12readRegisterEthPhib
                0x08013084        0x4 .pioenvs\bluepill_f103c8\lib24c\libcm.a(CmI2C.o)
                0x08013084                codal::_cm::I2C::readRegister(unsigned short, unsigned char, unsigned char*, int, bool)
 .text._ZN5codal3_cm3SPI12setFrequencyEm
                0x08013088        0xc .pioenvs\bluepill_f103c8\lib24c\libcm.a(CmSPI.o)
                0x08013088                codal::_cm::SPI::setFrequency(unsigned long)
 .text._ZN5codal3_cm3SPI5writeEi
                0x08013094        0xe .pioenvs\bluepill_f103c8\lib24c\libcm.a(CmSPI.o)
                0x08013094                codal::_cm::SPI::write(int)
 .text._ZN5codal3_cm3SPI8transferEPKhmPhm
                0x080130a2        0x4 .pioenvs\bluepill_f103c8\lib24c\libcm.a(CmSPI.o)
                0x080130a2                codal::_cm::SPI::transfer(unsigned char const*, unsigned long, unsigned char*, unsigned long)
 .text._ZN5codal3_cm3SPI7setModeEii
                0x080130a6       0x18 .pioenvs\bluepill_f103c8\lib24c\libcm.a(CmSPI.o)
                0x080130a6                codal::_cm::SPI::setMode(int, int)
 .text._ZN5codal3_cm16_codal_setup_pinEPNS0_3PinEmPK6PinMap
                0x080130be       0x54 .pioenvs\bluepill_f103c8\lib24c\libcm.a(CmSPI.o)
                0x080130be                codal::_cm::_codal_setup_pin(codal::_cm::Pin*, unsigned long, PinMap const*)
 .text._ZN5codal3_cm3SPI13startTransferEPKhmPhmPFvPvES5_
                0x08013112       0x28 .pioenvs\bluepill_f103c8\lib24c\libcm.a(CmSPI.o)
                0x08013112                codal::_cm::SPI::startTransfer(unsigned char const*, unsigned long, unsigned char*, unsigned long, void (*)(void*), void*)
 .text._ZN5codal3_cm6Serial15enableInterruptENS_19SerialInterruptTypeE
                0x0801313a        0x4 .pioenvs\bluepill_f103c8\lib24c\libcm.a(CmSerial.o)
                0x0801313a                codal::_cm::Serial::enableInterrupt(codal::SerialInterruptType)
 .text._ZN5codal3_cm6Serial16disableInterruptENS_19SerialInterruptTypeE
                0x0801313e        0x4 .pioenvs\bluepill_f103c8\lib24c\libcm.a(CmSerial.o)
                0x0801313e                codal::_cm::Serial::disableInterrupt(codal::SerialInterruptType)
 .text._ZN5codal3_cm6Serial11setBaudrateEm
                0x08013142        0x4 .pioenvs\bluepill_f103c8\lib24c\libcm.a(CmSerial.o)
                0x08013142                codal::_cm::Serial::setBaudrate(unsigned long)
 .text._ZN5codal3_cm6Serial13configurePinsERNS_3PinES3_
                0x08013146        0x4 .pioenvs\bluepill_f103c8\lib24c\libcm.a(CmSerial.o)
                0x08013146                codal::_cm::Serial::configurePins(codal::Pin&, codal::Pin&)
 .text._ZN5codal3_cm6Serial4putcEc
                0x0801314a        0x4 .pioenvs\bluepill_f103c8\lib24c\libcm.a(CmSerial.o)
                0x0801314a                codal::_cm::Serial::putc(char)
 .text._ZN5codal3_cm6Serial4getcEv
                0x0801314e        0x6 .pioenvs\bluepill_f103c8\lib24c\libcm.a(CmSerial.o)
                0x0801314e                codal::_cm::Serial::getc()
 .text._ZN5codal3_cm6SerialD0Ev
                0x08013154       0x12 .pioenvs\bluepill_f103c8\lib24c\libcm.a(CmSerial.o)
                0x08013154                codal::_cm::Serial::~Serial()
 .text._ZN5codal3_cm6Serial12initialiseRxEv
                0x08013166       0x38 .pioenvs\bluepill_f103c8\lib24c\libcm.a(CmSerial.o)
                0x08013166                codal::_cm::Serial::initialiseRx()
 .text._ZN5codal3_cm6Serial12circularCopyEPhhS2_tt
                0x0801319e       0x26 .pioenvs\bluepill_f103c8\lib24c\libcm.a(CmSerial.o)
                0x0801319e                codal::_cm::Serial::circularCopy(unsigned char*, unsigned char, unsigned char*, unsigned short, unsigned short)
 .text._ZN5codal3_cm6Serial7eventOnENS_13ManagedStringENS_10SerialModeE
                0x080131c4       0x24 .pioenvs\bluepill_f103c8\lib24c\libcm.a(CmSerial.o)
                0x080131c4                codal::_cm::Serial::eventOn(codal::ManagedString, codal::SerialMode)
 .text._ZN5codal3_cm6Serial9readUntilENS_13ManagedStringENS_10SerialModeE
                0x080131e8      0x1a6 .pioenvs\bluepill_f103c8\lib24c\libcm.a(CmSerial.o)
                0x080131e8                codal::_cm::Serial::readUntil(codal::ManagedString, codal::SerialMode)
 .text._ZN5codal3_cm14alarm_callbackEv
                0x0801338e        0x4 .pioenvs\bluepill_f103c8\lib24c\libcm.a(CmTimer.o)
                0x0801338e                codal::_cm::alarm_callback()
 .text._ZN5codal3_cm5Timer9triggerInEm
                0x08013392       0x12 .pioenvs\bluepill_f103c8\lib24c\libcm.a(CmTimer.o)
                0x08013392                codal::_cm::Timer::triggerIn(unsigned long)
 .text._ZN5codal3_cm5Timer11syncRequestEv
                0x080133a4       0x26 .pioenvs\bluepill_f103c8\lib24c\libcm.a(CmTimer.o)
                0x080133a4                codal::_cm::Timer::syncRequest()
 .text._ZN5codal3I2C12setFrequencyEm
                0x080133ca        0x6 .pioenvs\bluepill_f103c8\lib635\libcodal-core.a(I2C.o)
                0x080133ca                codal::I2C::setFrequency(unsigned long)
 .text._ZN5codal3I2C5startEv
                0x080133d0        0x6 .pioenvs\bluepill_f103c8\lib635\libcodal-core.a(I2C.o)
                0x080133d0                codal::I2C::start()
                0x080133d0                codal::I2C::stop()
 .text._ZN5codal3I2C5writeEh
                0x080133d6        0x6 .pioenvs\bluepill_f103c8\lib635\libcodal-core.a(I2C.o)
                0x080133d6                codal::I2C::write(unsigned char)
                0x080133d6                codal::I2C::read(codal::AcknowledgeType)
 .text._ZN5codal3I2C13writeRegisterEthh
                0x080133dc       0x1c .pioenvs\bluepill_f103c8\lib635\libcodal-core.a(I2C.o)
                0x080133dc                codal::I2C::writeRegister(unsigned short, unsigned char, unsigned char)
 .text._ZN5codal3I2C5writeEtPhib
                0x080133f8       0x50 .pioenvs\bluepill_f103c8\lib635\libcodal-core.a(I2C.o)
                0x080133f8                codal::I2C::write(unsigned short, unsigned char*, int, bool)
 .text._ZN5codal3I2C4readEtPhib
                0x08013448       0x64 .pioenvs\bluepill_f103c8\lib635\libcodal-core.a(I2C.o)
                0x08013448                codal::I2C::read(unsigned short, unsigned char*, int, bool)
 .text._ZN5codal3I2C5writeEth
                0x080134ac       0x1c .pioenvs\bluepill_f103c8\lib635\libcodal-core.a(I2C.o)
                0x080134ac                codal::I2C::write(unsigned short, unsigned char)
 .text._ZN5codal3I2C12readRegisterEthPhib
                0x080134c8       0x42 .pioenvs\bluepill_f103c8\lib635\libcodal-core.a(I2C.o)
                0x080134c8                codal::I2C::readRegister(unsigned short, unsigned char, unsigned char*, int, bool)
                0x0801350c                . = ALIGN (0x4)
 *fill*         0x0801350a        0x2 
 *(SORT_BY_ALIGNMENT(.rodata*))
                0x0801350c                . = ALIGN (0x4)

.glue_7         0x0801350c        0x0
 .glue_7        0x0801350c        0x0 linker stubs

.glue_7t        0x0801350c        0x0
 .glue_7t       0x0801350c        0x0 linker stubs

.vfp11_veneer   0x0801350c        0x0
 .vfp11_veneer  0x0801350c        0x0 linker stubs

.v4_bx          0x0801350c        0x0
 .v4_bx         0x0801350c        0x0 linker stubs

.iplt           0x0801350c        0x0
 .iplt          0x0801350c        0x0 asm/CortexContextSwitch.s.o

.rel.dyn        0x0801350c        0x0
 .rel.iplt      0x0801350c        0x0 asm/CortexContextSwitch.s.o

.boot_preinit_array
                0x08001020        0x0
                0x08001020                . = ALIGN (0x4)
                0x08001020                __boot_preinit_array_start = .
 *(SORT_BY_ALIGNMENT(.preinit_array))
                0x08001020                __boot_preinit_array_end = .

.preinit_array  0x0801350c        0x0
                0x0801350c                . = ALIGN (0x4)
                0x0801350c                __preinit_array_start = .
 *(SORT_BY_ALIGNMENT(.preinit_array))
                0x0801350c                __preinit_array_end = .

.boot_init_array
                0x08001020        0xc
                0x08001020                . = ALIGN (0x4)
                0x08001020                __boot_init_array_start = .
 *(SORT_BY_NAME(SORT_BY_ALIGNMENT(.init_array.*)))
 *(SORT_BY_ALIGNMENT(.init_array))
 .init_array    0x08001020        0x4 .pioenvs\bluepill_f103c8\src\uart.o
 .init_array    0x08001024        0x4 .pioenvs\bluepill_f103c8\lib492\libuartint.a(uartint.o)
 .init_array    0x08001028        0x4 .pioenvs\bluepill_f103c8\lib635\libcodal-core.a(ManagedString.o)
                0x0800102c                __boot_init_array_end = .
                0x0800102c                . = ALIGN (0x4)
                0x0800102c                _boot_etext = .

.init_array     0x0801350c        0x0
                0x0801350c                . = ALIGN (0x4)
                0x0801350c                __init_array_start = .
 *(SORT_BY_NAME(SORT_BY_ALIGNMENT(.init_array.*)))
 *(SORT_BY_ALIGNMENT(.init_array))
                0x0801350c                __init_array_end = .
                0x0801350c                . = ALIGN (0x4)
                0x0801350c                _etext = .

.boot_data      0x20000000      0x120 load address 0x0800102c
                0x20000000                _boot_data = .
 *(SORT_BY_ALIGNMENT(.data*))
 .data.codal_heap_start
                0x20000000        0x4 .pioenvs\bluepill_f103c8\lib24c\libcm.a(codal_target_hal.o)
                0x20000000                codal_heap_start
 .data.capabilities
                0x20000004        0x8 .pioenvs\bluepill_f103c8\lib443\libbootloader.a(usb_conf.o)
 .data.usb_strings
                0x2000000c       0x24 .pioenvs\bluepill_f103c8\lib443\libbootloader.a(usb_conf.o)
 .data.flashAddr
                0x20000030        0x4 .pioenvs\bluepill_f103c8\lib443\libbootloader.a(ghostfat.o)
 .data.rcc_ahb_frequency
                0x20000034        0x4 .pioenvs\bluepill_f103c8\libFrameworkLibOpenCM3.a(rcc.o)
                0x20000034                rcc_ahb_frequency
 .data.rcc_apb1_frequency
                0x20000038        0x4 .pioenvs\bluepill_f103c8\libFrameworkLibOpenCM3.a(rcc.o)
                0x20000038                rcc_apb1_frequency
 .data.rcc_apb2_frequency
                0x2000003c        0x4 .pioenvs\bluepill_f103c8\libFrameworkLibOpenCM3.a(rcc.o)
                0x2000003c                rcc_apb2_frequency
 .data._ZL12userNotifyId
                0x20000040        0x2 .pioenvs\bluepill_f103c8\lib635\libcodal-core.a(MessageBus.o)
 .data.msos20_descriptor_set
                0x20000042       0xb2 .pioenvs\bluepill_f103c8\lib443\libbootloader.a(winusb.o)
 .data.winusb_wcid
                0x200000f4       0x28 .pioenvs\bluepill_f103c8\lib443\libbootloader.a(winusb.o)
 .data.firstFlush
                0x2000011c        0x1 .pioenvs\bluepill_f103c8\lib443\libbootloader.a(ghostfat.o)
                0x20000120                . = ALIGN (0x4)
 *fill*         0x2000011d        0x3 
                0x20000120                _boot_edata = .
                0x0800102c                _boot_data_loadaddr = LOADADDR (.boot_data)

.data           0x20002800        0x0 load address 0x0801350c
                0x20002800                _data = .
 *(SORT_BY_ALIGNMENT(.data*))
                0x20002800                . = ALIGN (0x4)
                0x20002800                _edata = .
                0x0801350c                _data_loadaddr = LOADADDR (.data)

.igot.plt       0x20002800        0x0 load address 0x0801350c
 .igot.plt      0x20002800        0x0 asm/CortexContextSwitch.s.o

.boot_bss       0x20000120     0x1fc8
 *(SORT_BY_ALIGNMENT(.bss*))
 .bss.r         0x20000120        0x8 .pioenvs\bluepill_f103c8\src\unit_test.o
                0x20000120                r
 .bss.x         0x20000128        0x8 .pioenvs\bluepill_f103c8\src\unit_test.o
                0x20000128                x
 .bss.y         0x20000130        0x8 .pioenvs\bluepill_f103c8\src\unit_test.o
                0x20000130                y
 .bss.rf        0x20000138        0x4 .pioenvs\bluepill_f103c8\src\unit_test.o
                0x20000138                rf
 .bss.ri        0x2000013c        0x4 .pioenvs\bluepill_f103c8\src\unit_test.o
                0x2000013c                ri
 .bss.ru        0x20000140        0x4 .pioenvs\bluepill_f103c8\src\unit_test.o
                0x20000140                ru
 .bss.xf        0x20000144        0x4 .pioenvs\bluepill_f103c8\src\unit_test.o
                0x20000144                xf
 .bss.yf        0x20000148        0x4 .pioenvs\bluepill_f103c8\src\unit_test.o
                0x20000148                yf
 .bss._ZN5codal12currentFiberE
                0x2000014c        0x4 .pioenvs\bluepill_f103c8\lib635\libcodal-core.a(CodalFiber.o)
                0x2000014c                codal::currentFiber
 .bss._ZN5codalL10messageBusE
                0x20000150        0x4 .pioenvs\bluepill_f103c8\lib635\libcodal-core.a(CodalFiber.o)
 .bss._ZN5codalL10sleepQueueE
                0x20000154        0x4 .pioenvs\bluepill_f103c8\lib635\libcodal-core.a(CodalFiber.o)
 .bss._ZN5codalL11forkedFiberE
                0x20000158        0x4 .pioenvs\bluepill_f103c8\lib635\libcodal-core.a(CodalFiber.o)
 .bss._ZN5codalL8runQueueE
                0x2000015c        0x4 .pioenvs\bluepill_f103c8\lib635\libcodal-core.a(CodalFiber.o)
 .bss._ZN5codalL9fiberPoolE
                0x20000160        0x4 .pioenvs\bluepill_f103c8\lib635\libcodal-core.a(CodalFiber.o)
 .bss._ZN5codalL9idleFiberE
                0x20000164        0x4 .pioenvs\bluepill_f103c8\lib635\libcodal-core.a(CodalFiber.o)
 .bss._ZN5codalL9waitQueueE
                0x20000168        0x4 .pioenvs\bluepill_f103c8\lib635\libcodal-core.a(CodalFiber.o)
 .bss.heap      0x2000016c        0x8 .pioenvs\bluepill_f103c8\lib635\libcodal-core.a(CodalHeapAllocator.o)
                0x2000016c                heap
 .bss._ZN5codal12system_timerE
                0x20000174        0x4 .pioenvs\bluepill_f103c8\lib635\libcodal-core.a(Timer.o)
                0x20000174                codal::system_timer
 .bss._ZN5codal10EventModel15defaultEventBusE
                0x20000178        0x4 .pioenvs\bluepill_f103c8\lib635\libcodal-core.a(Event.o)
                0x20000178                codal::EventModel::defaultEventBus
 .bss.msgQList  0x2000017c       0x20 .pioenvs\bluepill_f103c8\libd0a\libcocoOS_5.0.3.a(os_msgqueue.o)
 .bss.task_list
                0x2000019c       0x8c .pioenvs\bluepill_f103c8\libd0a\libcocoOS_5.0.3.a(os_task.o)
 .bss._ZL13tick_callback
                0x20000228        0x4 .pioenvs\bluepill_f103c8\lib24c\libcm.a(codal_target_hal.o)
 .bss._ZL14alarm_callback
                0x2000022c        0x4 .pioenvs\bluepill_f103c8\lib24c\libcm.a(codal_target_hal.o)
 .bss.__dso_handle
                0x20000230        0x4 .pioenvs\bluepill_f103c8\lib24c\libcm.a(codal_target_hal.o)
                0x20000230                __dso_handle
 .bss._ZL10alarmCount
                0x20000234        0x4 .pioenvs\bluepill_f103c8\libff7\libbluepill.a(timer.o)
 .bss._ZL8tickFunc
                0x20000238        0x4 .pioenvs\bluepill_f103c8\libff7\libbluepill.a(timer.o)
 .bss._ZL9alarmFunc
                0x2000023c        0x4 .pioenvs\bluepill_f103c8\libff7\libbluepill.a(timer.o)
 .bss._ZL9tickCount
                0x20000240        0x4 .pioenvs\bluepill_f103c8\libff7\libbluepill.a(timer.o)
 .bss.erase_end.5424
                0x20000244        0x4 .pioenvs\bluepill_f103c8\lib443\libbootloader.a(target_stm32f103.o)
 .bss.erase_start.5423
                0x20000248        0x4 .pioenvs\bluepill_f103c8\lib443\libbootloader.a(target_stm32f103.o)
 .bss.config_callback
                0x2000024c       0x28 .pioenvs\bluepill_f103c8\lib443\libbootloader.a(usb_conf.o)
 .bss.control_callback
                0x20000274       0x50 .pioenvs\bluepill_f103c8\lib443\libbootloader.a(usb_conf.o)
 .bss.usbd_dev  0x200002c4        0x4 .pioenvs\bluepill_f103c8\lib443\libbootloader.a(usb_conf.o)
                0x200002c4                usbd_dev
 .bss.webusb_https_url
                0x200002c8        0x4 .pioenvs\bluepill_f103c8\lib443\libbootloader.a(webusb.o)
 .bss._usbd_dev
                0x200002cc        0x4 .pioenvs\bluepill_f103c8\lib443\libbootloader.a(hf2.o)
 .bss.usb21_bos
                0x200002d0        0x4 .pioenvs\bluepill_f103c8\lib443\libbootloader.a(usb21_standard.o)
 .bss.flashBuf  0x200002d4      0x400 .pioenvs\bluepill_f103c8\lib443\libbootloader.a(ghostfat.o)
 .bss.lastFlush
                0x200006d4        0x4 .pioenvs\bluepill_f103c8\lib443\libbootloader.a(ghostfat.o)
 .bss.ms        0x200006d8        0x4 .pioenvs\bluepill_f103c8\lib443\libbootloader.a(ghostfat.o)
 .bss._ZL13responseQueue
                0x200006dc       0x6c .pioenvs\bluepill_f103c8\lib492\libuartint.a(uartint.o)
 .bss._ZN5codal14CodalComponent10componentsE
                0x20000748       0xf0 .pioenvs\bluepill_f103c8\lib635\libcodal-core.a(CodalComponent.o)
                0x20000748                codal::CodalComponent::components
 .bss._ZL14dmesg_flush_fn
                0x20000838        0x4 .pioenvs\bluepill_f103c8\lib635\libcodal-core.a(CodalDmesg.o)
 .bss.codalLogStore
                0x2000083c      0x404 .pioenvs\bluepill_f103c8\lib635\libcodal-core.a(CodalDmesg.o)
                0x2000083c                codalLogStore
 .bss._ZN5codal13ManagedString11EmptyStringE
                0x20000c40        0x4 .pioenvs\bluepill_f103c8\lib635\libcodal-core.a(ManagedString.o)
                0x20000c40                codal::ManagedString::EmptyString
 .bss._ZN5codal3_cmL10_instancesE
                0x20000c44       0x10 .pioenvs\bluepill_f103c8\lib24c\libcm.a(CmSPI.o)
 .bss._ZN5codal3_cm5Timer8instanceE
                0x20000c54        0x4 .pioenvs\bluepill_f103c8\lib24c\libcm.a(CmTimer.o)
                0x20000c54                codal::_cm::Timer::instance
 .bss.usbd_control_buffer
                0x20000c58      0x100 .pioenvs\bluepill_f103c8\lib443\libbootloader.a(usb_conf.o)
 .bss.serialPort
                0x20000d58        0x1 .pioenvs\bluepill_f103c8\src\uart.o
                0x20000d58                serialPort
 .bss._ZL10logEnabled
                0x20000d59        0x1 .pioenvs\bluepill_f103c8\lib931\liblogger.a(logger.o)
 .bss._ZL11debugBuffer
                0x20000d5a      0x101 .pioenvs\bluepill_f103c8\lib931\liblogger.a(logger.o)
 .bss._ZN5codalL11fiber_flagsE
                0x20000e5b        0x1 .pioenvs\bluepill_f103c8\lib635\libcodal-core.a(CodalFiber.o)
 .bss._ZZ13device_mallocE11initialised
                0x20000e5c        0x1 .pioenvs\bluepill_f103c8\lib635\libcodal-core.a(CodalHeapAllocator.o)
 .bss.heap_count
                0x20000e5d        0x1 .pioenvs\bluepill_f103c8\lib635\libcodal-core.a(CodalHeapAllocator.o)
                0x20000e5d                heap_count
 .bss.nEvents   0x20000e5e        0x1 .pioenvs\bluepill_f103c8\libd0a\libcocoOS_5.0.3.a(os_event.o)
 .bss.nQueues   0x20000e5f        0x1 .pioenvs\bluepill_f103c8\libd0a\libcocoOS_5.0.3.a(os_msgqueue.o)
 .bss.nSemaphores
                0x20000e60        0x1 .pioenvs\bluepill_f103c8\libd0a\libcocoOS_5.0.3.a(os_sem.o)
 .bss.nTasks    0x20000e61        0x1 .pioenvs\bluepill_f103c8\libd0a\libcocoOS_5.0.3.a(os_task.o)
 .bss.float_usage
                0x20000e62       0x25 .pioenvs\bluepill_f103c8\libc64\libnano-float.a(functions.o)
 .bss._ZL11initialised
                0x20000e87        0x1 .pioenvs\bluepill_f103c8\lib24c\libcm.a(codal_target_hal.o)
 .bss._ZL12debugEnabled
                0x20000e88        0x1 .pioenvs\bluepill_f103c8\libff7\libbluepill.a(bluepill.o)
 .bss._ZZ20platform_start_timerE12timerStarted
                0x20000e89        0x1 .pioenvs\bluepill_f103c8\libff7\libbluepill.a(timer.o)
 .bss.serial_number
                0x20000e8a       0x19 .pioenvs\bluepill_f103c8\lib443\libbootloader.a(usb_conf.o)
 .bss.cdcbuf    0x20000ea3       0x41 .pioenvs\bluepill_f103c8\lib443\libbootloader.a(cdc.o)
 .bss.buf       0x20000ee4       0x40 .pioenvs\bluepill_f103c8\lib443\libbootloader.a(hf2.o)
 .bss.buf.5837  0x20000f24       0x40 .pioenvs\bluepill_f103c8\lib443\libbootloader.a(hf2.o)
 .bss._ZN5codal14CodalComponent13configurationE
                0x20000f64        0x1 .pioenvs\bluepill_f103c8\lib635\libcodal-core.a(CodalComponent.o)
                0x20000f64                codal::CodalComponent::configuration
 *(SORT_BY_ALIGNMENT(COMMON))
 *fill*         0x20000f65        0x3 
 COMMON         0x20000f68       0x28 .pioenvs\bluepill_f103c8\lib0e4\libunity.a(unity.o)
                0x20000f68                Unity
 COMMON         0x20000f90        0x4 .pioenvs\bluepill_f103c8\lib443\libbootloader.a(bootloader.o)
                0x20000f90                msTimer
 COMMON         0x20000f94     0x104d .pioenvs\bluepill_f103c8\lib443\libbootloader.a(hf2.o)
                0x20000f94                pkt
                0x20001fd8                dataToSend
                0x20001fdc                dataToSendLength
                0x20001fe0                dataToSendFlag
 *fill*         0x20001fe1        0x3 
 COMMON         0x20001fe4      0x100 .pioenvs\bluepill_f103c8\libFrameworkLibOpenCM3.a(st_usbfs_core.o)
                0x20001fe4                st_usbfs_dev
                0x200020dc                st_usbfs_force_nak
 COMMON         0x200020e4        0x3 .pioenvs\bluepill_f103c8\libd0a\libcocoOS_5.0.3.a(os_kernel.o)
                0x200020e4                running_tid
                0x200020e5                running
                0x200020e6                last_running_task
                0x200020e8                . = ALIGN (0x4)
 *fill*         0x200020e7        0x1 
                0x200020e8                _boot_ebss = .
                0x200020e8                . = ALIGN (0x4)
                0x200020e8                boot_end = .

.bss            0x20002800        0x0
 *(SORT_BY_ALIGNMENT(.bss*))
 *(SORT_BY_ALIGNMENT(COMMON))
                0x20002800                . = ALIGN (0x4)
                0x20002800                _ebss = .
                0x20002800                . = ALIGN (0x4)
                0x20002800                end = .
                0x20005000                PROVIDE (_stack, (ORIGIN (ram) + LENGTH (ram)))
LOAD asm/CortexContextSwitch.s.o
LOAD .pioenvs\bluepill_f103c8\src\aggregate.o
LOAD .pioenvs\bluepill_f103c8\src\downlink.o
LOAD .pioenvs\bluepill_f103c8\src\main.o
LOAD .pioenvs\bluepill_f103c8\src\sensor.o
LOAD .pioenvs\bluepill_f103c8\src\sensor_display.o
LOAD .pioenvs\bluepill_f103c8\src\uart.o
LOAD .pioenvs\bluepill_f103c8\src\unit_test.o
LOAD .pioenvs\bluepill_f103c8\src\wisol.o
LOAD .pioenvs\bluepill_f103c8\src\wstring.o
START GROUP
LOAD .pioenvs\bluepill_f103c8\lib931\liblogger.a
LOAD .pioenvs\bluepill_f103c8\lib635\libcodal-core.a
LOAD .pioenvs\bluepill_f103c8\libd0a\libcocoOS_5.0.3.a
LOAD .pioenvs\bluepill_f103c8\liba13\libnewlib.a
LOAD .pioenvs\bluepill_f103c8\lib0e4\libunity.a
LOAD .pioenvs\bluepill_f103c8\lib46d\libqfplib.a
LOAD .pioenvs\bluepill_f103c8\libc64\libnano-float.a
LOAD .pioenvs\bluepill_f103c8\lib24c\libcm.a
LOAD .pioenvs\bluepill_f103c8\libff7\libbluepill.a
LOAD .pioenvs\bluepill_f103c8\lib443\libbootloader.a
LOAD .pioenvs\bluepill_f103c8\lib257\libsimulator.a
LOAD .pioenvs\bluepill_f103c8\lib743\libspiint.a
LOAD .pioenvs\bluepill_f103c8\lib59a\libi2cint.a
LOAD .pioenvs\bluepill_f103c8\libe9f\libporting.a
LOAD .pioenvs\bluepill_f103c8\lib6b9\libboost_config.a
LOAD .pioenvs\bluepill_f103c8\libd55\libboost_static_assert.a
LOAD .pioenvs\bluepill_f103c8\lib43c\libboost_type_traits.a
LOAD .pioenvs\bluepill_f103c8\libf2c\libboost_preprocessor.a
LOAD .pioenvs\bluepill_f103c8\lib95e\libboost_assert.a
LOAD .pioenvs\bluepill_f103c8\libb77\libboost_core.a
LOAD .pioenvs\bluepill_f103c8\libb93\libboost_detail.a
LOAD .pioenvs\bluepill_f103c8\lib2eb\libboost_predef.a
LOAD .pioenvs\bluepill_f103c8\lib0fe\libboost_utility.a
LOAD .pioenvs\bluepill_f103c8\libffd\libboost_mpl.a
LOAD .pioenvs\bluepill_f103c8\lib3f0\libboost_iterator.a
LOAD .pioenvs\bluepill_f103c8\lib337\libboost_parameter.a
LOAD .pioenvs\bluepill_f103c8\libcaf\libboost_lockfree.a
LOAD .pioenvs\bluepill_f103c8\lib492\libuartint.a
LOAD .pioenvs\bluepill_f103c8\lib167\libBME280.a
LOAD .pioenvs\bluepill_f103c8\lib7c6\libadcint.a
LOAD c:/users/guppy/.platformio/packages/toolchain-gccarmnoneeabi/bin/../lib/gcc/arm-none-eabi/7.2.1/thumb/v7-m\libgcc.a
LOAD .pioenvs\bluepill_f103c8\libFrameworkLibOpenCM3.a
END GROUP
OUTPUT(.pioenvs\bluepill_f103c8\firmware.elf elf32-littlearm)

.ARM.attributes
                0x00000000       0x2f
 .ARM.attributes
                0x00000000       0x21 asm/CortexContextSwitch.s.o
 .ARM.attributes
                0x00000021       0x33 .pioenvs\bluepill_f103c8\src\main.o
 .ARM.attributes
                0x00000054       0x33 .pioenvs\bluepill_f103c8\src\uart.o
 .ARM.attributes
                0x00000087       0x33 .pioenvs\bluepill_f103c8\src\unit_test.o
 .ARM.attributes
                0x000000ba       0x33 .pioenvs\bluepill_f103c8\lib931\liblogger.a(logger.o)
 .ARM.attributes
                0x000000ed       0x33 .pioenvs\bluepill_f103c8\lib635\libcodal-core.a(CodalFiber.o)
 .ARM.attributes
                0x00000120       0x33 .pioenvs\bluepill_f103c8\lib635\libcodal-core.a(CodalHeapAllocator.o)
 .ARM.attributes
                0x00000153       0x33 .pioenvs\bluepill_f103c8\lib635\libcodal-core.a(CodalListener.o)
 .ARM.attributes
                0x00000186       0x33 .pioenvs\bluepill_f103c8\lib635\libcodal-core.a(Timer.o)
 .ARM.attributes
                0x000001b9       0x33 .pioenvs\bluepill_f103c8\lib635\libcodal-core.a(Event.o)
 .ARM.attributes
                0x000001ec       0x33 .pioenvs\bluepill_f103c8\libd0a\libcocoOS_5.0.3.a(os_event.o)
 .ARM.attributes
                0x0000021f       0x33 .pioenvs\bluepill_f103c8\libd0a\libcocoOS_5.0.3.a(os_kernel.o)
 .ARM.attributes
                0x00000252       0x33 .pioenvs\bluepill_f103c8\libd0a\libcocoOS_5.0.3.a(os_msgqueue.o)
 .ARM.attributes
                0x00000285       0x33 .pioenvs\bluepill_f103c8\libd0a\libcocoOS_5.0.3.a(os_sem.o)
 .ARM.attributes
                0x000002b8       0x33 .pioenvs\bluepill_f103c8\libd0a\libcocoOS_5.0.3.a(os_task.o)
 .ARM.attributes
                0x000002eb       0x33 .pioenvs\bluepill_f103c8\liba13\libnewlib.a(memcpy.o)
 .ARM.attributes
                0x0000031e       0x33 .pioenvs\bluepill_f103c8\liba13\libnewlib.a(memset.o)
 .ARM.attributes
                0x00000351       0x33 .pioenvs\bluepill_f103c8\liba13\libnewlib.a(strlen.o)
 .ARM.attributes
                0x00000384       0x33 .pioenvs\bluepill_f103c8\liba13\libnewlib.a(strncat.o)
 .ARM.attributes
                0x000003b7       0x33 .pioenvs\bluepill_f103c8\liba13\libnewlib.a(strncpy.o)
 .ARM.attributes
                0x000003ea       0x33 .pioenvs\bluepill_f103c8\lib0e4\libunity.a(unity.o)
 .ARM.attributes
                0x0000041d       0x33 .pioenvs\bluepill_f103c8\libc64\libnano-float.a(functions.o)
 .ARM.attributes
                0x00000450       0x33 .pioenvs\bluepill_f103c8\lib24c\libcm.a(CmPin.o)
 .ARM.attributes
                0x00000483       0x33 .pioenvs\bluepill_f103c8\lib24c\libcm.a(codal_target_hal.o)
 .ARM.attributes
                0x000004b6       0x33 .pioenvs\bluepill_f103c8\libff7\libbluepill.a(STM32BluePill.o)
 .ARM.attributes
                0x000004e9       0x33 .pioenvs\bluepill_f103c8\libff7\libbluepill.a(STM32BluePillIO.o)
 .ARM.attributes
                0x0000051c       0x33 .pioenvs\bluepill_f103c8\libff7\libbluepill.a(bluepill.o)
 .ARM.attributes
                0x0000054f       0x33 .pioenvs\bluepill_f103c8\libff7\libbluepill.a(led.o)
 .ARM.attributes
                0x00000582       0x33 .pioenvs\bluepill_f103c8\libff7\libbluepill.a(timer.o)
 .ARM.attributes
                0x000005b5       0x33 .pioenvs\bluepill_f103c8\lib443\libbootloader.a(bootloader.o)
 .ARM.attributes
                0x000005e8       0x33 .pioenvs\bluepill_f103c8\lib443\libbootloader.a(target_stm32f103.o)
 .ARM.attributes
                0x0000061b       0x33 .pioenvs\bluepill_f103c8\lib443\libbootloader.a(usb_conf.o)
 .ARM.attributes
                0x0000064e       0x33 .pioenvs\bluepill_f103c8\lib443\libbootloader.a(webusb.o)
 .ARM.attributes
                0x00000681       0x33 .pioenvs\bluepill_f103c8\lib443\libbootloader.a(winusb.o)
 .ARM.attributes
                0x000006b4       0x33 .pioenvs\bluepill_f103c8\lib443\libbootloader.a(cdc.o)
 .ARM.attributes
                0x000006e7       0x33 .pioenvs\bluepill_f103c8\lib443\libbootloader.a(hf2.o)
 .ARM.attributes
                0x0000071a       0x33 .pioenvs\bluepill_f103c8\lib443\libbootloader.a(backup.o)
 .ARM.attributes
                0x0000074d       0x33 .pioenvs\bluepill_f103c8\lib443\libbootloader.a(usb21_standard.o)
 .ARM.attributes
                0x00000780       0x33 .pioenvs\bluepill_f103c8\lib443\libbootloader.a(ghostfat.o)
 .ARM.attributes
                0x000007b3       0x33 .pioenvs\bluepill_f103c8\lib492\libuartint.a(uartint.o)
 .ARM.attributes
                0x000007e6       0x1d c:/users/guppy/.platformio/packages/toolchain-gccarmnoneeabi/bin/../lib/gcc/arm-none-eabi/7.2.1/thumb/v7-m\libgcc.a(_arm_addsubdf3.o)
 .ARM.attributes
                0x00000803       0x1d c:/users/guppy/.platformio/packages/toolchain-gccarmnoneeabi/bin/../lib/gcc/arm-none-eabi/7.2.1/thumb/v7-m\libgcc.a(_arm_muldivdf3.o)
 .ARM.attributes
                0x00000820       0x1d c:/users/guppy/.platformio/packages/toolchain-gccarmnoneeabi/bin/../lib/gcc/arm-none-eabi/7.2.1/thumb/v7-m\libgcc.a(_arm_cmpdf2.o)
 .ARM.attributes
                0x0000083d       0x1d c:/users/guppy/.platformio/packages/toolchain-gccarmnoneeabi/bin/../lib/gcc/arm-none-eabi/7.2.1/thumb/v7-m\libgcc.a(_arm_unorddf2.o)
 .ARM.attributes
                0x0000085a       0x1d c:/users/guppy/.platformio/packages/toolchain-gccarmnoneeabi/bin/../lib/gcc/arm-none-eabi/7.2.1/thumb/v7-m\libgcc.a(_arm_fixdfsi.o)
 .ARM.attributes
                0x00000877       0x1d c:/users/guppy/.platformio/packages/toolchain-gccarmnoneeabi/bin/../lib/gcc/arm-none-eabi/7.2.1/thumb/v7-m\libgcc.a(_arm_truncdfsf2.o)
 .ARM.attributes
                0x00000894       0x1d c:/users/guppy/.platformio/packages/toolchain-gccarmnoneeabi/bin/../lib/gcc/arm-none-eabi/7.2.1/thumb/v7-m\libgcc.a(_arm_addsubsf3.o)
 .ARM.attributes
                0x000008b1       0x1d c:/users/guppy/.platformio/packages/toolchain-gccarmnoneeabi/bin/../lib/gcc/arm-none-eabi/7.2.1/thumb/v7-m\libgcc.a(_arm_muldivsf3.o)
 .ARM.attributes
                0x000008ce       0x1d c:/users/guppy/.platformio/packages/toolchain-gccarmnoneeabi/bin/../lib/gcc/arm-none-eabi/7.2.1/thumb/v7-m\libgcc.a(_arm_cmpsf2.o)
 .ARM.attributes
                0x000008eb       0x33 .pioenvs\bluepill_f103c8\libFrameworkLibOpenCM3.a(desig.o)
 .ARM.attributes
                0x0000091e       0x33 .pioenvs\bluepill_f103c8\libFrameworkLibOpenCM3.a(flash.o)
 .ARM.attributes
                0x00000951       0x33 .pioenvs\bluepill_f103c8\libFrameworkLibOpenCM3.a(gpio.o)
 .ARM.attributes
                0x00000984       0x33 .pioenvs\bluepill_f103c8\libFrameworkLibOpenCM3.a(rcc.o)
 .ARM.attributes
                0x000009b7       0x33 .pioenvs\bluepill_f103c8\libFrameworkLibOpenCM3.a(rtc.o)
 .ARM.attributes
                0x000009ea       0x33 .pioenvs\bluepill_f103c8\libFrameworkLibOpenCM3.a(gpio_common_all.o)
 .ARM.attributes
                0x00000a1d       0x33 .pioenvs\bluepill_f103c8\libFrameworkLibOpenCM3.a(pwr_common_all.o)
 .ARM.attributes
                0x00000a50       0x33 .pioenvs\bluepill_f103c8\libFrameworkLibOpenCM3.a(usart_common_f124.o)
 .ARM.attributes
                0x00000a83       0x33 .pioenvs\bluepill_f103c8\libFrameworkLibOpenCM3.a(rcc_common_all.o)
 .ARM.attributes
                0x00000ab6       0x33 .pioenvs\bluepill_f103c8\libFrameworkLibOpenCM3.a(exti_common_all.o)
 .ARM.attributes
                0x00000ae9       0x33 .pioenvs\bluepill_f103c8\libFrameworkLibOpenCM3.a(flash_common_f01.o)
 .ARM.attributes
                0x00000b1c       0x33 .pioenvs\bluepill_f103c8\libFrameworkLibOpenCM3.a(usb.o)
 .ARM.attributes
                0x00000b4f       0x33 .pioenvs\bluepill_f103c8\libFrameworkLibOpenCM3.a(usb_control.o)
 .ARM.attributes
                0x00000b82       0x33 .pioenvs\bluepill_f103c8\libFrameworkLibOpenCM3.a(usb_standard.o)
 .ARM.attributes
                0x00000bb5       0x33 .pioenvs\bluepill_f103c8\libFrameworkLibOpenCM3.a(st_usbfs_v1.o)
 .ARM.attributes
                0x00000be8       0x33 .pioenvs\bluepill_f103c8\libFrameworkLibOpenCM3.a(vector.o)
 .ARM.attributes
                0x00000c1b       0x33 .pioenvs\bluepill_f103c8\libFrameworkLibOpenCM3.a(nvic.o)
 .ARM.attributes
                0x00000c4e       0x33 .pioenvs\bluepill_f103c8\libFrameworkLibOpenCM3.a(st_usbfs_core.o)
 .ARM.attributes
                0x00000c81       0x33 .pioenvs\bluepill_f103c8\lib635\libcodal-core.a(CodalCompat.o)
 .ARM.attributes
                0x00000cb4       0x33 .pioenvs\bluepill_f103c8\lib635\libcodal-core.a(CodalComponent.o)
 .ARM.attributes
                0x00000ce7       0x33 .pioenvs\bluepill_f103c8\lib635\libcodal-core.a(CodalDmesg.o)
 .ARM.attributes
                0x00000d1a       0x33 .pioenvs\bluepill_f103c8\lib635\libcodal-core.a(Serial.o)
 .ARM.attributes
                0x00000d4d       0x33 .pioenvs\bluepill_f103c8\lib635\libcodal-core.a(MessageBus.o)
 .ARM.attributes
                0x00000d80       0x33 .pioenvs\bluepill_f103c8\lib635\libcodal-core.a(ManagedString.o)
 .ARM.attributes
                0x00000db3       0x33 .pioenvs\bluepill_f103c8\lib635\libcodal-core.a(RefCounted.o)
 .ARM.attributes
                0x00000de6       0x33 .pioenvs\bluepill_f103c8\lib635\libcodal-core.a(RefCountedInit.o)
 .ARM.attributes
                0x00000e19       0x33 .pioenvs\bluepill_f103c8\lib635\libcodal-core.a(MemberFunctionCallback.o)
 .ARM.attributes
                0x00000e4c       0x33 .pioenvs\bluepill_f103c8\liba13\libnewlib.a(memcmp.o)
 .ARM.attributes
                0x00000e7f       0x21 .pioenvs\bluepill_f103c8\lib46d\libqfplib.a(qfplib.o)
 .ARM.attributes
                0x00000ea0       0x33 .pioenvs\bluepill_f103c8\lib24c\libcm.a(CmI2C.o)
 .ARM.attributes
                0x00000ed3       0x33 .pioenvs\bluepill_f103c8\lib24c\libcm.a(CmSPI.o)
 .ARM.attributes
                0x00000f06       0x33 .pioenvs\bluepill_f103c8\lib24c\libcm.a(CmSerial.o)
 .ARM.attributes
                0x00000f39       0x33 .pioenvs\bluepill_f103c8\lib24c\libcm.a(CmTimer.o)
 .ARM.attributes
                0x00000f6c       0x33 .pioenvs\bluepill_f103c8\lib24c\libcm.a(CmPinMap.o)
 .ARM.attributes
                0x00000f9f       0x33 .pioenvs\bluepill_f103c8\lib635\libcodal-core.a(I2C.o)

.comment        0x00000000       0x7e
 .comment       0x00000000       0x7e .pioenvs\bluepill_f103c8\src\main.o
                                 0x7f (size before relaxing)
 .comment       0x0000007e       0x7f .pioenvs\bluepill_f103c8\src\uart.o
 .comment       0x0000007e       0x7f .pioenvs\bluepill_f103c8\src\unit_test.o
 .comment       0x0000007e       0x7f .pioenvs\bluepill_f103c8\lib931\liblogger.a(logger.o)
 .comment       0x0000007e       0x7f .pioenvs\bluepill_f103c8\lib635\libcodal-core.a(CodalFiber.o)
 .comment       0x0000007e       0x7f .pioenvs\bluepill_f103c8\lib635\libcodal-core.a(CodalHeapAllocator.o)
 .comment       0x0000007e       0x7f .pioenvs\bluepill_f103c8\lib635\libcodal-core.a(CodalListener.o)
 .comment       0x0000007e       0x7f .pioenvs\bluepill_f103c8\lib635\libcodal-core.a(Timer.o)
 .comment       0x0000007e       0x7f .pioenvs\bluepill_f103c8\lib635\libcodal-core.a(Event.o)
 .comment       0x0000007e       0x7f .pioenvs\bluepill_f103c8\libd0a\libcocoOS_5.0.3.a(os_event.o)
 .comment       0x0000007e       0x7f .pioenvs\bluepill_f103c8\libd0a\libcocoOS_5.0.3.a(os_kernel.o)
 .comment       0x0000007e       0x7f .pioenvs\bluepill_f103c8\libd0a\libcocoOS_5.0.3.a(os_msgqueue.o)
 .comment       0x0000007e       0x7f .pioenvs\bluepill_f103c8\libd0a\libcocoOS_5.0.3.a(os_sem.o)
 .comment       0x0000007e       0x7f .pioenvs\bluepill_f103c8\libd0a\libcocoOS_5.0.3.a(os_task.o)
 .comment       0x0000007e       0x7f .pioenvs\bluepill_f103c8\liba13\libnewlib.a(memcpy.o)
 .comment       0x0000007e       0x7f .pioenvs\bluepill_f103c8\liba13\libnewlib.a(memset.o)
 .comment       0x0000007e       0x7f .pioenvs\bluepill_f103c8\liba13\libnewlib.a(strlen.o)
 .comment       0x0000007e       0x7f .pioenvs\bluepill_f103c8\liba13\libnewlib.a(strncat.o)
 .comment       0x0000007e       0x7f .pioenvs\bluepill_f103c8\liba13\libnewlib.a(strncpy.o)
 .comment       0x0000007e       0x7f .pioenvs\bluepill_f103c8\lib0e4\libunity.a(unity.o)
 .comment       0x0000007e       0x7f .pioenvs\bluepill_f103c8\libc64\libnano-float.a(functions.o)
 .comment       0x0000007e       0x7f .pioenvs\bluepill_f103c8\lib24c\libcm.a(CmPin.o)
 .comment       0x0000007e       0x7f .pioenvs\bluepill_f103c8\lib24c\libcm.a(codal_target_hal.o)
 .comment       0x0000007e       0x7f .pioenvs\bluepill_f103c8\libff7\libbluepill.a(STM32BluePill.o)
 .comment       0x0000007e       0x7f .pioenvs\bluepill_f103c8\libff7\libbluepill.a(STM32BluePillIO.o)
 .comment       0x0000007e       0x7f .pioenvs\bluepill_f103c8\libff7\libbluepill.a(bluepill.o)
 .comment       0x0000007e       0x7f .pioenvs\bluepill_f103c8\libff7\libbluepill.a(led.o)
 .comment       0x0000007e       0x7f .pioenvs\bluepill_f103c8\libff7\libbluepill.a(timer.o)
 .comment       0x0000007e       0x7f .pioenvs\bluepill_f103c8\lib443\libbootloader.a(bootloader.o)
 .comment       0x0000007e       0x7f .pioenvs\bluepill_f103c8\lib443\libbootloader.a(target_stm32f103.o)
 .comment       0x0000007e       0x7f .pioenvs\bluepill_f103c8\lib443\libbootloader.a(usb_conf.o)
 .comment       0x0000007e       0x7f .pioenvs\bluepill_f103c8\lib443\libbootloader.a(webusb.o)
 .comment       0x0000007e       0x7f .pioenvs\bluepill_f103c8\lib443\libbootloader.a(winusb.o)
 .comment       0x0000007e       0x7f .pioenvs\bluepill_f103c8\lib443\libbootloader.a(cdc.o)
 .comment       0x0000007e       0x7f .pioenvs\bluepill_f103c8\lib443\libbootloader.a(hf2.o)
 .comment       0x0000007e       0x7f .pioenvs\bluepill_f103c8\lib443\libbootloader.a(backup.o)
 .comment       0x0000007e       0x7f .pioenvs\bluepill_f103c8\lib443\libbootloader.a(usb21_standard.o)
 .comment       0x0000007e       0x7f .pioenvs\bluepill_f103c8\lib443\libbootloader.a(ghostfat.o)
 .comment       0x0000007e       0x7f .pioenvs\bluepill_f103c8\lib492\libuartint.a(uartint.o)
 .comment       0x0000007e       0x7f .pioenvs\bluepill_f103c8\libFrameworkLibOpenCM3.a(desig.o)
 .comment       0x0000007e       0x7f .pioenvs\bluepill_f103c8\libFrameworkLibOpenCM3.a(flash.o)
 .comment       0x0000007e       0x7f .pioenvs\bluepill_f103c8\libFrameworkLibOpenCM3.a(gpio.o)
 .comment       0x0000007e       0x7f .pioenvs\bluepill_f103c8\libFrameworkLibOpenCM3.a(rcc.o)
 .comment       0x0000007e       0x7f .pioenvs\bluepill_f103c8\libFrameworkLibOpenCM3.a(rtc.o)
 .comment       0x0000007e       0x7f .pioenvs\bluepill_f103c8\libFrameworkLibOpenCM3.a(gpio_common_all.o)
 .comment       0x0000007e       0x7f .pioenvs\bluepill_f103c8\libFrameworkLibOpenCM3.a(pwr_common_all.o)
 .comment       0x0000007e       0x7f .pioenvs\bluepill_f103c8\libFrameworkLibOpenCM3.a(usart_common_f124.o)
 .comment       0x0000007e       0x7f .pioenvs\bluepill_f103c8\libFrameworkLibOpenCM3.a(rcc_common_all.o)
 .comment       0x0000007e       0x7f .pioenvs\bluepill_f103c8\libFrameworkLibOpenCM3.a(exti_common_all.o)
 .comment       0x0000007e       0x7f .pioenvs\bluepill_f103c8\libFrameworkLibOpenCM3.a(flash_common_f01.o)
 .comment       0x0000007e       0x7f .pioenvs\bluepill_f103c8\libFrameworkLibOpenCM3.a(usb.o)
 .comment       0x0000007e       0x7f .pioenvs\bluepill_f103c8\libFrameworkLibOpenCM3.a(usb_control.o)
 .comment       0x0000007e       0x7f .pioenvs\bluepill_f103c8\libFrameworkLibOpenCM3.a(usb_standard.o)
 .comment       0x0000007e       0x7f .pioenvs\bluepill_f103c8\libFrameworkLibOpenCM3.a(st_usbfs_v1.o)
 .comment       0x0000007e       0x7f .pioenvs\bluepill_f103c8\libFrameworkLibOpenCM3.a(vector.o)
 .comment       0x0000007e       0x7f .pioenvs\bluepill_f103c8\libFrameworkLibOpenCM3.a(nvic.o)
 .comment       0x0000007e       0x7f .pioenvs\bluepill_f103c8\libFrameworkLibOpenCM3.a(st_usbfs_core.o)
 .comment       0x0000007e       0x7f .pioenvs\bluepill_f103c8\lib635\libcodal-core.a(CodalCompat.o)
 .comment       0x0000007e       0x7f .pioenvs\bluepill_f103c8\lib635\libcodal-core.a(CodalComponent.o)
 .comment       0x0000007e       0x7f .pioenvs\bluepill_f103c8\lib635\libcodal-core.a(CodalDmesg.o)
 .comment       0x0000007e       0x7f .pioenvs\bluepill_f103c8\lib635\libcodal-core.a(Serial.o)
 .comment       0x0000007e       0x7f .pioenvs\bluepill_f103c8\lib635\libcodal-core.a(MessageBus.o)
 .comment       0x0000007e       0x7f .pioenvs\bluepill_f103c8\lib635\libcodal-core.a(ManagedString.o)
 .comment       0x0000007e       0x7f .pioenvs\bluepill_f103c8\lib635\libcodal-core.a(RefCounted.o)
 .comment       0x0000007e       0x7f .pioenvs\bluepill_f103c8\lib635\libcodal-core.a(RefCountedInit.o)
 .comment       0x0000007e       0x7f .pioenvs\bluepill_f103c8\lib635\libcodal-core.a(MemberFunctionCallback.o)
 .comment       0x0000007e       0x7f .pioenvs\bluepill_f103c8\liba13\libnewlib.a(memcmp.o)
 .comment       0x0000007e       0x7f .pioenvs\bluepill_f103c8\lib24c\libcm.a(CmI2C.o)
 .comment       0x0000007e       0x7f .pioenvs\bluepill_f103c8\lib24c\libcm.a(CmSPI.o)
 .comment       0x0000007e       0x7f .pioenvs\bluepill_f103c8\lib24c\libcm.a(CmSerial.o)
 .comment       0x0000007e       0x7f .pioenvs\bluepill_f103c8\lib24c\libcm.a(CmTimer.o)
 .comment       0x0000007e       0x7f .pioenvs\bluepill_f103c8\lib24c\libcm.a(CmPinMap.o)
 .comment       0x0000007e       0x7f .pioenvs\bluepill_f103c8\lib635\libcodal-core.a(I2C.o)

.debug_line     0x00000000      0x10e
 .debug_line    0x00000000      0x10e asm/CortexContextSwitch.s.o

.debug_info     0x00000000       0x26
 .debug_info    0x00000000       0x26 asm/CortexContextSwitch.s.o

.debug_abbrev   0x00000000       0x14
 .debug_abbrev  0x00000000       0x14 asm/CortexContextSwitch.s.o

.debug_aranges  0x00000000       0x20
 .debug_aranges
                0x00000000       0x20 asm/CortexContextSwitch.s.o

.debug_str      0x00000000       0x8a
 .debug_str     0x00000000       0x8a asm/CortexContextSwitch.s.o

.debug_frame    0x00000000      0x374
 .debug_frame   0x00000000       0xac c:/users/guppy/.platformio/packages/toolchain-gccarmnoneeabi/bin/../lib/gcc/arm-none-eabi/7.2.1/thumb/v7-m\libgcc.a(_arm_addsubdf3.o)
 .debug_frame   0x000000ac       0x50 c:/users/guppy/.platformio/packages/toolchain-gccarmnoneeabi/bin/../lib/gcc/arm-none-eabi/7.2.1/thumb/v7-m\libgcc.a(_arm_muldivdf3.o)
 .debug_frame   0x000000fc       0xc4 c:/users/guppy/.platformio/packages/toolchain-gccarmnoneeabi/bin/../lib/gcc/arm-none-eabi/7.2.1/thumb/v7-m\libgcc.a(_arm_cmpdf2.o)
 .debug_frame   0x000001c0       0x20 c:/users/guppy/.platformio/packages/toolchain-gccarmnoneeabi/bin/../lib/gcc/arm-none-eabi/7.2.1/thumb/v7-m\libgcc.a(_arm_unorddf2.o)
 .debug_frame   0x000001e0       0x24 c:/users/guppy/.platformio/packages/toolchain-gccarmnoneeabi/bin/../lib/gcc/arm-none-eabi/7.2.1/thumb/v7-m\libgcc.a(_arm_fixdfsi.o)
 .debug_frame   0x00000204       0x24 c:/users/guppy/.platformio/packages/toolchain-gccarmnoneeabi/bin/../lib/gcc/arm-none-eabi/7.2.1/thumb/v7-m\libgcc.a(_arm_truncdfsf2.o)
 .debug_frame   0x00000228       0x4c c:/users/guppy/.platformio/packages/toolchain-gccarmnoneeabi/bin/../lib/gcc/arm-none-eabi/7.2.1/thumb/v7-m\libgcc.a(_arm_addsubsf3.o)
 .debug_frame   0x00000274       0x38 c:/users/guppy/.platformio/packages/toolchain-gccarmnoneeabi/bin/../lib/gcc/arm-none-eabi/7.2.1/thumb/v7-m\libgcc.a(_arm_muldivsf3.o)
 .debug_frame   0x000002ac       0xc8 c:/users/guppy/.platformio/packages/toolchain-gccarmnoneeabi/bin/../lib/gcc/arm-none-eabi/7.2.1/thumb/v7-m\libgcc.a(_arm_cmpsf2.o)
