
.pioenvs/bluepill_f103c8/firmware.elf:     file format elf32-littlearm

SYMBOL TABLE:
08000000 l    d  .boot_text	00000000 .boot_text
08006c00 l    d  .text	00000000 .text
080050b0 l    d  .boot_preinit_array	00000000 .boot_preinit_array
0800a800 l    d  .preinit_array	00000000 .preinit_array
080050b0 l    d  .boot_init_array	00000000 .boot_init_array
0800a800 l    d  .init_array	00000000 .init_array
080050b0 l    d  .boot_fini_array	00000000 .boot_fini_array
0800a814 l    d  .fini_array	00000000 .fini_array
20000000 l    d  .boot_data	00000000 .boot_data
20001000 l    d  .data	00000000 .data
2000012c l    d  .boot_bss	00000000 .boot_bss
20001008 l    d  .bss	00000000 .bss
200047bc l    d  .boot_buf	00000000 .boot_buf
00000000 l    d  .ARM.attributes	00000000 .ARM.attributes
00000000 l    d  .comment	00000000 .comment
00000000 l    d  .debug_line	00000000 .debug_line
00000000 l    d  .debug_info	00000000 .debug_info
00000000 l    d  .debug_abbrev	00000000 .debug_abbrev
00000000 l    d  .debug_aranges	00000000 .debug_aranges
00000000 l    d  .debug_str	00000000 .debug_str
00000000 l    d  .debug_loc	00000000 .debug_loc
00000000 l    d  .debug_ranges	00000000 .debug_ranges
00000000 l    d  .debug_macro	00000000 .debug_macro
00000000 l    d  .debug_frame	00000000 .debug_frame
00000000 l    df *ABS*	00000000 vector.c
00000000 l    df *ABS*	00000000 baseloader.c
2000012c l     O .boot_bss	00000004 bytes_flashed.5195
20000130 l     O .boot_bss	00000004 dest.5192
20000134 l     O .boot_bss	00000004 erase_end.5199
20000138 l     O .boot_bss	00000004 erase_start.5198
2000013c l     O .boot_bss	00000004 flash_end.5200
20000140 l     O .boot_bss	00000004 half_word_count.5194
20000148 l     O .boot_bss	00000001 should_disable_interrupts.5197
20000144 l     O .boot_bss	00000004 src.5193
20000149 l     O .boot_bss	00000001 verified.5196
00000000 l    df *ABS*	00000000 timer.cpp
08002a38 l     F .boot_text	00000074 _ZL25custom_rtc_awake_from_off7rcc_osc
08002aac l     F .boot_text	00000090 _ZL9rtc_setupv
20000444 l     O .boot_bss	00000004 _ZL10alarmCount
20000448 l     O .boot_bss	00000004 _ZL8tickFunc
2000044c l     O .boot_bss	00000004 _ZL9alarmFunc
20000450 l     O .boot_bss	00000004 _ZL9tickCount
20000455 l     O .boot_bss	00000001 _ZZ20platform_start_timerE12timerStarted
00000000 l    df *ABS*	00000000 uartint.cpp
08008e50 l     F .text	0000001c _Z41__static_initialization_and_destruction_0ii
08009fb2 l     F .text	0000000e _GLOBAL__sub_I__ZN13UARTInterfaceC2Ejj
20002194 l     O .bss	0000006c _ZL13responseQueue
00000000 l    df *ABS*	00000000 reset_handler.c
08000680 l     F .boot_text	00000050 pre_main
00000000 l    df *ABS*	00000000 codal_target_hal.cpp
08000768 l     F .boot_text	00000024 _ZL11timer_alarmv
0800078c l     F .boot_text	00000070 _ZL15poll_bootloaderv
080007fc l     F .boot_text	00000018 _ZL10timer_tickv
08000814 l     F .boot_text	0000002c _ZL11os_schedulev
20000164 l     O .boot_bss	00000001 _ZL11initialised
2000014c l     O .boot_bss	00000004 _ZL11poll_status
20000150 l     O .boot_bss	00000004 _ZL13tick_callback
20000154 l     O .boot_bss	00000004 _ZL14alarm_callback
20000158 l     O .boot_bss	00000004 _ZL16prev_poll_status
2000015c l     O .boot_bss	00000004 _ZL19bootloader_callback
00000000 l    df *ABS*	00000000 asm/CortexContextSwitch.s.o
08000a20 l       .boot_text	00000000 store_context_complete
08000a32 l       .boot_text	00000000 store_stack_complete
08000a26 l       .boot_text	00000000 store_stack
08000a4c l       .boot_text	00000000 restore_stack_complete
08000a40 l       .boot_text	00000000 restore_stack
08000aa0 l       .boot_text	00000000 store_stack1
00000000 l    df *ABS*	00000000 desig.c
08004624 l     O .boot_text	00000011 chars.4166
00000000 l    df *ABS*	00000000 rcc.c
00000000 l    df *ABS*	00000000 rtc.c
00000000 l    df *ABS*	00000000 pwr_common_all.c
00000000 l    df *ABS*	00000000 exti_common_all.c
00000000 l    df *ABS*	00000000 flash_common_f01.c
00000000 l    df *ABS*	00000000 usb.c
00000000 l    df *ABS*	00000000 usb_standard.c
08001a92 l     F .boot_text	00000004 usb_descriptor_type
08001a96 l     F .boot_text	00000004 usb_descriptor_index
08001a9a l     F .boot_text	00000030 usb_standard_set_address
08001aca l     F .boot_text	000000ba usb_standard_set_configuration
08001b84 l     F .boot_text	00000024 usb_standard_get_configuration
08001ba8 l     F .boot_text	00000056 usb_standard_set_interface
08001bfe l     F .boot_text	0000003e usb_standard_get_interface
08001c3c l     F .boot_text	00000018 usb_standard_device_get_status
08001c54 l     F .boot_text	00000018 usb_standard_interface_get_status
08001c6c l     F .boot_text	000001ba build_config_descriptor
08001e26 l     F .boot_text	000000e6 usb_standard_get_descriptor
08001f0c l     F .boot_text	0000002a usb_standard_endpoint_get_status
08001f36 l     F .boot_text	00000010 usb_standard_endpoint_stall
08001f46 l     F .boot_text	00000010 usb_standard_endpoint_unstall
00000000 l    df *ABS*	00000000 st_usbfs_v1.c
080011a4 l     F .boot_text	00000030 st_usbfs_v1_usbd_init
00000000 l    df *ABS*	00000000 scb.c
00000000 l    df *ABS*	00000000 st_usbfs_core.c
00000000 l    df *ABS*	00000000 gpio.c
00000000 l    df *ABS*	00000000 gpio_common_all.c
00000000 l    df *ABS*	00000000 usart_common_f124.c
00000000 l    df *ABS*	00000000 rcc_common_all.c
00000000 l    df *ABS*	00000000 usb_control.c
080017d4 l     F .boot_text	00000014 stall_transaction
080017e8 l     F .boot_text	00000032 usb_control_setup_write
0800181a l     F .boot_text	0000003c usb_control_recv_chunk
08001856 l     F .boot_text	00000048 usb_control_send_chunk
0800189e l     F .boot_text	00000060 usb_control_request_dispatch
080018fe l     F .boot_text	0000003a usb_control_setup_read
00000000 l    df *ABS*	00000000 nvic.c
00000000 l    df *ABS*	00000000 os_event.c
20000168 l     O .boot_bss	0000000e eventList
20000226 l     O .boot_bss	00000001 nEvents
20000014 l     O .boot_data	00000001 lastSignaledEvent
00000000 l    df *ABS*	00000000 os_kernel.c
00000000 l    df *ABS*	00000000 os_msgqueue.c
20000178 l     O .boot_bss	00000020 msgQList
20000227 l     O .boot_bss	00000001 nQueues
00000000 l    df *ABS*	00000000 os_sem.c
20000228 l     O .boot_bss	00000001 nSemaphores
00000000 l    df *ABS*	00000000 os_task.c
080022dc l     F .boot_text	0000001c os_task_wait_queue_empty
080022f8 l     F .boot_text	00000014 task_ready_set
20000229 l     O .boot_bss	00000001 nTasks
20000198 l     O .boot_bss	0000008c task_list
00000000 l    df *ABS*	00000000 os_assert.c
20000224 l     O .boot_bss	00000002 l.4990
00000000 l    df *ABS*	00000000 os_cbk.c
00000000 l    df *ABS*	00000000 memcmp.c
00000000 l    df *ABS*	00000000 memcpy.c
00000000 l    df *ABS*	00000000 memset.c
00000000 l    df *ABS*	00000000 strlen.c
00000000 l    df *ABS*	00000000 strncpy.c
00000000 l    df *ABS*	00000000 logger.cpp
08002634 l     F .boot_text	00000024 _ZL10__semihostiPv
080028a0 l     F .boot_text	0000001e _ZL14semihost_writemPKhj
08002658 l     F .boot_text	0000003c _ZL16write_all_outputPKhtb
08002694 l     F .boot_text	0000005c _ZL12debug_appendPKcj
20000442 l     O .boot_bss	00000001 _ZL10logEnabled
2000022c l     O .boot_bss	00000201 _ZL11debugBuffer
20000430 l     O .boot_bss	00000010 _ZL12output_funcs
20000440 l     O .boot_bss	00000002 _ZL17debugBufferLength
00000000 l    df *ABS*	00000000 bluepill.cpp
20000454 l     O .boot_bss	00000001 _ZL12debugEnabled
00000000 l    df *ABS*	00000000 led.cpp
00000000 l    df *ABS*	00000000 bootloader.c
08002bd4 l     F .boot_text	00000034 get_serial_number
08002c28 l     F .boot_text	000000cc poll_loop
20000458 l     O .boot_bss	00000004 baseloader_addr
2000045c l     O .boot_bss	00000004 baseloader_status
20000460 l     O .boot_bss	00000004 byte_count
20000464 l     O .boot_bss	00000004 cycleCount
20000468 l     O .boot_bss	00000004 dest
2000046c l     O .boot_bss	00000004 last_status
20000470 l     O .boot_bss	00000004 msTimer
20000728 l     O .boot_bss	00000001 poll_restart_requested
20000474 l     O .boot_bss	00000004 src
20000478 l     O .boot_bss	00000004 status
2000047c l     O .boot_bss	00000004 usbd_dev
20000018 l     O .boot_data	00000004 flushCount
00000000 l    df *ABS*	00000000 target_stm32f103.c
080044c2 l     F .boot_text	00000014 sleep_us
08002e64 l     F .boot_text	0000005c validate_application
20000729 l     O .boot_bss	00000001 forced_startup_mode
2000072a l     O .boot_bss	00000001 startup_mode
00000000 l    df *ABS*	00000000 usb_conf.c
08003098 l     F .boot_text	00000014 hf2_connected
080044e0 l     F .boot_text	00000004 usb_descriptor_type
080044e4 l     F .boot_text	00000004 usb_descriptor_index
080030ac l     F .boot_text	00000020 cdc_connected
080030cc l     F .boot_text	00000030 usb_cdc_transmit
080030fc l     F .boot_text	00000010 sof_callback
0800310c l     F .boot_text	00000050 set_aggregate_callback
0800350c l     F .boot_text	000000a8 aggregate_callback
2000072b l     O .boot_bss	00000001 cdc_is_connected
20000480 l     O .boot_bss	00000028 config_callback
200004a8 l     O .boot_bss	00000050 control_callback
2000072c l     O .boot_bss	00000001 hf2_is_connected
200004f8 l     O .boot_bss	00000004 last_busy_time
200004fc l     O .boot_bss	00000004 last_frame_time
20000500 l     O .boot_bss	00000019 serial_number
20000628 l     O .boot_bss	00000100 usbd_control_buffer
2000001c l     O .boot_data	00000008 capabilities
20000024 l     O .boot_data	00000024 usb_strings
080048f4 l     O .boot_text	00000009 bos_descriptor
08004900 l     O .boot_text	00000008 cdc_iface_assoc
08004908 l     O .boot_text	00000013 cdcacm_functional_descriptors
0800491c l     O .boot_text	0000000f comm_endp
0800492c l     O .boot_text	00000015 comm_iface
08004944 l     O .boot_text	0000000d config
08004a64 l     O .boot_text	00000030 interfaces
08004954 l     O .boot_text	0000001e data_endp
08004974 l     O .boot_text	00000015 data_iface
0800498c l     O .boot_text	00000012 dev
08004a2c l     O .boot_text	0000001e hf2_endp
08004a4c l     O .boot_text	00000015 hf2_iface
00000000 l    df *ABS*	00000000 webusb.c
080035b4 l     F .boot_text	00000028 webusb_set_config
080035dc l     F .boot_text	000000d0 webusb_control_vendor_request
20000520 l     O .boot_bss	00000004 webusb_https_url
00000000 l    df *ABS*	00000000 winusb.c
080044e8 l     F .boot_text	00000004 usb_descriptor_type
080044ec l     F .boot_text	00000004 usb_descriptor_index
080036f8 l     F .boot_text	00000028 winusb_set_config
08003780 l     F .boot_text	000000c0 winusb_control_vendor_request
08003720 l     F .boot_text	00000060 winusb_descriptor_request
20000048 l     O .boot_data	000000b2 msos20_descriptor_set
200000fc l     O .boot_data	00000028 winusb_wcid
08004c0c l     O .boot_text	00000092 guid
08004d14 l     O .boot_text	00000012 winusb_string_descriptor
00000000 l    df *ABS*	00000000 cdc.c
08003898 l     F .boot_text	00000010 cdcacm_comm_cb
080038a8 l     F .boot_text	00000064 cdcacm_set_config
08003a00 l     F .boot_text	0000004c cdcacm_data_rx_cb
0800390c l     F .boot_text	0000008c cdcacm_control_request
2000072d l     O .boot_bss	00000001 connected
20000524 l     O .boot_bss	00000004 connected_func
20000528 l     O .boot_bss	00000041 rx_buf
08004d90 l     O .boot_text	00000007 line_coding
00000000 l    df *ABS*	00000000 hf2.c
08003a78 l     F .boot_text	00000020 assert
08003a98 l     F .boot_text	00000040 hf2_set_config
08004174 l     F .boot_text	00000058 hf2_data_tx_cb
080040b0 l     F .boot_text	000000c4 hf2_data_rx_cb
08003ad8 l     F .boot_text	000000c8 pokeSend
080044f0 l     F .boot_text	00000018 send_hf2_response
08003ba0 l     F .boot_text	000002fc handle_flash_write
08003e9c l     F .boot_text	00000214 handle_command
2000056c l     O .boot_bss	00000004 _usbd_dev
20000570 l     O .boot_bss	00000004 cmdId.6006
2000072e l     O .boot_bss	00000001 connected
20000574 l     O .boot_bss	00000004 connected_func
2000072f l     O .boot_bss	00000001 flush_count.6008
20000578 l     O .boot_bss	00000004 new_app_start.6010
2000057c l     O .boot_bss	00000004 new_base_vector.6009
20000580 l     O .boot_bss	00000004 new_baseloader_size.6012
20000584 l     O .boot_bss	00000004 new_bootloader_size.6011
20000588 l     O .boot_bss	00000004 pkt.6041
2000058c l     O .boot_bss	00000004 prevCmdId.6007
20000590 l     O .boot_bss	00000004 remDataToSend
20000730 l     O .boot_bss	00000001 remDataToSendFlag
20000594 l     O .boot_bss	00000004 remDataToSendLength
20000731 l     O .boot_bss	00000001 restart_request
20000598 l     O .boot_bss	00000040 rx_buf
200005d8 l     O .boot_bss	00000004 rx_time
200005dc l     O .boot_bss	00000040 tx_buf
08004da4 l     O .boot_text	0000000b bad_packet_message
00000000 l    df *ABS*	00000000 backup.c
00000000 l    df *ABS*	00000000 usb21_standard.c
08004298 l     F .boot_text	00000028 usb21_set_config
080042c0 l     F .boot_text	0000005c usb21_standard_get_descriptor
08004508 l     F .boot_text	0000007c build_bos_descriptor
2000061c l     O .boot_bss	00000004 usb21_bos
00000000 l    df *ABS*	00000000 ghostfat.c
20000620 l     O .boot_bss	00000004 lastFlush
20000624 l     O .boot_bss	00000004 ms
20000128 l     O .boot_data	00000001 firstFlush
20000124 l     O .boot_data	00000004 flashAddr
00000000 l    df *ABS*	00000000 application.cpp
08007fbc l     F .text	00000048 _ZL8pre_mainv
00000000 l    df *ABS*	00000000 main.cpp
08006ca4 l     F .text	00000044 _ZL10debug_dumpRN5codal13STM32BluePillEPKc
08006ce8 l     F .text	00000030 _Z41__static_initialization_and_destruction_0ii
0800900c l     F .text	0000000e _GLOBAL__sub_I_bluepill
00000000 l    df *ABS*	00000000 uart.cpp
08006e64 l     F .text	00000024 _Z41__static_initialization_and_destruction_0ii
0800901a l     F .text	0000000e _GLOBAL__sub_I_serialPort
00000000 l    df *ABS*	00000000 CodalComponent.cpp
00000000 l    df *ABS*	00000000 CodalDmesg.cpp
20002140 l     O .bss	00000004 _ZL14dmesg_flush_fn
00000000 l    df *ABS*	00000000 CodalFiber.cpp
08007148 l     F .text	00000034 _ZL10handle_fobv
20002148 l     O .bss	00000004 _ZN5codalL10messageBusE
2000214c l     O .bss	00000004 _ZN5codalL10sleepQueueE
20002211 l     O .bss	00000001 _ZN5codalL11fiber_flagsE
20002150 l     O .bss	00000004 _ZN5codalL11forkedFiberE
20002154 l     O .bss	00000004 _ZN5codalL8runQueueE
20002158 l     O .bss	00000004 _ZN5codalL9fiberPoolE
2000215c l     O .bss	00000004 _ZN5codalL9idleFiberE
20002160 l     O .bss	00000004 _ZN5codalL9waitQueueE
00000000 l    df *ABS*	00000000 CodalHeapAllocator.cpp
20002212 l     O .bss	00000001 _ZZ13device_mallocE11initialised
00000000 l    df *ABS*	00000000 Serial.cpp
00000000 l    df *ABS*	00000000 Timer.cpp
00000000 l    df *ABS*	00000000 MessageBus.cpp
20001004 l     O .data	00000002 _ZL12userNotifyId
00000000 l    df *ABS*	00000000 Event.cpp
00000000 l    df *ABS*	00000000 ManagedString.cpp
08007c04 l     F .text	00000038 _Z41__static_initialization_and_destruction_0ii
08009b1c l     F .text	0000000e _GLOBAL__sub_I__ZN5codal13ManagedString9initEmptyEv
0800a32c l     O .text	00000004 _ZL9emptyData
00000000 l    df *ABS*	00000000 CodalCompat.cpp
00000000 l    df *ABS*	00000000 CmPin.cpp
00000000 l    df *ABS*	00000000 CmSerial.cpp
00000000 l    df *ABS*	00000000 CmTimer.cpp
2000217c l     O .bss	00000004 _ZN5codal3_cmL12last_triggerE
20002180 l     O .bss	00000004 _ZN5codal3_cmL14trigger_periodE
00000000 l    df *ABS*	00000000 tasks.cpp
08008004 l     F .text	00000050 _ZL15restart_handlerN5codal5EventE
08008054 l     F .text	00000018 _ZL10flush_taskv
0800806c l     F .text	00000028 _Z41__static_initialization_and_destruction_0ii
08009f98 l     F .text	0000000e _GLOBAL__sub_I_restart_callback
20002188 l     O .bss	00000008 _ZL13restart_event
20002190 l     O .bss	00000004 _ZL16flush_task_fibre
20002214 l     O .bss	00000001 _ZL24restart_listener_started
00000000 l    df *ABS*	00000000 STM32BluePill.cpp
00000000 l    df *ABS*	00000000 STM32BluePillIO.cpp
00000000 l    df *ABS*	00000000 CmI2C.cpp
00000000 l    df *ABS*	00000000 CmSPI.cpp
20002200 l     O .bss	00000010 _ZN5codal3_cmL10_instancesE
00000000 l    df *ABS*	00000000 CmPinMap.cpp
0800a084 l     F .text	00000018 _ZL22pinmap_find_peripheralhPK6PinMap
0800a09c l     F .text	00000016 _ZL16pinmap_find_modehPK6PinMap
0800a0b2 l     F .text	00000016 _ZL15pinmap_find_cnfhPK6PinMap
00000000 l    df *ABS*	00000000 I2C.cpp
00000000 l    df *ABS*	00000000 CodalListener.cpp
00000000 l    df *ABS*	00000000 RefCounted.cpp
00000000 l    df *ABS*	00000000 RefCountedInit.cpp
00000000 l    df *ABS*	00000000 MemberFunctionCallback.cpp
08008fac g     F .text	00000028 pinmap_mode
08007848 g     F .text	00000034 _ZN5codal5TimerC1Ev
080043ec g     F .boot_text	000000cc flash_write
0800931e g     F .text	000001cc _ZN5codal6Serial9readUntilENS_13ManagedStringENS_10SerialModeE
08009c8e g     F .text	00000004 _ZN5codal3_cm3Pin15setServoPulseUsEi
08009994 g     F .text	00000012 _ZN5codal10MessageBusD0Ev
08009008  w    F .text	00000002 _ZN5codal14CodalComponent16periodicCallbackEv
08006dc4  w    F .text	0000004c _ZN5codal13STM32BluePillD1Ev
08002178 g     F .boot_text	00000044 st_usbfs_ep_stall_get
08006ff4 g     F .text	0000003c _ZN5codal14scheduler_tickENS_5EventE
08009dc4 g     F .text	00000008 _ZN5codal3_cm6Serial7rxInUseEv
080050b0 g     O .boot_preinit_array	00000004 __boot_preinit_array_start
080019b2 g     F .boot_text	0000008a _usbd_control_out
080009ca g     F .boot_text	00000004 tcb_configure_stack_base
08009fd0 g     F .text	0000000c _ZN5codal3_cm3SPI12setFrequencyEm
080006d0 g     F .boot_text	00000098 reset_handler
08009d1e g     F .text	0000000a _ZN5codal3_cm6Serial8unlockRxEv
08000910 g     F .boot_text	00000008 fiber_initial_stack_base
00006c00 g       *ABS*	00000000 _bootrom_size
20002213 g     O .bss	00000001 heap_count
08009fb0 g     F .text	00000002 _ZN13UARTInterfaceC1Ejj
08002d28 g     F .boot_text	0000013c bootloader_start
080077c0 g     F .text	00000060 _ZN5codal6SerialC1ERNS_3PinES2_hht
080017a4 g     F .boot_text	0000000c usbd_ep_write_packet
08007df8  w    F .text	00000014 _ZN5codal3_cm6SerialD1Ev
08003038 g     F .boot_text	00000020 boot_target_set_restart_callback
080017bc g     F .boot_text	0000000c usbd_ep_stall_set
08009c3e g     F .text	0000000e _ZN5codal3_cm3Pin8isOutputEv
0800a614 g     O .text	00000048 PinMap_SPI_MOSI
080091e6 g     F .text	00000018 _ZN5codal8ListenerD2Ev
080009c6 g     F .boot_text	00000004 tcb_configure_sp
080005c4  w    F .boot_text	00000002 usart3_isr
08006dc4  w    F .text	0000004c _ZN5codal13STM32BluePillD2Ev
080005c8  w    F .boot_text	00000030 rtc_isr
080005c4 g       .boot_text	00000000 _base_etext
08003058 g     F .boot_text	00000020 boot_target_manifest_app
0800a3ec g     O .text	00000018 _ZTVN5codal3_cm5TimerE
0800283c g     F .boot_text	00000034 _Z11debug_printi
08007b18 g     F .text	00000074 _ZN5codal10MessageBusC2Ev
0800288c g     F .boot_text	00000014 _Z13debug_printlni
08009ae2 g     F .text	0000001e _ZN5codal13ManagedStringaSERKS0_
080005c4  w    F .boot_text	00000002 tim7_isr
08009d8c g     F .text	00000010 _ZN5codal3_cm6Serial4baudEi
08001068 g     F .boot_text	0000000c exti_reset_request
20000838 g     O .boot_bss	00000001 running_tid
080005c4  w    F .boot_text	00000002 adc1_2_isr
080099fc g     F .text	00000022 _ZN5codal14EventQueueItemC2ENS_5EventE
08007820 g     F .text	00000028 _ZN5codal6SerialD1Ev
08009a1e g     F .text	0000000e _ZN5codal13ManagedStringD1Ev
0800a5b0 g     O .text	0000001c _ZTVN5codal13STM32BluePillE
080009d2 g     F .boot_text	00000004 get_current_sp
080005c4  w    F .boot_text	00000002 tim1_trg_com_isr
08009316 g     F .text	00000008 _ZN5codal6Serial7rxInUseEv
08007820 g     F .text	00000028 _ZN5codal6SerialD2Ev
08009fcc g     F .text	00000004 _ZN5codal3_cm3I2C12readRegisterEthPhib
08009b96 g     F .text	00000032 _ZN5codal14string_reverseEPc
0800a1f6 g     F .text	00000046 _ZN5codal3I2C12readRegisterEthPhib
08006fbc g     F .text	00000028 _ZN5codal14CodalComponent15removeComponentEv
08001f7e g     F .boot_text	00000032 _usbd_standard_request
08009d06  w    F .text	00000004 _ZN5codal3_cm6Serial13configurePinsERNS_3PinES3_
08002586 g     F .boot_text	0000000c os_tick
08009cba g     F .text	00000014 _ZN5codal3_cm3Pin13disableEventsEv
080005c4  w    F .boot_text	00000002 usb_hp_can_tx_isr
08009cfa  w    F .text	00000004 _ZN5codal3_cm6Serial15enableInterruptENS_19SerialInterruptTypeE
08008ee4 g     F .text	0000009c _ZN5codal3_cm3SPIC2ERNS0_3PinES3_S3_S3_
08006d18  w    F .text	00000018 _ZN5codal14CodalComponentD2Ev
0800a144 g     F .text	0000001e _ZN5codal3I2C13writeRegisterEthh
0800a162 g     F .text	00000078 _ZN5codal3I2C4readEtPhib
080005c4  w    F .boot_text	00000002 tim6_isr
080050b0 g       *ABS*	00000000 _boot_data_loadaddr
08009cfe  w    F .text	00000004 _ZN5codal3_cm6Serial16disableInterruptENS_19SerialInterruptTypeE
0800a814 g       .init_array	00000000 _etext
08001694 g     F .boot_text	0000006c gpio_set_mode
080050b0 g     O .boot_fini_array	00000004 __boot_fini_array_start
08009028 g     F .text	0000002e _ZN5codal11queue_fiberEPNS_5FiberEPS1_
080005c4  w    F .boot_text	00000002 usb_wakeup_isr
080005c4 g     F .boot_text	00000002 blocking_handler
20000839 g     O .boot_bss	00000001 running
00000800 g       *ABS*	00000000 _baseram_size
080029dc g     F .boot_text	00000020 led_setup
080005c4  w    F .boot_text	00000002 tim5_isr
08009274 g     F .text	00000050 _ZN5codal6Serial12initialiseRxEv
08009a96 g     F .text	00000030 _ZN5codal13ManagedStringC2EPKcs
08002870 g     F .boot_text	0000001c debug_println
200047bc g     O .boot_buf	00000442 hf2_buffer
080005c4  w    F .boot_text	00000002 otg_fs_isr
08000918 g     F .boot_text	00000074 test_codal
08009c2c g     F .text	00000004 _ZN5codal3_cm3Pin14getAnalogValueEv
08008f80 g     F .text	0000002c pinmap_peripheral
080005c4  w    F .boot_text	00000002 spi1_isr
0800926a g     F .text	0000000a _ZN5codal6Serial8unlockRxEv
080008dc g     F .boot_text	00000014 target_wait_us
080026fc g     F .boot_text	00000048 logger_add_output
080076ec g     F .text	0000003c _Z18device_create_heapmm
08001750 g     F .boot_text	00000004 usbd_register_sof_callback
0800911e g     F .text	000000a0 _Z16device_malloc_injR14HeapDefinition
08003840 g     F .boot_text	00000058 winusb_setup
08000c78 g     F .boot_text	00000014 rcc_set_pll_multiplication_factor
08009cce g     F .text	0000002c _ZN5codal3_cm3Pin7eventOnEi
080025b2 g     F .boot_text	0000001a memcpy
080005c4  w    F .boot_text	00000002 exti2_isr
080005c4  w    F .boot_text	00000002 dma1_channel6_isr
20001000 g     O .data	00000004 app_data_test
080005c6 g     F .boot_text	00000002 null_handler
20000008 g     O .boot_data	00000004 rcc_ahb_frequency
08008250 g     F .text	000000a8 _ZN5codal13STM32BluePillC2Ev
0800a006 g     F .text	00000054 _ZN5codal3_cm16_codal_setup_pinEPNS0_3PinEmPK6PinMap
08009bc8 g     F .text	00000018 _ZN5codal22MemberFunctionCallback4fireENS_5EventE
08002c08 g     F .boot_text	00000020 poll_restart_callback
080009da g     F .boot_text	00000008 tcb_configure_args
20002184 g     O .bss	00000004 app_bss_test
080041cc g     F .boot_text	00000080 hf2_setup
080005c4  w    F .boot_text	00000002 can_rx1_isr
0800a814 g       .fini_array	00000000 __fini_array_end
080005c4  w    F .boot_text	00000002 dma1_channel5_isr
080004d0 g     F .boot_text	000000e0 baseloader_fetch
0800a05a g     F .text	0000002a _ZN5codal3_cm3SPI13startTransferEPKhmPhmPFvPvES5_
0800170a g     F .boot_text	00000008 usart_recv
08007d54 g     F .text	0000002c _ZN5codal3_cm3PinC1EhmmtNS_13PinCapabilityE
08009b88 g     F .text	00000008 _ZN5codal10RefCounted7destroyEv
08007728  w    F .text	00000054 malloc
080005c4  w    F .boot_text	00000002 dma2_channel5_isr
080091e6 g     F .text	00000018 _ZN5codal8ListenerD1Ev
08004638 g     O .boot_text	00000034 st_usbfs_v1_usb_driver
080044b8 g     F .boot_text	0000000a bootloader_set_restart_callback
08000f80 g     F .boot_text	00000034 rtc_clear_flag
08000b14 g     F .boot_text	00000020 desig_get_unique_id
08009550 g     F .text	0000006a _ZN5codal5Timer8setEventEmttb
08007340 g     F .text	00000068 _Z14__create_fibermmmi
08006fe4 g     F .text	00000010 codal_dmesg_flush
080009a4 g     F .boot_text	0000000c target_set_bootloader_callback
080005c4  w    F .boot_text	00000002 usart1_isr
08007a8c  w    F .text	0000008c _ZN5codal10EventModel6listenINS_10MessageBusEEEittPT_MS3_FvNS_5EventEEt
00000844 g       *ABS*	00000000 _bootbuf_size
080073b8 g     F .text	00000044 _ZN5codal4idleEv
20000160 g     O .boot_bss	00000004 .hidden __dso_handle
08008fd4 g     F .text	00000028 pinmap_cnf
080009d6 g     F .boot_text	00000004 tcb_get_sp
08001f56 g     F .boot_text	00000028 usbd_register_set_config_callback
08009d02  w    F .text	00000004 _ZN5codal3_cm6Serial11setBaudrateEm
08001254 g     F .boot_text	00000160 st_usbfs_ep_setup
08007ccc g     F .text	00000008 _ZN5codal3_cm3Pin17getAnalogPeriodUsEv
08009fc8 g     F .text	00000004 _ZN5codal3_cm3I2C4readEtPhib
08009534 g     F .text	0000000e _ZN5codal5Timer7getTimeEv
080090ea g     F .text	00000010 _ZN5codal13release_fiberEPv
0800777c g     F .text	00000044 device_free
08009c0e  w    F .text	00000006 _ZN5codal3Pin8drainPinEv
080005c4  w    F .boot_text	00000002 usage_fault_handler
080005c4  w    F .boot_text	00000002 tim8_trg_com_isr
08007f28 g     F .text	00000034 _ZN5codal3_cm5TimerC1Ev
080005c4  w    F .boot_text	00000002 can2_rx0_isr
080028f0 g     F .boot_text	00000070 debug_printhex
08000ca0 g     F .boot_text	00000014 rcc_set_pllxtpre
0800a0e0 g     F .text	00000006 _ZN5codal3I2C4readENS_15AcknowledgeTypeE
08002380 g     F .boot_text	00000044 os_task_highest_prio_ready_task
080005c4  w    F .boot_text	00000002 tim1_brk_isr
080080f0 g     F .text	000000e0 start_background_tasks
080079c4 g     F .text	00000088 _ZN5codal10MessageBus7processERNS_5EventEb
08009fb0 g     F .text	00000002 _ZN13UARTInterfaceC2Ejj
08006d18  w    F .text	00000018 _ZN5codal14CodalComponentD1Ev
080028be g     F .boot_text	0000000a debug_flush
080036ac g     F .boot_text	0000004c webusb_setup
2000204c g     O .bss	00000001 serialPort
0800a0c8 g     F .text	00000006 _ZN5codal3I2C12setFrequencyEm
080075b4 g     F .text	00000038 _ZN5codal11fiber_sleepEm
080098b4 g     F .text	00000018 _ZN5codal10MessageBus4sendENS_5EventE
08000e68 g     F .boot_text	00000024 rtc_exit_config_mode
08000c64 g     F .boot_text	00000014 rcc_set_sysclk_source
0800a6ec g     O .text	0000002c _ZTVN5codal3_cm3I2CE
080005c4  w    F .boot_text	00000002 can2_rx1_isr
08002bc4 g     F .boot_text	00000008 _ZdlPv
08000fe4 g     F .boot_text	00000010 pwr_disable_backup_domain_write_protect
08007ea8 g     F .text	00000014 _ZN5codal3_cm14alarm_callbackEv
08000000 g       .boot_text	00000000 _boot_text
080005c4  w    F .boot_text	00000002 tim1_cc_isr
08009a72 g     F .text	00000024 _ZN5codal13ManagedStringC1Ei
08007894 g     F .text	00000024 _ZN5codal27system_timer_event_every_usEmtt
08009d0a  w    F .text	00000004 _ZN5codal3_cm6Serial4putcEc
08007cd4 g     F .text	00000018 _ZN5codal3_cm3Pin15getAnalogPeriodEv
08004350 g     F .boot_text	0000009c flash_flush
08001712 g     F .boot_text	0000001c rcc_periph_clock_enable
08001774 g     F .boot_text	00000030 _usbd_reset
08002cf4 g     F .boot_text	00000034 bootloader_poll
0800a1da g     F .text	0000001c _ZN5codal3I2C5writeEth
08003320 g     F .boot_text	00000048 dump_buffer
08007ebc g     F .text	00000024 _ZN5codal3_cm5Timer9triggerInEm
080005c4  w    F .boot_text	00000002 sdio_isr
08000d8c g     F .boot_text	00000014 rcc_set_ppre1
08002ba4 g     F .boot_text	0000000c platform_alarm_count
08001a3c g     F .boot_text	00000056 _usbd_control_in
0800424c g     F .boot_text	00000034 backup_write
080005c4  w    F .boot_text	00000002 eth_isr
0800a0da g     F .text	00000006 _ZN5codal3I2C5writeEh
2000000c g     O .boot_data	00000004 rcc_apb1_frequency
08004280 g     F .boot_text	00000018 backup_read
20002210 g     O .bss	00000001 _ZN5codal14CodalComponent13configurationE
08002ec0 g     F .boot_text	000000b8 boot_target_get_startup_mode
08000da0 g     F .boot_text	00000014 rcc_set_hpre
080005c4  w    F .boot_text	00000002 dma1_channel4_isr
080005c4  w    F .boot_text	00000002 tim8_brk_isr
0800787c g     F .text	00000018 _ZN5codal25system_timer_current_timeEv
08009d0e  w    F .text	00000006 _ZN5codal3_cm6Serial4getcEv
080005c4  w    F .boot_text	00000002 dma2_channel4_5_isr
080023c4 g     F .boot_text	0000001c os_task_clear_wait_queue
08009260 g     F .text	0000000a _ZN5codal6Serial6lockRxEv
080099fc g     F .text	00000022 _ZN5codal14EventQueueItemC1ENS_5EventE
08003078 g     F .boot_text	00000020 boot_target_manifest_bootloader
20002144 g     O .bss	00000004 _ZN5codal12currentFiberE
08009692 g     F .text	00000002 _ZN5codal5TimerD2Ev
08000998 g     F .boot_text	0000000c target_set_alarm_callback
080044d6 g     F .boot_text	0000000a boot_target_get_serial_number
20002170 g     O .bss	00000004 _ZN5codal10EventModel15defaultEventBusE
080073a8 g     F .text	00000010 _ZN5codal24scheduler_runqueue_emptyEv
08006e88 g     F .text	00000068 _Z18component_callbackN5codal5EventE
08003224 g     F .boot_text	00000038 get_usb_status
20002218 g       .bss	00000000 _ebss
080099c2 g     F .text	0000001e _ZN5codal5EventC1EttNS_15EventLaunchModeE
080021e8 g     F .boot_text	00000030 os_init
08001760 g     F .boot_text	00000014 usbd_ep_setup
08006c9c  w    F .text	00000008 _ZN5codal14CodalComponent4initEv
08000ae6 g       .boot_text	00000000 restore_register_context
08001938 g     F .boot_text	00000030 usbd_register_control_callback
080095ca g     F .text	00000024 _ZN5codal5Timer4syncEm
20000000 g     O .boot_data	00000004 hal_data_test
080005c4  w    F .boot_text	00000002 pvd_isr
080017b0 g     F .boot_text	0000000c usbd_ep_read_packet
08008ffc g     F .text	0000000c _ZN5codal3I2CC2ERNS_3PinES2_
08007a5c  w    F .text	00000030 _ZN5codal22MemberFunctionCallbackC1INS_10MessageBusEEEPT_MS3_FvNS_5EventEE
080099e0 g     F .text	0000001c _ZN5codal5EventC1EttmNS_15EventLaunchModeE
0800297c g     F .boot_text	0000004c platform_setup
08007e0c  w    F .text	0000001c _ZN5codal3_cm6SerialD0Ev
08007a5c  w    F .text	00000030 _ZN5codal22MemberFunctionCallbackC2INS_10MessageBusEEEPT_MS3_FvNS_5EventEE
080078d4  w    F .text	00000008 _ZN5codal10EventModel6removeEPNS_8ListenerE
080021bc g     F .boot_text	0000000c os_event_init
080082f8 g     F .text	00000b58 _ZN5codal15STM32BluePillIOC2Ev
0800908a g     F .text	0000001e _ZN5codal12create_fiberEPFvvES1_
08009a96 g     F .text	00000030 _ZN5codal13ManagedStringC1EPKcs
2000051c g     O .boot_bss	00000004 usbd_dev
08009b00 g     F .text	0000001c _ZN5codal13ManagedString6charAtEs
080009b4 g     F .boot_text	00000004 target_disable_irq
080029fc g     F .boot_text	00000014 led_on
080090dc g     F .text	0000000e _ZN5codal16launch_new_fiberEPFvvES1_
00001000 g       *ABS*	00000000 _bootram_size
08000168 g     F .boot_text	00000368 baseloader_start
08002218 g     F .boot_text	0000000c os_running
2000083a g     O .boot_bss	00000001 last_running_task
08007b8c g     F .text	00000050 _ZN5codal10MessageBusD2Ev
080005c6  w    F .boot_text	00000002 sv_call_handler
20001008 g     O .bss	00001044 bluepill
080005c4  w    F .boot_text	00000002 rcc_isr
080095ba g     F .text	00000010 _ZN5codal5Timer12eventEveryUsEmtt
20002174 g     O .bss	00000004 _ZN5codal13ManagedString11EmptyStringE
08000000 g     O .boot_text	00000150 vector_table
08000b34 g     F .boot_text	00000050 desig_get_unique_id_as_string
08000ab6 g       .boot_text	00000000 save_register_context
0800329c g     F .boot_text	00000060 aggregate_register_callback
0800a28c g     O .text	00000038 _ZTVN5codal6SerialE
08006c00 g     F .text	00000088 application_start
080005c4  w    F .boot_text	00000002 flash_isr
0800a814 g       *ABS*	00000000 _data_loadaddr
080072b0 g     F .text	00000090 _ZN5codal19fiber_wake_on_eventEtt
20005000 g       .boot_buf	00000000 end
080005c4  w    F .boot_text	00000002 uart4_isr
08009fa6 g     F .text	00000002 _ZN5codal13STM32BluePill16periodicCallbackEv
08000f00 g     F .boot_text	00000040 rtc_interrupt_enable
080081d0 g     F .text	00000080 _ZN5codal13STM32BluePill4initEv
08007cec g     F .text	00000068 _ZN5codal3_cm3Pin15setDigitalValueEi
080005f8  w    F .boot_text	0000002c rtc_alarm_isr
080005c4  w    F .boot_text	00000002 exti15_10_isr
080050b0 g     O .boot_init_array	00000004 __boot_init_array_end
0800717c g     F .text	00000018 _ZN5codal23fiber_scheduler_runningEv
080095ee g     F .text	000000a4 _ZN5codal5Timer7triggerEv
08009c14 g     F .text	00000004 _ZN5codal3_cm3Pin15getDigitalValueEv
08000c8c g     F .boot_text	00000014 rcc_set_pll_source
080009ce g     F .boot_text	00000004 tcb_get_stack_base
08009dcc g     F .text	000001cc _ZN5codal3_cm6Serial9readUntilENS_13ManagedStringENS_10SerialModeE
080099ae g     F .text	00000014 _ZN5codal5EventC2Ev
08009fa8 g     F .text	00000008 _ZN5codal13STM32BluePill12idleCallbackEv
08003998 g     F .boot_text	00000068 cdcadm_transmit
0800225c g     F .boot_text	00000074 os_msgQ_tick
080009b8 g     F .boot_text	0000000a tcb_allocate
0800a2c4 g     O .text	00000018 _ZTVN5codal5TimerE
08009522 g     F .text	00000012 _ZN5codal5Timer17releaseTimerEventEPNS_10TimerEventE
0800a760 g     O .text	0000001c _ZTVN5codal3_cm3SPIE
0800a65c g     O .text	00000048 PinMap_SPI_NSS
080005c4  w    F .boot_text	00000002 hard_fault_handler
0800a0e6 g     F .text	0000005e _ZN5codal3I2C5writeEtPhib
080005c4  w    F .boot_text	00000002 exti1_isr
08009c66 g     F .text	00000006 _ZN5codal3_cm3Pin7setPullENS_8PullModeE
08007f5c g     F .text	00000060 _ZN5codal3_cm5Timer4initEv
080023e0 g     F .boot_text	000000ac os_task_tick
080032fc g     F .boot_text	00000024 usb_set_serial_number
080005c4  w    F .boot_text	00000002 i2c1_ev_isr
080075ec g     F .text	00000070 _ZN5codal13release_fiberEv
0800172e g     F .boot_text	00000022 rcc_periph_reset_pulse
08009a5a g     F .text	00000018 _ZN5codal13ManagedStringC2EPNS_10StringDataE
0800a6a4 g     O .text	00000048 PinMap_SPI_SCK
08001434 g     F .boot_text	00000090 st_usbfs_ep_write_packet
08002004 g     F .boot_text	0000006c st_usbfs_endpoints_reset
080005c4  w    F .boot_text	00000002 dma2_channel1_isr
080096a4  w    F .text	00000036 _ZN5codal22MemberFunctionCallback10methodCallINS_10MessageBusEEEvPvPmNS_5EventE
080078cc  w    F .text	00000008 _ZN5codal10EventModel3addEPNS_8ListenerE
08007728 g     F .text	00000054 device_malloc
080026f0 g     F .boot_text	0000000c enable_log
080005c6  w    F .boot_text	00000002 pend_sv_handler
08002bb0 g     F .boot_text	0000000c __cxa_pure_virtual
08007030 g     F .text	000000c0 _ZN5codal15scheduler_eventENS_5EventE
08000fb4 g     F .boot_text	00000030 rtc_check_flag
08009d9c g     F .text	00000028 _ZN5codal3_cm6Serial7eventOnENS_13ManagedStringENS_10SerialModeE
0800a5cc g     O .text	00000048 PinMap_SPI_MISO
080005c4  w    F .boot_text	00000002 spi2_isr
08007ca4 g     F .text	00000020 _ZN5codal3_cm3Pin14setAnalogValueEi
08000840 g     F .boot_text	00000030 target_init
20000898 g       .boot_bss	00000000 boot_end
08007194 g     F .text	0000011c _ZN5codal14scheduler_initERNS_10EventModelE
08009542 g     F .text	0000000e _ZN5codal5Timer9getTimeUsEv
08002524 g     F .boot_text	00000038 os_task_run
08000d64 g     F .boot_text	00000014 rcc_set_adcpre
08009fc4 g     F .text	00000004 _ZN5codal3_cm3I2C5writeEtPhib
080017c8 g     F .boot_text	0000000c usbd_ep_stall_get
08009b52 g     F .text	00000036 _ZN5codal10RefCounted4decrEv
080005c4  w    F .boot_text	00000002 tim8_up_isr
080025f2 g     F .boot_text	00000040 strncpy
080022d0 g     F .boot_text	0000000c os_sem_init
08007a4c g     F .text	00000010 _ZN5codal19allocateNotifyEventEv
0800990a  w    F .text	0000003e _ZN5codal8ListenerC2INS_10MessageBusEEEttPT_MS3_FvNS_5EventEEt
08006e10  w    F .text	00000054 _ZN5codal13STM32BluePillD0Ev
08009948  w    F .text	00000044 _ZN5codal10EventModel6ignoreINS_10MessageBusEEEittPT_MS3_FvNS_5EventEE
08009056 g     F .text	00000034 _ZN5codal13dequeue_fiberEPNS_5FiberE
080005c4  w    F .boot_text	00000002 dma2_channel2_isr
08001074 g     F .boot_text	00000014 flash_set_ws
080050b0 g     O .boot_fini_array	00000004 __boot_fini_array_end
08009a1e g     F .text	0000000e _ZN5codal13ManagedStringD2Ev
08000cc4 g     F .boot_text	000000a0 rcc_set_rtc_clock_source
080011f4 g     F .boot_text	00000060 st_usbfs_set_ep_rx_bufsize
08007e28 g     F .text	00000050 _ZN5codal3_cm6SerialC2ERNS0_3PinES3_hh
08003368 g     F .boot_text	000001a4 dump_usb_request
0800a23c  w    O .text	0000001c _ZTVN5codal14CodalComponentE
080050b0 g       .boot_init_array	00000000 _boot_etext
08002592 g     F .boot_text	00000020 memcmp
080092c4 g     F .text	00000028 _ZN5codal6Serial12circularCopyEPhhS1_tt
08001968 g     F .boot_text	0000004a _usbd_control_setup
08009c58 g     F .text	0000000e _ZN5codal3_cm3Pin8isAnalogEv
08000d78 g     F .boot_text	00000014 rcc_set_ppre2
080005c6  w    F .boot_text	00000002 debug_monitor_handler
080005c4  w    F .boot_text	00000002 exti3_isr
080005c4  w    F .boot_text	00000002 adc3_isr
08006d30  w    F .text	00000020 _ZN5codal14CodalComponentD0Ev
08000a72 g       .boot_text	00000000 save_context
080005c4  w    F .boot_text	00000002 tim3_isr
08000624  w    F .boot_text	0000005c usart2_isr
080011d4 g     F .boot_text	00000010 scb_reset_system
080008f0 g     F .boot_text	00000020 target_panic
080094fe g     F .text	00000024 _ZN5codal5Timer13getTimerEventEv
080028c8 g     F .boot_text	00000018 debug_print
080005c4  w    F .boot_text	00000002 usb_lp_can_rx0_isr
08006c00 g       .text	00000000 _text
080009f0 g       .boot_text	00000000 swap_context
20004c00 g     O .boot_buf	00000400 flashBuf
080021c8 g     F .boot_text	00000010 os_signal_event
0800a814 g       .fini_array	00000000 __fini_array_start
080005c4  w    F .boot_text	00000002 i2c2_er_isr
08002584 g     F .boot_text	00000002 os_cbkSleep
080013b4 g     F .boot_text	00000080 st_usbfs_ep_nak_set
08009ad6 g     F .text	0000000c _ZN5codal13ManagedStringC1Ev
080025cc g     F .boot_text	00000016 memset
2000216c g     O .bss	00000004 _ZN5codal12system_timerE
08006c88 g     F .text	00000014 main
080090a8 g     F .text	00000020 _ZN5codal12create_fiberEPFvPvES0_S2_
08001088 g     F .boot_text	00000058 usbd_init
20002050 g     O .bss	000000f0 _ZN5codal14CodalComponent10componentsE
08008ffc g     F .text	0000000c _ZN5codal3I2CC1ERNS_3PinES2_
080005c4  w    F .boot_text	00000002 i2c2_ev_isr
080021d8 g     F .boot_text	00000010 os_event_set_signaling_tid
08006d50 g     F .text	00000074 _Z10Blink_mainRN5codal13STM32BluePillE
080005c4  w    F .boot_text	00000002 uart5_isr
20002164 g     O .bss	00000008 heap
08002b70 g     F .boot_text	00000034 platform_set_alarm
2000083c g     O .boot_bss	0000005b hf2_buffer_mini
08009fee g     F .text	00000018 _ZN5codal3_cm3SPI7setModeEii
080005c6  w    F .boot_text	00000002 sys_tick_handler
0800a2dc  w    O .text	00000014 _ZTVN5codal10EventModelE
0800255c g     F .boot_text	00000028 os_on_assert
08007b8c g     F .text	00000050 _ZN5codal10MessageBusD1Ev
0800a814 g       .init_array	00000000 __init_array_end
080005c4  w    F .boot_text	00000002 fsmc_isr
080005c4  w    F .boot_text	00000002 dma1_channel1_isr
080005c4  w    F .boot_text	00000002 exti4_isr
08007f28 g     F .text	00000034 _ZN5codal3_cm5TimerC2Ev
0800a338 g     O .text	00000054 _ZTVN5codal3_cm3PinE
20000004 g     O .boot_data	00000004 codal_heap_start
08009fdc g     F .text	0000000e _ZN5codal3_cm3SPI5writeEi
08007df8  w    F .text	00000014 _ZN5codal3_cm6SerialD2Ev
08007848 g     F .text	00000034 _ZN5codal5TimerC2Ev
080090c8 g     F .text	00000014 _ZN5codal20fiber_wait_for_eventEtt
08000870 g     F .boot_text	00000010 target_wait_for_event
080091be g     F .text	00000028 _ZN5codal8ListenerC2EttPFvNS_5EventEEt
0800431c g     F .boot_text	00000034 usb21_setup
080077c0 g     F .text	00000060 _ZN5codal6SerialC2ERNS_3PinES2_hht
08000b84 g     F .boot_text	00000070 rcc_wait_for_osc_ready
08002794 g     F .boot_text	00000020 debug_force_flush
08009c92 g     F .text	00000018 _ZN5codal3_cm3Pin17setAnalogPeriodUsEi
080027b4 g     F .boot_text	00000088 _Z11debug_printj
08009fc0 g     F .text	00000004 _ZN5codal3_cm3I2C12setFrequencyEm
08007b18 g     F .text	00000074 _ZN5codal10MessageBusC1Ev
08009770 g     F .text	00000076 _ZN5codal10MessageBus6removeEPNS_8ListenerE
08001050 g     F .boot_text	00000018 exti_enable_request
08001004 g     F .boot_text	0000004c exti_set_trigger
080005c4  w    F .boot_text	00000002 mem_manage_handler
08008094 g     F .text	0000005c restart_callback
08009c30 g     F .text	0000000e _ZN5codal3_cm3Pin7isInputEv
08009c4c g     F .text	0000000c _ZN5codal3_cm3Pin9isDigitalEv
20000010 g     O .boot_data	00000004 rcc_apb2_frequency
080099ae g     F .text	00000014 _ZN5codal5EventC1Ev
08000e8c g     F .boot_text	00000020 rtc_set_alarm_time
08001754 g     F .boot_text	0000000c usbd_poll
0800a0d4 g     F .text	00000006 _ZN5codal3I2C4stopEv
080009e2 g     F .boot_text	00000002 _fini
08009a2c g     F .text	0000002e _ZN5codal13ManagedString10initStringEPKci
08000880 g     F .boot_text	0000005c target_wait
080005c4  w    F .boot_text	00000002 can2_tx_isr
08008e6c g     F .text	0000001c _ZN5codal3_cm3I2CC1ERNS_3PinES3_
0800765c g     F .text	00000090 _ZN5codal6invokeEPFvPvES0_
080005c4  w    F .boot_text	00000002 exti9_5_isr
08002a10 g     F .boot_text	00000014 led_off
08009c02  w    F .text	00000006 _ZN5codal3Pin15setServoPulseUsEm
080005c4  w    F .boot_text	00000002 dma2_channel3_isr
08009b2a g     F .text	00000028 _ZN5codal10RefCounted4incrEv
08000cb4 g     F .boot_text	00000010 rcc_enable_rtc_clock
080096da g     F .text	00000096 _Z14async_callbackPv
0800112c g     F .boot_text	00000034 _usbd_standard_request_interface
08001160 g     F .boot_text	00000044 _usbd_standard_request_endpoint
0800900a  w    F .text	00000002 _ZN5codal14CodalComponent12idleCallbackEv
0800248c g     F .boot_text	00000098 os_task_signal_event
0800a800 g       .preinit_array	00000000 __preinit_array_end
08001fec g     F .boot_text	00000018 nvic_enable_irq
08002a24 g     F .boot_text	00000014 led_wait
080009e8 g     F .boot_text	00000008 target_enable_debug
080082f8 g     F .text	00000b58 _ZN5codal15STM32BluePillIOC1Ev
080005c4  w    F .boot_text	00000002 dma1_channel7_isr
08003004 g     F .boot_text	00000034 boot_target_usb_init
08002b3c g     F .boot_text	00000034 platform_start_timer
080091be g     F .text	00000028 _ZN5codal8ListenerC1EttPFvNS_5EventEEt
08003a4c g     F .boot_text	0000002c cdc_setup
080005c4  w    F .boot_text	00000002 tim1_up_isr
20001000 g       .data	00000000 _data
08000eac g     F .boot_text	00000020 rtc_set_prescale_val
080005b0 g     F .boot_text	00000014 base_flash_program_array
08007ee0 g     F .text	00000048 _ZN5codal3_cm5Timer11syncRequestEv
08009c18 g     F .text	00000014 _ZN5codal3_cm3Pin15getDigitalValueENS_8PullModeE
20002178 g     O .bss	00000004 _ZN5codal3_cm5Timer8instanceE
08008e6c g     F .text	0000001c _ZN5codal3_cm3I2CC2ERNS_3PinES3_
08000db4 g     F .boot_text	00000090 rcc_clock_setup_in_hse_8mhz_out_72mhz
08009c88 g     F .text	00000006 _ZN5codal3_cm3Pin10disconnectEv
08009b90 g     F .text	00000006 _ZN5codal10RefCounted4initEv
08007e78 g     F .text	00000030 _ZN5codal3_cm13tick_callbackEv
08009ac6 g     F .text	00000010 _ZN5codal13ManagedStringC2ERKS0_
08009ad6 g     F .text	0000000c _ZN5codal13ManagedStringC2Ev
08009be0 g     F .text	00000022 _ZN5codal22MemberFunctionCallbackeqERKS0_
08000ecc g     F .boot_text	00000014 rtc_get_counter_val
08009c08  w    F .text	00000006 _ZN5codal3Pin17setAnalogPeriodUsEm
08009caa g     F .text	00000010 _ZN5codal3_cm3Pin15setAnalogPeriodEi
080005c4  w    F .boot_text	00000002 can2_sce_isr
08000ff4 g     F .boot_text	00000010 pwr_enable_backup_domain_write_protect
080005c4  w    F .boot_text	00000002 tim4_isr
0800a7d4 g     O .text	0000002c _ZTVN5codal3I2CE
080097e6 g     F .text	00000024 _ZN5codal10MessageBus12dequeueEventEv
08002070 g     F .boot_text	00000108 st_usbfs_ep_stall_set
0800980a g     F .text	0000004c _ZN5codal10MessageBus21deleteMarkedListenersEv
0800315c g     F .boot_text	000000ac usb_setup
20000898 g       .boot_bss	00000000 _boot_ebss
08007d54 g     F .text	0000002c _ZN5codal3_cm3PinC2EhmmtNS_13PinCapabilityE
20001008 g       .data	00000000 _edata
080090fa g     F .text	00000018 _ZN5codal22launch_new_fiber_paramEPFvPvES2_S0_
080078dc g     F .text	000000e8 _ZN5codal10MessageBus3addEPNS_8ListenerE
0800a38c g     O .text	00000038 _ZTVN5codal3_cm6SerialE
080005c4  w    F .boot_text	00000002 dma1_channel2_isr
08009ac6 g     F .text	00000010 _ZN5codal13ManagedStringC1ERKS0_
080005c4  w    F .boot_text	00000002 i2c1_er_isr
080099e0 g     F .text	0000001c _ZN5codal5EventC2EttmNS_15EventLaunchModeE
080010e0 g     F .boot_text	0000004c _usbd_standard_request_device
080070f0 g     F .text	00000058 _Z15getFiberContextv
080009b0 g     F .boot_text	00000004 target_enable_irq
080094ea g     F .text	0000000a _ZN5codal5Timer17disableInterruptsEv
080005c4  w    F .boot_text	00000002 can_sce_isr
08009fea g     F .text	00000004 _ZN5codal3_cm3SPI8transferEPKhmPhm
080005c6  w    F .boot_text	00000002 nmi_handler
0800990a  w    F .text	0000003e _ZN5codal8ListenerC1INS_10MessageBusEEEttPT_MS3_FvNS_5EventEEt
08000f40 g     F .boot_text	00000040 rtc_interrupt_disable
080050b0 g     O .boot_preinit_array	00000004 __boot_preinit_array_end
08002744 g     F .boot_text	00000050 _Z20debug_flush_internalb
08002bbc g     F .boot_text	00000008 _Znwj
20000738 g     O .boot_bss	00000008 st_usbfs_force_nak
0800a2f0 g     O .text	0000003c _ZTVN5codal10MessageBusE
20000000 g       .boot_data	00000000 _boot_data
08009112 g     F .text	0000000c _ZN5codal9idle_taskEv
080099a6 g     F .text	00000008 _ZThn8_N5codal10MessageBusD0Ev
080005c4  w    F .boot_text	00000002 tim8_cc_isr
08008e88 g     F .text	0000005c _ZN5codal3_cm3SPI4initEv
08008250 g     F .text	000000a8 _ZN5codal13STM32BluePillC1Ev
08000bf4 g     F .boot_text	00000070 rcc_osc_on
200047bc g       .boot_buf	00000000 _boot_stack
08009694 g     F .text	00000010 _ZN5codal10MessageBus9elementAtEi
08001598 g     F .boot_text	000000fc st_usbfs_poll
0800998c g     F .text	00000008 _ZThn8_N5codal10MessageBusD1Ev
08004bbc g     O .boot_text	00000018 webusb_platform_capability_descriptor
080073fc g     F .text	000001b8 _ZN5codal8scheduleEv
080050b0 g     O .boot_init_array	00000004 __boot_init_array_start
08009d64 g     F .text	00000028 _ZN5codal3_cm6Serial12circularCopyEPhhS2_tt
08007d80 g     F .text	00000078 _ZN5codal3_cm3Pin13setServoValueEiii
08002f98 g     F .boot_text	0000006c boot_target_gpio_setup
20000734 g     O .boot_bss	00000004 hal_bss_test
080005c4  w    F .boot_text	00000002 tamper_isr
0800a800 g       .init_array	00000000 __init_array_start
08001704 g     F .boot_text	00000006 gpio_clear
0800325c g     F .boot_text	00000040 aggregate_register_config_callback
08006ef0 g     F .text	000000cc _ZN5codal14CodalComponent12addComponentEv
080005c4  w    F .boot_text	00000002 eth_wkup_isr
080029c8 g     F .boot_text	00000014 enable_debug
08001fb0 g     F .boot_text	00000018 st_usbfs_copy_to_pm
080098cc g     F .text	0000003e _ZN5codal10MessageBus4idleENS_5EventE
080099c2 g     F .text	0000001e _ZN5codal5EventC2EttNS_15EventLaunchModeE
080078b8  w    F .text	00000014 _ZN5codal10EventModel4sendENS_5EventE
0800230c g     F .boot_text	00000074 os_task_init
08009a5a g     F .text	00000018 _ZN5codal13ManagedStringC1EPNS_10StringDataE
08009856 g     F .text	0000005e _ZN5codal10MessageBus10queueEventERNS_5EventE
08001fc8 g     F .boot_text	00000024 st_usbfs_copy_from_pm
08002f78 g     F .boot_text	00000020 boot_target_set_led
080025e2 g     F .boot_text	00000010 strlen
08002960 g     F .boot_text	0000001c debug_printhex_unsigned
080009c2 g     F .boot_text	00000004 tcb_configure_lr
2000012c g       .boot_data	00000000 _boot_edata
20005000 g       .boot_buf	00000000 _stack
08009d14 g     F .text	0000000a _ZN5codal3_cm6Serial6lockRxEv
08007bf8 g     F .text	0000000c _ZN5codal13ManagedString9initEmptyEv
20005000 g       .boot_buf	00000000 _eboot_buf
08007bdc g     F .text	0000001c _ZN5codal5Event4fireEv
08001700 g     F .boot_text	00000004 gpio_set
08009c6c g     F .text	0000001c _ZN5codal3_cm3Pin5setupEhh
080091fe g     F .text	00000062 _ZN5codal8Listener5queueENS_5EventE
080005c4  w    F .boot_text	00000002 bus_fault_handler
080005c4  w    F .boot_text	00000002 wwdg_isr
080005c4  w    F .boot_text	00000002 dma1_channel3_isr
080094f4 g     F .text	0000000a _ZN5codal5Timer16enableInterruptsEv
08007c3c g     F .text	00000068 _ZN5codal4itoaEiPc
08000ee0 g     F .boot_text	00000020 rtc_set_counter_val
20000740 g     O .boot_bss	000000f8 st_usbfs_dev
08009692 g     F .text	00000002 _ZN5codal5TimerD1Ev
08009d28 g     F .text	0000003c _ZN5codal3_cm6Serial12initialiseRxEv
08009a72 g     F .text	00000024 _ZN5codal13ManagedStringC2Ei
08002224 g     F .boot_text	00000038 os_msgQ_init
0800a800 g       .preinit_array	00000000 __preinit_array_start
080014c4 g     F .boot_text	000000d4 st_usbfs_ep_read_packet
080005c4  w    F .boot_text	00000002 spi3_isr
08008ee4 g     F .text	0000009c _ZN5codal3_cm3SPIC1ERNS0_3PinES3_S3_S3_
080009e4 g     F .boot_text	00000004 __aeabi_atexit
080028e0 g     F .boot_text	00000008 debug_print_int
08005058 g     O .boot_text	00000055 infoUf2File
08000150 g     O .boot_text	00000018 base_vector_table
08002bcc g     F .boot_text	00000008 millis
08007e28 g     F .text	00000050 _ZN5codal3_cm6SerialC1ERNS0_3PinES3_hh
08007cc4 g     F .text	00000008 _ZN5codal3_cm3Pin9isTouchedEv
0800098c g     F .boot_text	0000000c target_set_tick_callback
08003208 g     F .boot_text	0000001c set_usb_busy
080005c4  w    F .boot_text	00000002 tim2_isr
080028e8 g     F .boot_text	00000008 debug_print_unsigned
08004ca0 g     O .boot_text	0000001c microsoft_platform_capability_descriptor
0800777c  w    F .text	00000044 free
08000e44 g     F .boot_text	00000024 rtc_enter_config_mode
080005c4  w    F .boot_text	00000002 exti0_isr
080011e4 g     F .boot_text	00000010 st_usbfs_set_address
0800a0ce g     F .text	00000006 _ZN5codal3I2C5startEv
080092ec g     F .text	0000002a _ZN5codal6Serial7eventOnENS_13ManagedStringENS_10SerialModeE



Disassembly of section .boot_text:

08000000 <vector_table>:
 8000000:	00 50 00 20 d1 06 00 08 c7 05 00 08 c5 05 00 08     .P. ............
 8000010:	c5 05 00 08 c5 05 00 08 c5 05 00 08 00 00 00 00     ................
	...
 800002c:	c7 05 00 08 c7 05 00 08 00 00 00 00 c7 05 00 08     ................
 800003c:	c7 05 00 08 c5 05 00 08 c5 05 00 08 c5 05 00 08     ................
 800004c:	c9 05 00 08 c5 05 00 08 c5 05 00 08 c5 05 00 08     ................
 800005c:	c5 05 00 08 c5 05 00 08 c5 05 00 08 c5 05 00 08     ................
 800006c:	c5 05 00 08 c5 05 00 08 c5 05 00 08 c5 05 00 08     ................
 800007c:	c5 05 00 08 c5 05 00 08 c5 05 00 08 c5 05 00 08     ................
 800008c:	c5 05 00 08 c5 05 00 08 c5 05 00 08 c5 05 00 08     ................
 800009c:	c5 05 00 08 c5 05 00 08 c5 05 00 08 c5 05 00 08     ................
 80000ac:	c5 05 00 08 c5 05 00 08 c5 05 00 08 c5 05 00 08     ................
 80000bc:	c5 05 00 08 c5 05 00 08 c5 05 00 08 c5 05 00 08     ................
 80000cc:	c5 05 00 08 c5 05 00 08 c5 05 00 08 25 06 00 08     ............%...
 80000dc:	c5 05 00 08 c5 05 00 08 f9 05 00 08 c5 05 00 08     ................
 80000ec:	c5 05 00 08 c5 05 00 08 c5 05 00 08 c5 05 00 08     ................
 80000fc:	c5 05 00 08 c5 05 00 08 c5 05 00 08 c5 05 00 08     ................
 800010c:	c5 05 00 08 c5 05 00 08 c5 05 00 08 c5 05 00 08     ................
 800011c:	c5 05 00 08 c5 05 00 08 c5 05 00 08 c5 05 00 08     ................
 800012c:	c5 05 00 08 c5 05 00 08 c5 05 00 08 c5 05 00 08     ................
 800013c:	c5 05 00 08 c5 05 00 08 c5 05 00 08 c5 05 00 08     ................
 800014c:	c5 05 00 08                                         ....

08000150 <base_vector_table>:
 8000150:	69 19 05 22 01 00 01 00 69 01 00 08 c4 05 00 08     i.."....i.......
 8000160:	01 6c 00 08 22 05 69 19                             .l..".i.

08000168 <baseloader_start>:
	static uint16_t *src;
	static size_t half_word_count;
	static int bytes_flashed;
	static bool verified, should_disable_interrupts;

	dest = (uint16_t *) dest0;
 8000168:	4b88      	ldr	r3, [pc, #544]	; (800038c <baseloader_start+0x224>)
 800016a:	6018      	str	r0, [r3, #0]
	src =  (uint16_t *) src0;
 800016c:	4b88      	ldr	r3, [pc, #544]	; (8000390 <baseloader_start+0x228>)
 800016e:	6019      	str	r1, [r3, #0]
	half_word_count = byte_count / 2;
 8000170:	0852      	lsrs	r2, r2, #1
 8000172:	4b88      	ldr	r3, [pc, #544]	; (8000394 <baseloader_start+0x22c>)
 8000174:	601a      	str	r2, [r3, #0]
	bytes_flashed = 0;
 8000176:	2300      	movs	r3, #0
 8000178:	4a87      	ldr	r2, [pc, #540]	; (8000398 <baseloader_start+0x230>)
 800017a:	6013      	str	r3, [r2, #0]
	should_disable_interrupts = false;
 800017c:	4a87      	ldr	r2, [pc, #540]	; (800039c <baseloader_start+0x234>)
 800017e:	7013      	strb	r3, [r2, #0]

    static uint16_t *erase_start, *erase_end, *flash_end;
    verified = true; erase_start = NULL; erase_end = NULL;
 8000180:	4a87      	ldr	r2, [pc, #540]	; (80003a0 <baseloader_start+0x238>)
 8000182:	2101      	movs	r1, #1
 8000184:	7011      	strb	r1, [r2, #0]
 8000186:	4a87      	ldr	r2, [pc, #540]	; (80003a4 <baseloader_start+0x23c>)
 8000188:	6013      	str	r3, [r2, #0]
 800018a:	4a87      	ldr	r2, [pc, #540]	; (80003a8 <baseloader_start+0x240>)
 800018c:	6013      	str	r3, [r2, #0]
    flash_end = base_get_flash_end();  //  Remember the bounds of erased data in the current page
 800018e:	4b87      	ldr	r3, [pc, #540]	; (80003ac <baseloader_start+0x244>)
 8000190:	4a87      	ldr	r2, [pc, #540]	; (80003b0 <baseloader_start+0x248>)
 8000192:	601a      	str	r2, [r3, #0]

	//  Disable interrupts when overwriting the vector table.
	if ((uint32_t) dest == FLASH_BASE) { should_disable_interrupts = true; }
 8000194:	f1b0 6f00 	cmp.w	r0, #134217728	; 0x8000000
 8000198:	d00f      	beq.n	80001ba <baseloader_start+0x52>
	if (should_disable_interrupts) { disable_interrupts(); } // Only for baseloader.
 800019a:	4b80      	ldr	r3, [pc, #512]	; (800039c <baseloader_start+0x234>)
 800019c:	781b      	ldrb	r3, [r3, #0]
 800019e:	b12b      	cbz	r3, 80001ac <baseloader_start+0x44>
 80001a0:	b672      	cpsid	i
 80001a2:	2300      	movs	r3, #0
 80001a4:	4a83      	ldr	r2, [pc, #524]	; (80003b4 <baseloader_start+0x24c>)
 80001a6:	6013      	str	r3, [r2, #0]
 80001a8:	4a83      	ldr	r2, [pc, #524]	; (80003b8 <baseloader_start+0x250>)
 80001aa:	6013      	str	r3, [r2, #0]

	base_flash_unlock();  //  TODO: Check MakeCode flashing.
 80001ac:	4b83      	ldr	r3, [pc, #524]	; (80003bc <baseloader_start+0x254>)
 80001ae:	4a84      	ldr	r2, [pc, #528]	; (80003c0 <baseloader_start+0x258>)
 80001b0:	601a      	str	r2, [r3, #0]
 80001b2:	f102 3288 	add.w	r2, r2, #2290649224	; 0x88888888
 80001b6:	601a      	str	r2, [r3, #0]
    while (half_word_count > 0) {
 80001b8:	e131      	b.n	800041e <baseloader_start+0x2b6>
	if ((uint32_t) dest == FLASH_BASE) { should_disable_interrupts = true; }
 80001ba:	4b78      	ldr	r3, [pc, #480]	; (800039c <baseloader_start+0x234>)
 80001bc:	7019      	strb	r1, [r3, #0]
 80001be:	e7ec      	b.n	800019a <baseloader_start+0x32>
        /* Avoid writing past the end of flash */
        if (dest >= flash_end) {  //  debug_println("dest >= flash_end"); debug_flush();
            verified = false;
 80001c0:	4b77      	ldr	r3, [pc, #476]	; (80003a0 <baseloader_start+0x238>)
 80001c2:	2200      	movs	r2, #0
 80001c4:	701a      	strb	r2, [r3, #0]
        dest++;
        src++;
        half_word_count--;
		bytes_flashed += 2;
    }
	base_flash_lock();  //  TODO: Check MakeCode flashing.
 80001c6:	4a7f      	ldr	r2, [pc, #508]	; (80003c4 <baseloader_start+0x25c>)
 80001c8:	6813      	ldr	r3, [r2, #0]
 80001ca:	f043 0380 	orr.w	r3, r3, #128	; 0x80
 80001ce:	6013      	str	r3, [r2, #0]

	//  Vector table may have been overwritten. Restart to use the new vector table.
	//  TODO: Erase the second vector table.
    //  TODO: if (should_disable_interrupts) { scb_reset_system(); }
	
	return verified ? bytes_flashed : -1;
 80001d0:	4b73      	ldr	r3, [pc, #460]	; (80003a0 <baseloader_start+0x238>)
 80001d2:	781b      	ldrb	r3, [r3, #0]
 80001d4:	2b00      	cmp	r3, #0
 80001d6:	f000 815f 	beq.w	8000498 <baseloader_start+0x330>
 80001da:	4b6f      	ldr	r3, [pc, #444]	; (8000398 <baseloader_start+0x230>)
 80001dc:	6818      	ldr	r0, [r3, #0]
 80001de:	4770      	bx	lr
            erase_start = base_get_flash_page_address(dest);
 80001e0:	f420 707f 	bic.w	r0, r0, #1020	; 0x3fc
 80001e4:	f020 0003 	bic.w	r0, r0, #3
 80001e8:	4b6e      	ldr	r3, [pc, #440]	; (80003a4 <baseloader_start+0x23c>)
 80001ea:	6018      	str	r0, [r3, #0]
            erase_end = erase_start + (FLASH_PAGE_SIZE)/sizeof(uint16_t);
 80001ec:	f500 6280 	add.w	r2, r0, #1024	; 0x400
 80001f0:	4b6d      	ldr	r3, [pc, #436]	; (80003a8 <baseloader_start+0x240>)
 80001f2:	601a      	str	r2, [r3, #0]
            base_flash_erase_page((uint32_t)erase_start);
 80001f4:	4b74      	ldr	r3, [pc, #464]	; (80003c8 <baseloader_start+0x260>)
 80001f6:	6819      	ldr	r1, [r3, #0]
 80001f8:	f001 0235 	and.w	r2, r1, #53	; 0x35
 80001fc:	4b73      	ldr	r3, [pc, #460]	; (80003cc <baseloader_start+0x264>)
 80001fe:	881b      	ldrh	r3, [r3, #0]
 8000200:	b29b      	uxth	r3, r3
 8000202:	f5b3 7f00 	cmp.w	r3, #512	; 0x200
 8000206:	d904      	bls.n	8000212 <baseloader_start+0xaa>
 8000208:	4b71      	ldr	r3, [pc, #452]	; (80003d0 <baseloader_start+0x268>)
 800020a:	681a      	ldr	r2, [r3, #0]
 800020c:	430a      	orrs	r2, r1
 800020e:	f002 0235 	and.w	r2, r2, #53	; 0x35
 8000212:	f012 0f01 	tst.w	r2, #1
 8000216:	d00f      	beq.n	8000238 <baseloader_start+0xd0>
 8000218:	4b6b      	ldr	r3, [pc, #428]	; (80003c8 <baseloader_start+0x260>)
 800021a:	6819      	ldr	r1, [r3, #0]
 800021c:	f001 0235 	and.w	r2, r1, #53	; 0x35
 8000220:	4b6a      	ldr	r3, [pc, #424]	; (80003cc <baseloader_start+0x264>)
 8000222:	881b      	ldrh	r3, [r3, #0]
 8000224:	b29b      	uxth	r3, r3
 8000226:	f5b3 7f00 	cmp.w	r3, #512	; 0x200
 800022a:	d9f2      	bls.n	8000212 <baseloader_start+0xaa>
 800022c:	4b68      	ldr	r3, [pc, #416]	; (80003d0 <baseloader_start+0x268>)
 800022e:	681a      	ldr	r2, [r3, #0]
 8000230:	430a      	orrs	r2, r1
 8000232:	f002 0235 	and.w	r2, r2, #53	; 0x35
 8000236:	e7ec      	b.n	8000212 <baseloader_start+0xaa>
 8000238:	4b64      	ldr	r3, [pc, #400]	; (80003cc <baseloader_start+0x264>)
 800023a:	881b      	ldrh	r3, [r3, #0]
 800023c:	b29b      	uxth	r3, r3
 800023e:	f5b3 7f00 	cmp.w	r3, #512	; 0x200
 8000242:	d910      	bls.n	8000266 <baseloader_start+0xfe>
 8000244:	4b63      	ldr	r3, [pc, #396]	; (80003d4 <baseloader_start+0x26c>)
 8000246:	4298      	cmp	r0, r3
 8000248:	d90d      	bls.n	8000266 <baseloader_start+0xfe>
 800024a:	4b63      	ldr	r3, [pc, #396]	; (80003d8 <baseloader_start+0x270>)
 800024c:	681a      	ldr	r2, [r3, #0]
 800024e:	f042 0202 	orr.w	r2, r2, #2
 8000252:	601a      	str	r2, [r3, #0]
 8000254:	4a53      	ldr	r2, [pc, #332]	; (80003a4 <baseloader_start+0x23c>)
 8000256:	6811      	ldr	r1, [r2, #0]
 8000258:	4a60      	ldr	r2, [pc, #384]	; (80003dc <baseloader_start+0x274>)
 800025a:	6011      	str	r1, [r2, #0]
 800025c:	681a      	ldr	r2, [r3, #0]
 800025e:	f042 0240 	orr.w	r2, r2, #64	; 0x40
 8000262:	601a      	str	r2, [r3, #0]
 8000264:	e00c      	b.n	8000280 <baseloader_start+0x118>
 8000266:	4b57      	ldr	r3, [pc, #348]	; (80003c4 <baseloader_start+0x25c>)
 8000268:	681a      	ldr	r2, [r3, #0]
 800026a:	f042 0202 	orr.w	r2, r2, #2
 800026e:	601a      	str	r2, [r3, #0]
 8000270:	4a4c      	ldr	r2, [pc, #304]	; (80003a4 <baseloader_start+0x23c>)
 8000272:	6811      	ldr	r1, [r2, #0]
 8000274:	4a5a      	ldr	r2, [pc, #360]	; (80003e0 <baseloader_start+0x278>)
 8000276:	6011      	str	r1, [r2, #0]
 8000278:	681a      	ldr	r2, [r3, #0]
 800027a:	f042 0240 	orr.w	r2, r2, #64	; 0x40
 800027e:	601a      	str	r2, [r3, #0]
 8000280:	4b51      	ldr	r3, [pc, #324]	; (80003c8 <baseloader_start+0x260>)
 8000282:	6819      	ldr	r1, [r3, #0]
 8000284:	f001 0235 	and.w	r2, r1, #53	; 0x35
 8000288:	4b50      	ldr	r3, [pc, #320]	; (80003cc <baseloader_start+0x264>)
 800028a:	881b      	ldrh	r3, [r3, #0]
 800028c:	b29b      	uxth	r3, r3
 800028e:	f5b3 7f00 	cmp.w	r3, #512	; 0x200
 8000292:	d904      	bls.n	800029e <baseloader_start+0x136>
 8000294:	4b4e      	ldr	r3, [pc, #312]	; (80003d0 <baseloader_start+0x268>)
 8000296:	681a      	ldr	r2, [r3, #0]
 8000298:	430a      	orrs	r2, r1
 800029a:	f002 0235 	and.w	r2, r2, #53	; 0x35
 800029e:	f012 0f01 	tst.w	r2, #1
 80002a2:	d00f      	beq.n	80002c4 <baseloader_start+0x15c>
 80002a4:	4b48      	ldr	r3, [pc, #288]	; (80003c8 <baseloader_start+0x260>)
 80002a6:	6819      	ldr	r1, [r3, #0]
 80002a8:	f001 0235 	and.w	r2, r1, #53	; 0x35
 80002ac:	4b47      	ldr	r3, [pc, #284]	; (80003cc <baseloader_start+0x264>)
 80002ae:	881b      	ldrh	r3, [r3, #0]
 80002b0:	b29b      	uxth	r3, r3
 80002b2:	f5b3 7f00 	cmp.w	r3, #512	; 0x200
 80002b6:	d9f2      	bls.n	800029e <baseloader_start+0x136>
 80002b8:	4b45      	ldr	r3, [pc, #276]	; (80003d0 <baseloader_start+0x268>)
 80002ba:	681a      	ldr	r2, [r3, #0]
 80002bc:	430a      	orrs	r2, r1
 80002be:	f002 0235 	and.w	r2, r2, #53	; 0x35
 80002c2:	e7ec      	b.n	800029e <baseloader_start+0x136>
 80002c4:	4b41      	ldr	r3, [pc, #260]	; (80003cc <baseloader_start+0x264>)
 80002c6:	881b      	ldrh	r3, [r3, #0]
 80002c8:	b29b      	uxth	r3, r3
 80002ca:	f5b3 7f00 	cmp.w	r3, #512	; 0x200
 80002ce:	d90a      	bls.n	80002e6 <baseloader_start+0x17e>
 80002d0:	4b34      	ldr	r3, [pc, #208]	; (80003a4 <baseloader_start+0x23c>)
 80002d2:	681a      	ldr	r2, [r3, #0]
 80002d4:	4b3f      	ldr	r3, [pc, #252]	; (80003d4 <baseloader_start+0x26c>)
 80002d6:	429a      	cmp	r2, r3
 80002d8:	d905      	bls.n	80002e6 <baseloader_start+0x17e>
 80002da:	4a3f      	ldr	r2, [pc, #252]	; (80003d8 <baseloader_start+0x270>)
 80002dc:	6813      	ldr	r3, [r2, #0]
 80002de:	f023 0302 	bic.w	r3, r3, #2
 80002e2:	6013      	str	r3, [r2, #0]
 80002e4:	e0b1      	b.n	800044a <baseloader_start+0x2e2>
 80002e6:	4a37      	ldr	r2, [pc, #220]	; (80003c4 <baseloader_start+0x25c>)
 80002e8:	6813      	ldr	r3, [r2, #0]
 80002ea:	f023 0302 	bic.w	r3, r3, #2
 80002ee:	6013      	str	r3, [r2, #0]
 80002f0:	e0ab      	b.n	800044a <baseloader_start+0x2e2>
        base_flash_program_half_word((uint32_t)dest, *src);
 80002f2:	4b36      	ldr	r3, [pc, #216]	; (80003cc <baseloader_start+0x264>)
 80002f4:	881b      	ldrh	r3, [r3, #0]
 80002f6:	b29b      	uxth	r3, r3
 80002f8:	f5b3 7f00 	cmp.w	r3, #512	; 0x200
 80002fc:	d90a      	bls.n	8000314 <baseloader_start+0x1ac>
 80002fe:	4b23      	ldr	r3, [pc, #140]	; (800038c <baseloader_start+0x224>)
 8000300:	681a      	ldr	r2, [r3, #0]
 8000302:	4b34      	ldr	r3, [pc, #208]	; (80003d4 <baseloader_start+0x26c>)
 8000304:	429a      	cmp	r2, r3
 8000306:	d905      	bls.n	8000314 <baseloader_start+0x1ac>
 8000308:	4a33      	ldr	r2, [pc, #204]	; (80003d8 <baseloader_start+0x270>)
 800030a:	6813      	ldr	r3, [r2, #0]
 800030c:	f043 0301 	orr.w	r3, r3, #1
 8000310:	6013      	str	r3, [r2, #0]
 8000312:	e004      	b.n	800031e <baseloader_start+0x1b6>
 8000314:	4a2b      	ldr	r2, [pc, #172]	; (80003c4 <baseloader_start+0x25c>)
 8000316:	6813      	ldr	r3, [r2, #0]
 8000318:	f043 0301 	orr.w	r3, r3, #1
 800031c:	6013      	str	r3, [r2, #0]
 800031e:	4b1b      	ldr	r3, [pc, #108]	; (800038c <baseloader_start+0x224>)
 8000320:	6818      	ldr	r0, [r3, #0]
 8000322:	4b1b      	ldr	r3, [pc, #108]	; (8000390 <baseloader_start+0x228>)
 8000324:	681b      	ldr	r3, [r3, #0]
 8000326:	881b      	ldrh	r3, [r3, #0]
 8000328:	8003      	strh	r3, [r0, #0]
 800032a:	4b27      	ldr	r3, [pc, #156]	; (80003c8 <baseloader_start+0x260>)
 800032c:	6819      	ldr	r1, [r3, #0]
 800032e:	f001 0235 	and.w	r2, r1, #53	; 0x35
 8000332:	4b26      	ldr	r3, [pc, #152]	; (80003cc <baseloader_start+0x264>)
 8000334:	881b      	ldrh	r3, [r3, #0]
 8000336:	b29b      	uxth	r3, r3
 8000338:	f5b3 7f00 	cmp.w	r3, #512	; 0x200
 800033c:	d904      	bls.n	8000348 <baseloader_start+0x1e0>
 800033e:	4b24      	ldr	r3, [pc, #144]	; (80003d0 <baseloader_start+0x268>)
 8000340:	681a      	ldr	r2, [r3, #0]
 8000342:	430a      	orrs	r2, r1
 8000344:	f002 0235 	and.w	r2, r2, #53	; 0x35
 8000348:	f012 0f01 	tst.w	r2, #1
 800034c:	d00f      	beq.n	800036e <baseloader_start+0x206>
 800034e:	4b1e      	ldr	r3, [pc, #120]	; (80003c8 <baseloader_start+0x260>)
 8000350:	6819      	ldr	r1, [r3, #0]
 8000352:	f001 0235 	and.w	r2, r1, #53	; 0x35
 8000356:	4b1d      	ldr	r3, [pc, #116]	; (80003cc <baseloader_start+0x264>)
 8000358:	881b      	ldrh	r3, [r3, #0]
 800035a:	b29b      	uxth	r3, r3
 800035c:	f5b3 7f00 	cmp.w	r3, #512	; 0x200
 8000360:	d9f2      	bls.n	8000348 <baseloader_start+0x1e0>
 8000362:	4b1b      	ldr	r3, [pc, #108]	; (80003d0 <baseloader_start+0x268>)
 8000364:	681a      	ldr	r2, [r3, #0]
 8000366:	430a      	orrs	r2, r1
 8000368:	f002 0235 	and.w	r2, r2, #53	; 0x35
 800036c:	e7ec      	b.n	8000348 <baseloader_start+0x1e0>
 800036e:	4b17      	ldr	r3, [pc, #92]	; (80003cc <baseloader_start+0x264>)
 8000370:	881b      	ldrh	r3, [r3, #0]
 8000372:	b29b      	uxth	r3, r3
 8000374:	f5b3 7f00 	cmp.w	r3, #512	; 0x200
 8000378:	d934      	bls.n	80003e4 <baseloader_start+0x27c>
 800037a:	4b16      	ldr	r3, [pc, #88]	; (80003d4 <baseloader_start+0x26c>)
 800037c:	4298      	cmp	r0, r3
 800037e:	d931      	bls.n	80003e4 <baseloader_start+0x27c>
 8000380:	4a15      	ldr	r2, [pc, #84]	; (80003d8 <baseloader_start+0x270>)
 8000382:	6813      	ldr	r3, [r2, #0]
 8000384:	f023 0301 	bic.w	r3, r3, #1
 8000388:	6013      	str	r3, [r2, #0]
 800038a:	e030      	b.n	80003ee <baseloader_start+0x286>
 800038c:	20000130 	.word	0x20000130
 8000390:	20000144 	.word	0x20000144
 8000394:	20000140 	.word	0x20000140
 8000398:	2000012c 	.word	0x2000012c
 800039c:	20000148 	.word	0x20000148
 80003a0:	20000149 	.word	0x20000149
 80003a4:	20000138 	.word	0x20000138
 80003a8:	20000134 	.word	0x20000134
 80003ac:	2000013c 	.word	0x2000013c
 80003b0:	08010000 	.word	0x08010000
 80003b4:	e000e010 	.word	0xe000e010
 80003b8:	40021008 	.word	0x40021008
 80003bc:	40022004 	.word	0x40022004
 80003c0:	45670123 	.word	0x45670123
 80003c4:	40022010 	.word	0x40022010
 80003c8:	4002200c 	.word	0x4002200c
 80003cc:	1ffff7e0 	.word	0x1ffff7e0
 80003d0:	4002204c 	.word	0x4002204c
 80003d4:	0807ffff 	.word	0x0807ffff
 80003d8:	40022050 	.word	0x40022050
 80003dc:	40022054 	.word	0x40022054
 80003e0:	40022014 	.word	0x40022014
 80003e4:	4a2e      	ldr	r2, [pc, #184]	; (80004a0 <baseloader_start+0x338>)
 80003e6:	6813      	ldr	r3, [r2, #0]
 80003e8:	f023 0301 	bic.w	r3, r3, #1
 80003ec:	6013      	str	r3, [r2, #0]
        erase_start = dest + 1;
 80003ee:	4b2d      	ldr	r3, [pc, #180]	; (80004a4 <baseloader_start+0x33c>)
 80003f0:	681b      	ldr	r3, [r3, #0]
 80003f2:	1c9a      	adds	r2, r3, #2
 80003f4:	492c      	ldr	r1, [pc, #176]	; (80004a8 <baseloader_start+0x340>)
 80003f6:	600a      	str	r2, [r1, #0]
        if (*dest != *src) {  //  debug_println("*dest != *src"); debug_flush();
 80003f8:	8818      	ldrh	r0, [r3, #0]
 80003fa:	4b2c      	ldr	r3, [pc, #176]	; (80004ac <baseloader_start+0x344>)
 80003fc:	681b      	ldr	r3, [r3, #0]
 80003fe:	8819      	ldrh	r1, [r3, #0]
 8000400:	4288      	cmp	r0, r1
 8000402:	d145      	bne.n	8000490 <baseloader_start+0x328>
        dest++;
 8000404:	4927      	ldr	r1, [pc, #156]	; (80004a4 <baseloader_start+0x33c>)
 8000406:	600a      	str	r2, [r1, #0]
        src++;
 8000408:	3302      	adds	r3, #2
 800040a:	4a28      	ldr	r2, [pc, #160]	; (80004ac <baseloader_start+0x344>)
 800040c:	6013      	str	r3, [r2, #0]
        half_word_count--;
 800040e:	4a28      	ldr	r2, [pc, #160]	; (80004b0 <baseloader_start+0x348>)
 8000410:	6813      	ldr	r3, [r2, #0]
 8000412:	3b01      	subs	r3, #1
 8000414:	6013      	str	r3, [r2, #0]
		bytes_flashed += 2;
 8000416:	4a27      	ldr	r2, [pc, #156]	; (80004b4 <baseloader_start+0x34c>)
 8000418:	6813      	ldr	r3, [r2, #0]
 800041a:	3302      	adds	r3, #2
 800041c:	6013      	str	r3, [r2, #0]
    while (half_word_count > 0) {
 800041e:	4b24      	ldr	r3, [pc, #144]	; (80004b0 <baseloader_start+0x348>)
 8000420:	681b      	ldr	r3, [r3, #0]
 8000422:	2b00      	cmp	r3, #0
 8000424:	f43f aecf 	beq.w	80001c6 <baseloader_start+0x5e>
        if (dest >= flash_end) {  //  debug_println("dest >= flash_end"); debug_flush();
 8000428:	4b1e      	ldr	r3, [pc, #120]	; (80004a4 <baseloader_start+0x33c>)
 800042a:	6818      	ldr	r0, [r3, #0]
 800042c:	4a22      	ldr	r2, [pc, #136]	; (80004b8 <baseloader_start+0x350>)
 800042e:	6812      	ldr	r2, [r2, #0]
 8000430:	4290      	cmp	r0, r2
 8000432:	f4bf aec5 	bcs.w	80001c0 <baseloader_start+0x58>
        if (dest >= erase_end || dest < erase_start) {
 8000436:	4a21      	ldr	r2, [pc, #132]	; (80004bc <baseloader_start+0x354>)
 8000438:	6812      	ldr	r2, [r2, #0]
 800043a:	4290      	cmp	r0, r2
 800043c:	f4bf aed0 	bcs.w	80001e0 <baseloader_start+0x78>
 8000440:	4a19      	ldr	r2, [pc, #100]	; (80004a8 <baseloader_start+0x340>)
 8000442:	6812      	ldr	r2, [r2, #0]
 8000444:	4290      	cmp	r0, r2
 8000446:	f4ff aecb 	bcc.w	80001e0 <baseloader_start+0x78>
        base_flash_program_half_word((uint32_t)dest, *src);
 800044a:	4b1d      	ldr	r3, [pc, #116]	; (80004c0 <baseloader_start+0x358>)
 800044c:	6819      	ldr	r1, [r3, #0]
 800044e:	f001 0235 	and.w	r2, r1, #53	; 0x35
 8000452:	4b1c      	ldr	r3, [pc, #112]	; (80004c4 <baseloader_start+0x35c>)
 8000454:	881b      	ldrh	r3, [r3, #0]
 8000456:	b29b      	uxth	r3, r3
 8000458:	f5b3 7f00 	cmp.w	r3, #512	; 0x200
 800045c:	d904      	bls.n	8000468 <baseloader_start+0x300>
 800045e:	4b1a      	ldr	r3, [pc, #104]	; (80004c8 <baseloader_start+0x360>)
 8000460:	681a      	ldr	r2, [r3, #0]
 8000462:	430a      	orrs	r2, r1
 8000464:	f002 0235 	and.w	r2, r2, #53	; 0x35
 8000468:	f012 0f01 	tst.w	r2, #1
 800046c:	f43f af41 	beq.w	80002f2 <baseloader_start+0x18a>
 8000470:	4b13      	ldr	r3, [pc, #76]	; (80004c0 <baseloader_start+0x358>)
 8000472:	6819      	ldr	r1, [r3, #0]
 8000474:	f001 0235 	and.w	r2, r1, #53	; 0x35
 8000478:	4b12      	ldr	r3, [pc, #72]	; (80004c4 <baseloader_start+0x35c>)
 800047a:	881b      	ldrh	r3, [r3, #0]
 800047c:	b29b      	uxth	r3, r3
 800047e:	f5b3 7f00 	cmp.w	r3, #512	; 0x200
 8000482:	d9f1      	bls.n	8000468 <baseloader_start+0x300>
 8000484:	4b10      	ldr	r3, [pc, #64]	; (80004c8 <baseloader_start+0x360>)
 8000486:	681a      	ldr	r2, [r3, #0]
 8000488:	430a      	orrs	r2, r1
 800048a:	f002 0235 	and.w	r2, r2, #53	; 0x35
 800048e:	e7eb      	b.n	8000468 <baseloader_start+0x300>
            verified = false;
 8000490:	4b0e      	ldr	r3, [pc, #56]	; (80004cc <baseloader_start+0x364>)
 8000492:	2200      	movs	r2, #0
 8000494:	701a      	strb	r2, [r3, #0]
            break;
 8000496:	e696      	b.n	80001c6 <baseloader_start+0x5e>
	return verified ? bytes_flashed : -1;
 8000498:	f04f 30ff 	mov.w	r0, #4294967295	; 0xffffffff
}
 800049c:	4770      	bx	lr
 800049e:	bf00      	nop
 80004a0:	40022010 	.word	0x40022010
 80004a4:	20000130 	.word	0x20000130
 80004a8:	20000138 	.word	0x20000138
 80004ac:	20000144 	.word	0x20000144
 80004b0:	20000140 	.word	0x20000140
 80004b4:	2000012c 	.word	0x2000012c
 80004b8:	2000013c 	.word	0x2000013c
 80004bc:	20000134 	.word	0x20000134
 80004c0:	4002200c 	.word	0x4002200c
 80004c4:	1ffff7e0 	.word	0x1ffff7e0
 80004c8:	4002204c 	.word	0x4002204c
 80004cc:	20000149 	.word	0x20000149

080004d0 <baseloader_fetch>:

int baseloader_fetch(baseloader_func *baseloader_addr, uint32_t **dest, const uint32_t **src, size_t *byte_count) {
	//  Return the address of the baseloader function, located in the Second Base Vector Table.
	//  Also return the parameters to be passed to the baseloader function: dest, src, byte_count.
	if (!baseloader_addr || !dest || !src || !byte_count) { return -1; }
 80004d0:	2800      	cmp	r0, #0
 80004d2:	d047      	beq.n	8000564 <baseloader_fetch+0x94>
int baseloader_fetch(baseloader_func *baseloader_addr, uint32_t **dest, const uint32_t **src, size_t *byte_count) {
 80004d4:	b5f0      	push	{r4, r5, r6, r7, lr}
 80004d6:	4607      	mov	r7, r0
	if (!baseloader_addr || !dest || !src || !byte_count) { return -1; }
 80004d8:	2900      	cmp	r1, #0
 80004da:	d046      	beq.n	800056a <baseloader_fetch+0x9a>
 80004dc:	2a00      	cmp	r2, #0
 80004de:	d047      	beq.n	8000570 <baseloader_fetch+0xa0>
 80004e0:	2b00      	cmp	r3, #0
 80004e2:	d048      	beq.n	8000576 <baseloader_fetch+0xa6>
	//  Search for the First and Second Base Vector Tables and find the bootloader range.
	//  First Base Vector Table is in the start of the application ROM.
	if (!IS_VALID_BASE_VECTOR_TABLE(application_start)) { return -2; }  //  Quit if First Base Vector Table is not found.
 80004e4:	482d      	ldr	r0, [pc, #180]	; (800059c <baseloader_fetch+0xcc>)
 80004e6:	f420 7c7f 	bic.w	ip, r0, #1020	; 0x3fc
 80004ea:	f02c 0c03 	bic.w	ip, ip, #3
 80004ee:	4c2c      	ldr	r4, [pc, #176]	; (80005a0 <baseloader_fetch+0xd0>)
 80004f0:	f3c4 0409 	ubfx	r4, r4, #0, #10
 80004f4:	ea4c 0504 	orr.w	r5, ip, r4
 80004f8:	f8d5 e000 	ldr.w	lr, [r5]
 80004fc:	4e29      	ldr	r6, [pc, #164]	; (80005a4 <baseloader_fetch+0xd4>)
 80004fe:	45b6      	cmp	lr, r6
 8000500:	d13c      	bne.n	800057c <baseloader_fetch+0xac>
 8000502:	f8d5 e014 	ldr.w	lr, [r5, #20]
 8000506:	4e28      	ldr	r6, [pc, #160]	; (80005a8 <baseloader_fetch+0xd8>)
 8000508:	45b6      	cmp	lr, r6
 800050a:	d13a      	bne.n	8000582 <baseloader_fetch+0xb2>
	base_vector_table_t *begin_base_vector = BASE_VECTOR_TABLE(application_start);

	//  Get size of new bootloader from the First Base Vector Table (same as the Application ROM start address).
	uint32_t bootloader_size = (uint32_t) (begin_base_vector->application) - FLASH_BASE;
 800050c:	692e      	ldr	r6, [r5, #16]
 800050e:	f106 4678 	add.w	r6, r6, #4160749568	; 0xf8000000
	if ((uint32_t) application_start + bootloader_size + FLASH_PAGE_SIZE 
 8000512:	f500 6580 	add.w	r5, r0, #1024	; 0x400
 8000516:	4435      	add	r5, r6
 8000518:	f8df e090 	ldr.w	lr, [pc, #144]	; 80005ac <baseloader_fetch+0xdc>
 800051c:	4575      	cmp	r5, lr
 800051e:	d833      	bhi.n	8000588 <baseloader_fetch+0xb8>
		>= FLASH_BASE + FLASH_SIZE_OVERRIDE) { return -3; }  //  Quit if bootloader size is too big.

	//  Second Base Vector Table is at start of application ROM + bootloader size.  Round up to the next flash page.
	uint32_t flash_page_addr = FLASH_CEIL_ADDRESS((uint32_t) application_start + bootloader_size);
 8000520:	4430      	add	r0, r6
 8000522:	f420 757f 	bic.w	r5, r0, #1020	; 0x3fc
 8000526:	f025 0503 	bic.w	r5, r5, #3
 800052a:	42a8      	cmp	r0, r5
 800052c:	d901      	bls.n	8000532 <baseloader_fetch+0x62>
 800052e:	f505 6580 	add.w	r5, r5, #1024	; 0x400
	if (!IS_VALID_BASE_VECTOR_TABLE(flash_page_addr)) { return -4; }  //  Quit if Second Base Vector Table is not found.
 8000532:	ea44 0005 	orr.w	r0, r4, r5
 8000536:	f8d0 e000 	ldr.w	lr, [r0]
 800053a:	4c1a      	ldr	r4, [pc, #104]	; (80005a4 <baseloader_fetch+0xd4>)
 800053c:	45a6      	cmp	lr, r4
 800053e:	d126      	bne.n	800058e <baseloader_fetch+0xbe>
 8000540:	f8d0 e014 	ldr.w	lr, [r0, #20]
 8000544:	4c18      	ldr	r4, [pc, #96]	; (80005a8 <baseloader_fetch+0xd8>)
 8000546:	45a6      	cmp	lr, r4
 8000548:	d124      	bne.n	8000594 <baseloader_fetch+0xc4>
	base_vector_table_t *end_base_vector = BASE_VECTOR_TABLE(flash_page_addr);

	//  Jump to the baseloader in the Second Base Vector Table.
	*baseloader_addr = (baseloader_func) ((uint32_t) (end_base_vector->baseloader) - FLASH_BASE + flash_page_addr);
 800054a:	6880      	ldr	r0, [r0, #8]
 800054c:	4405      	add	r5, r0
 800054e:	f105 4578 	add.w	r5, r5, #4160749568	; 0xf8000000
 8000552:	603d      	str	r5, [r7, #0]
	*dest = (uint32_t *) FLASH_BASE;  		 //  Overwrite the old bootloader...
 8000554:	f04f 6000 	mov.w	r0, #134217728	; 0x8000000
 8000558:	6008      	str	r0, [r1, #0]
	*src  = (uint32_t *) FLASH_ADDRESS(application_start);  //  By the new bootloader from the Application space.
 800055a:	f8c2 c000 	str.w	ip, [r2]
	*byte_count = bootloader_size;			 //  For this number of bytes.
 800055e:	601e      	str	r6, [r3, #0]
	return 0;
 8000560:	2000      	movs	r0, #0
}
 8000562:	bdf0      	pop	{r4, r5, r6, r7, pc}
	if (!baseloader_addr || !dest || !src || !byte_count) { return -1; }
 8000564:	f04f 30ff 	mov.w	r0, #4294967295	; 0xffffffff
}
 8000568:	4770      	bx	lr
	if (!baseloader_addr || !dest || !src || !byte_count) { return -1; }
 800056a:	f04f 30ff 	mov.w	r0, #4294967295	; 0xffffffff
 800056e:	e7f8      	b.n	8000562 <baseloader_fetch+0x92>
 8000570:	f04f 30ff 	mov.w	r0, #4294967295	; 0xffffffff
 8000574:	e7f5      	b.n	8000562 <baseloader_fetch+0x92>
 8000576:	f04f 30ff 	mov.w	r0, #4294967295	; 0xffffffff
 800057a:	e7f2      	b.n	8000562 <baseloader_fetch+0x92>
	if (!IS_VALID_BASE_VECTOR_TABLE(application_start)) { return -2; }  //  Quit if First Base Vector Table is not found.
 800057c:	f06f 0001 	mvn.w	r0, #1
 8000580:	e7ef      	b.n	8000562 <baseloader_fetch+0x92>
 8000582:	f06f 0001 	mvn.w	r0, #1
 8000586:	e7ec      	b.n	8000562 <baseloader_fetch+0x92>
		>= FLASH_BASE + FLASH_SIZE_OVERRIDE) { return -3; }  //  Quit if bootloader size is too big.
 8000588:	f06f 0002 	mvn.w	r0, #2
 800058c:	e7e9      	b.n	8000562 <baseloader_fetch+0x92>
	if (!IS_VALID_BASE_VECTOR_TABLE(flash_page_addr)) { return -4; }  //  Quit if Second Base Vector Table is not found.
 800058e:	f06f 0003 	mvn.w	r0, #3
 8000592:	e7e6      	b.n	8000562 <baseloader_fetch+0x92>
 8000594:	f06f 0003 	mvn.w	r0, #3
 8000598:	e7e3      	b.n	8000562 <baseloader_fetch+0x92>
 800059a:	bf00      	nop
 800059c:	08006c01 	.word	0x08006c01
 80005a0:	08000150 	.word	0x08000150
 80005a4:	22051969 	.word	0x22051969
 80005a8:	19690522 	.word	0x19690522
 80005ac:	0800ffff 	.word	0x0800ffff

080005b0 <base_flash_program_array>:

int base_flash_program_array(uint16_t *dest0, const uint16_t *src0, size_t half_word_count0) {
 80005b0:	b508      	push	{r3, lr}
	//  Return the number of half-words flashed.
	//  TODO: Validate dest, src, half_word_count before flashing.
	int bytes_flashed = baseloader_start((uint32_t *) dest0, (const uint32_t *) src0, half_word_count0 * 2);
 80005b2:	0052      	lsls	r2, r2, #1
 80005b4:	f7ff fdd8 	bl	8000168 <baseloader_start>
	return (bytes_flashed > 0) ? bytes_flashed / 2 : bytes_flashed;
 80005b8:	2800      	cmp	r0, #0
 80005ba:	dd02      	ble.n	80005c2 <base_flash_program_array+0x12>
 80005bc:	eb00 70d0 	add.w	r0, r0, r0, lsr #31
 80005c0:	1040      	asrs	r0, r0, #1
}
 80005c2:	bd08      	pop	{r3, pc}

080005c4 <blocking_handler>:
	}

}

void blocking_handler(void)
{
 80005c4:	e7fe      	b.n	80005c4 <blocking_handler>

080005c6 <null_handler>:
}

void null_handler(void)
{
	/* Do nothing. */
}
 80005c6:	4770      	bx	lr

080005c8 <rtc_isr>:
volatile uint32_t platform_get_alarm(void) {
	//  Get alarm time.
	return rtc_get_alarm_val();
}

void rtc_isr(void) {
 80005c8:	b508      	push	{r3, lr}
	//  Interrupt Service Routine for RTC Tick, Alarm, Overflow.  Don't call any I/O functions here.
	if (rtc_check_flag(RTC_SEC)) {
 80005ca:	2000      	movs	r0, #0
 80005cc:	f000 fcf2 	bl	8000fb4 <rtc_check_flag>
 80005d0:	b900      	cbnz	r0, 80005d4 <rtc_isr+0xc>
		//  Call the alarm function.
		if (alarmFunc != NULL) { alarmFunc(); }
		return;
	}
#endif  //  NOTUSED
}
 80005d2:	bd08      	pop	{r3, pc}
		rtc_clear_flag(RTC_SEC);
 80005d4:	2000      	movs	r0, #0
 80005d6:	f000 fcd3 	bl	8000f80 <rtc_clear_flag>
		tickCount++;
 80005da:	4a05      	ldr	r2, [pc, #20]	; (80005f0 <rtc_isr+0x28>)
 80005dc:	6813      	ldr	r3, [r2, #0]
 80005de:	3301      	adds	r3, #1
 80005e0:	6013      	str	r3, [r2, #0]
		if (tickFunc != NULL) { tickFunc(); }
 80005e2:	4b04      	ldr	r3, [pc, #16]	; (80005f4 <rtc_isr+0x2c>)
 80005e4:	681b      	ldr	r3, [r3, #0]
 80005e6:	2b00      	cmp	r3, #0
 80005e8:	d0f3      	beq.n	80005d2 <rtc_isr+0xa>
 80005ea:	4798      	blx	r3
 80005ec:	e7f1      	b.n	80005d2 <rtc_isr+0xa>
 80005ee:	bf00      	nop
 80005f0:	20000450 	.word	0x20000450
 80005f4:	20000448 	.word	0x20000448

080005f8 <rtc_alarm_isr>:

void rtc_alarm_isr(void) {
 80005f8:	b508      	push	{r3, lr}
	//  Interrupt Service Routine for RTC Alarm Wakeup.  Don't call any I/O functions here.
	//  The RTC alarm appears as EXTI 17 which must be reset independently of the RTC alarm flag.
	exti_reset_request(EXTI17);
 80005fa:	f44f 3000 	mov.w	r0, #131072	; 0x20000
 80005fe:	f000 fd33 	bl	8001068 <exti_reset_request>
	rtc_clear_flag(RTC_ALR);
 8000602:	2001      	movs	r0, #1
 8000604:	f000 fcbc 	bl	8000f80 <rtc_clear_flag>
	alarmCount++;
 8000608:	4a04      	ldr	r2, [pc, #16]	; (800061c <rtc_alarm_isr+0x24>)
 800060a:	6813      	ldr	r3, [r2, #0]
 800060c:	3301      	adds	r3, #1
 800060e:	6013      	str	r3, [r2, #0]
	//  Call the alarm function.
	if (alarmFunc != NULL) { alarmFunc(); }
 8000610:	4b03      	ldr	r3, [pc, #12]	; (8000620 <rtc_alarm_isr+0x28>)
 8000612:	681b      	ldr	r3, [r3, #0]
 8000614:	b103      	cbz	r3, 8000618 <rtc_alarm_isr+0x20>
 8000616:	4798      	blx	r3
}
 8000618:	bd08      	pop	{r3, pc}
 800061a:	bf00      	nop
 800061c:	20000444 	.word	0x20000444
 8000620:	2000044c 	.word	0x2000044c

08000624 <usart2_isr>:
	usart_set_stopbits(USART2, USART_STOPBITS_1);
	usart_set_flow_control(USART2, USART_FLOWCONTROL_NONE);
	usart_set_mode(USART2, USART_MODE_TX_RX);
}

void usart2_isr(void) {
 8000624:	b508      	push	{r3, lr}
    //  Interrupt service routine for USART2. We enqueue each byte received.
	//  Check if we were called because of received data (RXNE). */
	if (((USART_CR1(USART2) & USART_CR1_RXNEIE) != 0) &&
 8000626:	4b12      	ldr	r3, [pc, #72]	; (8000670 <usart2_isr+0x4c>)
 8000628:	681b      	ldr	r3, [r3, #0]
 800062a:	f013 0f20 	tst.w	r3, #32
 800062e:	d004      	beq.n	800063a <usart2_isr+0x16>
	    ((USART_SR(USART2) & USART_SR_RXNE) != 0)) {
 8000630:	4b10      	ldr	r3, [pc, #64]	; (8000674 <usart2_isr+0x50>)
 8000632:	681b      	ldr	r3, [r3, #0]
	if (((USART_CR1(USART2) & USART_CR1_RXNEIE) != 0) &&
 8000634:	f013 0f20 	tst.w	r3, #32
 8000638:	d100      	bne.n	800063c <usart2_isr+0x18>
		//  Read the next received byte and add to response queue.
		uint8_t ch = usart_recv(USART2);
        responseQueue.push(ch);
	}
}
 800063a:	bd08      	pop	{r3, pc}
		uint8_t ch = usart_recv(USART2);
 800063c:	480d      	ldr	r0, [pc, #52]	; (8000674 <usart2_isr+0x50>)
 800063e:	f001 f864 	bl	800170a <usart_recv>
 8000642:	b2c0      	uxtb	r0, r0
      {
	memory_order __b = __m & __memory_order_mask;
	__glibcxx_assert(__b != memory_order_release);
	__glibcxx_assert(__b != memory_order_acq_rel);

	return __atomic_load_n(&_M_i, __m);
 8000644:	4b0c      	ldr	r3, [pc, #48]	; (8000678 <usart2_isr+0x54>)
 8000646:	681a      	ldr	r2, [r3, #0]
        write_index_(0), read_index_(0)
    {}

    static size_t next_index(size_t arg, size_t max_size)
    {
        size_t ret = arg + 1;
 8000648:	1c53      	adds	r3, r2, #1
        while (BOOST_UNLIKELY(ret >= max_size))
 800064a:	2b25      	cmp	r3, #37	; 0x25
 800064c:	d80e      	bhi.n	800066c <usart2_isr+0x48>
 800064e:	490a      	ldr	r1, [pc, #40]	; (8000678 <usart2_isr+0x54>)
 8000650:	6c09      	ldr	r1, [r1, #64]	; 0x40
 8000652:	f3bf 8f5b 	dmb	ish
    bool push(T const & t, T * buffer, size_t max_size)
    {
        const size_t write_index = write_index_.load(memory_order_relaxed);  // only written from push thread
        const size_t next = next_index(write_index, max_size);

        if (next == read_index_.load(memory_order_acquire))
 8000656:	428b      	cmp	r3, r1
 8000658:	d0ef      	beq.n	800063a <usart2_isr+0x16>
            return false; /* ringbuffer is full */

        new (buffer + write_index) T(t); // copy-construct
 800065a:	4908      	ldr	r1, [pc, #32]	; (800067c <usart2_isr+0x58>)
 800065c:	42d1      	cmn	r1, r2
 800065e:	d000      	beq.n	8000662 <usart2_isr+0x3e>
 8000660:	5488      	strb	r0, [r1, r2]
	__atomic_store_n(&_M_i, __i, __m);
 8000662:	f3bf 8f5b 	dmb	ish
 8000666:	4a04      	ldr	r2, [pc, #16]	; (8000678 <usart2_isr+0x54>)
 8000668:	6013      	str	r3, [r2, #0]
}
 800066a:	e7e6      	b.n	800063a <usart2_isr+0x16>
            ret -= max_size;
 800066c:	3b26      	subs	r3, #38	; 0x26
 800066e:	e7ec      	b.n	800064a <usart2_isr+0x26>
 8000670:	4000440c 	.word	0x4000440c
 8000674:	40004400 	.word	0x40004400
 8000678:	20002194 	.word	0x20002194
 800067c:	200021d8 	.word	0x200021d8

08000680 <pre_main>:
extern void application_start(void);

uint32_t hal_bss_test;                   //  Test whether BSS Section is loaded correctly.
uint32_t hal_data_test = 0x87654321;     //  Test whether Data Section is loaded correctly.

static void pre_main() {
 8000680:	b508      	push	{r3, lr}
	//  Init the STM32 platform and start the timer.  Note: Constructors are not called yet.
    //  Note: Must disable debug when testing Deep Sleep.  Else device will not run without ST Link.
    target_enable_debug();       //  Uncomment to allow display of debug messages in development devices. NOTE: This will hang if no Arm Semihosting debugger is attached.
 8000682:	f000 f9b1 	bl	80009e8 <target_enable_debug>
    //  target_disable_debug();  //  Uncomment to disable display of debug messages.  For use in production devices.
    target_init();               //  Init the STM32 platform.
 8000686:	f000 f8db 	bl	8000840 <target_init>

	//  Test whether Bootloader BSS and Data Sections are loaded correctly.
    if (hal_bss_test != 0x0 || hal_data_test != 0x87654321) {
 800068a:	4b0c      	ldr	r3, [pc, #48]	; (80006bc <pre_main+0x3c>)
 800068c:	681b      	ldr	r3, [r3, #0]
 800068e:	b923      	cbnz	r3, 800069a <pre_main+0x1a>
 8000690:	4b0b      	ldr	r3, [pc, #44]	; (80006c0 <pre_main+0x40>)
 8000692:	681a      	ldr	r2, [r3, #0]
 8000694:	4b0b      	ldr	r3, [pc, #44]	; (80006c4 <pre_main+0x44>)
 8000696:	429a      	cmp	r2, r3
 8000698:	d00e      	beq.n	80006b8 <pre_main+0x38>
        debug_print("*** hal bss/data failed, bss_test = "); debug_printhex_unsigned(hal_bss_test);
 800069a:	480b      	ldr	r0, [pc, #44]	; (80006c8 <pre_main+0x48>)
 800069c:	f002 f914 	bl	80028c8 <debug_print>
 80006a0:	4b06      	ldr	r3, [pc, #24]	; (80006bc <pre_main+0x3c>)
 80006a2:	6818      	ldr	r0, [r3, #0]
 80006a4:	f002 f95c 	bl	8002960 <debug_printhex_unsigned>
        debug_print(", data_test = "); debug_printhex_unsigned(hal_data_test);
 80006a8:	4808      	ldr	r0, [pc, #32]	; (80006cc <pre_main+0x4c>)
 80006aa:	f002 f90d 	bl	80028c8 <debug_print>
 80006ae:	4b04      	ldr	r3, [pc, #16]	; (80006c0 <pre_main+0x40>)
 80006b0:	6818      	ldr	r0, [r3, #0]
 80006b2:	f002 f955 	bl	8002960 <debug_printhex_unsigned>
 80006b6:	e7fe      	b.n	80006b6 <pre_main+0x36>
    }
#ifdef UNIT_TEST
    //  Run the unit tests if any.  Don't run unit test in bootloader, because we will run out of space in bootrom.
    run_unit_test();	
#endif  //  UNIT_TEST
}
 80006b8:	bd08      	pop	{r3, pc}
 80006ba:	bf00      	nop
 80006bc:	20000734 	.word	0x20000734
 80006c0:	20000000 	.word	0x20000000
 80006c4:	87654321 	.word	0x87654321
 80006c8:	08004584 	.word	0x08004584
 80006cc:	080045ac 	.word	0x080045ac

080006d0 <reset_handler>:

void reset_handler(void) {
 80006d0:	b510      	push	{r4, lr}
	//  We also call the constructors.  The vector table points to this function.
	volatile unsigned *src, *boot_dest;
	funcp_t *fp;

	//  Copy Bootloader data section from ROM to RAM.
	for (src = &_boot_data_loadaddr, boot_dest = &_boot_data;
 80006d2:	4b1a      	ldr	r3, [pc, #104]	; (800073c <reset_handler+0x6c>)
 80006d4:	491a      	ldr	r1, [pc, #104]	; (8000740 <reset_handler+0x70>)
 80006d6:	e003      	b.n	80006e0 <reset_handler+0x10>
		boot_dest < &_boot_edata;  //  Bootloader
		src++, boot_dest++) {
		*boot_dest = *src;
 80006d8:	f851 2b04 	ldr.w	r2, [r1], #4
 80006dc:	f843 2b04 	str.w	r2, [r3], #4
	for (src = &_boot_data_loadaddr, boot_dest = &_boot_data;
 80006e0:	4a18      	ldr	r2, [pc, #96]	; (8000744 <reset_handler+0x74>)
 80006e2:	4293      	cmp	r3, r2
 80006e4:	d3f8      	bcc.n	80006d8 <reset_handler+0x8>
 80006e6:	e002      	b.n	80006ee <reset_handler+0x1e>
	}

	//  Init variables in Bootloader BSS section to null.
	while (boot_dest < &_boot_ebss) { *boot_dest++ = 0; }
 80006e8:	2200      	movs	r2, #0
 80006ea:	601a      	str	r2, [r3, #0]
 80006ec:	3304      	adds	r3, #4
 80006ee:	4a16      	ldr	r2, [pc, #88]	; (8000748 <reset_handler+0x78>)
 80006f0:	4293      	cmp	r3, r2
 80006f2:	d3f9      	bcc.n	80006e8 <reset_handler+0x18>

	/* Ensure 8-byte alignment of stack pointer on interrupts */
	/* Enabled by default on most Cortex-M parts, but not M3 r1 */
	SCB_CCR |= SCB_CCR_STKALIGN;
 80006f4:	4a15      	ldr	r2, [pc, #84]	; (800074c <reset_handler+0x7c>)
 80006f6:	6813      	ldr	r3, [r2, #0]
 80006f8:	f443 7300 	orr.w	r3, r3, #512	; 0x200
 80006fc:	6013      	str	r3, [r2, #0]

	//  Perform our platform initialisation.  pre_main() will not return if bootloader decides to run in Bootloader Mode.
	pre_main();
 80006fe:	f7ff ffbf 	bl	8000680 <pre_main>
	//  Application constructors will be called by application_start().
	//  TODO: Fix these bootloader constructors:
	// .init_array    0x0000000008009778        0x4 .pioenvs/bluepill_f103c8/src/uart.o
 	// .init_array    0x000000000800977c        0x4 .pioenvs/bluepill_f103c8/lib33e/libuartint.a(uartint.o)
 	// .init_array    0x0000000008009780        0x4 .pioenvs/bluepill_f103c8/lib3e7/libcodal-core.a(ManagedString.o)
	for (fp = &__boot_preinit_array_start; fp < &__boot_preinit_array_end; fp++) {
 8000702:	4c13      	ldr	r4, [pc, #76]	; (8000750 <reset_handler+0x80>)
 8000704:	e002      	b.n	800070c <reset_handler+0x3c>
		(*fp)();
 8000706:	f854 3b04 	ldr.w	r3, [r4], #4
 800070a:	4798      	blx	r3
	for (fp = &__boot_preinit_array_start; fp < &__boot_preinit_array_end; fp++) {
 800070c:	4b11      	ldr	r3, [pc, #68]	; (8000754 <reset_handler+0x84>)
 800070e:	429c      	cmp	r4, r3
 8000710:	d3f9      	bcc.n	8000706 <reset_handler+0x36>
	}
	for (fp = &__boot_init_array_start; fp < &__boot_init_array_end; fp++) {
 8000712:	4c11      	ldr	r4, [pc, #68]	; (8000758 <reset_handler+0x88>)
 8000714:	e002      	b.n	800071c <reset_handler+0x4c>
		(*fp)();
 8000716:	f854 3b04 	ldr.w	r3, [r4], #4
 800071a:	4798      	blx	r3
	for (fp = &__boot_init_array_start; fp < &__boot_init_array_end; fp++) {
 800071c:	4b0f      	ldr	r3, [pc, #60]	; (800075c <reset_handler+0x8c>)
 800071e:	429c      	cmp	r4, r3
 8000720:	d3f9      	bcc.n	8000716 <reset_handler+0x46>
	}

    //  Start the bootloader.  This function will not return if the bootloader decides to run in Bootloader Mode (polling forever for USB commands).
    bootloader_start();
 8000722:	f002 fb01 	bl	8002d28 <bootloader_start>

	//  If we return here, that means we are running in Application Mode.
	//  Call the application's entry point. application_start() is always located at a fixed address (_text) so we can change the application easily.
	application_start();
 8000726:	f006 fa6b 	bl	8006c00 <application_start>

	//  TODO: We should not allow our low-level STM32 functions to have C++ destructors.
	//  Application destructors will be called by application_start().
	for (fp = &__boot_fini_array_start; fp < &__boot_fini_array_end; fp++) {
 800072a:	4c0d      	ldr	r4, [pc, #52]	; (8000760 <reset_handler+0x90>)
 800072c:	e002      	b.n	8000734 <reset_handler+0x64>
		(*fp)();
 800072e:	f854 3b04 	ldr.w	r3, [r4], #4
 8000732:	4798      	blx	r3
	for (fp = &__boot_fini_array_start; fp < &__boot_fini_array_end; fp++) {
 8000734:	4b0b      	ldr	r3, [pc, #44]	; (8000764 <reset_handler+0x94>)
 8000736:	429c      	cmp	r4, r3
 8000738:	d3f9      	bcc.n	800072e <reset_handler+0x5e>
	}

}
 800073a:	bd10      	pop	{r4, pc}
 800073c:	20000000 	.word	0x20000000
 8000740:	080050b0 	.word	0x080050b0
 8000744:	2000012c 	.word	0x2000012c
 8000748:	20000898 	.word	0x20000898
 800074c:	e000ed14 	.word	0xe000ed14
 8000750:	080050b0 	.word	0x080050b0
 8000754:	080050b0 	.word	0x080050b0
 8000758:	080050b0 	.word	0x080050b0
 800075c:	080050b0 	.word	0x080050b0
 8000760:	080050b0 	.word	0x080050b0
 8000764:	080050b0 	.word	0x080050b0

08000768 <_ZL11timer_alarmv>:
    if (tick_callback) { tick_callback(); }
    //  Call cocoOS at every tick.
    os_tick();
}

static void timer_alarm() {
 8000768:	b508      	push	{r3, lr}
        debug_print(";");
        poll_bootloader();
    }
#endif  //  NOTUSED
    //  If Codal Timer exists, update the timer.
    if (alarm_callback) { alarm_callback(); }
 800076a:	4b06      	ldr	r3, [pc, #24]	; (8000784 <_ZL11timer_alarmv+0x1c>)
 800076c:	681b      	ldr	r3, [r3, #0]
 800076e:	b10b      	cbz	r3, 8000774 <_ZL11timer_alarmv+0xc>
 8000770:	4798      	blx	r3
    else { if (millis() < 200) { debug_print("a? "); } }
}
 8000772:	bd08      	pop	{r3, pc}
    else { if (millis() < 200) { debug_print("a? "); } }
 8000774:	f002 fa2a 	bl	8002bcc <millis>
 8000778:	28c7      	cmp	r0, #199	; 0xc7
 800077a:	d8fa      	bhi.n	8000772 <_ZL11timer_alarmv+0xa>
 800077c:	4802      	ldr	r0, [pc, #8]	; (8000788 <_ZL11timer_alarmv+0x20>)
 800077e:	f002 f8a3 	bl	80028c8 <debug_print>
}
 8000782:	e7f6      	b.n	8000772 <_ZL11timer_alarmv+0xa>
 8000784:	20000154 	.word	0x20000154
 8000788:	080045bc 	.word	0x080045bc

0800078c <_ZL15poll_bootloaderv>:
    if (!bootloader_callback) { return; }
 800078c:	4b16      	ldr	r3, [pc, #88]	; (80007e8 <_ZL15poll_bootloaderv+0x5c>)
 800078e:	681b      	ldr	r3, [r3, #0]
 8000790:	b343      	cbz	r3, 80007e4 <_ZL15poll_bootloaderv+0x58>
static void poll_bootloader() {
 8000792:	b510      	push	{r4, lr}
    poll_status = bootloader_callback();
 8000794:	4798      	blx	r3
 8000796:	4b15      	ldr	r3, [pc, #84]	; (80007ec <_ZL15poll_bootloaderv+0x60>)
 8000798:	6018      	str	r0, [r3, #0]
    prev_poll_status = poll_status;
 800079a:	6819      	ldr	r1, [r3, #0]
 800079c:	4a14      	ldr	r2, [pc, #80]	; (80007f0 <_ZL15poll_bootloaderv+0x64>)
 800079e:	6011      	str	r1, [r2, #0]
    if (poll_status > 0) { debug_print("u{ "); }
 80007a0:	681b      	ldr	r3, [r3, #0]
 80007a2:	2b00      	cmp	r3, #0
 80007a4:	dc12      	bgt.n	80007cc <_ZL15poll_bootloaderv+0x40>
    while (poll_status > 0) {  //  If we receive any USB requests,,,
 80007a6:	4b11      	ldr	r3, [pc, #68]	; (80007ec <_ZL15poll_bootloaderv+0x60>)
 80007a8:	681b      	ldr	r3, [r3, #0]
 80007aa:	2b00      	cmp	r3, #0
 80007ac:	dd12      	ble.n	80007d4 <_ZL15poll_bootloaderv+0x48>
        poll_status = 0;       //  Continue polling a few times for subsequent USB requests.
 80007ae:	2400      	movs	r4, #0
 80007b0:	4b0e      	ldr	r3, [pc, #56]	; (80007ec <_ZL15poll_bootloaderv+0x60>)
 80007b2:	601c      	str	r4, [r3, #0]
        for (uint16_t i = 0; i < MAX_BURST_POLL; i++) {
 80007b4:	2c09      	cmp	r4, #9
 80007b6:	d8f6      	bhi.n	80007a6 <_ZL15poll_bootloaderv+0x1a>
            poll_status = poll_status | bootloader_callback();
 80007b8:	4b0b      	ldr	r3, [pc, #44]	; (80007e8 <_ZL15poll_bootloaderv+0x5c>)
 80007ba:	681b      	ldr	r3, [r3, #0]
 80007bc:	4798      	blx	r3
 80007be:	4a0b      	ldr	r2, [pc, #44]	; (80007ec <_ZL15poll_bootloaderv+0x60>)
 80007c0:	6813      	ldr	r3, [r2, #0]
 80007c2:	4318      	orrs	r0, r3
 80007c4:	6010      	str	r0, [r2, #0]
        for (uint16_t i = 0; i < MAX_BURST_POLL; i++) {
 80007c6:	3401      	adds	r4, #1
 80007c8:	b2a4      	uxth	r4, r4
 80007ca:	e7f3      	b.n	80007b4 <_ZL15poll_bootloaderv+0x28>
    if (poll_status > 0) { debug_print("u{ "); }
 80007cc:	4809      	ldr	r0, [pc, #36]	; (80007f4 <_ZL15poll_bootloaderv+0x68>)
 80007ce:	f002 f87b 	bl	80028c8 <debug_print>
 80007d2:	e7e8      	b.n	80007a6 <_ZL15poll_bootloaderv+0x1a>
    if (prev_poll_status > 0) { debug_print("} "); }
 80007d4:	4b06      	ldr	r3, [pc, #24]	; (80007f0 <_ZL15poll_bootloaderv+0x64>)
 80007d6:	681b      	ldr	r3, [r3, #0]
 80007d8:	2b00      	cmp	r3, #0
 80007da:	dd02      	ble.n	80007e2 <_ZL15poll_bootloaderv+0x56>
 80007dc:	4806      	ldr	r0, [pc, #24]	; (80007f8 <_ZL15poll_bootloaderv+0x6c>)
 80007de:	f002 f873 	bl	80028c8 <debug_print>
}
 80007e2:	bd10      	pop	{r4, pc}
 80007e4:	4770      	bx	lr
 80007e6:	bf00      	nop
 80007e8:	2000015c 	.word	0x2000015c
 80007ec:	2000014c 	.word	0x2000014c
 80007f0:	20000158 	.word	0x20000158
 80007f4:	080045c0 	.word	0x080045c0
 80007f8:	080045c4 	.word	0x080045c4

080007fc <_ZL10timer_tickv>:
static void timer_tick() {
 80007fc:	b508      	push	{r3, lr}
    poll_bootloader();
 80007fe:	f7ff ffc5 	bl	800078c <_ZL15poll_bootloaderv>
    if (tick_callback) { tick_callback(); }
 8000802:	4b03      	ldr	r3, [pc, #12]	; (8000810 <_ZL10timer_tickv+0x14>)
 8000804:	681b      	ldr	r3, [r3, #0]
 8000806:	b103      	cbz	r3, 800080a <_ZL10timer_tickv+0xe>
 8000808:	4798      	blx	r3
    os_tick();
 800080a:	f001 febc 	bl	8002586 <os_tick>
}
 800080e:	bd08      	pop	{r3, pc}
 8000810:	20000150 	.word	0x20000150

08000814 <_ZL11os_schedulev>:
    if (os_running()) { return; }  //  Already running.
    running = 1;
    os_enable_interrupts();
}

static void os_schedule( void ) {
 8000814:	b510      	push	{r4, lr}
    //  Call this to schedule a task.
    if (!os_running()) { return; }  //  Don't schedule if cocoOS scheduler is not started.
 8000816:	f001 fcff 	bl	8002218 <os_running>
 800081a:	b900      	cbnz	r0, 800081e <_ZL11os_schedulev+0xa>
        os_task_run();
    }
    else {
        os_cbkSleep();
    }
}
 800081c:	bd10      	pop	{r4, pc}
    running_tid = NO_TID;
 800081e:	4c07      	ldr	r4, [pc, #28]	; (800083c <_ZL11os_schedulev+0x28>)
 8000820:	23ff      	movs	r3, #255	; 0xff
 8000822:	7023      	strb	r3, [r4, #0]
    running_tid = os_task_highest_prio_ready_task();   
 8000824:	f001 fdac 	bl	8002380 <os_task_highest_prio_ready_task>
 8000828:	7020      	strb	r0, [r4, #0]
    if ( running_tid != NO_TID ) {
 800082a:	28ff      	cmp	r0, #255	; 0xff
 800082c:	d002      	beq.n	8000834 <_ZL11os_schedulev+0x20>
        os_task_run();
 800082e:	f001 fe79 	bl	8002524 <os_task_run>
 8000832:	e7f3      	b.n	800081c <_ZL11os_schedulev+0x8>
        os_cbkSleep();
 8000834:	f001 fea6 	bl	8002584 <os_cbkSleep>
 8000838:	e7f0      	b.n	800081c <_ZL11os_schedulev+0x8>
 800083a:	bf00      	nop
 800083c:	20000838 	.word	0x20000838

08000840 <target_init>:
void target_init(void) {
 8000840:	b508      	push	{r3, lr}
    if (initialised) { return; }  //  Already initialised, skip.
 8000842:	4b08      	ldr	r3, [pc, #32]	; (8000864 <target_init+0x24>)
 8000844:	781b      	ldrb	r3, [r3, #0]
 8000846:	b103      	cbz	r3, 800084a <target_init+0xa>
}
 8000848:	bd08      	pop	{r3, pc}
    initialised = true;
 800084a:	4b06      	ldr	r3, [pc, #24]	; (8000864 <target_init+0x24>)
 800084c:	2201      	movs	r2, #1
 800084e:	701a      	strb	r2, [r3, #0]
    platform_setup();  //  STM32 platform setup.
 8000850:	f002 f894 	bl	800297c <platform_setup>
    os_init();         //  Init cocoOS before creating any multitasking objects.
 8000854:	f001 fcc8 	bl	80021e8 <os_init>
    platform_start_timer(timer_tick, timer_alarm);
 8000858:	4903      	ldr	r1, [pc, #12]	; (8000868 <target_init+0x28>)
 800085a:	4804      	ldr	r0, [pc, #16]	; (800086c <target_init+0x2c>)
 800085c:	f002 f96e 	bl	8002b3c <platform_start_timer>
 8000860:	e7f2      	b.n	8000848 <target_init+0x8>
 8000862:	bf00      	nop
 8000864:	20000164 	.word	0x20000164
 8000868:	08000769 	.word	0x08000769
 800086c:	080007fd 	.word	0x080007fd

08000870 <target_wait_for_event>:
    if (!initialised) { return; }  //  If not initialised, quit.
 8000870:	4b02      	ldr	r3, [pc, #8]	; (800087c <target_wait_for_event+0xc>)
 8000872:	781b      	ldrb	r3, [r3, #0]
 8000874:	b103      	cbz	r3, 8000878 <target_wait_for_event+0x8>
    __asm("wfe");  //  Allow CPU to go to sleep.
 8000876:	bf20      	wfe
}
 8000878:	4770      	bx	lr
 800087a:	bf00      	nop
 800087c:	20000164 	.word	0x20000164

08000880 <target_wait>:
    if (milliseconds <= 0) { return; }
 8000880:	b310      	cbz	r0, 80008c8 <target_wait+0x48>
void target_wait(uint32_t milliseconds) {
 8000882:	b510      	push	{r4, lr}
 8000884:	4604      	mov	r4, r0
    if (!initialised) { return; }  //  If not initialised, quit.
 8000886:	4b11      	ldr	r3, [pc, #68]	; (80008cc <target_wait+0x4c>)
 8000888:	781b      	ldrb	r3, [r3, #0]
 800088a:	b903      	cbnz	r3, 800088e <target_wait+0xe>
}
 800088c:	bd10      	pop	{r4, pc}
    debug_print("wt <"); debug_print_unsigned(milliseconds / 1000);
 800088e:	4810      	ldr	r0, [pc, #64]	; (80008d0 <target_wait+0x50>)
 8000890:	f002 f81a 	bl	80028c8 <debug_print>
 8000894:	480f      	ldr	r0, [pc, #60]	; (80008d4 <target_wait+0x54>)
 8000896:	fba0 3004 	umull	r3, r0, r0, r4
 800089a:	0980      	lsrs	r0, r0, #6
 800089c:	f002 f824 	bl	80028e8 <debug_print_unsigned>
    uint32_t end = millis() + milliseconds;
 80008a0:	f002 f994 	bl	8002bcc <millis>
 80008a4:	4404      	add	r4, r0
 80008a6:	e000      	b.n	80008aa <target_wait+0x2a>
        __asm("wfe");  //  Allow CPU to go to sleep.
 80008a8:	bf20      	wfe
        if (millis() >= end) { break; }
 80008aa:	f002 f98f 	bl	8002bcc <millis>
 80008ae:	42a0      	cmp	r0, r4
 80008b0:	d206      	bcs.n	80008c0 <target_wait+0x40>
        if (os_running()) { os_schedule(); }  //  Schedule a cocoOS task to run.
 80008b2:	f001 fcb1 	bl	8002218 <os_running>
 80008b6:	2800      	cmp	r0, #0
 80008b8:	d0f6      	beq.n	80008a8 <target_wait+0x28>
 80008ba:	f7ff ffab 	bl	8000814 <_ZL11os_schedulev>
 80008be:	e7f3      	b.n	80008a8 <target_wait+0x28>
    debug_print("> ");
 80008c0:	4805      	ldr	r0, [pc, #20]	; (80008d8 <target_wait+0x58>)
 80008c2:	f002 f801 	bl	80028c8 <debug_print>
 80008c6:	e7e1      	b.n	800088c <target_wait+0xc>
 80008c8:	4770      	bx	lr
 80008ca:	bf00      	nop
 80008cc:	20000164 	.word	0x20000164
 80008d0:	080045dc 	.word	0x080045dc
 80008d4:	10624dd3 	.word	0x10624dd3
 80008d8:	080045e4 	.word	0x080045e4

080008dc <target_wait_us>:
void target_wait_us(unsigned long microseconds) {
 80008dc:	b508      	push	{r3, lr}
    return target_wait(microseconds / 1000);
 80008de:	4b03      	ldr	r3, [pc, #12]	; (80008ec <target_wait_us+0x10>)
 80008e0:	fba3 3000 	umull	r3, r0, r3, r0
 80008e4:	0980      	lsrs	r0, r0, #6
 80008e6:	f7ff ffcb 	bl	8000880 <target_wait>
}
 80008ea:	bd08      	pop	{r3, pc}
 80008ec:	10624dd3 	.word	0x10624dd3

080008f0 <target_panic>:
void target_panic(int statusCode) {
 80008f0:	b508      	push	{r3, lr}
 80008f2:	4604      	mov	r4, r0
    target_disable_irq();
 80008f4:	f000 f85e 	bl	80009b4 <target_disable_irq>
	debug_print("*****target_panic ");
 80008f8:	4804      	ldr	r0, [pc, #16]	; (800090c <target_panic+0x1c>)
 80008fa:	f001 ffe5 	bl	80028c8 <debug_print>
	debug_println((int) statusCode);
 80008fe:	4620      	mov	r0, r4
 8000900:	f001 ffc4 	bl	800288c <_Z13debug_printlni>
	debug_flush();
 8000904:	f001 ffdb 	bl	80028be <debug_flush>
        __asm("wfe");  //  Allow CPU to go to sleep.
 8000908:	bf20      	wfe
 800090a:	e7fd      	b.n	8000908 <target_panic+0x18>
 800090c:	080045c8 	.word	0x080045c8

08000910 <fiber_initial_stack_base>:
}
 8000910:	4800      	ldr	r0, [pc, #0]	; (8000914 <fiber_initial_stack_base+0x4>)
 8000912:	4770      	bx	lr
 8000914:	20005000 	.word	0x20005000

08000918 <test_codal>:
void test_codal() {
 8000918:	b538      	push	{r3, r4, r5, lr}
	PROCESSOR_WORD_TYPE start = (PROCESSOR_WORD_TYPE)(codal_heap_start); 
 800091a:	4b15      	ldr	r3, [pc, #84]	; (8000970 <test_codal+0x58>)
 800091c:	681d      	ldr	r5, [r3, #0]
	PROCESSOR_WORD_TYPE size = end - start;
 800091e:	f1c5 5400 	rsb	r4, r5, #536870912	; 0x20000000
 8000922:	f504 4490 	add.w	r4, r4, #18432	; 0x4800
	debug_print("heap start: "); debug_printhex_unsigned((size_t) start);
 8000926:	4813      	ldr	r0, [pc, #76]	; (8000974 <test_codal+0x5c>)
 8000928:	f001 ffce 	bl	80028c8 <debug_print>
 800092c:	4628      	mov	r0, r5
 800092e:	f002 f817 	bl	8002960 <debug_printhex_unsigned>
	debug_print(", end: ");      debug_printhex_unsigned((size_t) end);
 8000932:	4811      	ldr	r0, [pc, #68]	; (8000978 <test_codal+0x60>)
 8000934:	f001 ffc8 	bl	80028c8 <debug_print>
 8000938:	4810      	ldr	r0, [pc, #64]	; (800097c <test_codal+0x64>)
 800093a:	f002 f811 	bl	8002960 <debug_printhex_unsigned>
	debug_print(", size: ");     debug_print((size_t) (size >> 10));
 800093e:	4810      	ldr	r0, [pc, #64]	; (8000980 <test_codal+0x68>)
 8000940:	f001 ffc2 	bl	80028c8 <debug_print>
 8000944:	0aa0      	lsrs	r0, r4, #10
 8000946:	f001 ff35 	bl	80027b4 <_Z11debug_printj>
	debug_print(" KB, stack used: "); debug_print((size_t) 
 800094a:	480e      	ldr	r0, [pc, #56]	; (8000984 <test_codal+0x6c>)
 800094c:	f001 ffbc 	bl	80028c8 <debug_print>
        ((PROCESSOR_WORD_TYPE)(DEVICE_STACK_BASE) - get_current_sp()) >> 10);
 8000950:	f000 f83f 	bl	80009d2 <get_current_sp>
 8000954:	f1c0 5000 	rsb	r0, r0, #536870912	; 0x20000000
 8000958:	f500 40a0 	add.w	r0, r0, #20480	; 0x5000
	debug_print(" KB, stack used: "); debug_print((size_t) 
 800095c:	0a80      	lsrs	r0, r0, #10
 800095e:	f001 ff29 	bl	80027b4 <_Z11debug_printj>
    debug_println(" KB"); debug_flush();
 8000962:	4809      	ldr	r0, [pc, #36]	; (8000988 <test_codal+0x70>)
 8000964:	f001 ff84 	bl	8002870 <debug_println>
 8000968:	f001 ffa9 	bl	80028be <debug_flush>
}
 800096c:	bd38      	pop	{r3, r4, r5, pc}
 800096e:	bf00      	nop
 8000970:	20000004 	.word	0x20000004
 8000974:	080045e8 	.word	0x080045e8
 8000978:	080045f8 	.word	0x080045f8
 800097c:	20004800 	.word	0x20004800
 8000980:	08004600 	.word	0x08004600
 8000984:	0800460c 	.word	0x0800460c
 8000988:	08004620 	.word	0x08004620

0800098c <target_set_tick_callback>:
    tick_callback = tick_callback0;
 800098c:	4b01      	ldr	r3, [pc, #4]	; (8000994 <target_set_tick_callback+0x8>)
 800098e:	6018      	str	r0, [r3, #0]
}
 8000990:	4770      	bx	lr
 8000992:	bf00      	nop
 8000994:	20000150 	.word	0x20000150

08000998 <target_set_alarm_callback>:
    alarm_callback = alarm_callback0;
 8000998:	4b01      	ldr	r3, [pc, #4]	; (80009a0 <target_set_alarm_callback+0x8>)
 800099a:	6018      	str	r0, [r3, #0]
}
 800099c:	4770      	bx	lr
 800099e:	bf00      	nop
 80009a0:	20000154 	.word	0x20000154

080009a4 <target_set_bootloader_callback>:
    bootloader_callback = bootloader_callback0;
 80009a4:	4b01      	ldr	r3, [pc, #4]	; (80009ac <target_set_bootloader_callback+0x8>)
 80009a6:	6018      	str	r0, [r3, #0]
}
 80009a8:	4770      	bx	lr
 80009aa:	bf00      	nop
 80009ac:	2000015c 	.word	0x2000015c

080009b0 <target_enable_irq>:
 *
 * Disable the interrupt mask and enable interrupts globally
 */
static inline void cm_enable_interrupts(void)
{
	__asm__("CPSIE I\n");
 80009b0:	b662      	cpsie	i
}
 80009b2:	4770      	bx	lr

080009b4 <target_disable_irq>:
 *
 * Mask all interrupts globally
 */
static inline void cm_disable_interrupts(void)
{
	__asm__("CPSID I\n");
 80009b4:	b672      	cpsid	i
}
 80009b6:	4770      	bx	lr

080009b8 <tcb_allocate>:
void *tcb_allocate() {
 80009b8:	b508      	push	{r3, lr}
    return (void *)malloc(sizeof(PROCESSOR_TCB));
 80009ba:	2040      	movs	r0, #64	; 0x40
 80009bc:	f006 feb4 	bl	8007728 <device_malloc>
}
 80009c0:	bd08      	pop	{r3, pc}

080009c2 <tcb_configure_lr>:
    tcbPointer->LR = function;
 80009c2:	6381      	str	r1, [r0, #56]	; 0x38
}
 80009c4:	4770      	bx	lr

080009c6 <tcb_configure_sp>:
    tcbPointer->SP = sp;
 80009c6:	6341      	str	r1, [r0, #52]	; 0x34
}
 80009c8:	4770      	bx	lr

080009ca <tcb_configure_stack_base>:
    tcbPointer->stack_base = stack_base;
 80009ca:	63c1      	str	r1, [r0, #60]	; 0x3c
}
 80009cc:	4770      	bx	lr

080009ce <tcb_get_stack_base>:
}
 80009ce:	6bc0      	ldr	r0, [r0, #60]	; 0x3c
 80009d0:	4770      	bx	lr

080009d2 <get_current_sp>:
}
 80009d2:	4668      	mov	r0, sp
 80009d4:	4770      	bx	lr

080009d6 <tcb_get_sp>:
}
 80009d6:	6b40      	ldr	r0, [r0, #52]	; 0x34
 80009d8:	4770      	bx	lr

080009da <tcb_configure_args>:
    tcbPointer->R0 = (uint32_t)ep;
 80009da:	6001      	str	r1, [r0, #0]
    tcbPointer->R1 = (uint32_t)cp;
 80009dc:	6042      	str	r2, [r0, #4]
    tcbPointer->R2 = (uint32_t)pm;
 80009de:	6083      	str	r3, [r0, #8]
}
 80009e0:	4770      	bx	lr

080009e2 <_fini>:
    void _fini(void) { }
 80009e2:	4770      	bx	lr

080009e4 <__aeabi_atexit>:
    }
 80009e4:	2000      	movs	r0, #0
 80009e6:	4770      	bx	lr

080009e8 <target_enable_debug>:
void target_enable_debug(void) {
 80009e8:	b508      	push	{r3, lr}
    enable_debug();   
 80009ea:	f001 ffed 	bl	80029c8 <enable_debug>
}
 80009ee:	bd08      	pop	{r3, pc}

080009f0 <swap_context>:

    @ Write our core registers into the TCB
    @ First, store the general registers

    @ Skip this is we're given a NULL parameter for the TCB
    CMP     R0, #0
 80009f0:	2800      	cmp	r0, #0
    BEQ     store_context_complete
 80009f2:	d015      	beq.n	8000a20 <store_context_complete>

    STR     R0, [R0,#0]
 80009f4:	6000      	str	r0, [r0, #0]
    STR     R1, [R0,#4]
 80009f6:	6041      	str	r1, [r0, #4]
    STR     R2, [R0,#8]
 80009f8:	6082      	str	r2, [r0, #8]
    STR     R3, [R0,#12]
 80009fa:	60c3      	str	r3, [r0, #12]
    STR     R4, [R0,#16]
 80009fc:	6104      	str	r4, [r0, #16]
    STR     R5, [R0,#20]
 80009fe:	6145      	str	r5, [r0, #20]
    STR     R6, [R0,#24]
 8000a00:	6186      	str	r6, [r0, #24]
    STR     R7, [R0,#28]
 8000a02:	61c7      	str	r7, [r0, #28]

    @ Now the high general purpose registers
    MOV     R4, R8
 8000a04:	4644      	mov	r4, r8
    STR     R4, [R0,#32]
 8000a06:	6204      	str	r4, [r0, #32]
    MOV     R4, R9
 8000a08:	464c      	mov	r4, r9
    STR     R4, [R0,#36]
 8000a0a:	6244      	str	r4, [r0, #36]	; 0x24
    MOV     R4, R10
 8000a0c:	4654      	mov	r4, sl
    STR     R4, [R0,#40]
 8000a0e:	6284      	str	r4, [r0, #40]	; 0x28
    MOV     R4, R11
 8000a10:	465c      	mov	r4, fp
    STR     R4, [R0,#44]
 8000a12:	62c4      	str	r4, [r0, #44]	; 0x2c
    MOV     R4, R12
 8000a14:	4664      	mov	r4, ip
    STR     R4, [R0,#48]
 8000a16:	6304      	str	r4, [r0, #48]	; 0x30

    @ Now the Stack and Link Register.
    @ As this context is only intended for use with a fiber scheduler,
    @ we don't need the PC.
    MOV     R6, SP
 8000a18:	466e      	mov	r6, sp
    STR     R6, [R0,#52]
 8000a1a:	6346      	str	r6, [r0, #52]	; 0x34
    MOV     R4, LR
 8000a1c:	4674      	mov	r4, lr
    STR     R4, [R0,#56]
 8000a1e:	6384      	str	r4, [r0, #56]	; 0x38

08000a20 <store_context_complete>:
store_context_complete:
    @ Finally, Copy the stack. We do this to reduce RAM footprint, as stack is usually very small at the point
    @ of scheduling, but we need a lot of capacity for interrupt handling and other functions.

    @ Skip this is we're given a NULL parameter for the stack.
    CMP     R1, #0
 8000a20:	2900      	cmp	r1, #0
    BEQ     store_stack_complete
 8000a22:	d006      	beq.n	8000a32 <store_stack_complete>

    LDR     R4, [R0,#60]         @ Load R4 with the fiber's defined stack_base.
 8000a24:	6bc4      	ldr	r4, [r0, #60]	; 0x3c

08000a26 <store_stack>:
store_stack:
    SUBS    R4, #4
 8000a26:	3c04      	subs	r4, #4
    SUBS    R1, #4
 8000a28:	3904      	subs	r1, #4

    LDR     R5, [R4]
 8000a2a:	6825      	ldr	r5, [r4, #0]
    STR     R5, [R1]
 8000a2c:	600d      	str	r5, [r1, #0]

    CMP     R4, R6
 8000a2e:	42b4      	cmp	r4, r6
    BNE     store_stack
 8000a30:	d1f9      	bne.n	8000a26 <store_stack>

08000a32 <store_stack_complete>:

    @
    @ Now page in the new context.
    @ Update all registers except the PC. We can also safely ignore the STATUS register, as we're just a fiber scheduler.
    @
    LDR     R4, [R2, #56]
 8000a32:	6b94      	ldr	r4, [r2, #56]	; 0x38
    MOV     LR, R4
 8000a34:	46a6      	mov	lr, r4
    LDR     R6, [R2, #52]
 8000a36:	6b56      	ldr	r6, [r2, #52]	; 0x34
    MOV     SP, R6
 8000a38:	46b5      	mov	sp, r6

    @ Copy the stack in.
    @ n.b. we do this after setting the SP to make comparisons easier.

    @ Skip this is we're given a NULL parameter for the stack.
    CMP     R3, #0
 8000a3a:	2b00      	cmp	r3, #0
    BEQ     restore_stack_complete
 8000a3c:	d006      	beq.n	8000a4c <restore_stack_complete>

    LDR     R4, [R2,#60]         @ Load R4 with the fiber's defined stack_base.
 8000a3e:	6bd4      	ldr	r4, [r2, #60]	; 0x3c

08000a40 <restore_stack>:

restore_stack:
    SUBS    R4, #4
 8000a40:	3c04      	subs	r4, #4
    SUBS    R3, #4
 8000a42:	3b04      	subs	r3, #4

    LDR     R5, [R3]
 8000a44:	681d      	ldr	r5, [r3, #0]
    STR     R5, [R4]
 8000a46:	6025      	str	r5, [r4, #0]

    CMP     R4, R6
 8000a48:	42b4      	cmp	r4, r6
    BNE     restore_stack
 8000a4a:	d1f9      	bne.n	8000a40 <restore_stack>

08000a4c <restore_stack_complete>:

restore_stack_complete:
    LDR     R4, [R2, #48]
 8000a4c:	6b14      	ldr	r4, [r2, #48]	; 0x30
    MOV     R12, R4
 8000a4e:	46a4      	mov	ip, r4
    LDR     R4, [R2, #44]
 8000a50:	6ad4      	ldr	r4, [r2, #44]	; 0x2c
    MOV     R11, R4
 8000a52:	46a3      	mov	fp, r4
    LDR     R4, [R2, #40]
 8000a54:	6a94      	ldr	r4, [r2, #40]	; 0x28
    MOV     R10, R4
 8000a56:	46a2      	mov	sl, r4
    LDR     R4, [R2, #36]
 8000a58:	6a54      	ldr	r4, [r2, #36]	; 0x24
    MOV     R9, R4
 8000a5a:	46a1      	mov	r9, r4
    LDR     R4, [R2, #32]
 8000a5c:	6a14      	ldr	r4, [r2, #32]
    MOV     R8, R4
 8000a5e:	46a0      	mov	r8, r4

    LDR     R7, [R2, #28]
 8000a60:	69d7      	ldr	r7, [r2, #28]
    LDR     R6, [R2, #24]
 8000a62:	6996      	ldr	r6, [r2, #24]
    LDR     R5, [R2, #20]
 8000a64:	6955      	ldr	r5, [r2, #20]
    LDR     R4, [R2, #16]
 8000a66:	6914      	ldr	r4, [r2, #16]
    LDR     R3, [R2, #12]
 8000a68:	68d3      	ldr	r3, [r2, #12]
    LDR     R1, [R2, #4]
 8000a6a:	6851      	ldr	r1, [r2, #4]
    LDR     R0, [R2, #0]
 8000a6c:	6810      	ldr	r0, [r2, #0]
    LDR     R2, [R2, #8]
 8000a6e:	6892      	ldr	r2, [r2, #8]

    @ Return to caller (scheduler).
    BX      LR
 8000a70:	4770      	bx	lr

08000a72 <save_context>:
save_context:

    @ Write our core registers into the TCB
    @ First, store the general registers

    STR     R0, [R0,#0]
 8000a72:	6000      	str	r0, [r0, #0]
    STR     R1, [R0,#4]
 8000a74:	6041      	str	r1, [r0, #4]
    STR     R2, [R0,#8]
 8000a76:	6082      	str	r2, [r0, #8]
    STR     R3, [R0,#12]
 8000a78:	60c3      	str	r3, [r0, #12]
    STR     R4, [R0,#16]
 8000a7a:	6104      	str	r4, [r0, #16]
    STR     R5, [R0,#20]
 8000a7c:	6145      	str	r5, [r0, #20]
    STR     R6, [R0,#24]
 8000a7e:	6186      	str	r6, [r0, #24]
    STR     R7, [R0,#28]
 8000a80:	61c7      	str	r7, [r0, #28]

    @ Now the high general purpose registers
    MOV     R4, R8
 8000a82:	4644      	mov	r4, r8
    STR     R4, [R0,#32]
 8000a84:	6204      	str	r4, [r0, #32]
    MOV     R4, R9
 8000a86:	464c      	mov	r4, r9
    STR     R4, [R0,#36]
 8000a88:	6244      	str	r4, [r0, #36]	; 0x24
    MOV     R4, R10
 8000a8a:	4654      	mov	r4, sl
    STR     R4, [R0,#40]
 8000a8c:	6284      	str	r4, [r0, #40]	; 0x28
    MOV     R4, R11
 8000a8e:	465c      	mov	r4, fp
    STR     R4, [R0,#44]
 8000a90:	62c4      	str	r4, [r0, #44]	; 0x2c
    MOV     R4, R12
 8000a92:	4664      	mov	r4, ip
    STR     R4, [R0,#48]
 8000a94:	6304      	str	r4, [r0, #48]	; 0x30

    @ Now the Stack and Link Register.
    @ As this context is only intended for use with a fiber scheduler,
    @ we don't need the PC.
    MOV     R6, SP
 8000a96:	466e      	mov	r6, sp
    STR     R6, [R0,#52]
 8000a98:	6346      	str	r6, [r0, #52]	; 0x34
    MOV     R4, LR
 8000a9a:	4674      	mov	r4, lr
    STR     R4, [R0,#56]
 8000a9c:	6384      	str	r4, [r0, #56]	; 0x38

    @ Finally, Copy the stack. We do this to reduce RAM footprint, as stackis usually very small at the point
    @ of sceduling, but we need a lot of capacity for interrupt handling and other functions.

    LDR     R4, [R0,#60]         @ Load R4 with the fiber's defined stack_base.
 8000a9e:	6bc4      	ldr	r4, [r0, #60]	; 0x3c

08000aa0 <store_stack1>:

store_stack1:
    SUBS    R4, #4
 8000aa0:	3c04      	subs	r4, #4
    SUBS    R1, #4
 8000aa2:	3904      	subs	r1, #4

    LDR     R5, [R4]
 8000aa4:	6825      	ldr	r5, [r4, #0]
    STR     R5, [R1]
 8000aa6:	600d      	str	r5, [r1, #0]

    CMP     R4, R6
 8000aa8:	42b4      	cmp	r4, r6
    BNE     store_stack1
 8000aaa:	d1f9      	bne.n	8000aa0 <store_stack1>

    @ Restore scratch registers.

    LDR     R7, [R0, #28]
 8000aac:	69c7      	ldr	r7, [r0, #28]
    LDR     R6, [R0, #24]
 8000aae:	6986      	ldr	r6, [r0, #24]
    LDR     R5, [R0, #20]
 8000ab0:	6945      	ldr	r5, [r0, #20]
    LDR     R4, [R0, #16]
 8000ab2:	6904      	ldr	r4, [r0, #16]

    @ Return to caller (scheduler).
    BX      LR
 8000ab4:	4770      	bx	lr

08000ab6 <save_register_context>:
save_register_context:

    @ Write our core registers into the TCB
    @ First, store the general registers

    STR     R0, [R0,#0]
 8000ab6:	6000      	str	r0, [r0, #0]
    STR     R1, [R0,#4]
 8000ab8:	6041      	str	r1, [r0, #4]
    STR     R2, [R0,#8]
 8000aba:	6082      	str	r2, [r0, #8]
    STR     R3, [R0,#12]
 8000abc:	60c3      	str	r3, [r0, #12]
    STR     R4, [R0,#16]
 8000abe:	6104      	str	r4, [r0, #16]
    STR     R5, [R0,#20]
 8000ac0:	6145      	str	r5, [r0, #20]
    STR     R6, [R0,#24]
 8000ac2:	6186      	str	r6, [r0, #24]
    STR     R7, [R0,#28]
 8000ac4:	61c7      	str	r7, [r0, #28]

    @ Now the high general purpose registers
    MOV     R4, R8
 8000ac6:	4644      	mov	r4, r8
    STR     R4, [R0,#32]
 8000ac8:	6204      	str	r4, [r0, #32]
    MOV     R4, R9
 8000aca:	464c      	mov	r4, r9
    STR     R4, [R0,#36]
 8000acc:	6244      	str	r4, [r0, #36]	; 0x24
    MOV     R4, R10
 8000ace:	4654      	mov	r4, sl
    STR     R4, [R0,#40]
 8000ad0:	6284      	str	r4, [r0, #40]	; 0x28
    MOV     R4, R11
 8000ad2:	465c      	mov	r4, fp
    STR     R4, [R0,#44]
 8000ad4:	62c4      	str	r4, [r0, #44]	; 0x2c
    MOV     R4, R12
 8000ad6:	4664      	mov	r4, ip
    STR     R4, [R0,#48]
 8000ad8:	6304      	str	r4, [r0, #48]	; 0x30

    @ Now the Stack Pointer and Link Register.
    @ As this context is only intended for use with a fiber scheduler,
    @ we don't need the PC.
    MOV     R4, SP
 8000ada:	466c      	mov	r4, sp
    STR     R4, [R0,#52]
 8000adc:	6344      	str	r4, [r0, #52]	; 0x34
    MOV     R4, LR
 8000ade:	4674      	mov	r4, lr
    STR     R4, [R0,#56]
 8000ae0:	6384      	str	r4, [r0, #56]	; 0x38

    @ Restore scratch registers.
    LDR     R4, [R0, #16]
 8000ae2:	6904      	ldr	r4, [r0, #16]

    @ Return to caller (scheduler).
    BX      LR
 8000ae4:	4770      	bx	lr

08000ae6 <restore_register_context>:

    @
    @ Now page in the new context.
    @ Update all registers except the PC. We can also safely ignore the STATUS register, as we're just a fiber scheduler.
    @
    LDR     R4, [R0, #56]
 8000ae6:	6b84      	ldr	r4, [r0, #56]	; 0x38
    MOV     LR, R4
 8000ae8:	46a6      	mov	lr, r4
    LDR     R4, [R0, #52]
 8000aea:	6b44      	ldr	r4, [r0, #52]	; 0x34
    MOV     SP, R4
 8000aec:	46a5      	mov	sp, r4

    @ High registers...
    LDR     R4, [R0, #48]
 8000aee:	6b04      	ldr	r4, [r0, #48]	; 0x30
    MOV     R12, R4
 8000af0:	46a4      	mov	ip, r4
    LDR     R4, [R0, #44]
 8000af2:	6ac4      	ldr	r4, [r0, #44]	; 0x2c
    MOV     R11, R4
 8000af4:	46a3      	mov	fp, r4
    LDR     R4, [R0, #40]
 8000af6:	6a84      	ldr	r4, [r0, #40]	; 0x28
    MOV     R10, R4
 8000af8:	46a2      	mov	sl, r4
    LDR     R4, [R0, #36]
 8000afa:	6a44      	ldr	r4, [r0, #36]	; 0x24
    MOV     R9, R4
 8000afc:	46a1      	mov	r9, r4
    LDR     R4, [R0, #32]
 8000afe:	6a04      	ldr	r4, [r0, #32]
    MOV     R8, R4
 8000b00:	46a0      	mov	r8, r4

    @ Low registers...
    LDR     R7, [R0, #28]
 8000b02:	69c7      	ldr	r7, [r0, #28]
    LDR     R6, [R0, #24]
 8000b04:	6986      	ldr	r6, [r0, #24]
    LDR     R5, [R0, #20]
 8000b06:	6945      	ldr	r5, [r0, #20]
    LDR     R4, [R0, #16]
 8000b08:	6904      	ldr	r4, [r0, #16]
    LDR     R3, [R0, #12]
 8000b0a:	68c3      	ldr	r3, [r0, #12]
    LDR     R2, [R0, #8]
 8000b0c:	6882      	ldr	r2, [r0, #8]
    LDR     R0, [R0, #0]
 8000b0e:	6800      	ldr	r0, [r0, #0]
    LDR     R1, [R0, #4]
 8000b10:	6841      	ldr	r1, [r0, #4]

    @ Return to caller (normally the scheduler).
    BX      LR
 8000b12:	4770      	bx	lr

08000b14 <desig_get_unique_id>:
	return DESIG_FLASH_SIZE;
}

void desig_get_unique_id(uint32_t result[])
{
	result[0] = DESIG_UNIQUE_ID2;
 8000b14:	4b04      	ldr	r3, [pc, #16]	; (8000b28 <desig_get_unique_id+0x14>)
 8000b16:	681b      	ldr	r3, [r3, #0]
 8000b18:	6003      	str	r3, [r0, #0]
	result[1] = DESIG_UNIQUE_ID1;
 8000b1a:	4b04      	ldr	r3, [pc, #16]	; (8000b2c <desig_get_unique_id+0x18>)
 8000b1c:	681b      	ldr	r3, [r3, #0]
 8000b1e:	6043      	str	r3, [r0, #4]
	result[2] = DESIG_UNIQUE_ID0;
 8000b20:	4b03      	ldr	r3, [pc, #12]	; (8000b30 <desig_get_unique_id+0x1c>)
 8000b22:	681b      	ldr	r3, [r3, #0]
 8000b24:	6083      	str	r3, [r0, #8]
}
 8000b26:	4770      	bx	lr
 8000b28:	1ffff7f0 	.word	0x1ffff7f0
 8000b2c:	1ffff7ec 	.word	0x1ffff7ec
 8000b30:	1ffff7e8 	.word	0x1ffff7e8

08000b34 <desig_get_unique_id_as_string>:

void desig_get_unique_id_as_string(char *string,
				   unsigned int string_len)
{
 8000b34:	b570      	push	{r4, r5, r6, lr}
 8000b36:	b084      	sub	sp, #16
 8000b38:	4604      	mov	r4, r0
 8000b3a:	460d      	mov	r5, r1
	int i, len;
	uint8_t device_id[12];
	static const char chars[] = "0123456789ABCDEF";

	desig_get_unique_id((uint32_t *)device_id);
 8000b3c:	a801      	add	r0, sp, #4
 8000b3e:	f7ff ffe9 	bl	8000b14 <desig_get_unique_id>

	/* Each byte produces two characters */
	len = (2 * sizeof(device_id) < string_len) ?
		2 * sizeof(device_id) : string_len - 1;
 8000b42:	2d19      	cmp	r5, #25
 8000b44:	bf28      	it	cs
 8000b46:	2519      	movcs	r5, #25
 8000b48:	1e69      	subs	r1, r5, #1
	len = (2 * sizeof(device_id) < string_len) ?
 8000b4a:	460e      	mov	r6, r1

	for (i = 0; i < len; i += 2) {
 8000b4c:	2300      	movs	r3, #0
 8000b4e:	e010      	b.n	8000b72 <desig_get_unique_id_as_string+0x3e>
		string[i]     = chars[(device_id[i / 2] >> 4) & 0x0F];
 8000b50:	eb03 72d3 	add.w	r2, r3, r3, lsr #31
 8000b54:	a804      	add	r0, sp, #16
 8000b56:	eb00 0262 	add.w	r2, r0, r2, asr #1
 8000b5a:	f812 2c0c 	ldrb.w	r2, [r2, #-12]
 8000b5e:	0915      	lsrs	r5, r2, #4
 8000b60:	4807      	ldr	r0, [pc, #28]	; (8000b80 <desig_get_unique_id_as_string+0x4c>)
 8000b62:	5d45      	ldrb	r5, [r0, r5]
 8000b64:	54e5      	strb	r5, [r4, r3]
		string[i + 1] = chars[(device_id[i / 2] >> 0) & 0x0F];
 8000b66:	f002 020f 	and.w	r2, r2, #15
 8000b6a:	1c5d      	adds	r5, r3, #1
 8000b6c:	5c82      	ldrb	r2, [r0, r2]
 8000b6e:	5562      	strb	r2, [r4, r5]
	for (i = 0; i < len; i += 2) {
 8000b70:	3302      	adds	r3, #2
 8000b72:	42b3      	cmp	r3, r6
 8000b74:	dbec      	blt.n	8000b50 <desig_get_unique_id_as_string+0x1c>
	}

	string[len] = '\0';
 8000b76:	2300      	movs	r3, #0
 8000b78:	5463      	strb	r3, [r4, r1]
}
 8000b7a:	b004      	add	sp, #16
 8000b7c:	bd70      	pop	{r4, r5, r6, pc}
 8000b7e:	bf00      	nop
 8000b80:	08004624 	.word	0x08004624

08000b84 <rcc_wait_for_osc_ready>:
@param[in] osc enum ::osc_t. Oscillator ID
*/

void rcc_wait_for_osc_ready(enum rcc_osc osc)
{
	switch (osc) {
 8000b84:	2806      	cmp	r0, #6
 8000b86:	d82e      	bhi.n	8000be6 <rcc_wait_for_osc_ready+0x62>
 8000b88:	e8df f000 	tbb	[pc, r0]
 8000b8c:	16100a04 	.word	0x16100a04
 8000b90:	221c      	.short	0x221c
 8000b92:	28          	.byte	0x28
 8000b93:	00          	.byte	0x00
	case PLL:
		while ((RCC_CR & RCC_CR_PLLRDY) == 0);
 8000b94:	4b14      	ldr	r3, [pc, #80]	; (8000be8 <rcc_wait_for_osc_ready+0x64>)
 8000b96:	681b      	ldr	r3, [r3, #0]
 8000b98:	f013 7f00 	tst.w	r3, #33554432	; 0x2000000
 8000b9c:	d0fa      	beq.n	8000b94 <rcc_wait_for_osc_ready+0x10>
 8000b9e:	4770      	bx	lr
		break;
	case PLL2:
		while ((RCC_CR & RCC_CR_PLL2RDY) == 0);
 8000ba0:	4b11      	ldr	r3, [pc, #68]	; (8000be8 <rcc_wait_for_osc_ready+0x64>)
 8000ba2:	681b      	ldr	r3, [r3, #0]
 8000ba4:	f013 6f00 	tst.w	r3, #134217728	; 0x8000000
 8000ba8:	d0fa      	beq.n	8000ba0 <rcc_wait_for_osc_ready+0x1c>
 8000baa:	4770      	bx	lr
		break;
	case PLL3:
		while ((RCC_CR & RCC_CR_PLL3RDY) == 0);
 8000bac:	4b0e      	ldr	r3, [pc, #56]	; (8000be8 <rcc_wait_for_osc_ready+0x64>)
 8000bae:	681b      	ldr	r3, [r3, #0]
 8000bb0:	f013 5f00 	tst.w	r3, #536870912	; 0x20000000
 8000bb4:	d0fa      	beq.n	8000bac <rcc_wait_for_osc_ready+0x28>
 8000bb6:	4770      	bx	lr
		break;
	case HSE:
		while ((RCC_CR & RCC_CR_HSERDY) == 0);
 8000bb8:	4b0b      	ldr	r3, [pc, #44]	; (8000be8 <rcc_wait_for_osc_ready+0x64>)
 8000bba:	681b      	ldr	r3, [r3, #0]
 8000bbc:	f413 3f00 	tst.w	r3, #131072	; 0x20000
 8000bc0:	d0fa      	beq.n	8000bb8 <rcc_wait_for_osc_ready+0x34>
 8000bc2:	4770      	bx	lr
		break;
	case HSI:
		while ((RCC_CR & RCC_CR_HSIRDY) == 0);
 8000bc4:	4b08      	ldr	r3, [pc, #32]	; (8000be8 <rcc_wait_for_osc_ready+0x64>)
 8000bc6:	681b      	ldr	r3, [r3, #0]
 8000bc8:	f013 0f02 	tst.w	r3, #2
 8000bcc:	d0fa      	beq.n	8000bc4 <rcc_wait_for_osc_ready+0x40>
 8000bce:	4770      	bx	lr
		break;
	case LSE:
		while ((RCC_BDCR & RCC_BDCR_LSERDY) == 0);
 8000bd0:	4b06      	ldr	r3, [pc, #24]	; (8000bec <rcc_wait_for_osc_ready+0x68>)
 8000bd2:	681b      	ldr	r3, [r3, #0]
 8000bd4:	f013 0f02 	tst.w	r3, #2
 8000bd8:	d0fa      	beq.n	8000bd0 <rcc_wait_for_osc_ready+0x4c>
 8000bda:	4770      	bx	lr
		break;
	case LSI:
		while ((RCC_CSR & RCC_CSR_LSIRDY) == 0);
 8000bdc:	4b04      	ldr	r3, [pc, #16]	; (8000bf0 <rcc_wait_for_osc_ready+0x6c>)
 8000bde:	681b      	ldr	r3, [r3, #0]
 8000be0:	f013 0f02 	tst.w	r3, #2
 8000be4:	d0fa      	beq.n	8000bdc <rcc_wait_for_osc_ready+0x58>
		break;
	}
}
 8000be6:	4770      	bx	lr
 8000be8:	40021000 	.word	0x40021000
 8000bec:	40021020 	.word	0x40021020
 8000bf0:	40021024 	.word	0x40021024

08000bf4 <rcc_osc_on>:
@param[in] osc enum ::osc_t. Oscillator ID
*/

void rcc_osc_on(enum rcc_osc osc)
{
	switch (osc) {
 8000bf4:	2806      	cmp	r0, #6
 8000bf6:	d82e      	bhi.n	8000c56 <rcc_osc_on+0x62>
 8000bf8:	e8df f000 	tbb	[pc, r0]
 8000bfc:	16100a04 	.word	0x16100a04
 8000c00:	221c      	.short	0x221c
 8000c02:	28          	.byte	0x28
 8000c03:	00          	.byte	0x00
	case PLL:
		RCC_CR |= RCC_CR_PLLON;
 8000c04:	4a14      	ldr	r2, [pc, #80]	; (8000c58 <rcc_osc_on+0x64>)
 8000c06:	6813      	ldr	r3, [r2, #0]
 8000c08:	f043 7380 	orr.w	r3, r3, #16777216	; 0x1000000
 8000c0c:	6013      	str	r3, [r2, #0]
		break;
 8000c0e:	4770      	bx	lr
	case PLL2:
		RCC_CR |= RCC_CR_PLL2ON;
 8000c10:	4a11      	ldr	r2, [pc, #68]	; (8000c58 <rcc_osc_on+0x64>)
 8000c12:	6813      	ldr	r3, [r2, #0]
 8000c14:	f043 6380 	orr.w	r3, r3, #67108864	; 0x4000000
 8000c18:	6013      	str	r3, [r2, #0]
		break;
 8000c1a:	4770      	bx	lr
	case PLL3:
		RCC_CR |= RCC_CR_PLL3ON;
 8000c1c:	4a0e      	ldr	r2, [pc, #56]	; (8000c58 <rcc_osc_on+0x64>)
 8000c1e:	6813      	ldr	r3, [r2, #0]
 8000c20:	f043 5380 	orr.w	r3, r3, #268435456	; 0x10000000
 8000c24:	6013      	str	r3, [r2, #0]
		break;
 8000c26:	4770      	bx	lr
	case HSE:
		RCC_CR |= RCC_CR_HSEON;
 8000c28:	4a0b      	ldr	r2, [pc, #44]	; (8000c58 <rcc_osc_on+0x64>)
 8000c2a:	6813      	ldr	r3, [r2, #0]
 8000c2c:	f443 3380 	orr.w	r3, r3, #65536	; 0x10000
 8000c30:	6013      	str	r3, [r2, #0]
		break;
 8000c32:	4770      	bx	lr
	case HSI:
		RCC_CR |= RCC_CR_HSION;
 8000c34:	4a08      	ldr	r2, [pc, #32]	; (8000c58 <rcc_osc_on+0x64>)
 8000c36:	6813      	ldr	r3, [r2, #0]
 8000c38:	f043 0301 	orr.w	r3, r3, #1
 8000c3c:	6013      	str	r3, [r2, #0]
		break;
 8000c3e:	4770      	bx	lr
	case LSE:
		RCC_BDCR |= RCC_BDCR_LSEON;
 8000c40:	4a06      	ldr	r2, [pc, #24]	; (8000c5c <rcc_osc_on+0x68>)
 8000c42:	6813      	ldr	r3, [r2, #0]
 8000c44:	f043 0301 	orr.w	r3, r3, #1
 8000c48:	6013      	str	r3, [r2, #0]
		break;
 8000c4a:	4770      	bx	lr
	case LSI:
		RCC_CSR |= RCC_CSR_LSION;
 8000c4c:	4a04      	ldr	r2, [pc, #16]	; (8000c60 <rcc_osc_on+0x6c>)
 8000c4e:	6813      	ldr	r3, [r2, #0]
 8000c50:	f043 0301 	orr.w	r3, r3, #1
 8000c54:	6013      	str	r3, [r2, #0]
		break;
	}
}
 8000c56:	4770      	bx	lr
 8000c58:	40021000 	.word	0x40021000
 8000c5c:	40021020 	.word	0x40021020
 8000c60:	40021024 	.word	0x40021024

08000c64 <rcc_set_sysclk_source>:
@param[in] clk Unsigned int32. System Clock Selection @ref rcc_cfgr_scs
*/

void rcc_set_sysclk_source(uint32_t clk)
{
	RCC_CFGR = (RCC_CFGR & ~RCC_CFGR_SW) |
 8000c64:	4a03      	ldr	r2, [pc, #12]	; (8000c74 <rcc_set_sysclk_source+0x10>)
 8000c66:	6813      	ldr	r3, [r2, #0]
 8000c68:	f023 0303 	bic.w	r3, r3, #3
 8000c6c:	4318      	orrs	r0, r3
 8000c6e:	6010      	str	r0, [r2, #0]
			(clk << RCC_CFGR_SW_SHIFT);
}
 8000c70:	4770      	bx	lr
 8000c72:	bf00      	nop
 8000c74:	40021004 	.word	0x40021004

08000c78 <rcc_set_pll_multiplication_factor>:
@param[in] mul Unsigned int32. PLL multiplication factor @ref rcc_cfgr_pmf
*/

void rcc_set_pll_multiplication_factor(uint32_t mul)
{
	RCC_CFGR = (RCC_CFGR & ~RCC_CFGR_PLLMUL) |
 8000c78:	4a03      	ldr	r2, [pc, #12]	; (8000c88 <rcc_set_pll_multiplication_factor+0x10>)
 8000c7a:	6813      	ldr	r3, [r2, #0]
 8000c7c:	f423 1370 	bic.w	r3, r3, #3932160	; 0x3c0000
 8000c80:	ea43 4080 	orr.w	r0, r3, r0, lsl #18
 8000c84:	6010      	str	r0, [r2, #0]
			(mul << RCC_CFGR_PLLMUL_SHIFT);
}
 8000c86:	4770      	bx	lr
 8000c88:	40021004 	.word	0x40021004

08000c8c <rcc_set_pll_source>:
@param[in] pllsrc Unsigned int32. PLL clock source @ref rcc_cfgr_pcs
*/

void rcc_set_pll_source(uint32_t pllsrc)
{
	RCC_CFGR = (RCC_CFGR & ~RCC_CFGR_PLLSRC) |
 8000c8c:	4a03      	ldr	r2, [pc, #12]	; (8000c9c <rcc_set_pll_source+0x10>)
 8000c8e:	6813      	ldr	r3, [r2, #0]
 8000c90:	f423 3380 	bic.w	r3, r3, #65536	; 0x10000
 8000c94:	ea43 4000 	orr.w	r0, r3, r0, lsl #16
 8000c98:	6010      	str	r0, [r2, #0]
			(pllsrc << 16);
}
 8000c9a:	4770      	bx	lr
 8000c9c:	40021004 	.word	0x40021004

08000ca0 <rcc_set_pllxtpre>:
@param[in] pllxtpre Unsigned int32. HSE division factor @ref rcc_cfgr_hsepre
*/

void rcc_set_pllxtpre(uint32_t pllxtpre)
{
	RCC_CFGR = (RCC_CFGR & ~RCC_CFGR_PLLXTPRE) |
 8000ca0:	4a03      	ldr	r2, [pc, #12]	; (8000cb0 <rcc_set_pllxtpre+0x10>)
 8000ca2:	6813      	ldr	r3, [r2, #0]
 8000ca4:	f423 3300 	bic.w	r3, r3, #131072	; 0x20000
 8000ca8:	ea43 4040 	orr.w	r0, r3, r0, lsl #17
 8000cac:	6010      	str	r0, [r2, #0]
			(pllxtpre << 17);
}
 8000cae:	4770      	bx	lr
 8000cb0:	40021004 	.word	0x40021004

08000cb4 <rcc_enable_rtc_clock>:

*/

void rcc_enable_rtc_clock(void)
{
	RCC_BDCR |= RCC_BDCR_RTCEN;
 8000cb4:	4a02      	ldr	r2, [pc, #8]	; (8000cc0 <rcc_enable_rtc_clock+0xc>)
 8000cb6:	6813      	ldr	r3, [r2, #0]
 8000cb8:	f443 4300 	orr.w	r3, r3, #32768	; 0x8000
 8000cbc:	6013      	str	r3, [r2, #0]
}
 8000cbe:	4770      	bx	lr
 8000cc0:	40021020 	.word	0x40021020

08000cc4 <rcc_set_rtc_clock_source>:

void rcc_set_rtc_clock_source(enum rcc_osc clock_source)
{
	uint32_t reg32;

	switch (clock_source) {
 8000cc4:	2806      	cmp	r0, #6
 8000cc6:	d846      	bhi.n	8000d56 <rcc_set_rtc_clock_source+0x92>
 8000cc8:	e8df f000 	tbb	[pc, r0]
 8000ccc:	2c404040 	.word	0x2c404040
 8000cd0:	0440      	.short	0x0440
 8000cd2:	18          	.byte	0x18
 8000cd3:	00          	.byte	0x00
	case LSE:
		/* Turn the LSE on and wait while it stabilises. */
		RCC_BDCR |= RCC_BDCR_LSEON;
 8000cd4:	4a20      	ldr	r2, [pc, #128]	; (8000d58 <rcc_set_rtc_clock_source+0x94>)
 8000cd6:	6813      	ldr	r3, [r2, #0]
 8000cd8:	f043 0301 	orr.w	r3, r3, #1
 8000cdc:	6013      	str	r3, [r2, #0]
		while ((reg32 = (RCC_BDCR & RCC_BDCR_LSERDY)) == 0);
 8000cde:	4b1e      	ldr	r3, [pc, #120]	; (8000d58 <rcc_set_rtc_clock_source+0x94>)
 8000ce0:	681b      	ldr	r3, [r3, #0]
 8000ce2:	f013 0f02 	tst.w	r3, #2
 8000ce6:	d0fa      	beq.n	8000cde <rcc_set_rtc_clock_source+0x1a>

		/* Choose LSE as the RTC clock source. */
		RCC_BDCR &= ~((1 << 8) | (1 << 9));
 8000ce8:	4b1b      	ldr	r3, [pc, #108]	; (8000d58 <rcc_set_rtc_clock_source+0x94>)
 8000cea:	681a      	ldr	r2, [r3, #0]
 8000cec:	f422 7240 	bic.w	r2, r2, #768	; 0x300
 8000cf0:	601a      	str	r2, [r3, #0]
		RCC_BDCR |= (1 << 8);
 8000cf2:	681a      	ldr	r2, [r3, #0]
 8000cf4:	f442 7280 	orr.w	r2, r2, #256	; 0x100
 8000cf8:	601a      	str	r2, [r3, #0]
		break;
 8000cfa:	4770      	bx	lr
	case LSI:
		/* Turn the LSI on and wait while it stabilises. */
		RCC_CSR |= RCC_CSR_LSION;
 8000cfc:	4a17      	ldr	r2, [pc, #92]	; (8000d5c <rcc_set_rtc_clock_source+0x98>)
 8000cfe:	6813      	ldr	r3, [r2, #0]
 8000d00:	f043 0301 	orr.w	r3, r3, #1
 8000d04:	6013      	str	r3, [r2, #0]
		while ((reg32 = (RCC_CSR & RCC_CSR_LSIRDY)) == 0);
 8000d06:	4b15      	ldr	r3, [pc, #84]	; (8000d5c <rcc_set_rtc_clock_source+0x98>)
 8000d08:	681b      	ldr	r3, [r3, #0]
 8000d0a:	f013 0f02 	tst.w	r3, #2
 8000d0e:	d0fa      	beq.n	8000d06 <rcc_set_rtc_clock_source+0x42>

		/* Choose LSI as the RTC clock source. */
		RCC_BDCR &= ~((1 << 8) | (1 << 9));
 8000d10:	4b11      	ldr	r3, [pc, #68]	; (8000d58 <rcc_set_rtc_clock_source+0x94>)
 8000d12:	681a      	ldr	r2, [r3, #0]
 8000d14:	f422 7240 	bic.w	r2, r2, #768	; 0x300
 8000d18:	601a      	str	r2, [r3, #0]
		RCC_BDCR |= (1 << 9);
 8000d1a:	681a      	ldr	r2, [r3, #0]
 8000d1c:	f442 7200 	orr.w	r2, r2, #512	; 0x200
 8000d20:	601a      	str	r2, [r3, #0]
		break;
 8000d22:	4770      	bx	lr
	case HSE:
		/* Turn the HSE on and wait while it stabilises. */
		RCC_CR |= RCC_CR_HSEON;
 8000d24:	4a0e      	ldr	r2, [pc, #56]	; (8000d60 <rcc_set_rtc_clock_source+0x9c>)
 8000d26:	6813      	ldr	r3, [r2, #0]
 8000d28:	f443 3380 	orr.w	r3, r3, #65536	; 0x10000
 8000d2c:	6013      	str	r3, [r2, #0]
		while ((reg32 = (RCC_CR & RCC_CR_HSERDY)) == 0);
 8000d2e:	4b0c      	ldr	r3, [pc, #48]	; (8000d60 <rcc_set_rtc_clock_source+0x9c>)
 8000d30:	681b      	ldr	r3, [r3, #0]
 8000d32:	f413 3f00 	tst.w	r3, #131072	; 0x20000
 8000d36:	d0fa      	beq.n	8000d2e <rcc_set_rtc_clock_source+0x6a>

		/* Choose HSE as the RTC clock source. */
		RCC_BDCR &= ~((1 << 8) | (1 << 9));
 8000d38:	4b07      	ldr	r3, [pc, #28]	; (8000d58 <rcc_set_rtc_clock_source+0x94>)
 8000d3a:	681a      	ldr	r2, [r3, #0]
 8000d3c:	f422 7240 	bic.w	r2, r2, #768	; 0x300
 8000d40:	601a      	str	r2, [r3, #0]
		RCC_BDCR |= (1 << 9) | (1 << 8);
 8000d42:	681a      	ldr	r2, [r3, #0]
 8000d44:	f442 7240 	orr.w	r2, r2, #768	; 0x300
 8000d48:	601a      	str	r2, [r3, #0]
		break;
 8000d4a:	4770      	bx	lr
	case PLL2:
	case PLL3:
	case HSI:
		/* Unusable clock source, here to prevent warnings. */
		/* Turn off clock sources to RTC. */
		RCC_BDCR &= ~((1 << 8) | (1 << 9));
 8000d4c:	4a02      	ldr	r2, [pc, #8]	; (8000d58 <rcc_set_rtc_clock_source+0x94>)
 8000d4e:	6813      	ldr	r3, [r2, #0]
 8000d50:	f423 7340 	bic.w	r3, r3, #768	; 0x300
 8000d54:	6013      	str	r3, [r2, #0]
		break;
	}
}
 8000d56:	4770      	bx	lr
 8000d58:	40021020 	.word	0x40021020
 8000d5c:	40021024 	.word	0x40021024
 8000d60:	40021000 	.word	0x40021000

08000d64 <rcc_set_adcpre>:
@param[in] adcpre uint32_t. Prescale divider taken from @ref rcc_cfgr_adcpre
*/

void rcc_set_adcpre(uint32_t adcpre)
{
	RCC_CFGR = (RCC_CFGR & ~RCC_CFGR_ADCPRE) |
 8000d64:	4a03      	ldr	r2, [pc, #12]	; (8000d74 <rcc_set_adcpre+0x10>)
 8000d66:	6813      	ldr	r3, [r2, #0]
 8000d68:	f423 4340 	bic.w	r3, r3, #49152	; 0xc000
 8000d6c:	ea43 3080 	orr.w	r0, r3, r0, lsl #14
 8000d70:	6010      	str	r0, [r2, #0]
			(adcpre << RCC_CFGR_ADCPRE_SHIFT);
}
 8000d72:	4770      	bx	lr
 8000d74:	40021004 	.word	0x40021004

08000d78 <rcc_set_ppre2>:
@param[in] ppre2 Unsigned int32. APB2 prescale factor @ref rcc_cfgr_apb2pre
*/

void rcc_set_ppre2(uint32_t ppre2)
{
	RCC_CFGR = (RCC_CFGR & ~RCC_CFGR_PPRE2) |
 8000d78:	4a03      	ldr	r2, [pc, #12]	; (8000d88 <rcc_set_ppre2+0x10>)
 8000d7a:	6813      	ldr	r3, [r2, #0]
 8000d7c:	f423 5360 	bic.w	r3, r3, #14336	; 0x3800
 8000d80:	ea43 20c0 	orr.w	r0, r3, r0, lsl #11
 8000d84:	6010      	str	r0, [r2, #0]
			(ppre2 << RCC_CFGR_PPRE2_SHIFT);
}
 8000d86:	4770      	bx	lr
 8000d88:	40021004 	.word	0x40021004

08000d8c <rcc_set_ppre1>:
@param[in] ppre1 Unsigned int32. APB1 prescale factor @ref rcc_cfgr_apb1pre
*/

void rcc_set_ppre1(uint32_t ppre1)
{
	RCC_CFGR = (RCC_CFGR & ~RCC_CFGR_PPRE1) |
 8000d8c:	4a03      	ldr	r2, [pc, #12]	; (8000d9c <rcc_set_ppre1+0x10>)
 8000d8e:	6813      	ldr	r3, [r2, #0]
 8000d90:	f423 63e0 	bic.w	r3, r3, #1792	; 0x700
 8000d94:	ea43 2000 	orr.w	r0, r3, r0, lsl #8
 8000d98:	6010      	str	r0, [r2, #0]
			(ppre1 << RCC_CFGR_PPRE1_SHIFT);

}
 8000d9a:	4770      	bx	lr
 8000d9c:	40021004 	.word	0x40021004

08000da0 <rcc_set_hpre>:
@param[in] hpre Unsigned int32. AHB prescale factor @ref rcc_cfgr_ahbpre
*/

void rcc_set_hpre(uint32_t hpre)
{
	RCC_CFGR = (RCC_CFGR & ~RCC_CFGR_HPRE) |
 8000da0:	4a03      	ldr	r2, [pc, #12]	; (8000db0 <rcc_set_hpre+0x10>)
 8000da2:	6813      	ldr	r3, [r2, #0]
 8000da4:	f023 03f0 	bic.w	r3, r3, #240	; 0xf0
 8000da8:	ea43 1000 	orr.w	r0, r3, r0, lsl #4
 8000dac:	6010      	str	r0, [r2, #0]
			(hpre << RCC_CFGR_HPRE_SHIFT);

}
 8000dae:	4770      	bx	lr
 8000db0:	40021004 	.word	0x40021004

08000db4 <rcc_clock_setup_in_hse_8mhz_out_72mhz>:
/** @brief RCC Set System Clock PLL at 72MHz from HSE at 8MHz

*/

void rcc_clock_setup_in_hse_8mhz_out_72mhz(void)
{
 8000db4:	b508      	push	{r3, lr}
	/* Enable internal high-speed oscillator. */
	rcc_osc_on(HSI);
 8000db6:	2004      	movs	r0, #4
 8000db8:	f7ff ff1c 	bl	8000bf4 <rcc_osc_on>
	rcc_wait_for_osc_ready(HSI);
 8000dbc:	2004      	movs	r0, #4
 8000dbe:	f7ff fee1 	bl	8000b84 <rcc_wait_for_osc_ready>

	/* Select HSI as SYSCLK source. */
	rcc_set_sysclk_source(RCC_CFGR_SW_SYSCLKSEL_HSICLK);
 8000dc2:	2000      	movs	r0, #0
 8000dc4:	f7ff ff4e 	bl	8000c64 <rcc_set_sysclk_source>

	/* Enable external high-speed oscillator 8MHz. */
	rcc_osc_on(HSE);
 8000dc8:	2003      	movs	r0, #3
 8000dca:	f7ff ff13 	bl	8000bf4 <rcc_osc_on>
	rcc_wait_for_osc_ready(HSE);
 8000dce:	2003      	movs	r0, #3
 8000dd0:	f7ff fed8 	bl	8000b84 <rcc_wait_for_osc_ready>
	rcc_set_sysclk_source(RCC_CFGR_SW_SYSCLKSEL_HSECLK);
 8000dd4:	2001      	movs	r0, #1
 8000dd6:	f7ff ff45 	bl	8000c64 <rcc_set_sysclk_source>

	/*
	 * Set prescalers for AHB, ADC, ABP1, ABP2.
	 * Do this before touching the PLL (TODO: why?).
	 */
	rcc_set_hpre(RCC_CFGR_HPRE_SYSCLK_NODIV);    /* Set. 72MHz Max. 72MHz */
 8000dda:	2000      	movs	r0, #0
 8000ddc:	f7ff ffe0 	bl	8000da0 <rcc_set_hpre>
	rcc_set_adcpre(RCC_CFGR_ADCPRE_PCLK2_DIV8);  /* Set.  9MHz Max. 14MHz */
 8000de0:	2003      	movs	r0, #3
 8000de2:	f7ff ffbf 	bl	8000d64 <rcc_set_adcpre>
	rcc_set_ppre1(RCC_CFGR_PPRE1_HCLK_DIV2);     /* Set. 36MHz Max. 36MHz */
 8000de6:	2004      	movs	r0, #4
 8000de8:	f7ff ffd0 	bl	8000d8c <rcc_set_ppre1>
	rcc_set_ppre2(RCC_CFGR_PPRE2_HCLK_NODIV);    /* Set. 72MHz Max. 72MHz */
 8000dec:	2000      	movs	r0, #0
 8000dee:	f7ff ffc3 	bl	8000d78 <rcc_set_ppre2>
	 * Sysclk runs with 72MHz -> 2 waitstates.
	 * 0WS from 0-24MHz
	 * 1WS from 24-48MHz
	 * 2WS from 48-72MHz
	 */
	flash_set_ws(FLASH_ACR_LATENCY_2WS);
 8000df2:	2002      	movs	r0, #2
 8000df4:	f000 f93e 	bl	8001074 <flash_set_ws>

	/*
	 * Set the PLL multiplication factor to 9.
	 * 8MHz (external) * 9 (multiplier) = 72MHz
	 */
	rcc_set_pll_multiplication_factor(RCC_CFGR_PLLMUL_PLL_CLK_MUL9);
 8000df8:	2007      	movs	r0, #7
 8000dfa:	f7ff ff3d 	bl	8000c78 <rcc_set_pll_multiplication_factor>

	/* Select HSE as PLL source. */
	rcc_set_pll_source(RCC_CFGR_PLLSRC_HSE_CLK);
 8000dfe:	2001      	movs	r0, #1
 8000e00:	f7ff ff44 	bl	8000c8c <rcc_set_pll_source>

	/*
	 * External frequency undivided before entering PLL
	 * (only valid/needed for HSE).
	 */
	rcc_set_pllxtpre(RCC_CFGR_PLLXTPRE_HSE_CLK);
 8000e04:	2000      	movs	r0, #0
 8000e06:	f7ff ff4b 	bl	8000ca0 <rcc_set_pllxtpre>

	/* Enable PLL oscillator and wait for it to stabilize. */
	rcc_osc_on(PLL);
 8000e0a:	2000      	movs	r0, #0
 8000e0c:	f7ff fef2 	bl	8000bf4 <rcc_osc_on>
	rcc_wait_for_osc_ready(PLL);
 8000e10:	2000      	movs	r0, #0
 8000e12:	f7ff feb7 	bl	8000b84 <rcc_wait_for_osc_ready>

	/* Select PLL as SYSCLK source. */
	rcc_set_sysclk_source(RCC_CFGR_SW_SYSCLKSEL_PLLCLK);
 8000e16:	2002      	movs	r0, #2
 8000e18:	f7ff ff24 	bl	8000c64 <rcc_set_sysclk_source>

	/* Set the peripheral clock frequencies used */
	rcc_ahb_frequency = 72000000;
 8000e1c:	4b04      	ldr	r3, [pc, #16]	; (8000e30 <rcc_clock_setup_in_hse_8mhz_out_72mhz+0x7c>)
 8000e1e:	4a05      	ldr	r2, [pc, #20]	; (8000e34 <rcc_clock_setup_in_hse_8mhz_out_72mhz+0x80>)
 8000e20:	6013      	str	r3, [r2, #0]
	rcc_apb1_frequency = 36000000;
 8000e22:	4a05      	ldr	r2, [pc, #20]	; (8000e38 <rcc_clock_setup_in_hse_8mhz_out_72mhz+0x84>)
 8000e24:	4905      	ldr	r1, [pc, #20]	; (8000e3c <rcc_clock_setup_in_hse_8mhz_out_72mhz+0x88>)
 8000e26:	6011      	str	r1, [r2, #0]
	rcc_apb2_frequency = 72000000;
 8000e28:	4a05      	ldr	r2, [pc, #20]	; (8000e40 <rcc_clock_setup_in_hse_8mhz_out_72mhz+0x8c>)
 8000e2a:	6013      	str	r3, [r2, #0]
}
 8000e2c:	bd08      	pop	{r3, pc}
 8000e2e:	bf00      	nop
 8000e30:	044aa200 	.word	0x044aa200
 8000e34:	20000008 	.word	0x20000008
 8000e38:	2000000c 	.word	0x2000000c
 8000e3c:	02255100 	.word	0x02255100
 8000e40:	20000010 	.word	0x20000010

08000e44 <rtc_enter_config_mode>:
Prime the RTC for configuration changes by giving access to the prescaler,
and counter and alarm registers.
*/

void rtc_enter_config_mode(void)
{
 8000e44:	b082      	sub	sp, #8
	volatile uint32_t reg32;  ////  Added volatile.

	/* Wait until the RTOFF bit is 1 (no RTC register writes ongoing). */
	while ((reg32 = (RTC_CRL & RTC_CRL_RTOFF)) == 0);
 8000e46:	4b07      	ldr	r3, [pc, #28]	; (8000e64 <rtc_enter_config_mode+0x20>)
 8000e48:	681b      	ldr	r3, [r3, #0]
 8000e4a:	f003 0320 	and.w	r3, r3, #32
 8000e4e:	9301      	str	r3, [sp, #4]
 8000e50:	2b00      	cmp	r3, #0
 8000e52:	d0f8      	beq.n	8000e46 <rtc_enter_config_mode+0x2>

	/* Enter configuration mode. */
	RTC_CRL |= RTC_CRL_CNF;
 8000e54:	4a03      	ldr	r2, [pc, #12]	; (8000e64 <rtc_enter_config_mode+0x20>)
 8000e56:	6813      	ldr	r3, [r2, #0]
 8000e58:	f043 0310 	orr.w	r3, r3, #16
 8000e5c:	6013      	str	r3, [r2, #0]
}
 8000e5e:	b002      	add	sp, #8
 8000e60:	4770      	bx	lr
 8000e62:	bf00      	nop
 8000e64:	40002804 	.word	0x40002804

08000e68 <rtc_exit_config_mode>:

Revert the RTC to operational state.
*/

void rtc_exit_config_mode(void)
{
 8000e68:	b082      	sub	sp, #8
	volatile uint32_t reg32;  ////  Added volatile.

	/* Exit configuration mode. */
	RTC_CRL &= ~RTC_CRL_CNF;
 8000e6a:	4a07      	ldr	r2, [pc, #28]	; (8000e88 <rtc_exit_config_mode+0x20>)
 8000e6c:	6813      	ldr	r3, [r2, #0]
 8000e6e:	f023 0310 	bic.w	r3, r3, #16
 8000e72:	6013      	str	r3, [r2, #0]

	/* Wait until the RTOFF bit is 1 (our RTC register write finished). */
	while ((reg32 = (RTC_CRL & RTC_CRL_RTOFF)) == 0);
 8000e74:	4b04      	ldr	r3, [pc, #16]	; (8000e88 <rtc_exit_config_mode+0x20>)
 8000e76:	681b      	ldr	r3, [r3, #0]
 8000e78:	f003 0320 	and.w	r3, r3, #32
 8000e7c:	9301      	str	r3, [sp, #4]
 8000e7e:	2b00      	cmp	r3, #0
 8000e80:	d0f8      	beq.n	8000e74 <rtc_exit_config_mode+0xc>
}
 8000e82:	b002      	add	sp, #8
 8000e84:	4770      	bx	lr
 8000e86:	bf00      	nop
 8000e88:	40002804 	.word	0x40002804

08000e8c <rtc_set_alarm_time>:

@param[in] alarm_time uint32_t. time at which the alarm event is triggered.
*/

void rtc_set_alarm_time(uint32_t alarm_time)
{
 8000e8c:	b510      	push	{r4, lr}
 8000e8e:	4604      	mov	r4, r0
	rtc_enter_config_mode();
 8000e90:	f7ff ffd8 	bl	8000e44 <rtc_enter_config_mode>
	RTC_ALRL = (alarm_time & 0x0000ffff);
 8000e94:	b2a2      	uxth	r2, r4
 8000e96:	4b04      	ldr	r3, [pc, #16]	; (8000ea8 <rtc_set_alarm_time+0x1c>)
 8000e98:	601a      	str	r2, [r3, #0]
	RTC_ALRH = (alarm_time & 0xffff0000) >> 16;
 8000e9a:	0c24      	lsrs	r4, r4, #16
 8000e9c:	3b04      	subs	r3, #4
 8000e9e:	601c      	str	r4, [r3, #0]
	rtc_exit_config_mode();
 8000ea0:	f7ff ffe2 	bl	8000e68 <rtc_exit_config_mode>
}
 8000ea4:	bd10      	pop	{r4, pc}
 8000ea6:	bf00      	nop
 8000ea8:	40002824 	.word	0x40002824

08000eac <rtc_set_prescale_val>:

@param[in] prescale_val uint32_t. 20 bit prescale divider.
*/

void rtc_set_prescale_val(uint32_t prescale_val)
{
 8000eac:	b510      	push	{r4, lr}
 8000eae:	4604      	mov	r4, r0
	rtc_enter_config_mode();
 8000eb0:	f7ff ffc8 	bl	8000e44 <rtc_enter_config_mode>
	RTC_PRLL = prescale_val & 0x0000ffff;         /* PRL[15:0] */
 8000eb4:	b2a2      	uxth	r2, r4
 8000eb6:	4b04      	ldr	r3, [pc, #16]	; (8000ec8 <rtc_set_prescale_val+0x1c>)
 8000eb8:	601a      	str	r2, [r3, #0]
	RTC_PRLH = (prescale_val & 0x000f0000) >> 16; /* PRL[19:16] */
 8000eba:	f3c4 4403 	ubfx	r4, r4, #16, #4
 8000ebe:	3b04      	subs	r3, #4
 8000ec0:	601c      	str	r4, [r3, #0]
	rtc_exit_config_mode();
 8000ec2:	f7ff ffd1 	bl	8000e68 <rtc_exit_config_mode>
}
 8000ec6:	bd10      	pop	{r4, pc}
 8000ec8:	4000280c 	.word	0x4000280c

08000ecc <rtc_get_counter_val>:
@returns uint32_t: the 32 bit counter value.
*/

uint32_t rtc_get_counter_val(void)
{
	return (RTC_CNTH << 16) | RTC_CNTL;
 8000ecc:	4b03      	ldr	r3, [pc, #12]	; (8000edc <rtc_get_counter_val+0x10>)
 8000ece:	6818      	ldr	r0, [r3, #0]
 8000ed0:	3304      	adds	r3, #4
 8000ed2:	681b      	ldr	r3, [r3, #0]
}
 8000ed4:	ea43 4000 	orr.w	r0, r3, r0, lsl #16
 8000ed8:	4770      	bx	lr
 8000eda:	bf00      	nop
 8000edc:	40002818 	.word	0x40002818

08000ee0 <rtc_set_counter_val>:

@param[in] uint32_t counter_val: 32 bit time setting for the counter.
*/

void rtc_set_counter_val(uint32_t counter_val)
{
 8000ee0:	b510      	push	{r4, lr}
 8000ee2:	4604      	mov	r4, r0
	rtc_enter_config_mode();
 8000ee4:	f7ff ffae 	bl	8000e44 <rtc_enter_config_mode>
	RTC_CNTH = (counter_val & 0xffff0000) >> 16; /* CNT[31:16] */
 8000ee8:	0c22      	lsrs	r2, r4, #16
 8000eea:	4b04      	ldr	r3, [pc, #16]	; (8000efc <rtc_set_counter_val+0x1c>)
 8000eec:	601a      	str	r2, [r3, #0]
	RTC_CNTL = counter_val & 0x0000ffff;         /* CNT[15:0] */
 8000eee:	b2a4      	uxth	r4, r4
 8000ef0:	3304      	adds	r3, #4
 8000ef2:	601c      	str	r4, [r3, #0]
	rtc_exit_config_mode();
 8000ef4:	f7ff ffb8 	bl	8000e68 <rtc_exit_config_mode>
}
 8000ef8:	bd10      	pop	{r4, pc}
 8000efa:	bf00      	nop
 8000efc:	40002818 	.word	0x40002818

08000f00 <rtc_interrupt_enable>:

@param[in] flag_val ::rtcflag_t: The flag to enable.
*/

void rtc_interrupt_enable(rtcflag_t flag_val)
{
 8000f00:	b510      	push	{r4, lr}
 8000f02:	4604      	mov	r4, r0
	rtc_enter_config_mode();
 8000f04:	f7ff ff9e 	bl	8000e44 <rtc_enter_config_mode>

	/* Set the correct interrupt enable. */
	switch (flag_val) {
 8000f08:	2c01      	cmp	r4, #1
 8000f0a:	d00b      	beq.n	8000f24 <rtc_interrupt_enable+0x24>
 8000f0c:	b124      	cbz	r4, 8000f18 <rtc_interrupt_enable+0x18>
 8000f0e:	2c02      	cmp	r4, #2
 8000f10:	d00e      	beq.n	8000f30 <rtc_interrupt_enable+0x30>
	case RTC_OW:
		RTC_CRH |= RTC_CRH_OWIE;
		break;
	}

	rtc_exit_config_mode();
 8000f12:	f7ff ffa9 	bl	8000e68 <rtc_exit_config_mode>
}
 8000f16:	bd10      	pop	{r4, pc}
		RTC_CRH |= RTC_CRH_SECIE;
 8000f18:	4a08      	ldr	r2, [pc, #32]	; (8000f3c <rtc_interrupt_enable+0x3c>)
 8000f1a:	6813      	ldr	r3, [r2, #0]
 8000f1c:	f043 0301 	orr.w	r3, r3, #1
 8000f20:	6013      	str	r3, [r2, #0]
		break;
 8000f22:	e7f6      	b.n	8000f12 <rtc_interrupt_enable+0x12>
		RTC_CRH |= RTC_CRH_ALRIE;
 8000f24:	4a05      	ldr	r2, [pc, #20]	; (8000f3c <rtc_interrupt_enable+0x3c>)
 8000f26:	6813      	ldr	r3, [r2, #0]
 8000f28:	f043 0302 	orr.w	r3, r3, #2
 8000f2c:	6013      	str	r3, [r2, #0]
		break;
 8000f2e:	e7f0      	b.n	8000f12 <rtc_interrupt_enable+0x12>
		RTC_CRH |= RTC_CRH_OWIE;
 8000f30:	4a02      	ldr	r2, [pc, #8]	; (8000f3c <rtc_interrupt_enable+0x3c>)
 8000f32:	6813      	ldr	r3, [r2, #0]
 8000f34:	f043 0304 	orr.w	r3, r3, #4
 8000f38:	6013      	str	r3, [r2, #0]
		break;
 8000f3a:	e7ea      	b.n	8000f12 <rtc_interrupt_enable+0x12>
 8000f3c:	40002800 	.word	0x40002800

08000f40 <rtc_interrupt_disable>:

@param[in] flag_val ::rtcflag_t: The flag to disable.
*/

void rtc_interrupt_disable(rtcflag_t flag_val)
{
 8000f40:	b510      	push	{r4, lr}
 8000f42:	4604      	mov	r4, r0
	rtc_enter_config_mode();
 8000f44:	f7ff ff7e 	bl	8000e44 <rtc_enter_config_mode>

	/* Disable the correct interrupt enable. */
	switch (flag_val) {
 8000f48:	2c01      	cmp	r4, #1
 8000f4a:	d00b      	beq.n	8000f64 <rtc_interrupt_disable+0x24>
 8000f4c:	b124      	cbz	r4, 8000f58 <rtc_interrupt_disable+0x18>
 8000f4e:	2c02      	cmp	r4, #2
 8000f50:	d00e      	beq.n	8000f70 <rtc_interrupt_disable+0x30>
	case RTC_OW:
		RTC_CRH &= ~RTC_CRH_OWIE;
		break;
	}

	rtc_exit_config_mode();
 8000f52:	f7ff ff89 	bl	8000e68 <rtc_exit_config_mode>
}
 8000f56:	bd10      	pop	{r4, pc}
		RTC_CRH &= ~RTC_CRH_SECIE;
 8000f58:	4a08      	ldr	r2, [pc, #32]	; (8000f7c <rtc_interrupt_disable+0x3c>)
 8000f5a:	6813      	ldr	r3, [r2, #0]
 8000f5c:	f023 0301 	bic.w	r3, r3, #1
 8000f60:	6013      	str	r3, [r2, #0]
		break;
 8000f62:	e7f6      	b.n	8000f52 <rtc_interrupt_disable+0x12>
		RTC_CRH &= ~RTC_CRH_ALRIE;
 8000f64:	4a05      	ldr	r2, [pc, #20]	; (8000f7c <rtc_interrupt_disable+0x3c>)
 8000f66:	6813      	ldr	r3, [r2, #0]
 8000f68:	f023 0302 	bic.w	r3, r3, #2
 8000f6c:	6013      	str	r3, [r2, #0]
		break;
 8000f6e:	e7f0      	b.n	8000f52 <rtc_interrupt_disable+0x12>
		RTC_CRH &= ~RTC_CRH_OWIE;
 8000f70:	4a02      	ldr	r2, [pc, #8]	; (8000f7c <rtc_interrupt_disable+0x3c>)
 8000f72:	6813      	ldr	r3, [r2, #0]
 8000f74:	f023 0304 	bic.w	r3, r3, #4
 8000f78:	6013      	str	r3, [r2, #0]
		break;
 8000f7a:	e7ea      	b.n	8000f52 <rtc_interrupt_disable+0x12>
 8000f7c:	40002800 	.word	0x40002800

08000f80 <rtc_clear_flag>:
void rtc_clear_flag(rtcflag_t flag_val)
{
	/* Configuration mode not needed. */

	/* Clear the correct flag. */
	switch (flag_val) {
 8000f80:	2801      	cmp	r0, #1
 8000f82:	d009      	beq.n	8000f98 <rtc_clear_flag+0x18>
 8000f84:	b110      	cbz	r0, 8000f8c <rtc_clear_flag+0xc>
 8000f86:	2802      	cmp	r0, #2
 8000f88:	d00c      	beq.n	8000fa4 <rtc_clear_flag+0x24>
 8000f8a:	4770      	bx	lr
	case RTC_SEC:
		RTC_CRL &= ~RTC_CRL_SECF;
 8000f8c:	4a08      	ldr	r2, [pc, #32]	; (8000fb0 <rtc_clear_flag+0x30>)
 8000f8e:	6813      	ldr	r3, [r2, #0]
 8000f90:	f023 0301 	bic.w	r3, r3, #1
 8000f94:	6013      	str	r3, [r2, #0]
		break;
 8000f96:	4770      	bx	lr
	case RTC_ALR:
		RTC_CRL &= ~RTC_CRL_ALRF;
 8000f98:	4a05      	ldr	r2, [pc, #20]	; (8000fb0 <rtc_clear_flag+0x30>)
 8000f9a:	6813      	ldr	r3, [r2, #0]
 8000f9c:	f023 0302 	bic.w	r3, r3, #2
 8000fa0:	6013      	str	r3, [r2, #0]
		break;
 8000fa2:	4770      	bx	lr
	case RTC_OW:
		RTC_CRL &= ~RTC_CRL_OWF;
 8000fa4:	4a02      	ldr	r2, [pc, #8]	; (8000fb0 <rtc_clear_flag+0x30>)
 8000fa6:	6813      	ldr	r3, [r2, #0]
 8000fa8:	f023 0304 	bic.w	r3, r3, #4
 8000fac:	6013      	str	r3, [r2, #0]
		break;
	}
}
 8000fae:	4770      	bx	lr
 8000fb0:	40002804 	.word	0x40002804

08000fb4 <rtc_check_flag>:
uint32_t rtc_check_flag(rtcflag_t flag_val)
{
	uint32_t reg32;

	/* Read correct flag. */
	switch (flag_val) {
 8000fb4:	2801      	cmp	r0, #1
 8000fb6:	d009      	beq.n	8000fcc <rtc_check_flag+0x18>
 8000fb8:	b118      	cbz	r0, 8000fc2 <rtc_check_flag+0xe>
 8000fba:	2802      	cmp	r0, #2
 8000fbc:	d00b      	beq.n	8000fd6 <rtc_check_flag+0x22>
		break;
	case RTC_OW:
		reg32 = RTC_CRL & RTC_CRL_OWF;
		break;
	default:
		reg32 = 0;
 8000fbe:	2000      	movs	r0, #0
		break;
	}

	return reg32;
}
 8000fc0:	4770      	bx	lr
		reg32 = RTC_CRL & RTC_CRL_SECF;
 8000fc2:	4b07      	ldr	r3, [pc, #28]	; (8000fe0 <rtc_check_flag+0x2c>)
 8000fc4:	6818      	ldr	r0, [r3, #0]
 8000fc6:	f000 0001 	and.w	r0, r0, #1
		break;
 8000fca:	4770      	bx	lr
		reg32 = RTC_CRL & RTC_CRL_ALRF;
 8000fcc:	4b04      	ldr	r3, [pc, #16]	; (8000fe0 <rtc_check_flag+0x2c>)
 8000fce:	6818      	ldr	r0, [r3, #0]
 8000fd0:	f000 0002 	and.w	r0, r0, #2
		break;
 8000fd4:	4770      	bx	lr
		reg32 = RTC_CRL & RTC_CRL_OWF;
 8000fd6:	4b02      	ldr	r3, [pc, #8]	; (8000fe0 <rtc_check_flag+0x2c>)
 8000fd8:	6818      	ldr	r0, [r3, #0]
 8000fda:	f000 0004 	and.w	r0, r0, #4
		break;
 8000fde:	4770      	bx	lr
 8000fe0:	40002804 	.word	0x40002804

08000fe4 <pwr_disable_backup_domain_write_protect>:
protected after a reset.
*/

void pwr_disable_backup_domain_write_protect(void)
{
	PWR_CR |= PWR_CR_DBP;
 8000fe4:	4a02      	ldr	r2, [pc, #8]	; (8000ff0 <pwr_disable_backup_domain_write_protect+0xc>)
 8000fe6:	6813      	ldr	r3, [r2, #0]
 8000fe8:	f443 7380 	orr.w	r3, r3, #256	; 0x100
 8000fec:	6013      	str	r3, [r2, #0]
}
 8000fee:	4770      	bx	lr
 8000ff0:	40007000 	.word	0x40007000

08000ff4 <pwr_enable_backup_domain_write_protect>:
This protects backup domain registers from inadvertent change.
*/

void pwr_enable_backup_domain_write_protect(void)
{
	PWR_CR &= ~PWR_CR_DBP;
 8000ff4:	4a02      	ldr	r2, [pc, #8]	; (8001000 <pwr_enable_backup_domain_write_protect+0xc>)
 8000ff6:	6813      	ldr	r3, [r2, #0]
 8000ff8:	f423 7380 	bic.w	r3, r3, #256	; 0x100
 8000ffc:	6013      	str	r3, [r2, #0]
}
 8000ffe:	4770      	bx	lr
 8001000:	40007000 	.word	0x40007000

08001004 <exti_set_trigger>:
#       include <libopencm3/stm32/syscfg.h>
#endif

void exti_set_trigger(uint32_t extis, enum exti_trigger_type trig)
{
	switch (trig) {
 8001004:	2901      	cmp	r1, #1
 8001006:	d00d      	beq.n	8001024 <exti_set_trigger+0x20>
 8001008:	b111      	cbz	r1, 8001010 <exti_set_trigger+0xc>
 800100a:	2902      	cmp	r1, #2
 800100c:	d014      	beq.n	8001038 <exti_set_trigger+0x34>
 800100e:	4770      	bx	lr
	case EXTI_TRIGGER_RISING:
		EXTI_RTSR |= extis;
 8001010:	4a0e      	ldr	r2, [pc, #56]	; (800104c <exti_set_trigger+0x48>)
 8001012:	6813      	ldr	r3, [r2, #0]
 8001014:	4303      	orrs	r3, r0
 8001016:	6013      	str	r3, [r2, #0]
		EXTI_FTSR &= ~extis;
 8001018:	3204      	adds	r2, #4
 800101a:	6813      	ldr	r3, [r2, #0]
 800101c:	ea23 0000 	bic.w	r0, r3, r0
 8001020:	6010      	str	r0, [r2, #0]
		break;
 8001022:	4770      	bx	lr
	case EXTI_TRIGGER_FALLING:
		EXTI_RTSR &= ~extis;
 8001024:	4a09      	ldr	r2, [pc, #36]	; (800104c <exti_set_trigger+0x48>)
 8001026:	6813      	ldr	r3, [r2, #0]
 8001028:	ea23 0300 	bic.w	r3, r3, r0
 800102c:	6013      	str	r3, [r2, #0]
		EXTI_FTSR |= extis;
 800102e:	3204      	adds	r2, #4
 8001030:	6813      	ldr	r3, [r2, #0]
 8001032:	4318      	orrs	r0, r3
 8001034:	6010      	str	r0, [r2, #0]
		break;
 8001036:	4770      	bx	lr
	case EXTI_TRIGGER_BOTH:
		EXTI_RTSR |= extis;
 8001038:	4a04      	ldr	r2, [pc, #16]	; (800104c <exti_set_trigger+0x48>)
 800103a:	6813      	ldr	r3, [r2, #0]
 800103c:	4303      	orrs	r3, r0
 800103e:	6013      	str	r3, [r2, #0]
		EXTI_FTSR |= extis;
 8001040:	3204      	adds	r2, #4
 8001042:	6813      	ldr	r3, [r2, #0]
 8001044:	4318      	orrs	r0, r3
 8001046:	6010      	str	r0, [r2, #0]
		break;
	}
}
 8001048:	4770      	bx	lr
 800104a:	bf00      	nop
 800104c:	40010408 	.word	0x40010408

08001050 <exti_enable_request>:

void exti_enable_request(uint32_t extis)
{
	/* Enable interrupts. */
	EXTI_IMR |= extis;
 8001050:	4a04      	ldr	r2, [pc, #16]	; (8001064 <exti_enable_request+0x14>)
 8001052:	6813      	ldr	r3, [r2, #0]
 8001054:	4303      	orrs	r3, r0
 8001056:	6013      	str	r3, [r2, #0]

	/* Enable events. */
	EXTI_EMR |= extis;
 8001058:	3204      	adds	r2, #4
 800105a:	6813      	ldr	r3, [r2, #0]
 800105c:	4318      	orrs	r0, r3
 800105e:	6010      	str	r0, [r2, #0]
}
 8001060:	4770      	bx	lr
 8001062:	bf00      	nop
 8001064:	40010400 	.word	0x40010400

08001068 <exti_reset_request>:
 * Reset the interrupt request by writing a 1 to the corresponding
 * pending bit register.
 */
void exti_reset_request(uint32_t extis)
{
	EXTI_PR = extis;
 8001068:	4b01      	ldr	r3, [pc, #4]	; (8001070 <exti_reset_request+0x8>)
 800106a:	6018      	str	r0, [r3, #0]
}
 800106c:	4770      	bx	lr
 800106e:	bf00      	nop
 8001070:	40010414 	.word	0x40010414

08001074 <flash_set_ws>:
@param[in] uint32_t ws: values from @ref flash_latency.
*/

void flash_set_ws(uint32_t ws)
{
	FLASH_ACR = (FLASH_ACR & ~FLASH_ACR_LATENCY) | ws;
 8001074:	4a03      	ldr	r2, [pc, #12]	; (8001084 <flash_set_ws+0x10>)
 8001076:	6813      	ldr	r3, [r2, #0]
 8001078:	f023 0307 	bic.w	r3, r3, #7
 800107c:	4318      	orrs	r0, r3
 800107e:	6010      	str	r0, [r2, #0]
}
 8001080:	4770      	bx	lr
 8001082:	bf00      	nop
 8001084:	40022000 	.word	0x40022000

08001088 <usbd_init>:
usbd_device *usbd_init(const usbd_driver *driver,
		       const struct usb_device_descriptor *dev,
		       const struct usb_config_descriptor *conf,
		       const char **strings, int num_strings,
		       uint8_t *control_buffer, uint16_t control_buffer_size)
{
 8001088:	b5f8      	push	{r3, r4, r5, r6, r7, lr}
 800108a:	4604      	mov	r4, r0
 800108c:	460f      	mov	r7, r1
 800108e:	4616      	mov	r6, r2
 8001090:	461d      	mov	r5, r3
	usbd_device *usbd_dev;

	usbd_dev = driver->init();
 8001092:	6803      	ldr	r3, [r0, #0]
 8001094:	4798      	blx	r3

	usbd_dev->driver = driver;
 8001096:	f8c0 40d8 	str.w	r4, [r0, #216]	; 0xd8
	usbd_dev->desc = dev;
 800109a:	6007      	str	r7, [r0, #0]
	usbd_dev->config = conf;
 800109c:	6046      	str	r6, [r0, #4]
	usbd_dev->strings = strings;
 800109e:	6085      	str	r5, [r0, #8]
	usbd_dev->num_strings = num_strings;
 80010a0:	9b06      	ldr	r3, [sp, #24]
 80010a2:	60c3      	str	r3, [r0, #12]
	usbd_dev->ctrl_buf = control_buffer;
 80010a4:	9b07      	ldr	r3, [sp, #28]
 80010a6:	6103      	str	r3, [r0, #16]
	usbd_dev->ctrl_buf_len = control_buffer_size;
 80010a8:	f8bd 3020 	ldrh.w	r3, [sp, #32]
 80010ac:	8283      	strh	r3, [r0, #20]

	usbd_dev->user_callback_ctr[0][USB_TRANSACTION_SETUP] =
 80010ae:	4b09      	ldr	r3, [pc, #36]	; (80010d4 <usbd_init+0x4c>)
 80010b0:	66c3      	str	r3, [r0, #108]	; 0x6c
	    _usbd_control_setup;
	usbd_dev->user_callback_ctr[0][USB_TRANSACTION_OUT] =
 80010b2:	4b09      	ldr	r3, [pc, #36]	; (80010d8 <usbd_init+0x50>)
 80010b4:	6683      	str	r3, [r0, #104]	; 0x68
	    _usbd_control_out;
	usbd_dev->user_callback_ctr[0][USB_TRANSACTION_IN] =
 80010b6:	4b09      	ldr	r3, [pc, #36]	; (80010dc <usbd_init+0x54>)
 80010b8:	6643      	str	r3, [r0, #100]	; 0x64
	    _usbd_control_in;

	int i;
	for (i = 0; i < MAX_USER_SET_CONFIG_CALLBACK; i++) {
 80010ba:	2300      	movs	r3, #0
 80010bc:	e006      	b.n	80010cc <usbd_init+0x44>
		usbd_dev->user_callback_set_config[i] = NULL;
 80010be:	f103 0230 	add.w	r2, r3, #48	; 0x30
 80010c2:	eb00 0282 	add.w	r2, r0, r2, lsl #2
 80010c6:	2100      	movs	r1, #0
 80010c8:	6051      	str	r1, [r2, #4]
	for (i = 0; i < MAX_USER_SET_CONFIG_CALLBACK; i++) {
 80010ca:	3301      	adds	r3, #1
 80010cc:	2b03      	cmp	r3, #3
 80010ce:	ddf6      	ble.n	80010be <usbd_init+0x36>
	}

	return usbd_dev;
}
 80010d0:	bdf8      	pop	{r3, r4, r5, r6, r7, pc}
 80010d2:	bf00      	nop
 80010d4:	08001969 	.word	0x08001969
 80010d8:	080019b3 	.word	0x080019b3
 80010dc:	08001a3d 	.word	0x08001a3d

080010e0 <_usbd_standard_request_device>:
/**@}*/

int _usbd_standard_request_device(usbd_device *usbd_dev,
				  struct usb_setup_data *req, uint8_t **buf,
				  uint16_t *len)
{
 80010e0:	b510      	push	{r4, lr}
	int (*command)(usbd_device *usbd_dev, struct usb_setup_data *req,
		       uint8_t **buf, uint16_t *len) = NULL;

	switch (req->bRequest) {
 80010e2:	784c      	ldrb	r4, [r1, #1]
 80010e4:	2c09      	cmp	r4, #9
 80010e6:	d812      	bhi.n	800110e <_usbd_standard_request_device+0x2e>
 80010e8:	e8df f004 	tbb	[pc, r4]
 80010ec:	1111110b 	.word	0x1111110b
 80010f0:	11090511 	.word	0x11090511
 80010f4:	0d07      	.short	0x0d07
	case USB_REQ_SET_ADDRESS:
		/*
		 * SET ADDRESS is an exception.
		 * It is only processed at STATUS stage.
		 */
		command = usb_standard_set_address;
 80010f6:	4c08      	ldr	r4, [pc, #32]	; (8001118 <_usbd_standard_request_device+0x38>)
 80010f8:	e006      	b.n	8001108 <_usbd_standard_request_device+0x28>
		break;
	case USB_REQ_SET_CONFIGURATION:
		command = usb_standard_set_configuration;
		break;
	case USB_REQ_GET_CONFIGURATION:
		command = usb_standard_get_configuration;
 80010fa:	4c08      	ldr	r4, [pc, #32]	; (800111c <_usbd_standard_request_device+0x3c>)
		break;
 80010fc:	e004      	b.n	8001108 <_usbd_standard_request_device+0x28>
	case USB_REQ_GET_DESCRIPTOR:
		command = usb_standard_get_descriptor;
 80010fe:	4c08      	ldr	r4, [pc, #32]	; (8001120 <_usbd_standard_request_device+0x40>)
		break;
 8001100:	e002      	b.n	8001108 <_usbd_standard_request_device+0x28>
	case USB_REQ_GET_STATUS:
		/*
		 * GET_STATUS always responds with zero reply.
		 * The application may override this behaviour.
		 */
		command = usb_standard_device_get_status;
 8001102:	4c08      	ldr	r4, [pc, #32]	; (8001124 <_usbd_standard_request_device+0x44>)
		break;
 8001104:	e000      	b.n	8001108 <_usbd_standard_request_device+0x28>
		command = usb_standard_set_configuration;
 8001106:	4c08      	ldr	r4, [pc, #32]	; (8001128 <_usbd_standard_request_device+0x48>)
	case USB_REQ_SET_DESCRIPTOR:
		/* SET_DESCRIPTOR is optional and not implemented. */
		break;
	}

	if (!command) {
 8001108:	b11c      	cbz	r4, 8001112 <_usbd_standard_request_device+0x32>
		return 0;
	}

	return command(usbd_dev, req, buf, len);
 800110a:	47a0      	blx	r4
}
 800110c:	bd10      	pop	{r4, pc}
		return 0;
 800110e:	2000      	movs	r0, #0
 8001110:	e7fc      	b.n	800110c <_usbd_standard_request_device+0x2c>
 8001112:	2000      	movs	r0, #0
 8001114:	e7fa      	b.n	800110c <_usbd_standard_request_device+0x2c>
 8001116:	bf00      	nop
 8001118:	08001a9b 	.word	0x08001a9b
 800111c:	08001b85 	.word	0x08001b85
 8001120:	08001e27 	.word	0x08001e27
 8001124:	08001c3d 	.word	0x08001c3d
 8001128:	08001acb 	.word	0x08001acb

0800112c <_usbd_standard_request_interface>:

int _usbd_standard_request_interface(usbd_device *usbd_dev,
				     struct usb_setup_data *req, uint8_t **buf,
				     uint16_t *len)
{
 800112c:	b510      	push	{r4, lr}
	int (*command)(usbd_device *usbd_dev, struct usb_setup_data *req,
		       uint8_t **buf, uint16_t *len) = NULL;

	switch (req->bRequest) {
 800112e:	784c      	ldrb	r4, [r1, #1]
 8001130:	2c0a      	cmp	r4, #10
 8001132:	d004      	beq.n	800113e <_usbd_standard_request_interface+0x12>
 8001134:	2c0b      	cmp	r4, #11
 8001136:	d008      	beq.n	800114a <_usbd_standard_request_interface+0x1e>
 8001138:	b12c      	cbz	r4, 8001146 <_usbd_standard_request_interface+0x1a>
		command = usb_standard_interface_get_status;
		break;
	}

	if (!command) {
		return 0;
 800113a:	2000      	movs	r0, #0
 800113c:	e002      	b.n	8001144 <_usbd_standard_request_interface+0x18>
		command = usb_standard_get_interface;
 800113e:	4c05      	ldr	r4, [pc, #20]	; (8001154 <_usbd_standard_request_interface+0x28>)
	if (!command) {
 8001140:	b12c      	cbz	r4, 800114e <_usbd_standard_request_interface+0x22>
	}

	return command(usbd_dev, req, buf, len);
 8001142:	47a0      	blx	r4
}
 8001144:	bd10      	pop	{r4, pc}
		command = usb_standard_interface_get_status;
 8001146:	4c04      	ldr	r4, [pc, #16]	; (8001158 <_usbd_standard_request_interface+0x2c>)
		break;
 8001148:	e7fa      	b.n	8001140 <_usbd_standard_request_interface+0x14>
		command = usb_standard_set_interface;
 800114a:	4c04      	ldr	r4, [pc, #16]	; (800115c <_usbd_standard_request_interface+0x30>)
 800114c:	e7f8      	b.n	8001140 <_usbd_standard_request_interface+0x14>
		return 0;
 800114e:	2000      	movs	r0, #0
 8001150:	e7f8      	b.n	8001144 <_usbd_standard_request_interface+0x18>
 8001152:	bf00      	nop
 8001154:	08001bff 	.word	0x08001bff
 8001158:	08001c55 	.word	0x08001c55
 800115c:	08001ba9 	.word	0x08001ba9

08001160 <_usbd_standard_request_endpoint>:

int _usbd_standard_request_endpoint(usbd_device *usbd_dev,
				    struct usb_setup_data *req, uint8_t **buf,
				    uint16_t *len)
{
 8001160:	b510      	push	{r4, lr}
	int (*command) (usbd_device *usbd_dev, struct usb_setup_data *req,
			uint8_t **buf, uint16_t *len) = NULL;

	switch (req->bRequest) {
 8001162:	784c      	ldrb	r4, [r1, #1]
 8001164:	2c01      	cmp	r4, #1
 8001166:	d004      	beq.n	8001172 <_usbd_standard_request_endpoint+0x12>
 8001168:	b16c      	cbz	r4, 8001186 <_usbd_standard_request_endpoint+0x26>
 800116a:	2c03      	cmp	r4, #3
 800116c:	d007      	beq.n	800117e <_usbd_standard_request_endpoint+0x1e>
		 */
		break;
	}

	if (!command) {
		return 0;
 800116e:	2000      	movs	r0, #0
 8001170:	e00c      	b.n	800118c <_usbd_standard_request_endpoint+0x2c>
		if (req->wValue == USB_FEAT_ENDPOINT_HALT) {
 8001172:	884c      	ldrh	r4, [r1, #2]
 8001174:	b90c      	cbnz	r4, 800117a <_usbd_standard_request_endpoint+0x1a>
			command = usb_standard_endpoint_unstall;
 8001176:	4c08      	ldr	r4, [pc, #32]	; (8001198 <_usbd_standard_request_endpoint+0x38>)
 8001178:	e006      	b.n	8001188 <_usbd_standard_request_endpoint+0x28>
		return 0;
 800117a:	2000      	movs	r0, #0
 800117c:	e006      	b.n	800118c <_usbd_standard_request_endpoint+0x2c>
		if (req->wValue == USB_FEAT_ENDPOINT_HALT) {
 800117e:	884c      	ldrh	r4, [r1, #2]
 8001180:	b92c      	cbnz	r4, 800118e <_usbd_standard_request_endpoint+0x2e>
			command = usb_standard_endpoint_stall;
 8001182:	4c06      	ldr	r4, [pc, #24]	; (800119c <_usbd_standard_request_endpoint+0x3c>)
 8001184:	e000      	b.n	8001188 <_usbd_standard_request_endpoint+0x28>
		command = usb_standard_endpoint_get_status;
 8001186:	4c06      	ldr	r4, [pc, #24]	; (80011a0 <_usbd_standard_request_endpoint+0x40>)
	if (!command) {
 8001188:	b11c      	cbz	r4, 8001192 <_usbd_standard_request_endpoint+0x32>
	}

	return command(usbd_dev, req, buf, len);
 800118a:	47a0      	blx	r4
}
 800118c:	bd10      	pop	{r4, pc}
		return 0;
 800118e:	2000      	movs	r0, #0
 8001190:	e7fc      	b.n	800118c <_usbd_standard_request_endpoint+0x2c>
 8001192:	2000      	movs	r0, #0
 8001194:	e7fa      	b.n	800118c <_usbd_standard_request_endpoint+0x2c>
 8001196:	bf00      	nop
 8001198:	08001f47 	.word	0x08001f47
 800119c:	08001f37 	.word	0x08001f37
 80011a0:	08001f0d 	.word	0x08001f0d

080011a4 <st_usbfs_v1_usbd_init>:
	.poll = st_usbfs_poll,
};

/** Initialize the USB device controller hardware of the STM32. */
static usbd_device *st_usbfs_v1_usbd_init(void)
{
 80011a4:	b508      	push	{r3, lr}
	rcc_periph_clock_enable(RCC_USB);
 80011a6:	f240 3097 	movw	r0, #919	; 0x397
 80011aa:	f000 fab2 	bl	8001712 <rcc_periph_clock_enable>
	SET_REG(USB_CNTR_REG, 0);
 80011ae:	4a06      	ldr	r2, [pc, #24]	; (80011c8 <st_usbfs_v1_usbd_init+0x24>)
 80011b0:	2300      	movs	r3, #0
 80011b2:	6013      	str	r3, [r2, #0]
	SET_REG(USB_BTABLE_REG, 0);
 80011b4:	4905      	ldr	r1, [pc, #20]	; (80011cc <st_usbfs_v1_usbd_init+0x28>)
 80011b6:	600b      	str	r3, [r1, #0]
	SET_REG(USB_ISTR_REG, 0);
 80011b8:	390c      	subs	r1, #12
 80011ba:	600b      	str	r3, [r1, #0]

	/* Enable RESET, SUSPEND, RESUME and CTR interrupts. */
	SET_REG(USB_CNTR_REG, USB_CNTR_RESETM | USB_CNTR_CTRM |
 80011bc:	f44f 431c 	mov.w	r3, #39936	; 0x9c00
 80011c0:	6013      	str	r3, [r2, #0]
		USB_CNTR_SUSPM | USB_CNTR_WKUPM);
	return &st_usbfs_dev;
}
 80011c2:	4803      	ldr	r0, [pc, #12]	; (80011d0 <st_usbfs_v1_usbd_init+0x2c>)
 80011c4:	bd08      	pop	{r3, pc}
 80011c6:	bf00      	nop
 80011c8:	40005c40 	.word	0x40005c40
 80011cc:	40005c50 	.word	0x40005c50
 80011d0:	20000740 	.word	0x20000740

080011d4 <scb_reset_system>:
}
#endif

void scb_reset_system(void)
{
	SCB_AIRCR = SCB_AIRCR_VECTKEY | SCB_AIRCR_SYSRESETREQ;
 80011d4:	4b01      	ldr	r3, [pc, #4]	; (80011dc <scb_reset_system+0x8>)
 80011d6:	4a02      	ldr	r2, [pc, #8]	; (80011e0 <scb_reset_system+0xc>)
 80011d8:	601a      	str	r2, [r3, #0]
 80011da:	e7fe      	b.n	80011da <scb_reset_system+0x6>
 80011dc:	e000ed0c 	.word	0xe000ed0c
 80011e0:	05fa0004 	.word	0x05fa0004

080011e4 <st_usbfs_set_address>:

void st_usbfs_set_address(usbd_device *dev, uint8_t addr)
{
	(void)dev;
	/* Set device address and enable. */
	SET_REG(USB_DADDR_REG, (addr & USB_DADDR_ADDR) | USB_DADDR_EF);
 80011e4:	f041 0180 	orr.w	r1, r1, #128	; 0x80
 80011e8:	4b01      	ldr	r3, [pc, #4]	; (80011f0 <st_usbfs_set_address+0xc>)
 80011ea:	6019      	str	r1, [r3, #0]
}
 80011ec:	4770      	bx	lr
 80011ee:	bf00      	nop
 80011f0:	40005c4c 	.word	0x40005c4c

080011f4 <st_usbfs_set_ep_rx_bufsize>:
 * @param size Size in bytes of the RX buffer.
 */
void st_usbfs_set_ep_rx_bufsize(usbd_device *dev, uint8_t ep, uint32_t size)
{
	(void)dev;
	if (size > 62) {
 80011f4:	2a3e      	cmp	r2, #62	; 0x3e
 80011f6:	d915      	bls.n	8001224 <st_usbfs_set_ep_rx_bufsize+0x30>
		if (size & 0x1f) {
 80011f8:	f012 0f1f 	tst.w	r2, #31
 80011fc:	d000      	beq.n	8001200 <st_usbfs_set_ep_rx_bufsize+0xc>
			size -= 32;
 80011fe:	3a20      	subs	r2, #32
		}
		USB_SET_EP_RX_COUNT(ep, (size << 5) | 0x8000);
 8001200:	4b12      	ldr	r3, [pc, #72]	; (800124c <st_usbfs_set_ep_rx_bufsize+0x58>)
 8001202:	681b      	ldr	r3, [r3, #0]
 8001204:	b29b      	uxth	r3, r3
 8001206:	eb03 03c1 	add.w	r3, r3, r1, lsl #3
 800120a:	3306      	adds	r3, #6
 800120c:	005b      	lsls	r3, r3, #1
 800120e:	f103 4380 	add.w	r3, r3, #1073741824	; 0x40000000
 8001212:	f503 43c0 	add.w	r3, r3, #24576	; 0x6000
 8001216:	ea6f 5282 	mvn.w	r2, r2, lsl #22
 800121a:	ea6f 4252 	mvn.w	r2, r2, lsr #17
 800121e:	b292      	uxth	r2, r2
 8001220:	601a      	str	r2, [r3, #0]
 8001222:	4770      	bx	lr
	} else {
		if (size & 1) {
 8001224:	f012 0f01 	tst.w	r2, #1
 8001228:	d000      	beq.n	800122c <st_usbfs_set_ep_rx_bufsize+0x38>
			size++;
 800122a:	3201      	adds	r2, #1
		}
		USB_SET_EP_RX_COUNT(ep, size << 10);
 800122c:	4b07      	ldr	r3, [pc, #28]	; (800124c <st_usbfs_set_ep_rx_bufsize+0x58>)
 800122e:	681b      	ldr	r3, [r3, #0]
 8001230:	b29b      	uxth	r3, r3
 8001232:	eb03 03c1 	add.w	r3, r3, r1, lsl #3
 8001236:	3306      	adds	r3, #6
 8001238:	005b      	lsls	r3, r3, #1
 800123a:	f103 4380 	add.w	r3, r3, #1073741824	; 0x40000000
 800123e:	f503 43c0 	add.w	r3, r3, #24576	; 0x6000
 8001242:	4903      	ldr	r1, [pc, #12]	; (8001250 <st_usbfs_set_ep_rx_bufsize+0x5c>)
 8001244:	ea01 2282 	and.w	r2, r1, r2, lsl #10
 8001248:	601a      	str	r2, [r3, #0]
	}
}
 800124a:	4770      	bx	lr
 800124c:	40005c50 	.word	0x40005c50
 8001250:	03fffc00 	.word	0x03fffc00

08001254 <st_usbfs_ep_setup>:

void st_usbfs_ep_setup(usbd_device *dev, uint8_t addr, uint8_t type,
		uint16_t max_size,
		void (*callback) (usbd_device *usbd_dev,
		uint8_t ep))
{
 8001254:	e92d 41f0 	stmdb	sp!, {r4, r5, r6, r7, r8, lr}
 8001258:	b082      	sub	sp, #8
 800125a:	4684      	mov	ip, r0
 800125c:	460c      	mov	r4, r1
 800125e:	f8dd 8020 	ldr.w	r8, [sp, #32]
	/* Translate USB standard type codes to STM32. */
	const uint16_t typelookup[] = {
 8001262:	4952      	ldr	r1, [pc, #328]	; (80013ac <st_usbfs_ep_setup+0x158>)
 8001264:	c903      	ldmia	r1, {r0, r1}
 8001266:	ad02      	add	r5, sp, #8
 8001268:	e905 0003 	stmdb	r5, {r0, r1}
		[USB_ENDPOINT_ATTR_ISOCHRONOUS] = USB_EP_TYPE_ISO,
		[USB_ENDPOINT_ATTR_BULK] = USB_EP_TYPE_BULK,
		[USB_ENDPOINT_ATTR_INTERRUPT] = USB_EP_TYPE_INTERRUPT,
	};
	uint8_t dir = addr & 0x80;
	addr &= 0x7f;
 800126c:	f004 077f 	and.w	r7, r4, #127	; 0x7f

	/* Assign address. */
	USB_SET_EP_ADDR(addr, addr);
 8001270:	00be      	lsls	r6, r7, #2
 8001272:	f106 4680 	add.w	r6, r6, #1073741824	; 0x40000000
 8001276:	f506 46b8 	add.w	r6, r6, #23552	; 0x5c00
 800127a:	6831      	ldr	r1, [r6, #0]
 800127c:	b209      	sxth	r1, r1
 800127e:	f421 41e0 	bic.w	r1, r1, #28672	; 0x7000
 8001282:	f021 017f 	bic.w	r1, r1, #127	; 0x7f
 8001286:	4339      	orrs	r1, r7
 8001288:	b289      	uxth	r1, r1
 800128a:	6031      	str	r1, [r6, #0]
	USB_SET_EP_TYPE(addr, typelookup[type]);
 800128c:	6831      	ldr	r1, [r6, #0]
 800128e:	f421 41ec 	bic.w	r1, r1, #30208	; 0x7600
 8001292:	f021 0170 	bic.w	r1, r1, #112	; 0x70
 8001296:	0409      	lsls	r1, r1, #16
 8001298:	0c09      	lsrs	r1, r1, #16
 800129a:	eb05 0242 	add.w	r2, r5, r2, lsl #1
 800129e:	f832 2c08 	ldrh.w	r2, [r2, #-8]
 80012a2:	4311      	orrs	r1, r2
 80012a4:	6031      	str	r1, [r6, #0]
 80012a6:	b262      	sxtb	r2, r4

	if (dir || (addr == 0)) {
 80012a8:	2a00      	cmp	r2, #0
 80012aa:	db01      	blt.n	80012b0 <st_usbfs_ep_setup+0x5c>
 80012ac:	2f00      	cmp	r7, #0
 80012ae:	d138      	bne.n	8001322 <st_usbfs_ep_setup+0xce>
		USB_SET_EP_TX_ADDR(addr, dev->pm_top);
 80012b0:	f8bc 0018 	ldrh.w	r0, [ip, #24]
 80012b4:	493e      	ldr	r1, [pc, #248]	; (80013b0 <st_usbfs_ep_setup+0x15c>)
 80012b6:	6809      	ldr	r1, [r1, #0]
 80012b8:	b289      	uxth	r1, r1
 80012ba:	eb01 01c7 	add.w	r1, r1, r7, lsl #3
 80012be:	0049      	lsls	r1, r1, #1
 80012c0:	f101 4180 	add.w	r1, r1, #1073741824	; 0x40000000
 80012c4:	f501 41c0 	add.w	r1, r1, #24576	; 0x6000
 80012c8:	6008      	str	r0, [r1, #0]
		if (callback) {
 80012ca:	f1b8 0f00 	cmp.w	r8, #0
 80012ce:	d005      	beq.n	80012dc <st_usbfs_ep_setup+0x88>
			dev->user_callback_ctr[addr][USB_TRANSACTION_IN] =
 80012d0:	eb07 0047 	add.w	r0, r7, r7, lsl #1
 80012d4:	0081      	lsls	r1, r0, #2
 80012d6:	4461      	add	r1, ip
 80012d8:	f8c1 8064 	str.w	r8, [r1, #100]	; 0x64
			    (void *)callback;
		}
		USB_CLR_EP_TX_DTOG(addr);
 80012dc:	6831      	ldr	r1, [r6, #0]
 80012de:	f421 41e0 	bic.w	r1, r1, #28672	; 0x7000
 80012e2:	f021 0130 	bic.w	r1, r1, #48	; 0x30
 80012e6:	0409      	lsls	r1, r1, #16
 80012e8:	0c09      	lsrs	r1, r1, #16
 80012ea:	6031      	str	r1, [r6, #0]
		USB_SET_EP_TX_STAT(addr, USB_EP_TX_STAT_NAK);
 80012ec:	6835      	ldr	r5, [r6, #0]
 80012ee:	b2ad      	uxth	r5, r5
 80012f0:	f425 45e0 	bic.w	r5, r5, #28672	; 0x7000
 80012f4:	f025 0540 	bic.w	r5, r5, #64	; 0x40
 80012f8:	b2ad      	uxth	r5, r5
 80012fa:	2401      	movs	r4, #1
 80012fc:	e001      	b.n	8001302 <st_usbfs_ep_setup+0xae>
 80012fe:	0064      	lsls	r4, r4, #1
 8001300:	b2a4      	uxth	r4, r4
 8001302:	b124      	cbz	r4, 800130e <st_usbfs_ep_setup+0xba>
 8001304:	f014 0f20 	tst.w	r4, #32
 8001308:	d0f9      	beq.n	80012fe <st_usbfs_ep_setup+0xaa>
 800130a:	4065      	eors	r5, r4
 800130c:	e7f7      	b.n	80012fe <st_usbfs_ep_setup+0xaa>
 800130e:	f445 4500 	orr.w	r5, r5, #32768	; 0x8000
 8001312:	f045 0580 	orr.w	r5, r5, #128	; 0x80
 8001316:	6035      	str	r5, [r6, #0]
		dev->pm_top += max_size;
 8001318:	f8bc 1018 	ldrh.w	r1, [ip, #24]
 800131c:	4419      	add	r1, r3
 800131e:	f8ac 1018 	strh.w	r1, [ip, #24]
	}

	if (!dir) {
 8001322:	2a00      	cmp	r2, #0
 8001324:	db3e      	blt.n	80013a4 <st_usbfs_ep_setup+0x150>
 8001326:	461c      	mov	r4, r3
 8001328:	4665      	mov	r5, ip
		USB_SET_EP_RX_ADDR(addr, dev->pm_top);
 800132a:	f8bc 2018 	ldrh.w	r2, [ip, #24]
 800132e:	4b20      	ldr	r3, [pc, #128]	; (80013b0 <st_usbfs_ep_setup+0x15c>)
 8001330:	681b      	ldr	r3, [r3, #0]
 8001332:	b29b      	uxth	r3, r3
 8001334:	eb03 03c7 	add.w	r3, r3, r7, lsl #3
 8001338:	3304      	adds	r3, #4
 800133a:	005b      	lsls	r3, r3, #1
 800133c:	f103 4380 	add.w	r3, r3, #1073741824	; 0x40000000
 8001340:	f503 43c0 	add.w	r3, r3, #24576	; 0x6000
 8001344:	601a      	str	r2, [r3, #0]
		st_usbfs_set_ep_rx_bufsize(dev, addr, max_size);
 8001346:	4622      	mov	r2, r4
 8001348:	4639      	mov	r1, r7
 800134a:	4660      	mov	r0, ip
 800134c:	f7ff ff52 	bl	80011f4 <st_usbfs_set_ep_rx_bufsize>
		if (callback) {
 8001350:	f1b8 0f00 	cmp.w	r8, #0
 8001354:	d005      	beq.n	8001362 <st_usbfs_ep_setup+0x10e>
			dev->user_callback_ctr[addr][USB_TRANSACTION_OUT] =
 8001356:	eb07 0747 	add.w	r7, r7, r7, lsl #1
 800135a:	00bb      	lsls	r3, r7, #2
 800135c:	442b      	add	r3, r5
 800135e:	f8c3 8068 	str.w	r8, [r3, #104]	; 0x68
			    (void *)callback;
		}
		USB_CLR_EP_RX_DTOG(addr);
 8001362:	6833      	ldr	r3, [r6, #0]
 8001364:	f423 5341 	bic.w	r3, r3, #12352	; 0x3040
 8001368:	f023 0330 	bic.w	r3, r3, #48	; 0x30
 800136c:	041b      	lsls	r3, r3, #16
 800136e:	0c1b      	lsrs	r3, r3, #16
 8001370:	6033      	str	r3, [r6, #0]
		USB_SET_EP_RX_STAT(addr, USB_EP_RX_STAT_VALID);
 8001372:	6833      	ldr	r3, [r6, #0]
 8001374:	b29b      	uxth	r3, r3
 8001376:	f423 4380 	bic.w	r3, r3, #16384	; 0x4000
 800137a:	f023 0370 	bic.w	r3, r3, #112	; 0x70
 800137e:	b29b      	uxth	r3, r3
 8001380:	2201      	movs	r2, #1
 8001382:	e001      	b.n	8001388 <st_usbfs_ep_setup+0x134>
 8001384:	0052      	lsls	r2, r2, #1
 8001386:	b292      	uxth	r2, r2
 8001388:	b122      	cbz	r2, 8001394 <st_usbfs_ep_setup+0x140>
 800138a:	f412 5f40 	tst.w	r2, #12288	; 0x3000
 800138e:	d0f9      	beq.n	8001384 <st_usbfs_ep_setup+0x130>
 8001390:	4053      	eors	r3, r2
 8001392:	e7f7      	b.n	8001384 <st_usbfs_ep_setup+0x130>
 8001394:	f443 4300 	orr.w	r3, r3, #32768	; 0x8000
 8001398:	f043 0380 	orr.w	r3, r3, #128	; 0x80
 800139c:	6033      	str	r3, [r6, #0]
		dev->pm_top += max_size;
 800139e:	8b2b      	ldrh	r3, [r5, #24]
 80013a0:	4423      	add	r3, r4
 80013a2:	832b      	strh	r3, [r5, #24]
	}
}
 80013a4:	b002      	add	sp, #8
 80013a6:	e8bd 81f0 	ldmia.w	sp!, {r4, r5, r6, r7, r8, pc}
 80013aa:	bf00      	nop
 80013ac:	0800466c 	.word	0x0800466c
 80013b0:	40005c50 	.word	0x40005c50

080013b4 <st_usbfs_ep_nak_set>:

void st_usbfs_ep_nak_set(usbd_device *dev, uint8_t addr, uint8_t nak)
{
	(void)dev;
	/* It does not make sence to force NAK on IN endpoints. */
	if (addr & 0x80) {
 80013b4:	f011 0f80 	tst.w	r1, #128	; 0x80
 80013b8:	d139      	bne.n	800142e <st_usbfs_ep_nak_set+0x7a>
		return;
	}

	st_usbfs_force_nak[addr] = nak;
 80013ba:	4b1d      	ldr	r3, [pc, #116]	; (8001430 <st_usbfs_ep_nak_set+0x7c>)
 80013bc:	545a      	strb	r2, [r3, r1]

	if (nak) {
 80013be:	b1da      	cbz	r2, 80013f8 <st_usbfs_ep_nak_set+0x44>
		USB_SET_EP_RX_STAT(addr, USB_EP_RX_STAT_NAK);
 80013c0:	0089      	lsls	r1, r1, #2
 80013c2:	f101 4180 	add.w	r1, r1, #1073741824	; 0x40000000
 80013c6:	f501 41b8 	add.w	r1, r1, #23552	; 0x5c00
 80013ca:	680a      	ldr	r2, [r1, #0]
 80013cc:	b292      	uxth	r2, r2
 80013ce:	f422 4280 	bic.w	r2, r2, #16384	; 0x4000
 80013d2:	f022 0270 	bic.w	r2, r2, #112	; 0x70
 80013d6:	b292      	uxth	r2, r2
 80013d8:	2301      	movs	r3, #1
 80013da:	e001      	b.n	80013e0 <st_usbfs_ep_nak_set+0x2c>
 80013dc:	005b      	lsls	r3, r3, #1
 80013de:	b29b      	uxth	r3, r3
 80013e0:	b123      	cbz	r3, 80013ec <st_usbfs_ep_nak_set+0x38>
 80013e2:	f413 5f00 	tst.w	r3, #8192	; 0x2000
 80013e6:	d0f9      	beq.n	80013dc <st_usbfs_ep_nak_set+0x28>
 80013e8:	405a      	eors	r2, r3
 80013ea:	e7f7      	b.n	80013dc <st_usbfs_ep_nak_set+0x28>
 80013ec:	f442 4200 	orr.w	r2, r2, #32768	; 0x8000
 80013f0:	f042 0280 	orr.w	r2, r2, #128	; 0x80
 80013f4:	600a      	str	r2, [r1, #0]
 80013f6:	4770      	bx	lr
	} else {
		USB_SET_EP_RX_STAT(addr, USB_EP_RX_STAT_VALID);
 80013f8:	0089      	lsls	r1, r1, #2
 80013fa:	f101 4180 	add.w	r1, r1, #1073741824	; 0x40000000
 80013fe:	f501 41b8 	add.w	r1, r1, #23552	; 0x5c00
 8001402:	680a      	ldr	r2, [r1, #0]
 8001404:	b292      	uxth	r2, r2
 8001406:	f422 4280 	bic.w	r2, r2, #16384	; 0x4000
 800140a:	f022 0270 	bic.w	r2, r2, #112	; 0x70
 800140e:	b292      	uxth	r2, r2
 8001410:	2301      	movs	r3, #1
 8001412:	e001      	b.n	8001418 <st_usbfs_ep_nak_set+0x64>
 8001414:	005b      	lsls	r3, r3, #1
 8001416:	b29b      	uxth	r3, r3
 8001418:	b123      	cbz	r3, 8001424 <st_usbfs_ep_nak_set+0x70>
 800141a:	f413 5f40 	tst.w	r3, #12288	; 0x3000
 800141e:	d0f9      	beq.n	8001414 <st_usbfs_ep_nak_set+0x60>
 8001420:	405a      	eors	r2, r3
 8001422:	e7f7      	b.n	8001414 <st_usbfs_ep_nak_set+0x60>
 8001424:	f442 4200 	orr.w	r2, r2, #32768	; 0x8000
 8001428:	f042 0280 	orr.w	r2, r2, #128	; 0x80
 800142c:	600a      	str	r2, [r1, #0]
	}
}
 800142e:	4770      	bx	lr
 8001430:	20000738 	.word	0x20000738

08001434 <st_usbfs_ep_write_packet>:

uint16_t st_usbfs_ep_write_packet(usbd_device *dev, uint8_t addr,
				     const void *buf, uint16_t len)
{
 8001434:	b5f8      	push	{r3, r4, r5, r6, r7, lr}
	(void)dev;
	addr &= 0x7F;
 8001436:	f001 067f 	and.w	r6, r1, #127	; 0x7f

	if ((*USB_EP_REG(addr) & USB_EP_TX_STAT) == USB_EP_TX_STAT_VALID) {
 800143a:	00b4      	lsls	r4, r6, #2
 800143c:	f104 4480 	add.w	r4, r4, #1073741824	; 0x40000000
 8001440:	f504 44b8 	add.w	r4, r4, #23552	; 0x5c00
 8001444:	6827      	ldr	r7, [r4, #0]
 8001446:	f007 0730 	and.w	r7, r7, #48	; 0x30
 800144a:	2f30      	cmp	r7, #48	; 0x30
 800144c:	d036      	beq.n	80014bc <st_usbfs_ep_write_packet+0x88>
 800144e:	461d      	mov	r5, r3
 8001450:	4611      	mov	r1, r2
		return 0;
	}

	st_usbfs_copy_to_pm(USB_GET_EP_TX_BUFF(addr), buf, len);
 8001452:	4f1b      	ldr	r7, [pc, #108]	; (80014c0 <st_usbfs_ep_write_packet+0x8c>)
 8001454:	683b      	ldr	r3, [r7, #0]
 8001456:	b29b      	uxth	r3, r3
 8001458:	00f6      	lsls	r6, r6, #3
 800145a:	4433      	add	r3, r6
 800145c:	005b      	lsls	r3, r3, #1
 800145e:	f103 4380 	add.w	r3, r3, #1073741824	; 0x40000000
 8001462:	f503 43c0 	add.w	r3, r3, #24576	; 0x6000
 8001466:	8818      	ldrh	r0, [r3, #0]
 8001468:	0040      	lsls	r0, r0, #1
 800146a:	462a      	mov	r2, r5
 800146c:	f100 4080 	add.w	r0, r0, #1073741824	; 0x40000000
 8001470:	f500 40c0 	add.w	r0, r0, #24576	; 0x6000
 8001474:	f000 fd9c 	bl	8001fb0 <st_usbfs_copy_to_pm>
	USB_SET_EP_TX_COUNT(addr, len);
 8001478:	683b      	ldr	r3, [r7, #0]
 800147a:	b29b      	uxth	r3, r3
 800147c:	4433      	add	r3, r6
 800147e:	3302      	adds	r3, #2
 8001480:	005b      	lsls	r3, r3, #1
 8001482:	f103 4380 	add.w	r3, r3, #1073741824	; 0x40000000
 8001486:	f503 43c0 	add.w	r3, r3, #24576	; 0x6000
 800148a:	601d      	str	r5, [r3, #0]
	USB_SET_EP_TX_STAT(addr, USB_EP_TX_STAT_VALID);
 800148c:	6821      	ldr	r1, [r4, #0]
 800148e:	b289      	uxth	r1, r1
 8001490:	f421 41e0 	bic.w	r1, r1, #28672	; 0x7000
 8001494:	f021 0140 	bic.w	r1, r1, #64	; 0x40
 8001498:	b289      	uxth	r1, r1
 800149a:	2201      	movs	r2, #1
 800149c:	e001      	b.n	80014a2 <st_usbfs_ep_write_packet+0x6e>
 800149e:	0052      	lsls	r2, r2, #1
 80014a0:	b292      	uxth	r2, r2
 80014a2:	b122      	cbz	r2, 80014ae <st_usbfs_ep_write_packet+0x7a>
 80014a4:	f012 0f30 	tst.w	r2, #48	; 0x30
 80014a8:	d0f9      	beq.n	800149e <st_usbfs_ep_write_packet+0x6a>
 80014aa:	4051      	eors	r1, r2
 80014ac:	e7f7      	b.n	800149e <st_usbfs_ep_write_packet+0x6a>
 80014ae:	f441 4100 	orr.w	r1, r1, #32768	; 0x8000
 80014b2:	f041 0180 	orr.w	r1, r1, #128	; 0x80
 80014b6:	6021      	str	r1, [r4, #0]

	return len;
 80014b8:	4628      	mov	r0, r5
}
 80014ba:	bdf8      	pop	{r3, r4, r5, r6, r7, pc}
		return 0;
 80014bc:	2000      	movs	r0, #0
 80014be:	e7fc      	b.n	80014ba <st_usbfs_ep_write_packet+0x86>
 80014c0:	40005c50 	.word	0x40005c50

080014c4 <st_usbfs_ep_read_packet>:

uint16_t st_usbfs_ep_read_packet(usbd_device *dev, uint8_t addr,
					 void *buf, uint16_t len)
{
 80014c4:	b5f8      	push	{r3, r4, r5, r6, r7, lr}
	(void)dev;
	if ((*USB_EP_REG(addr) & USB_EP_RX_STAT) == USB_EP_RX_STAT_VALID) {
 80014c6:	008c      	lsls	r4, r1, #2
 80014c8:	f104 4480 	add.w	r4, r4, #1073741824	; 0x40000000
 80014cc:	f504 44b8 	add.w	r4, r4, #23552	; 0x5c00
 80014d0:	6820      	ldr	r0, [r4, #0]
 80014d2:	f400 5040 	and.w	r0, r0, #12288	; 0x3000
 80014d6:	f5b0 5f40 	cmp.w	r0, #12288	; 0x3000
 80014da:	d056      	beq.n	800158a <st_usbfs_ep_read_packet+0xc6>
		return 0;
	}

	len = MIN(USB_GET_EP_RX_COUNT(addr) & 0x3ff, len);
 80014dc:	482c      	ldr	r0, [pc, #176]	; (8001590 <st_usbfs_ep_read_packet+0xcc>)
 80014de:	6806      	ldr	r6, [r0, #0]
 80014e0:	b2b6      	uxth	r6, r6
 80014e2:	00cf      	lsls	r7, r1, #3
 80014e4:	443e      	add	r6, r7
 80014e6:	3606      	adds	r6, #6
 80014e8:	0076      	lsls	r6, r6, #1
 80014ea:	f106 4680 	add.w	r6, r6, #1073741824	; 0x40000000
 80014ee:	f506 46c0 	add.w	r6, r6, #24576	; 0x6000
 80014f2:	8830      	ldrh	r0, [r6, #0]
 80014f4:	f3c0 0009 	ubfx	r0, r0, #0, #10
 80014f8:	4298      	cmp	r0, r3
 80014fa:	da0d      	bge.n	8001518 <st_usbfs_ep_read_packet+0x54>
 80014fc:	4b24      	ldr	r3, [pc, #144]	; (8001590 <st_usbfs_ep_read_packet+0xcc>)
 80014fe:	681b      	ldr	r3, [r3, #0]
 8001500:	b29b      	uxth	r3, r3
 8001502:	443b      	add	r3, r7
 8001504:	3306      	adds	r3, #6
 8001506:	005b      	lsls	r3, r3, #1
 8001508:	f103 4380 	add.w	r3, r3, #1073741824	; 0x40000000
 800150c:	f503 43c0 	add.w	r3, r3, #24576	; 0x6000
 8001510:	881d      	ldrh	r5, [r3, #0]
 8001512:	f3c5 0509 	ubfx	r5, r5, #0, #10
 8001516:	e000      	b.n	800151a <st_usbfs_ep_read_packet+0x56>
 8001518:	461d      	mov	r5, r3
 800151a:	4610      	mov	r0, r2
 800151c:	460e      	mov	r6, r1
	st_usbfs_copy_from_pm(buf, USB_GET_EP_RX_BUFF(addr), len);
 800151e:	4b1c      	ldr	r3, [pc, #112]	; (8001590 <st_usbfs_ep_read_packet+0xcc>)
 8001520:	681b      	ldr	r3, [r3, #0]
 8001522:	b29b      	uxth	r3, r3
 8001524:	443b      	add	r3, r7
 8001526:	3304      	adds	r3, #4
 8001528:	005b      	lsls	r3, r3, #1
 800152a:	f103 4380 	add.w	r3, r3, #1073741824	; 0x40000000
 800152e:	f503 43c0 	add.w	r3, r3, #24576	; 0x6000
 8001532:	8819      	ldrh	r1, [r3, #0]
 8001534:	0049      	lsls	r1, r1, #1
 8001536:	462a      	mov	r2, r5
 8001538:	f101 4180 	add.w	r1, r1, #1073741824	; 0x40000000
 800153c:	f501 41c0 	add.w	r1, r1, #24576	; 0x6000
 8001540:	f000 fd42 	bl	8001fc8 <st_usbfs_copy_from_pm>
	USB_CLR_EP_RX_CTR(addr);
 8001544:	6823      	ldr	r3, [r4, #0]
 8001546:	f023 03f0 	bic.w	r3, r3, #240	; 0xf0
 800154a:	051b      	lsls	r3, r3, #20
 800154c:	0d1b      	lsrs	r3, r3, #20
 800154e:	f043 0380 	orr.w	r3, r3, #128	; 0x80
 8001552:	6023      	str	r3, [r4, #0]

	if (!st_usbfs_force_nak[addr]) {
 8001554:	4b0f      	ldr	r3, [pc, #60]	; (8001594 <st_usbfs_ep_read_packet+0xd0>)
 8001556:	5d9b      	ldrb	r3, [r3, r6]
 8001558:	b9ab      	cbnz	r3, 8001586 <st_usbfs_ep_read_packet+0xc2>
		USB_SET_EP_RX_STAT(addr, USB_EP_RX_STAT_VALID);
 800155a:	6821      	ldr	r1, [r4, #0]
 800155c:	b289      	uxth	r1, r1
 800155e:	f421 4180 	bic.w	r1, r1, #16384	; 0x4000
 8001562:	f021 0170 	bic.w	r1, r1, #112	; 0x70
 8001566:	b289      	uxth	r1, r1
 8001568:	2201      	movs	r2, #1
 800156a:	e001      	b.n	8001570 <st_usbfs_ep_read_packet+0xac>
 800156c:	0052      	lsls	r2, r2, #1
 800156e:	b292      	uxth	r2, r2
 8001570:	b122      	cbz	r2, 800157c <st_usbfs_ep_read_packet+0xb8>
 8001572:	f412 5f40 	tst.w	r2, #12288	; 0x3000
 8001576:	d0f9      	beq.n	800156c <st_usbfs_ep_read_packet+0xa8>
 8001578:	4051      	eors	r1, r2
 800157a:	e7f7      	b.n	800156c <st_usbfs_ep_read_packet+0xa8>
 800157c:	f441 4100 	orr.w	r1, r1, #32768	; 0x8000
 8001580:	f041 0180 	orr.w	r1, r1, #128	; 0x80
 8001584:	6021      	str	r1, [r4, #0]
	}

	return len;
}
 8001586:	4628      	mov	r0, r5
 8001588:	bdf8      	pop	{r3, r4, r5, r6, r7, pc}
		return 0;
 800158a:	2500      	movs	r5, #0
 800158c:	e7fb      	b.n	8001586 <st_usbfs_ep_read_packet+0xc2>
 800158e:	bf00      	nop
 8001590:	40005c50 	.word	0x40005c50
 8001594:	20000738 	.word	0x20000738

08001598 <st_usbfs_poll>:

void st_usbfs_poll(usbd_device *dev)
{
 8001598:	b538      	push	{r3, r4, r5, lr}
 800159a:	4605      	mov	r5, r0
	uint16_t istr = *USB_ISTR_REG;
 800159c:	4b3b      	ldr	r3, [pc, #236]	; (800168c <st_usbfs_poll+0xf4>)
 800159e:	6819      	ldr	r1, [r3, #0]

	if (istr & USB_ISTR_RESET) {
 80015a0:	b28c      	uxth	r4, r1
 80015a2:	f414 6f80 	tst.w	r4, #1024	; 0x400
 80015a6:	d129      	bne.n	80015fc <st_usbfs_poll+0x64>
		dev->pm_top = USBD_PM_TOP;
		_usbd_reset(dev);
		return;
	}

	if (istr & USB_ISTR_CTR) {
 80015a8:	f411 4f00 	tst.w	r1, #32768	; 0x8000
 80015ac:	d12e      	bne.n	800160c <st_usbfs_poll+0x74>
		} else {
			USB_CLR_EP_RX_CTR(ep);
		}
	}

	if (istr & USB_ISTR_SUSP) {
 80015ae:	f414 6f00 	tst.w	r4, #2048	; 0x800
 80015b2:	d006      	beq.n	80015c2 <st_usbfs_poll+0x2a>
		USB_CLR_ISTR_SUSP();
 80015b4:	4b35      	ldr	r3, [pc, #212]	; (800168c <st_usbfs_poll+0xf4>)
 80015b6:	f24f 72ff 	movw	r2, #63487	; 0xf7ff
 80015ba:	601a      	str	r2, [r3, #0]
		if (dev->user_callback_suspend) {
 80015bc:	6a2b      	ldr	r3, [r5, #32]
 80015be:	b103      	cbz	r3, 80015c2 <st_usbfs_poll+0x2a>
			dev->user_callback_suspend();
 80015c0:	4798      	blx	r3
		}
	}

	if (istr & USB_ISTR_WKUP) {
 80015c2:	f414 5f80 	tst.w	r4, #4096	; 0x1000
 80015c6:	d006      	beq.n	80015d6 <st_usbfs_poll+0x3e>
		USB_CLR_ISTR_WKUP();
 80015c8:	4b30      	ldr	r3, [pc, #192]	; (800168c <st_usbfs_poll+0xf4>)
 80015ca:	f64e 72ff 	movw	r2, #61439	; 0xefff
 80015ce:	601a      	str	r2, [r3, #0]
		if (dev->user_callback_resume) {
 80015d0:	6a6b      	ldr	r3, [r5, #36]	; 0x24
 80015d2:	b103      	cbz	r3, 80015d6 <st_usbfs_poll+0x3e>
			dev->user_callback_resume();
 80015d4:	4798      	blx	r3
		}
	}

	if (istr & USB_ISTR_SOF) {
 80015d6:	f414 7f00 	tst.w	r4, #512	; 0x200
 80015da:	d006      	beq.n	80015ea <st_usbfs_poll+0x52>
		USB_CLR_ISTR_SOF();
 80015dc:	4b2b      	ldr	r3, [pc, #172]	; (800168c <st_usbfs_poll+0xf4>)
 80015de:	f64f 52ff 	movw	r2, #65023	; 0xfdff
 80015e2:	601a      	str	r2, [r3, #0]
		if (dev->user_callback_sof) {
 80015e4:	6aab      	ldr	r3, [r5, #40]	; 0x28
 80015e6:	b103      	cbz	r3, 80015ea <st_usbfs_poll+0x52>
			dev->user_callback_sof();
 80015e8:	4798      	blx	r3
		}
	}

	if (dev->user_callback_sof) {
 80015ea:	6aab      	ldr	r3, [r5, #40]	; 0x28
 80015ec:	2b00      	cmp	r3, #0
 80015ee:	d046      	beq.n	800167e <st_usbfs_poll+0xe6>
		*USB_CNTR_REG |= USB_CNTR_SOFM;
 80015f0:	4a27      	ldr	r2, [pc, #156]	; (8001690 <st_usbfs_poll+0xf8>)
 80015f2:	6813      	ldr	r3, [r2, #0]
 80015f4:	f443 7300 	orr.w	r3, r3, #512	; 0x200
 80015f8:	6013      	str	r3, [r2, #0]
	} else {
		*USB_CNTR_REG &= ~USB_CNTR_SOFM;
	}
}
 80015fa:	bd38      	pop	{r3, r4, r5, pc}
		USB_CLR_ISTR_RESET();
 80015fc:	f64f 32ff 	movw	r2, #64511	; 0xfbff
 8001600:	601a      	str	r2, [r3, #0]
		dev->pm_top = USBD_PM_TOP;
 8001602:	2340      	movs	r3, #64	; 0x40
 8001604:	8303      	strh	r3, [r0, #24]
		_usbd_reset(dev);
 8001606:	f000 f8b5 	bl	8001774 <_usbd_reset>
		return;
 800160a:	e7f6      	b.n	80015fa <st_usbfs_poll+0x62>
		uint8_t ep = istr & USB_ISTR_EP_ID;
 800160c:	f001 010f 	and.w	r1, r1, #15
		if (istr & USB_ISTR_DIR) {
 8001610:	f014 0f10 	tst.w	r4, #16
 8001614:	d00a      	beq.n	800162c <st_usbfs_poll+0x94>
			if (*USB_EP_REG(ep) & USB_EP_SETUP) {
 8001616:	008b      	lsls	r3, r1, #2
 8001618:	f103 4380 	add.w	r3, r3, #1073741824	; 0x40000000
 800161c:	f503 43b8 	add.w	r3, r3, #23552	; 0x5c00
 8001620:	681b      	ldr	r3, [r3, #0]
 8001622:	f413 6f00 	tst.w	r3, #2048	; 0x800
 8001626:	d01a      	beq.n	800165e <st_usbfs_poll+0xc6>
				type = USB_TRANSACTION_SETUP;
 8001628:	2202      	movs	r2, #2
 800162a:	e00d      	b.n	8001648 <st_usbfs_poll+0xb0>
			USB_CLR_EP_TX_CTR(ep);
 800162c:	008b      	lsls	r3, r1, #2
 800162e:	f103 4380 	add.w	r3, r3, #1073741824	; 0x40000000
 8001632:	f503 43b8 	add.w	r3, r3, #23552	; 0x5c00
 8001636:	681a      	ldr	r2, [r3, #0]
 8001638:	f022 02f0 	bic.w	r2, r2, #240	; 0xf0
 800163c:	0512      	lsls	r2, r2, #20
 800163e:	0d12      	lsrs	r2, r2, #20
 8001640:	f442 4200 	orr.w	r2, r2, #32768	; 0x8000
 8001644:	601a      	str	r2, [r3, #0]
			type = USB_TRANSACTION_IN;
 8001646:	2200      	movs	r2, #0
		if (dev->user_callback_ctr[ep][type]) {
 8001648:	eb01 0341 	add.w	r3, r1, r1, lsl #1
 800164c:	4413      	add	r3, r2
 800164e:	3318      	adds	r3, #24
 8001650:	eb05 0383 	add.w	r3, r5, r3, lsl #2
 8001654:	685b      	ldr	r3, [r3, #4]
 8001656:	b123      	cbz	r3, 8001662 <st_usbfs_poll+0xca>
			dev->user_callback_ctr[ep][type] (dev, ep);
 8001658:	4628      	mov	r0, r5
 800165a:	4798      	blx	r3
 800165c:	e7a7      	b.n	80015ae <st_usbfs_poll+0x16>
				type = USB_TRANSACTION_OUT;
 800165e:	2201      	movs	r2, #1
 8001660:	e7f2      	b.n	8001648 <st_usbfs_poll+0xb0>
			USB_CLR_EP_RX_CTR(ep);
 8001662:	0089      	lsls	r1, r1, #2
 8001664:	f101 4180 	add.w	r1, r1, #1073741824	; 0x40000000
 8001668:	f501 41b8 	add.w	r1, r1, #23552	; 0x5c00
 800166c:	680b      	ldr	r3, [r1, #0]
 800166e:	f023 03f0 	bic.w	r3, r3, #240	; 0xf0
 8001672:	051b      	lsls	r3, r3, #20
 8001674:	0d1b      	lsrs	r3, r3, #20
 8001676:	f043 0380 	orr.w	r3, r3, #128	; 0x80
 800167a:	600b      	str	r3, [r1, #0]
 800167c:	e797      	b.n	80015ae <st_usbfs_poll+0x16>
		*USB_CNTR_REG &= ~USB_CNTR_SOFM;
 800167e:	4a04      	ldr	r2, [pc, #16]	; (8001690 <st_usbfs_poll+0xf8>)
 8001680:	6813      	ldr	r3, [r2, #0]
 8001682:	f423 7300 	bic.w	r3, r3, #512	; 0x200
 8001686:	6013      	str	r3, [r2, #0]
 8001688:	e7b7      	b.n	80015fa <st_usbfs_poll+0x62>
 800168a:	bf00      	nop
 800168c:	40005c44 	.word	0x40005c44
 8001690:	40005c40 	.word	0x40005c40

08001694 <gpio_set_mode>:
	     If multiple pins are to be set, use logical OR '|' to separate
	     them.
*/

void gpio_set_mode(uint32_t gpioport, uint8_t mode, uint8_t cnf, uint16_t gpios)
{
 8001694:	b5f0      	push	{r4, r5, r6, r7, lr}

	/*
	 * We want to set the config only for the pins mentioned in gpios,
	 * but keeping the others, so read out the actual config first.
	 */
	crl = GPIO_CRL(gpioport);
 8001696:	6807      	ldr	r7, [r0, #0]
	crh = GPIO_CRH(gpioport);
 8001698:	6846      	ldr	r6, [r0, #4]

	/* Iterate over all bits, use i as the bitnumber. */
	for (i = 0; i < 16; i++) {
 800169a:	2400      	movs	r4, #0
 800169c:	e009      	b.n	80016b2 <gpio_set_mode+0x1e>
		if (!((1 << i) & gpios)) {
			continue;
		}

		/* Calculate bit offset. */
		offset = (i < 8) ? (i * 4) : ((i - 8) * 4);
 800169e:	f504 557f 	add.w	r5, r4, #16320	; 0x3fc0
 80016a2:	3538      	adds	r5, #56	; 0x38
 80016a4:	00ad      	lsls	r5, r5, #2
 80016a6:	b2ad      	uxth	r5, r5
 80016a8:	e00e      	b.n	80016c8 <gpio_set_mode+0x34>

		/* Use tmp32 to either modify crl or crh. */
		tmp32 = (i < 8) ? crl : crh;
 80016aa:	46b6      	mov	lr, r6
 80016ac:	e00f      	b.n	80016ce <gpio_set_mode+0x3a>
	for (i = 0; i < 16; i++) {
 80016ae:	3401      	adds	r4, #1
 80016b0:	b2a4      	uxth	r4, r4
 80016b2:	2c0f      	cmp	r4, #15
 80016b4:	d821      	bhi.n	80016fa <gpio_set_mode+0x66>
		if (!((1 << i) & gpios)) {
 80016b6:	fa43 f504 	asr.w	r5, r3, r4
 80016ba:	f015 0f01 	tst.w	r5, #1
 80016be:	d0f6      	beq.n	80016ae <gpio_set_mode+0x1a>
		offset = (i < 8) ? (i * 4) : ((i - 8) * 4);
 80016c0:	2c07      	cmp	r4, #7
 80016c2:	d8ec      	bhi.n	800169e <gpio_set_mode+0xa>
 80016c4:	00a5      	lsls	r5, r4, #2
 80016c6:	b2ad      	uxth	r5, r5
		tmp32 = (i < 8) ? crl : crh;
 80016c8:	2c07      	cmp	r4, #7
 80016ca:	d8ee      	bhi.n	80016aa <gpio_set_mode+0x16>
 80016cc:	46be      	mov	lr, r7

		/* Modify bits are needed. */
		tmp32 &= ~(0xf << offset);	/* Clear the bits first. */
 80016ce:	f04f 0c0f 	mov.w	ip, #15
 80016d2:	fa0c fc05 	lsl.w	ip, ip, r5
 80016d6:	ea2e 0e0c 	bic.w	lr, lr, ip
		tmp32 |= (mode << offset) | (cnf << (offset + 2));
 80016da:	fa01 fc05 	lsl.w	ip, r1, r5
 80016de:	3502      	adds	r5, #2
 80016e0:	fa02 f505 	lsl.w	r5, r2, r5
 80016e4:	ea4c 0505 	orr.w	r5, ip, r5
 80016e8:	ea45 050e 	orr.w	r5, r5, lr

		/* Write tmp32 into crl or crh, leave the other unchanged. */
		crl = (i < 8) ? tmp32 : crl;
 80016ec:	2c07      	cmp	r4, #7
 80016ee:	d800      	bhi.n	80016f2 <gpio_set_mode+0x5e>
 80016f0:	462f      	mov	r7, r5
		crh = (i >= 8) ? tmp32 : crh;
 80016f2:	2c07      	cmp	r4, #7
 80016f4:	d9db      	bls.n	80016ae <gpio_set_mode+0x1a>
 80016f6:	462e      	mov	r6, r5
 80016f8:	e7d9      	b.n	80016ae <gpio_set_mode+0x1a>
	}

	GPIO_CRL(gpioport) = crl;
 80016fa:	6007      	str	r7, [r0, #0]
	GPIO_CRH(gpioport) = crh;
 80016fc:	6046      	str	r6, [r0, #4]
}
 80016fe:	bdf0      	pop	{r4, r5, r6, r7, pc}

08001700 <gpio_set>:
	     If multiple pins are to be changed, use logical OR '|' to separate
	     them.
*/
void gpio_set(uint32_t gpioport, uint16_t gpios)
{
	GPIO_BSRR(gpioport) = gpios;
 8001700:	6101      	str	r1, [r0, #16]
}
 8001702:	4770      	bx	lr

08001704 <gpio_clear>:
	     If multiple pins are to be changed, use logical OR '|' to separate
	     them.
*/
void  gpio_clear(uint32_t gpioport, uint16_t gpios)
{
	GPIO_BSRR(gpioport) = (gpios << 16);
 8001704:	0409      	lsls	r1, r1, #16
 8001706:	6101      	str	r1, [r0, #16]
}
 8001708:	4770      	bx	lr

0800170a <usart_recv>:
*/

uint16_t usart_recv(uint32_t usart)
{
	/* Receive data. */
	return USART_DR(usart) & USART_DR_MASK;
 800170a:	6840      	ldr	r0, [r0, #4]
}
 800170c:	f3c0 0008 	ubfx	r0, r0, #0, #9
 8001710:	4770      	bx	lr

08001712 <rcc_periph_clock_enable>:
 * For available constants, see #rcc_periph_clken (RCC_UART1 for example)
 */

void rcc_periph_clock_enable(enum rcc_periph_clken clken)
{
	_RCC_REG(clken) |= _RCC_BIT(clken);
 8001712:	0943      	lsrs	r3, r0, #5
 8001714:	f103 4380 	add.w	r3, r3, #1073741824	; 0x40000000
 8001718:	f503 3304 	add.w	r3, r3, #135168	; 0x21000
 800171c:	681a      	ldr	r2, [r3, #0]
 800171e:	f000 001f 	and.w	r0, r0, #31
 8001722:	2101      	movs	r1, #1
 8001724:	fa01 f000 	lsl.w	r0, r1, r0
 8001728:	4310      	orrs	r0, r2
 800172a:	6018      	str	r0, [r3, #0]
}
 800172c:	4770      	bx	lr

0800172e <rcc_periph_reset_pulse>:
 * For available constants, see #rcc_periph_rst (RST_UART1 for example)
 */

void rcc_periph_reset_pulse(enum rcc_periph_rst rst)
{
	_RCC_REG(rst) |= _RCC_BIT(rst);
 800172e:	0943      	lsrs	r3, r0, #5
 8001730:	f103 4380 	add.w	r3, r3, #1073741824	; 0x40000000
 8001734:	f503 3304 	add.w	r3, r3, #135168	; 0x21000
 8001738:	6819      	ldr	r1, [r3, #0]
 800173a:	f000 021f 	and.w	r2, r0, #31
 800173e:	2001      	movs	r0, #1
 8001740:	4090      	lsls	r0, r2
 8001742:	4301      	orrs	r1, r0
 8001744:	6019      	str	r1, [r3, #0]
	_RCC_REG(rst) &= ~_RCC_BIT(rst);
 8001746:	681a      	ldr	r2, [r3, #0]
 8001748:	ea22 0000 	bic.w	r0, r2, r0
 800174c:	6018      	str	r0, [r3, #0]
}
 800174e:	4770      	bx	lr

08001750 <usbd_register_sof_callback>:
	usbd_dev->user_callback_resume = callback;
}

void usbd_register_sof_callback(usbd_device *usbd_dev, void (*callback)(void))
{
	usbd_dev->user_callback_sof = callback;
 8001750:	6281      	str	r1, [r0, #40]	; 0x28
}
 8001752:	4770      	bx	lr

08001754 <usbd_poll>:
	}
}

/* Functions to wrap the low-level driver */
void usbd_poll(usbd_device *usbd_dev)
{
 8001754:	b508      	push	{r3, lr}
	usbd_dev->driver->poll(usbd_dev);
 8001756:	f8d0 30d8 	ldr.w	r3, [r0, #216]	; 0xd8
 800175a:	6a5b      	ldr	r3, [r3, #36]	; 0x24
 800175c:	4798      	blx	r3
}
 800175e:	bd08      	pop	{r3, pc}

08001760 <usbd_ep_setup>:
	}
}

void usbd_ep_setup(usbd_device *usbd_dev, uint8_t addr, uint8_t type,
		   uint16_t max_size, usbd_endpoint_callback callback)
{
 8001760:	b530      	push	{r4, r5, lr}
 8001762:	b083      	sub	sp, #12
	usbd_dev->driver->ep_setup(usbd_dev, addr, type, max_size, callback);
 8001764:	f8d0 40d8 	ldr.w	r4, [r0, #216]	; 0xd8
 8001768:	68a4      	ldr	r4, [r4, #8]
 800176a:	9d06      	ldr	r5, [sp, #24]
 800176c:	9500      	str	r5, [sp, #0]
 800176e:	47a0      	blx	r4
}
 8001770:	b003      	add	sp, #12
 8001772:	bd30      	pop	{r4, r5, pc}

08001774 <_usbd_reset>:
{
 8001774:	b530      	push	{r4, r5, lr}
 8001776:	b083      	sub	sp, #12
 8001778:	4604      	mov	r4, r0
	usbd_dev->current_address = 0;
 800177a:	2500      	movs	r5, #0
 800177c:	7585      	strb	r5, [r0, #22]
	usbd_dev->current_config = 0;
 800177e:	75c5      	strb	r5, [r0, #23]
	usbd_ep_setup(usbd_dev, 0, USB_ENDPOINT_ATTR_CONTROL, usbd_dev->desc->bMaxPacketSize0, NULL);
 8001780:	6803      	ldr	r3, [r0, #0]
 8001782:	79db      	ldrb	r3, [r3, #7]
 8001784:	9500      	str	r5, [sp, #0]
 8001786:	462a      	mov	r2, r5
 8001788:	4629      	mov	r1, r5
 800178a:	f7ff ffe9 	bl	8001760 <usbd_ep_setup>
	usbd_dev->driver->set_address(usbd_dev, 0);
 800178e:	f8d4 30d8 	ldr.w	r3, [r4, #216]	; 0xd8
 8001792:	685b      	ldr	r3, [r3, #4]
 8001794:	4629      	mov	r1, r5
 8001796:	4620      	mov	r0, r4
 8001798:	4798      	blx	r3
	if (usbd_dev->user_callback_reset) {
 800179a:	69e3      	ldr	r3, [r4, #28]
 800179c:	b103      	cbz	r3, 80017a0 <_usbd_reset+0x2c>
		usbd_dev->user_callback_reset();
 800179e:	4798      	blx	r3
}
 80017a0:	b003      	add	sp, #12
 80017a2:	bd30      	pop	{r4, r5, pc}

080017a4 <usbd_ep_write_packet>:

uint16_t usbd_ep_write_packet(usbd_device *usbd_dev, uint8_t addr,
			 const void *buf, uint16_t len)
{
 80017a4:	b510      	push	{r4, lr}
	return usbd_dev->driver->ep_write_packet(usbd_dev, addr, buf, len);
 80017a6:	f8d0 40d8 	ldr.w	r4, [r0, #216]	; 0xd8
 80017aa:	69e4      	ldr	r4, [r4, #28]
 80017ac:	47a0      	blx	r4
}
 80017ae:	bd10      	pop	{r4, pc}

080017b0 <usbd_ep_read_packet>:

uint16_t usbd_ep_read_packet(usbd_device *usbd_dev, uint8_t addr, void *buf,
			     uint16_t len)
{
 80017b0:	b510      	push	{r4, lr}
	return usbd_dev->driver->ep_read_packet(usbd_dev, addr, buf, len);
 80017b2:	f8d0 40d8 	ldr.w	r4, [r0, #216]	; 0xd8
 80017b6:	6a24      	ldr	r4, [r4, #32]
 80017b8:	47a0      	blx	r4
}
 80017ba:	bd10      	pop	{r4, pc}

080017bc <usbd_ep_stall_set>:

void usbd_ep_stall_set(usbd_device *usbd_dev, uint8_t addr, uint8_t stall)
{
 80017bc:	b508      	push	{r3, lr}
	usbd_dev->driver->ep_stall_set(usbd_dev, addr, stall);
 80017be:	f8d0 30d8 	ldr.w	r3, [r0, #216]	; 0xd8
 80017c2:	691b      	ldr	r3, [r3, #16]
 80017c4:	4798      	blx	r3
}
 80017c6:	bd08      	pop	{r3, pc}

080017c8 <usbd_ep_stall_get>:

uint8_t usbd_ep_stall_get(usbd_device *usbd_dev, uint8_t addr)
{
 80017c8:	b508      	push	{r3, lr}
	return usbd_dev->driver->ep_stall_get(usbd_dev, addr);
 80017ca:	f8d0 30d8 	ldr.w	r3, [r0, #216]	; 0xd8
 80017ce:	699b      	ldr	r3, [r3, #24]
 80017d0:	4798      	blx	r3
}
 80017d2:	bd08      	pop	{r3, pc}

080017d4 <stall_transaction>:
 * According to the USB 2.0 specification, section 8.5.3, when a control
 * transfer is stalled, the pipe becomes idle. We provide one utility to stall
 * a transaction to reduce boilerplate code.
 */
static void stall_transaction(usbd_device *usbd_dev)
{
 80017d4:	b510      	push	{r4, lr}
 80017d6:	4604      	mov	r4, r0
	usbd_ep_stall_set(usbd_dev, 0, 1);
 80017d8:	2201      	movs	r2, #1
 80017da:	2100      	movs	r1, #0
 80017dc:	f7ff ffee 	bl	80017bc <usbd_ep_stall_set>
	usbd_dev->control_state.state = IDLE;
 80017e0:	2300      	movs	r3, #0
 80017e2:	f884 302c 	strb.w	r3, [r4, #44]	; 0x2c
}
 80017e6:	bd10      	pop	{r4, pc}

080017e8 <usb_control_setup_write>:
	}
}

static void usb_control_setup_write(usbd_device *usbd_dev,
				    struct usb_setup_data *req)
{
 80017e8:	b508      	push	{r3, lr}
	if (req->wLength > usbd_dev->ctrl_buf_len) {
 80017ea:	88ca      	ldrh	r2, [r1, #6]
 80017ec:	8a83      	ldrh	r3, [r0, #20]
 80017ee:	429a      	cmp	r2, r3
 80017f0:	d80c      	bhi.n	800180c <usb_control_setup_write+0x24>
		stall_transaction(usbd_dev);
		return;
	}

	/* Buffer into which to write received data. */
	usbd_dev->control_state.ctrl_buf = usbd_dev->ctrl_buf;
 80017f2:	6903      	ldr	r3, [r0, #16]
 80017f4:	6383      	str	r3, [r0, #56]	; 0x38
	usbd_dev->control_state.ctrl_len = 0;
 80017f6:	2300      	movs	r3, #0
 80017f8:	8783      	strh	r3, [r0, #60]	; 0x3c
	/* Wait for DATA OUT stage. */
	if (req->wLength > usbd_dev->desc->bMaxPacketSize0) {
 80017fa:	88ca      	ldrh	r2, [r1, #6]
 80017fc:	6803      	ldr	r3, [r0, #0]
 80017fe:	79db      	ldrb	r3, [r3, #7]
 8001800:	429a      	cmp	r2, r3
 8001802:	d806      	bhi.n	8001812 <usb_control_setup_write+0x2a>
		usbd_dev->control_state.state = DATA_OUT;
	} else {
		usbd_dev->control_state.state = LAST_DATA_OUT;
 8001804:	2306      	movs	r3, #6
 8001806:	f880 302c 	strb.w	r3, [r0, #44]	; 0x2c
	}
}
 800180a:	bd08      	pop	{r3, pc}
		stall_transaction(usbd_dev);
 800180c:	f7ff ffe2 	bl	80017d4 <stall_transaction>
		return;
 8001810:	e7fb      	b.n	800180a <usb_control_setup_write+0x22>
		usbd_dev->control_state.state = DATA_OUT;
 8001812:	2305      	movs	r3, #5
 8001814:	f880 302c 	strb.w	r3, [r0, #44]	; 0x2c
 8001818:	e7f7      	b.n	800180a <usb_control_setup_write+0x22>

0800181a <usb_control_recv_chunk>:
{
 800181a:	b570      	push	{r4, r5, r6, lr}
 800181c:	4605      	mov	r5, r0
	uint16_t packetsize = MIN(usbd_dev->desc->bMaxPacketSize0,
 800181e:	8ec4      	ldrh	r4, [r0, #54]	; 0x36
 8001820:	8f82      	ldrh	r2, [r0, #60]	; 0x3c
 8001822:	1aa4      	subs	r4, r4, r2
 8001824:	6803      	ldr	r3, [r0, #0]
 8001826:	79db      	ldrb	r3, [r3, #7]
 8001828:	429c      	cmp	r4, r3
 800182a:	bfa8      	it	ge
 800182c:	461c      	movge	r4, r3
 800182e:	b2a6      	uxth	r6, r4
				       usbd_dev->control_state.ctrl_buf +
 8001830:	6b81      	ldr	r1, [r0, #56]	; 0x38
	uint16_t size = usbd_ep_read_packet(usbd_dev, 0,
 8001832:	4633      	mov	r3, r6
 8001834:	440a      	add	r2, r1
 8001836:	2100      	movs	r1, #0
 8001838:	f7ff ffba 	bl	80017b0 <usbd_ep_read_packet>
	if (size != packetsize) {
 800183c:	4286      	cmp	r6, r0
 800183e:	d104      	bne.n	800184a <usb_control_recv_chunk+0x30>
	usbd_dev->control_state.ctrl_len += size;
 8001840:	8fab      	ldrh	r3, [r5, #60]	; 0x3c
 8001842:	4418      	add	r0, r3
 8001844:	87a8      	strh	r0, [r5, #60]	; 0x3c
 8001846:	b2a0      	uxth	r0, r4
}
 8001848:	bd70      	pop	{r4, r5, r6, pc}
		stall_transaction(usbd_dev);
 800184a:	4628      	mov	r0, r5
 800184c:	f7ff ffc2 	bl	80017d4 <stall_transaction>
		return -1;
 8001850:	f04f 30ff 	mov.w	r0, #4294967295	; 0xffffffff
 8001854:	e7f8      	b.n	8001848 <usb_control_recv_chunk+0x2e>

08001856 <usb_control_send_chunk>:
{
 8001856:	b510      	push	{r4, lr}
 8001858:	4604      	mov	r4, r0
	if (usbd_dev->desc->bMaxPacketSize0 <
 800185a:	6803      	ldr	r3, [r0, #0]
 800185c:	79da      	ldrb	r2, [r3, #7]
			usbd_dev->control_state.ctrl_len) {
 800185e:	8f83      	ldrh	r3, [r0, #60]	; 0x3c
	if (usbd_dev->desc->bMaxPacketSize0 <
 8001860:	429a      	cmp	r2, r3
 8001862:	d30a      	bcc.n	800187a <usb_control_send_chunk+0x24>
		usbd_ep_write_packet(usbd_dev, 0,
 8001864:	6b82      	ldr	r2, [r0, #56]	; 0x38
 8001866:	2100      	movs	r1, #0
 8001868:	f7ff ff9c 	bl	80017a4 <usbd_ep_write_packet>
		usbd_dev->control_state.state = LAST_DATA_IN;
 800186c:	2303      	movs	r3, #3
 800186e:	f884 302c 	strb.w	r3, [r4, #44]	; 0x2c
		usbd_dev->control_state.ctrl_len = 0;
 8001872:	2300      	movs	r3, #0
 8001874:	87a3      	strh	r3, [r4, #60]	; 0x3c
		usbd_dev->control_state.ctrl_buf = NULL;
 8001876:	63a3      	str	r3, [r4, #56]	; 0x38
}
 8001878:	bd10      	pop	{r4, pc}
		usbd_ep_write_packet(usbd_dev, 0,
 800187a:	4613      	mov	r3, r2
 800187c:	6b82      	ldr	r2, [r0, #56]	; 0x38
 800187e:	2100      	movs	r1, #0
 8001880:	f7ff ff90 	bl	80017a4 <usbd_ep_write_packet>
		usbd_dev->control_state.state = DATA_IN;
 8001884:	2302      	movs	r3, #2
 8001886:	f884 302c 	strb.w	r3, [r4, #44]	; 0x2c
			usbd_dev->desc->bMaxPacketSize0;
 800188a:	6822      	ldr	r2, [r4, #0]
 800188c:	79d1      	ldrb	r1, [r2, #7]
		usbd_dev->control_state.ctrl_buf +=
 800188e:	6ba3      	ldr	r3, [r4, #56]	; 0x38
 8001890:	440b      	add	r3, r1
 8001892:	63a3      	str	r3, [r4, #56]	; 0x38
			usbd_dev->desc->bMaxPacketSize0;
 8001894:	79d2      	ldrb	r2, [r2, #7]
		usbd_dev->control_state.ctrl_len -=
 8001896:	8fa3      	ldrh	r3, [r4, #60]	; 0x3c
 8001898:	1a9b      	subs	r3, r3, r2
 800189a:	87a3      	strh	r3, [r4, #60]	; 0x3c
 800189c:	e7ec      	b.n	8001878 <usb_control_send_chunk+0x22>

0800189e <usb_control_request_dispatch>:
{
 800189e:	e92d 41f0 	stmdb	sp!, {r4, r5, r6, r7, r8, lr}
 80018a2:	b082      	sub	sp, #8
 80018a4:	4605      	mov	r5, r0
 80018a6:	4688      	mov	r8, r1
	struct user_control_callback *cb = usbd_dev->user_control_callback;
 80018a8:	f100 0744 	add.w	r7, r0, #68	; 0x44
	for (i = 0; i < MAX_USER_CONTROL_CALLBACK; i++) {
 80018ac:	2400      	movs	r4, #0
 80018ae:	e000      	b.n	80018b2 <usb_control_request_dispatch+0x14>
 80018b0:	3401      	adds	r4, #1
 80018b2:	2c03      	cmp	r4, #3
 80018b4:	dc18      	bgt.n	80018e8 <usb_control_request_dispatch+0x4a>
		if (cb[i].cb == NULL) {
 80018b6:	eb07 02c4 	add.w	r2, r7, r4, lsl #3
 80018ba:	f857 6034 	ldr.w	r6, [r7, r4, lsl #3]
 80018be:	b19e      	cbz	r6, 80018e8 <usb_control_request_dispatch+0x4a>
		if ((req->bmRequestType & cb[i].type_mask) == cb[i].type) {
 80018c0:	f898 3000 	ldrb.w	r3, [r8]
 80018c4:	7951      	ldrb	r1, [r2, #5]
 80018c6:	400b      	ands	r3, r1
 80018c8:	7912      	ldrb	r2, [r2, #4]
 80018ca:	4293      	cmp	r3, r2
 80018cc:	d1f0      	bne.n	80018b0 <usb_control_request_dispatch+0x12>
			result = cb[i].cb(usbd_dev, req,
 80018ce:	f105 0340 	add.w	r3, r5, #64	; 0x40
 80018d2:	9300      	str	r3, [sp, #0]
 80018d4:	f105 033c 	add.w	r3, r5, #60	; 0x3c
 80018d8:	f105 0238 	add.w	r2, r5, #56	; 0x38
 80018dc:	4641      	mov	r1, r8
 80018de:	4628      	mov	r0, r5
 80018e0:	47b0      	blx	r6
			if (result == USBD_REQ_HANDLED ||
 80018e2:	2801      	cmp	r0, #1
 80018e4:	d8e4      	bhi.n	80018b0 <usb_control_request_dispatch+0x12>
 80018e6:	e007      	b.n	80018f8 <usb_control_request_dispatch+0x5a>
	return _usbd_standard_request(usbd_dev, req,
 80018e8:	f105 033c 	add.w	r3, r5, #60	; 0x3c
 80018ec:	f105 0238 	add.w	r2, r5, #56	; 0x38
 80018f0:	4641      	mov	r1, r8
 80018f2:	4628      	mov	r0, r5
 80018f4:	f000 fb43 	bl	8001f7e <_usbd_standard_request>
}
 80018f8:	b002      	add	sp, #8
 80018fa:	e8bd 81f0 	ldmia.w	sp!, {r4, r5, r6, r7, r8, pc}

080018fe <usb_control_setup_read>:
{
 80018fe:	b510      	push	{r4, lr}
 8001900:	4604      	mov	r4, r0
	usbd_dev->control_state.ctrl_buf = usbd_dev->ctrl_buf;
 8001902:	6903      	ldr	r3, [r0, #16]
 8001904:	6383      	str	r3, [r0, #56]	; 0x38
	usbd_dev->control_state.ctrl_len = req->wLength;
 8001906:	88cb      	ldrh	r3, [r1, #6]
 8001908:	8783      	strh	r3, [r0, #60]	; 0x3c
	if (usb_control_request_dispatch(usbd_dev, req)) {
 800190a:	f7ff ffc8 	bl	800189e <usb_control_request_dispatch>
 800190e:	b178      	cbz	r0, 8001930 <usb_control_setup_read+0x32>
		if (usbd_dev->control_state.ctrl_len) {
 8001910:	8fa3      	ldrh	r3, [r4, #60]	; 0x3c
 8001912:	b11b      	cbz	r3, 800191c <usb_control_setup_read+0x1e>
			usb_control_send_chunk(usbd_dev);
 8001914:	4620      	mov	r0, r4
 8001916:	f7ff ff9e 	bl	8001856 <usb_control_send_chunk>
}
 800191a:	bd10      	pop	{r4, pc}
			usbd_ep_write_packet(usbd_dev, 0, NULL, 0);
 800191c:	2300      	movs	r3, #0
 800191e:	461a      	mov	r2, r3
 8001920:	4619      	mov	r1, r3
 8001922:	4620      	mov	r0, r4
 8001924:	f7ff ff3e 	bl	80017a4 <usbd_ep_write_packet>
			usbd_dev->control_state.state = STATUS_IN;
 8001928:	2304      	movs	r3, #4
 800192a:	f884 302c 	strb.w	r3, [r4, #44]	; 0x2c
 800192e:	e7f4      	b.n	800191a <usb_control_setup_read+0x1c>
		stall_transaction(usbd_dev);
 8001930:	4620      	mov	r0, r4
 8001932:	f7ff ff4f 	bl	80017d4 <stall_transaction>
}
 8001936:	e7f0      	b.n	800191a <usb_control_setup_read+0x1c>

08001938 <usbd_register_control_callback>:
{
 8001938:	b430      	push	{r4, r5}
	for (i = 0; i < MAX_USER_CONTROL_CALLBACK; i++) {
 800193a:	2400      	movs	r4, #0
 800193c:	2c03      	cmp	r4, #3
 800193e:	dc10      	bgt.n	8001962 <usbd_register_control_callback+0x2a>
		if (usbd_dev->user_control_callback[i].cb) {
 8001940:	f104 0508 	add.w	r5, r4, #8
 8001944:	eb00 05c5 	add.w	r5, r0, r5, lsl #3
 8001948:	686d      	ldr	r5, [r5, #4]
 800194a:	b10d      	cbz	r5, 8001950 <usbd_register_control_callback+0x18>
	for (i = 0; i < MAX_USER_CONTROL_CALLBACK; i++) {
 800194c:	3401      	adds	r4, #1
 800194e:	e7f5      	b.n	800193c <usbd_register_control_callback+0x4>
		usbd_dev->user_control_callback[i].type = type;
 8001950:	3408      	adds	r4, #8
 8001952:	eb00 04c4 	add.w	r4, r0, r4, lsl #3
 8001956:	7221      	strb	r1, [r4, #8]
		usbd_dev->user_control_callback[i].type_mask = type_mask;
 8001958:	7262      	strb	r2, [r4, #9]
		usbd_dev->user_control_callback[i].cb = callback;
 800195a:	6063      	str	r3, [r4, #4]
		return 0;
 800195c:	2000      	movs	r0, #0
}
 800195e:	bc30      	pop	{r4, r5}
 8001960:	4770      	bx	lr
	return -1;
 8001962:	f04f 30ff 	mov.w	r0, #4294967295	; 0xffffffff
 8001966:	e7fa      	b.n	800195e <usbd_register_control_callback+0x26>

08001968 <_usbd_control_setup>:

/* Do not appear to belong to the API, so are omitted from docs */
/**@}*/

void _usbd_control_setup(usbd_device *usbd_dev, uint8_t ea)
{
 8001968:	b538      	push	{r3, r4, r5, lr}
 800196a:	4604      	mov	r4, r0
	struct usb_setup_data *req = &usbd_dev->control_state.req;
 800196c:	f100 0530 	add.w	r5, r0, #48	; 0x30
	(void)ea;

	usbd_dev->control_state.complete = NULL;
 8001970:	2100      	movs	r1, #0
 8001972:	6401      	str	r1, [r0, #64]	; 0x40

	if (usbd_ep_read_packet(usbd_dev, 0, req, 8) != 8) {
 8001974:	2308      	movs	r3, #8
 8001976:	462a      	mov	r2, r5
 8001978:	f7ff ff1a 	bl	80017b0 <usbd_ep_read_packet>
 800197c:	2808      	cmp	r0, #8
 800197e:	d10a      	bne.n	8001996 <_usbd_control_setup+0x2e>
		stall_transaction(usbd_dev);
		return;
	}

	if (req->wLength == 0) {
 8001980:	8ee3      	ldrh	r3, [r4, #54]	; 0x36
 8001982:	b163      	cbz	r3, 800199e <_usbd_control_setup+0x36>
		usb_control_setup_read(usbd_dev, req);
	} else if (req->bmRequestType & 0x80) {
 8001984:	f994 3030 	ldrsb.w	r3, [r4, #48]	; 0x30
 8001988:	2b00      	cmp	r3, #0
 800198a:	db0d      	blt.n	80019a8 <_usbd_control_setup+0x40>
		usb_control_setup_read(usbd_dev, req);
	} else {
		usb_control_setup_write(usbd_dev, req);
 800198c:	4629      	mov	r1, r5
 800198e:	4620      	mov	r0, r4
 8001990:	f7ff ff2a 	bl	80017e8 <usb_control_setup_write>
 8001994:	e002      	b.n	800199c <_usbd_control_setup+0x34>
		stall_transaction(usbd_dev);
 8001996:	4620      	mov	r0, r4
 8001998:	f7ff ff1c 	bl	80017d4 <stall_transaction>
	}
}
 800199c:	bd38      	pop	{r3, r4, r5, pc}
		usb_control_setup_read(usbd_dev, req);
 800199e:	4629      	mov	r1, r5
 80019a0:	4620      	mov	r0, r4
 80019a2:	f7ff ffac 	bl	80018fe <usb_control_setup_read>
 80019a6:	e7f9      	b.n	800199c <_usbd_control_setup+0x34>
		usb_control_setup_read(usbd_dev, req);
 80019a8:	4629      	mov	r1, r5
 80019aa:	4620      	mov	r0, r4
 80019ac:	f7ff ffa7 	bl	80018fe <usb_control_setup_read>
 80019b0:	e7f4      	b.n	800199c <_usbd_control_setup+0x34>

080019b2 <_usbd_control_out>:

void _usbd_control_out(usbd_device *usbd_dev, uint8_t ea)
{
 80019b2:	b510      	push	{r4, lr}
 80019b4:	4604      	mov	r4, r0
	(void)ea;

	switch (usbd_dev->control_state.state) {
 80019b6:	f890 302c 	ldrb.w	r3, [r0, #44]	; 0x2c
 80019ba:	2b06      	cmp	r3, #6
 80019bc:	d015      	beq.n	80019ea <_usbd_control_out+0x38>
 80019be:	2b07      	cmp	r3, #7
 80019c0:	d02b      	beq.n	8001a1a <_usbd_control_out+0x68>
 80019c2:	2b05      	cmp	r3, #5
 80019c4:	d002      	beq.n	80019cc <_usbd_control_out+0x1a>
					&(usbd_dev->control_state.req));
		}
		usbd_dev->control_state.complete = NULL;
		break;
	default:
		stall_transaction(usbd_dev);
 80019c6:	f7ff ff05 	bl	80017d4 <stall_transaction>
	}
}
 80019ca:	e036      	b.n	8001a3a <_usbd_control_out+0x88>
		if (usb_control_recv_chunk(usbd_dev) < 0) {
 80019cc:	f7ff ff25 	bl	800181a <usb_control_recv_chunk>
 80019d0:	2800      	cmp	r0, #0
 80019d2:	db32      	blt.n	8001a3a <_usbd_control_out+0x88>
		if ((usbd_dev->control_state.req.wLength -
 80019d4:	8ee3      	ldrh	r3, [r4, #54]	; 0x36
					usbd_dev->control_state.ctrl_len) <=
 80019d6:	8fa2      	ldrh	r2, [r4, #60]	; 0x3c
		if ((usbd_dev->control_state.req.wLength -
 80019d8:	1a9b      	subs	r3, r3, r2
					usbd_dev->desc->bMaxPacketSize0) {
 80019da:	6822      	ldr	r2, [r4, #0]
 80019dc:	79d2      	ldrb	r2, [r2, #7]
		if ((usbd_dev->control_state.req.wLength -
 80019de:	4293      	cmp	r3, r2
 80019e0:	dc2b      	bgt.n	8001a3a <_usbd_control_out+0x88>
			usbd_dev->control_state.state = LAST_DATA_OUT;
 80019e2:	2306      	movs	r3, #6
 80019e4:	f884 302c 	strb.w	r3, [r4, #44]	; 0x2c
 80019e8:	e027      	b.n	8001a3a <_usbd_control_out+0x88>
		if (usb_control_recv_chunk(usbd_dev) < 0) {
 80019ea:	f7ff ff16 	bl	800181a <usb_control_recv_chunk>
 80019ee:	2800      	cmp	r0, #0
 80019f0:	db23      	blt.n	8001a3a <_usbd_control_out+0x88>
		if (usb_control_request_dispatch(usbd_dev,
 80019f2:	f104 0130 	add.w	r1, r4, #48	; 0x30
 80019f6:	4620      	mov	r0, r4
 80019f8:	f7ff ff51 	bl	800189e <usb_control_request_dispatch>
 80019fc:	b148      	cbz	r0, 8001a12 <_usbd_control_out+0x60>
			usbd_ep_write_packet(usbd_dev, 0, NULL, 0);
 80019fe:	2300      	movs	r3, #0
 8001a00:	461a      	mov	r2, r3
 8001a02:	4619      	mov	r1, r3
 8001a04:	4620      	mov	r0, r4
 8001a06:	f7ff fecd 	bl	80017a4 <usbd_ep_write_packet>
			usbd_dev->control_state.state = STATUS_IN;
 8001a0a:	2304      	movs	r3, #4
 8001a0c:	f884 302c 	strb.w	r3, [r4, #44]	; 0x2c
 8001a10:	e013      	b.n	8001a3a <_usbd_control_out+0x88>
			stall_transaction(usbd_dev);
 8001a12:	4620      	mov	r0, r4
 8001a14:	f7ff fede 	bl	80017d4 <stall_transaction>
 8001a18:	e00f      	b.n	8001a3a <_usbd_control_out+0x88>
		usbd_ep_read_packet(usbd_dev, 0, NULL, 0);
 8001a1a:	2300      	movs	r3, #0
 8001a1c:	461a      	mov	r2, r3
 8001a1e:	4619      	mov	r1, r3
 8001a20:	f7ff fec6 	bl	80017b0 <usbd_ep_read_packet>
		usbd_dev->control_state.state = IDLE;
 8001a24:	2300      	movs	r3, #0
 8001a26:	f884 302c 	strb.w	r3, [r4, #44]	; 0x2c
		if (usbd_dev->control_state.complete) {
 8001a2a:	6c23      	ldr	r3, [r4, #64]	; 0x40
 8001a2c:	b11b      	cbz	r3, 8001a36 <_usbd_control_out+0x84>
			usbd_dev->control_state.complete(usbd_dev,
 8001a2e:	f104 0130 	add.w	r1, r4, #48	; 0x30
 8001a32:	4620      	mov	r0, r4
 8001a34:	4798      	blx	r3
		usbd_dev->control_state.complete = NULL;
 8001a36:	2300      	movs	r3, #0
 8001a38:	6423      	str	r3, [r4, #64]	; 0x40
}
 8001a3a:	bd10      	pop	{r4, pc}

08001a3c <_usbd_control_in>:
void _usbd_control_in(usbd_device *usbd_dev, uint8_t ea)
{
	(void)ea;
	struct usb_setup_data *req = &(usbd_dev->control_state.req);

	switch (usbd_dev->control_state.state) {
 8001a3c:	f890 302c 	ldrb.w	r3, [r0, #44]	; 0x2c
 8001a40:	2b03      	cmp	r3, #3
 8001a42:	d00b      	beq.n	8001a5c <_usbd_control_in+0x20>
{
 8001a44:	b510      	push	{r4, lr}
 8001a46:	4604      	mov	r4, r0
	switch (usbd_dev->control_state.state) {
 8001a48:	2b04      	cmp	r3, #4
 8001a4a:	d00b      	beq.n	8001a64 <_usbd_control_in+0x28>
 8001a4c:	2b02      	cmp	r3, #2
 8001a4e:	d002      	beq.n	8001a56 <_usbd_control_in+0x1a>
			usbd_dev->driver->set_address(usbd_dev, req->wValue);
		}
		usbd_dev->control_state.state = IDLE;
		break;
	default:
		stall_transaction(usbd_dev);
 8001a50:	f7ff fec0 	bl	80017d4 <stall_transaction>
	}
}
 8001a54:	e001      	b.n	8001a5a <_usbd_control_in+0x1e>
		usb_control_send_chunk(usbd_dev);
 8001a56:	f7ff fefe 	bl	8001856 <usb_control_send_chunk>
}
 8001a5a:	bd10      	pop	{r4, pc}
		usbd_dev->control_state.state = STATUS_OUT;
 8001a5c:	2307      	movs	r3, #7
 8001a5e:	f880 302c 	strb.w	r3, [r0, #44]	; 0x2c
 8001a62:	4770      	bx	lr
		if (usbd_dev->control_state.complete) {
 8001a64:	6c03      	ldr	r3, [r0, #64]	; 0x40
 8001a66:	b113      	cbz	r3, 8001a6e <_usbd_control_in+0x32>
			usbd_dev->control_state.complete(usbd_dev,
 8001a68:	f100 0130 	add.w	r1, r0, #48	; 0x30
 8001a6c:	4798      	blx	r3
		if ((req->bmRequestType == 0) &&
 8001a6e:	f894 3030 	ldrb.w	r3, [r4, #48]	; 0x30
 8001a72:	b953      	cbnz	r3, 8001a8a <_usbd_control_in+0x4e>
		    (req->bRequest == USB_REQ_SET_ADDRESS)) {
 8001a74:	f894 3031 	ldrb.w	r3, [r4, #49]	; 0x31
		if ((req->bmRequestType == 0) &&
 8001a78:	2b05      	cmp	r3, #5
 8001a7a:	d106      	bne.n	8001a8a <_usbd_control_in+0x4e>
			usbd_dev->driver->set_address(usbd_dev, req->wValue);
 8001a7c:	f8d4 30d8 	ldr.w	r3, [r4, #216]	; 0xd8
 8001a80:	685b      	ldr	r3, [r3, #4]
 8001a82:	8e61      	ldrh	r1, [r4, #50]	; 0x32
 8001a84:	b2c9      	uxtb	r1, r1
 8001a86:	4620      	mov	r0, r4
 8001a88:	4798      	blx	r3
		usbd_dev->control_state.state = IDLE;
 8001a8a:	2300      	movs	r3, #0
 8001a8c:	f884 302c 	strb.w	r3, [r4, #44]	; 0x2c
		break;
 8001a90:	e7e3      	b.n	8001a5a <_usbd_control_in+0x1e>

08001a92 <usb_descriptor_type>:
}
 8001a92:	0a00      	lsrs	r0, r0, #8
 8001a94:	4770      	bx	lr

08001a96 <usb_descriptor_index>:
}
 8001a96:	b2c0      	uxtb	r0, r0
 8001a98:	4770      	bx	lr

08001a9a <usb_standard_set_address>:
{
 8001a9a:	b508      	push	{r3, lr}
	if ((req->bmRequestType != 0) || (req->wValue >= 128)) {
 8001a9c:	780b      	ldrb	r3, [r1, #0]
 8001a9e:	b973      	cbnz	r3, 8001abe <usb_standard_set_address+0x24>
 8001aa0:	884b      	ldrh	r3, [r1, #2]
 8001aa2:	2b7f      	cmp	r3, #127	; 0x7f
 8001aa4:	d80d      	bhi.n	8001ac2 <usb_standard_set_address+0x28>
	usbd_dev->current_address = req->wValue;
 8001aa6:	7583      	strb	r3, [r0, #22]
	if (usbd_dev->driver->set_address_before_status) {
 8001aa8:	f8d0 30d8 	ldr.w	r3, [r0, #216]	; 0xd8
 8001aac:	f893 2030 	ldrb.w	r2, [r3, #48]	; 0x30
 8001ab0:	b14a      	cbz	r2, 8001ac6 <usb_standard_set_address+0x2c>
		usbd_dev->driver->set_address(usbd_dev, req->wValue);
 8001ab2:	685b      	ldr	r3, [r3, #4]
 8001ab4:	8849      	ldrh	r1, [r1, #2]
 8001ab6:	b2c9      	uxtb	r1, r1
 8001ab8:	4798      	blx	r3
	return 1;
 8001aba:	2001      	movs	r0, #1
 8001abc:	e000      	b.n	8001ac0 <usb_standard_set_address+0x26>
		return 0;
 8001abe:	2000      	movs	r0, #0
}
 8001ac0:	bd08      	pop	{r3, pc}
		return 0;
 8001ac2:	2000      	movs	r0, #0
 8001ac4:	e7fc      	b.n	8001ac0 <usb_standard_set_address+0x26>
	return 1;
 8001ac6:	2001      	movs	r0, #1
 8001ac8:	e7fa      	b.n	8001ac0 <usb_standard_set_address+0x26>

08001aca <usb_standard_set_configuration>:
{
 8001aca:	b570      	push	{r4, r5, r6, lr}
	if(req->wValue > 0) {
 8001acc:	884c      	ldrh	r4, [r1, #2]
 8001ace:	b974      	cbnz	r4, 8001aee <usb_standard_set_configuration+0x24>
	int found_index = -1;
 8001ad0:	f04f 33ff 	mov.w	r3, #4294967295	; 0xffffffff
	usbd_dev->current_config = found_index + 1;
 8001ad4:	3301      	adds	r3, #1
 8001ad6:	b2db      	uxtb	r3, r3
 8001ad8:	75c3      	strb	r3, [r0, #23]
	if (usbd_dev->current_config > 0) {
 8001ada:	b35b      	cbz	r3, 8001b34 <usb_standard_set_configuration+0x6a>
		cfg = &usbd_dev->config[usbd_dev->current_config - 1];
 8001adc:	6842      	ldr	r2, [r0, #4]
 8001ade:	eb03 0443 	add.w	r4, r3, r3, lsl #1
 8001ae2:	eb03 0384 	add.w	r3, r3, r4, lsl #2
 8001ae6:	3b0d      	subs	r3, #13
 8001ae8:	4413      	add	r3, r2
		for (i = 0; i < cfg->bNumInterfaces; i++) {
 8001aea:	2200      	movs	r2, #0
 8001aec:	e016      	b.n	8001b1c <usb_standard_set_configuration+0x52>
		for (i = 0; i < usbd_dev->desc->bNumConfigurations; i++) {
 8001aee:	2300      	movs	r3, #0
 8001af0:	6802      	ldr	r2, [r0, #0]
 8001af2:	7c52      	ldrb	r2, [r2, #17]
 8001af4:	429a      	cmp	r2, r3
 8001af6:	d90a      	bls.n	8001b0e <usb_standard_set_configuration+0x44>
			if (req->wValue == usbd_dev->config[i].bConfigurationValue) {
 8001af8:	6842      	ldr	r2, [r0, #4]
 8001afa:	eb03 0543 	add.w	r5, r3, r3, lsl #1
 8001afe:	eb03 0585 	add.w	r5, r3, r5, lsl #2
 8001b02:	442a      	add	r2, r5
 8001b04:	7952      	ldrb	r2, [r2, #5]
 8001b06:	4294      	cmp	r4, r2
 8001b08:	d003      	beq.n	8001b12 <usb_standard_set_configuration+0x48>
		for (i = 0; i < usbd_dev->desc->bNumConfigurations; i++) {
 8001b0a:	3301      	adds	r3, #1
 8001b0c:	e7f0      	b.n	8001af0 <usb_standard_set_configuration+0x26>
	int found_index = -1;
 8001b0e:	f04f 33ff 	mov.w	r3, #4294967295	; 0xffffffff
		if (found_index < 0) {
 8001b12:	2b00      	cmp	r3, #0
 8001b14:	dade      	bge.n	8001ad4 <usb_standard_set_configuration+0xa>
			return USBD_REQ_NOTSUPP;
 8001b16:	2000      	movs	r0, #0
 8001b18:	e033      	b.n	8001b82 <usb_standard_set_configuration+0xb8>
		for (i = 0; i < cfg->bNumInterfaces; i++) {
 8001b1a:	3201      	adds	r2, #1
 8001b1c:	791c      	ldrb	r4, [r3, #4]
 8001b1e:	4294      	cmp	r4, r2
 8001b20:	d908      	bls.n	8001b34 <usb_standard_set_configuration+0x6a>
			if (cfg->interface[i].cur_altsetting) {
 8001b22:	f8d3 5009 	ldr.w	r5, [r3, #9]
 8001b26:	0114      	lsls	r4, r2, #4
 8001b28:	592c      	ldr	r4, [r5, r4]
 8001b2a:	2c00      	cmp	r4, #0
 8001b2c:	d0f5      	beq.n	8001b1a <usb_standard_set_configuration+0x50>
				*cfg->interface[i].cur_altsetting = 0;
 8001b2e:	2500      	movs	r5, #0
 8001b30:	7025      	strb	r5, [r4, #0]
 8001b32:	e7f2      	b.n	8001b1a <usb_standard_set_configuration+0x50>
 8001b34:	460e      	mov	r6, r1
 8001b36:	4604      	mov	r4, r0
	usbd_dev->driver->ep_reset(usbd_dev);
 8001b38:	f8d0 30d8 	ldr.w	r3, [r0, #216]	; 0xd8
 8001b3c:	68db      	ldr	r3, [r3, #12]
 8001b3e:	4798      	blx	r3
	if (usbd_dev->user_callback_set_config[0]) {
 8001b40:	f8d4 30c4 	ldr.w	r3, [r4, #196]	; 0xc4
 8001b44:	b10b      	cbz	r3, 8001b4a <usb_standard_set_configuration+0x80>
		for (i = 0; i < MAX_USER_CONTROL_CALLBACK; i++) {
 8001b46:	2300      	movs	r3, #0
 8001b48:	e008      	b.n	8001b5c <usb_standard_set_configuration+0x92>
	return 1;
 8001b4a:	2001      	movs	r0, #1
 8001b4c:	e019      	b.n	8001b82 <usb_standard_set_configuration+0xb8>
			usbd_dev->user_control_callback[i].cb = NULL;
 8001b4e:	f103 0208 	add.w	r2, r3, #8
 8001b52:	eb04 02c2 	add.w	r2, r4, r2, lsl #3
 8001b56:	2100      	movs	r1, #0
 8001b58:	6051      	str	r1, [r2, #4]
		for (i = 0; i < MAX_USER_CONTROL_CALLBACK; i++) {
 8001b5a:	3301      	adds	r3, #1
 8001b5c:	2b03      	cmp	r3, #3
 8001b5e:	d9f6      	bls.n	8001b4e <usb_standard_set_configuration+0x84>
		for (i = 0; i < MAX_USER_SET_CONFIG_CALLBACK; i++) {
 8001b60:	2500      	movs	r5, #0
 8001b62:	e000      	b.n	8001b66 <usb_standard_set_configuration+0x9c>
 8001b64:	3501      	adds	r5, #1
 8001b66:	2d03      	cmp	r5, #3
 8001b68:	d80a      	bhi.n	8001b80 <usb_standard_set_configuration+0xb6>
			if (usbd_dev->user_callback_set_config[i]) {
 8001b6a:	f105 0330 	add.w	r3, r5, #48	; 0x30
 8001b6e:	eb04 0383 	add.w	r3, r4, r3, lsl #2
 8001b72:	685b      	ldr	r3, [r3, #4]
 8001b74:	2b00      	cmp	r3, #0
 8001b76:	d0f5      	beq.n	8001b64 <usb_standard_set_configuration+0x9a>
				usbd_dev->user_callback_set_config[i](usbd_dev,
 8001b78:	8871      	ldrh	r1, [r6, #2]
 8001b7a:	4620      	mov	r0, r4
 8001b7c:	4798      	blx	r3
 8001b7e:	e7f1      	b.n	8001b64 <usb_standard_set_configuration+0x9a>
	return 1;
 8001b80:	2001      	movs	r0, #1
}
 8001b82:	bd70      	pop	{r4, r5, r6, pc}

08001b84 <usb_standard_get_configuration>:
	if (*len > 1) {
 8001b84:	8819      	ldrh	r1, [r3, #0]
 8001b86:	2901      	cmp	r1, #1
 8001b88:	d901      	bls.n	8001b8e <usb_standard_get_configuration+0xa>
		*len = 1;
 8001b8a:	2101      	movs	r1, #1
 8001b8c:	8019      	strh	r1, [r3, #0]
	const struct usb_config_descriptor *cfg = &usbd_dev->config[usbd_dev->current_config - 1];
 8001b8e:	6841      	ldr	r1, [r0, #4]
 8001b90:	7dc3      	ldrb	r3, [r0, #23]
 8001b92:	eb03 0043 	add.w	r0, r3, r3, lsl #1
 8001b96:	eb03 0380 	add.w	r3, r3, r0, lsl #2
 8001b9a:	3b0d      	subs	r3, #13
 8001b9c:	440b      	add	r3, r1
	(*buf)[0] = cfg->bConfigurationValue;
 8001b9e:	6812      	ldr	r2, [r2, #0]
 8001ba0:	795b      	ldrb	r3, [r3, #5]
 8001ba2:	7013      	strb	r3, [r2, #0]
}
 8001ba4:	2001      	movs	r0, #1
 8001ba6:	4770      	bx	lr

08001ba8 <usb_standard_set_interface>:
{
 8001ba8:	b570      	push	{r4, r5, r6, lr}
	const struct usb_config_descriptor *cfx = &usbd_dev->config[usbd_dev->current_config - 1];
 8001baa:	6844      	ldr	r4, [r0, #4]
 8001bac:	7dc2      	ldrb	r2, [r0, #23]
 8001bae:	eb02 0542 	add.w	r5, r2, r2, lsl #1
 8001bb2:	eb02 0285 	add.w	r2, r2, r5, lsl #2
 8001bb6:	3a0d      	subs	r2, #13
 8001bb8:	4422      	add	r2, r4
	if (req->wIndex >= cfx->bNumInterfaces) {
 8001bba:	888c      	ldrh	r4, [r1, #4]
 8001bbc:	7915      	ldrb	r5, [r2, #4]
 8001bbe:	42ac      	cmp	r4, r5
 8001bc0:	d219      	bcs.n	8001bf6 <usb_standard_set_interface+0x4e>
	iface = &cfx->interface[req->wIndex];
 8001bc2:	f8d2 5009 	ldr.w	r5, [r2, #9]
 8001bc6:	0124      	lsls	r4, r4, #4
 8001bc8:	192e      	adds	r6, r5, r4
	if (req->wValue >= iface->num_altsetting) {
 8001bca:	884a      	ldrh	r2, [r1, #2]
 8001bcc:	7936      	ldrb	r6, [r6, #4]
 8001bce:	42b2      	cmp	r2, r6
 8001bd0:	d213      	bcs.n	8001bfa <usb_standard_set_interface+0x52>
	if (iface->cur_altsetting) {
 8001bd2:	592c      	ldr	r4, [r5, r4]
 8001bd4:	b15c      	cbz	r4, 8001bee <usb_standard_set_interface+0x46>
		*iface->cur_altsetting = req->wValue;
 8001bd6:	7022      	strb	r2, [r4, #0]
 8001bd8:	461c      	mov	r4, r3
	if (usbd_dev->user_callback_set_altsetting) {
 8001bda:	f8d0 30d4 	ldr.w	r3, [r0, #212]	; 0xd4
 8001bde:	b113      	cbz	r3, 8001be6 <usb_standard_set_interface+0x3e>
			usbd_dev->user_callback_set_altsetting(usbd_dev,
 8001be0:	884a      	ldrh	r2, [r1, #2]
 8001be2:	8889      	ldrh	r1, [r1, #4]
 8001be4:	4798      	blx	r3
	*len = 0;
 8001be6:	2300      	movs	r3, #0
 8001be8:	8023      	strh	r3, [r4, #0]
	return USBD_REQ_HANDLED;
 8001bea:	2001      	movs	r0, #1
 8001bec:	e004      	b.n	8001bf8 <usb_standard_set_interface+0x50>
	} else if (req->wValue > 0) {
 8001bee:	2a00      	cmp	r2, #0
 8001bf0:	d0f2      	beq.n	8001bd8 <usb_standard_set_interface+0x30>
		return USBD_REQ_NOTSUPP;
 8001bf2:	2000      	movs	r0, #0
 8001bf4:	e000      	b.n	8001bf8 <usb_standard_set_interface+0x50>
		return USBD_REQ_NOTSUPP;
 8001bf6:	2000      	movs	r0, #0
}
 8001bf8:	bd70      	pop	{r4, r5, r6, pc}
		return USBD_REQ_NOTSUPP;
 8001bfa:	2000      	movs	r0, #0
 8001bfc:	e7fc      	b.n	8001bf8 <usb_standard_set_interface+0x50>

08001bfe <usb_standard_get_interface>:
{
 8001bfe:	b430      	push	{r4, r5}
	const struct usb_config_descriptor *cfx = &usbd_dev->config[usbd_dev->current_config - 1];
 8001c00:	6844      	ldr	r4, [r0, #4]
 8001c02:	7dc0      	ldrb	r0, [r0, #23]
 8001c04:	eb00 0540 	add.w	r5, r0, r0, lsl #1
 8001c08:	eb00 0085 	add.w	r0, r0, r5, lsl #2
 8001c0c:	380d      	subs	r0, #13
 8001c0e:	4420      	add	r0, r4
	if (req->wIndex >= cfx->bNumInterfaces) {
 8001c10:	888d      	ldrh	r5, [r1, #4]
 8001c12:	7904      	ldrb	r4, [r0, #4]
 8001c14:	42a5      	cmp	r5, r4
 8001c16:	d20f      	bcs.n	8001c38 <usb_standard_get_interface+0x3a>
	*len = 1;
 8001c18:	2401      	movs	r4, #1
 8001c1a:	801c      	strh	r4, [r3, #0]
	cur_altsetting = cfx->interface[req->wIndex].cur_altsetting;
 8001c1c:	f8d0 0009 	ldr.w	r0, [r0, #9]
 8001c20:	888b      	ldrh	r3, [r1, #4]
 8001c22:	011b      	lsls	r3, r3, #4
 8001c24:	58c3      	ldr	r3, [r0, r3]
	(*buf)[0] = (cur_altsetting) ? *cur_altsetting : 0;
 8001c26:	b12b      	cbz	r3, 8001c34 <usb_standard_get_interface+0x36>
 8001c28:	7819      	ldrb	r1, [r3, #0]
 8001c2a:	6813      	ldr	r3, [r2, #0]
 8001c2c:	7019      	strb	r1, [r3, #0]
	return USBD_REQ_HANDLED;
 8001c2e:	2001      	movs	r0, #1
}
 8001c30:	bc30      	pop	{r4, r5}
 8001c32:	4770      	bx	lr
	(*buf)[0] = (cur_altsetting) ? *cur_altsetting : 0;
 8001c34:	2100      	movs	r1, #0
 8001c36:	e7f8      	b.n	8001c2a <usb_standard_get_interface+0x2c>
		return USBD_REQ_NOTSUPP;
 8001c38:	2000      	movs	r0, #0
 8001c3a:	e7f9      	b.n	8001c30 <usb_standard_get_interface+0x32>

08001c3c <usb_standard_device_get_status>:
	if (*len > 2) {
 8001c3c:	8819      	ldrh	r1, [r3, #0]
 8001c3e:	2902      	cmp	r1, #2
 8001c40:	d901      	bls.n	8001c46 <usb_standard_device_get_status+0xa>
		*len = 2;
 8001c42:	2102      	movs	r1, #2
 8001c44:	8019      	strh	r1, [r3, #0]
	(*buf)[0] = 0;
 8001c46:	6811      	ldr	r1, [r2, #0]
 8001c48:	2300      	movs	r3, #0
 8001c4a:	700b      	strb	r3, [r1, #0]
	(*buf)[1] = 0;
 8001c4c:	6812      	ldr	r2, [r2, #0]
 8001c4e:	7053      	strb	r3, [r2, #1]
}
 8001c50:	2001      	movs	r0, #1
 8001c52:	4770      	bx	lr

08001c54 <usb_standard_interface_get_status>:
	if (*len > 2) {
 8001c54:	8819      	ldrh	r1, [r3, #0]
 8001c56:	2902      	cmp	r1, #2
 8001c58:	d901      	bls.n	8001c5e <usb_standard_interface_get_status+0xa>
		*len = 2;
 8001c5a:	2102      	movs	r1, #2
 8001c5c:	8019      	strh	r1, [r3, #0]
	(*buf)[0] = 0;
 8001c5e:	6811      	ldr	r1, [r2, #0]
 8001c60:	2300      	movs	r3, #0
 8001c62:	700b      	strb	r3, [r1, #0]
	(*buf)[1] = 0;
 8001c64:	6812      	ldr	r2, [r2, #0]
 8001c66:	7053      	strb	r3, [r2, #1]
}
 8001c68:	2001      	movs	r0, #1
 8001c6a:	4770      	bx	lr

08001c6c <build_config_descriptor>:
{
 8001c6c:	e92d 4ff0 	stmdb	sp!, {r4, r5, r6, r7, r8, r9, sl, fp, lr}
 8001c70:	b089      	sub	sp, #36	; 0x24
 8001c72:	4617      	mov	r7, r2
 8001c74:	9207      	str	r2, [sp, #28]
 8001c76:	461d      	mov	r5, r3
	const struct usb_config_descriptor *cfg = &usbd_dev->config[index];
 8001c78:	6846      	ldr	r6, [r0, #4]
 8001c7a:	eb01 0441 	add.w	r4, r1, r1, lsl #1
 8001c7e:	eb01 0484 	add.w	r4, r1, r4, lsl #2
 8001c82:	1931      	adds	r1, r6, r4
 8001c84:	9104      	str	r1, [sp, #16]
	memcpy(buf, cfg, count = MIN(len, cfg->bLength));
 8001c86:	5d33      	ldrb	r3, [r6, r4]
 8001c88:	42ab      	cmp	r3, r5
 8001c8a:	bf28      	it	cs
 8001c8c:	462b      	movcs	r3, r5
 8001c8e:	469b      	mov	fp, r3
 8001c90:	461a      	mov	r2, r3
 8001c92:	4638      	mov	r0, r7
 8001c94:	f000 fc8d 	bl	80025b2 <memcpy>
	buf += count;
 8001c98:	eb07 0a0b 	add.w	sl, r7, fp
	len -= count;
 8001c9c:	eba5 050b 	sub.w	r5, r5, fp
 8001ca0:	fa1f f985 	uxth.w	r9, r5
	totallen += cfg->bLength;
 8001ca4:	5d33      	ldrb	r3, [r6, r4]
 8001ca6:	9301      	str	r3, [sp, #4]
	for (i = 0; i < cfg->bNumInterfaces; i++) {
 8001ca8:	2300      	movs	r3, #0
 8001caa:	9306      	str	r3, [sp, #24]
 8001cac:	e08c      	b.n	8001dc8 <build_config_descriptor+0x15c>
			for (k = 0; k < iface->bNumEndpoints; k++) {
 8001cae:	3501      	adds	r5, #1
 8001cb0:	b2ad      	uxth	r5, r5
 8001cb2:	9b02      	ldr	r3, [sp, #8]
 8001cb4:	791b      	ldrb	r3, [r3, #4]
 8001cb6:	42ab      	cmp	r3, r5
 8001cb8:	d93a      	bls.n	8001d30 <build_config_descriptor+0xc4>
				    &iface->endpoint[k];
 8001cba:	9b02      	ldr	r3, [sp, #8]
 8001cbc:	f8d3 8009 	ldr.w	r8, [r3, #9]
 8001cc0:	ebc5 1705 	rsb	r7, r5, r5, lsl #4
				const struct usb_endpoint_descriptor *ep =
 8001cc4:	eb08 0607 	add.w	r6, r8, r7
				memcpy(buf, ep, count = MIN(len, ep->bLength));
 8001cc8:	f818 4007 	ldrb.w	r4, [r8, r7]
 8001ccc:	454c      	cmp	r4, r9
 8001cce:	bf28      	it	cs
 8001cd0:	464c      	movcs	r4, r9
 8001cd2:	4622      	mov	r2, r4
 8001cd4:	4631      	mov	r1, r6
 8001cd6:	4650      	mov	r0, sl
 8001cd8:	f000 fc6b 	bl	80025b2 <memcpy>
				buf += count;
 8001cdc:	44a2      	add	sl, r4
				len -= count;
 8001cde:	eba9 0904 	sub.w	r9, r9, r4
 8001ce2:	fa1f f989 	uxth.w	r9, r9
				total += count;
 8001ce6:	44a3      	add	fp, r4
 8001ce8:	fa1f fb8b 	uxth.w	fp, fp
				totallen += ep->bLength;
 8001cec:	f818 3007 	ldrb.w	r3, [r8, r7]
 8001cf0:	9a01      	ldr	r2, [sp, #4]
 8001cf2:	4413      	add	r3, r2
 8001cf4:	b29f      	uxth	r7, r3
 8001cf6:	9701      	str	r7, [sp, #4]
				if (ep->extra) {
 8001cf8:	f8d6 1007 	ldr.w	r1, [r6, #7]
 8001cfc:	2900      	cmp	r1, #0
 8001cfe:	d0d6      	beq.n	8001cae <build_config_descriptor+0x42>
					       count = MIN(len, ep->extralen));
 8001d00:	f8d6 400b 	ldr.w	r4, [r6, #11]
 8001d04:	454c      	cmp	r4, r9
 8001d06:	bfa8      	it	ge
 8001d08:	464c      	movge	r4, r9
 8001d0a:	b2a4      	uxth	r4, r4
					memcpy(buf, ep->extra,
 8001d0c:	4622      	mov	r2, r4
 8001d0e:	4650      	mov	r0, sl
 8001d10:	f000 fc4f 	bl	80025b2 <memcpy>
					buf += count;
 8001d14:	44a2      	add	sl, r4
					len -= count;
 8001d16:	eba9 0904 	sub.w	r9, r9, r4
 8001d1a:	fa1f f989 	uxth.w	r9, r9
					total += count;
 8001d1e:	44a3      	add	fp, r4
 8001d20:	fa1f fb8b 	uxth.w	fp, fp
					totallen += ep->extralen;
 8001d24:	f8d6 300b 	ldr.w	r3, [r6, #11]
 8001d28:	443b      	add	r3, r7
 8001d2a:	b29b      	uxth	r3, r3
 8001d2c:	9301      	str	r3, [sp, #4]
 8001d2e:	e7be      	b.n	8001cae <build_config_descriptor+0x42>
		for (j = 0; j < cfg->interface[i].num_altsetting; j++) {
 8001d30:	9b03      	ldr	r3, [sp, #12]
 8001d32:	3301      	adds	r3, #1
 8001d34:	b29b      	uxth	r3, r3
 8001d36:	9303      	str	r3, [sp, #12]
 8001d38:	9b04      	ldr	r3, [sp, #16]
 8001d3a:	f8d3 3009 	ldr.w	r3, [r3, #9]
 8001d3e:	9a05      	ldr	r2, [sp, #20]
 8001d40:	4413      	add	r3, r2
 8001d42:	791a      	ldrb	r2, [r3, #4]
 8001d44:	9903      	ldr	r1, [sp, #12]
 8001d46:	428a      	cmp	r2, r1
 8001d48:	d93a      	bls.n	8001dc0 <build_config_descriptor+0x154>
					&cfg->interface[i].altsetting[j];
 8001d4a:	68de      	ldr	r6, [r3, #12]
 8001d4c:	9b03      	ldr	r3, [sp, #12]
 8001d4e:	eb03 0543 	add.w	r5, r3, r3, lsl #1
 8001d52:	ebc5 05c5 	rsb	r5, r5, r5, lsl #3
			const struct usb_interface_descriptor *iface =
 8001d56:	1973      	adds	r3, r6, r5
 8001d58:	461f      	mov	r7, r3
 8001d5a:	9302      	str	r3, [sp, #8]
			memcpy(buf, iface, count = MIN(len, iface->bLength));
 8001d5c:	5d74      	ldrb	r4, [r6, r5]
 8001d5e:	454c      	cmp	r4, r9
 8001d60:	bf28      	it	cs
 8001d62:	464c      	movcs	r4, r9
 8001d64:	4622      	mov	r2, r4
 8001d66:	4619      	mov	r1, r3
 8001d68:	4650      	mov	r0, sl
 8001d6a:	f000 fc22 	bl	80025b2 <memcpy>
			buf += count;
 8001d6e:	44a2      	add	sl, r4
			len -= count;
 8001d70:	eba9 0904 	sub.w	r9, r9, r4
 8001d74:	fa1f f989 	uxth.w	r9, r9
			total += count;
 8001d78:	44a3      	add	fp, r4
 8001d7a:	fa1f fb8b 	uxth.w	fp, fp
			totallen += iface->bLength;
 8001d7e:	5d73      	ldrb	r3, [r6, r5]
 8001d80:	9a01      	ldr	r2, [sp, #4]
 8001d82:	4413      	add	r3, r2
 8001d84:	b29e      	uxth	r6, r3
 8001d86:	9601      	str	r6, [sp, #4]
			if (iface->extra) {
 8001d88:	f8d7 100d 	ldr.w	r1, [r7, #13]
 8001d8c:	b1b1      	cbz	r1, 8001dbc <build_config_descriptor+0x150>
				       count = MIN(len, iface->extralen));
 8001d8e:	f8d7 4011 	ldr.w	r4, [r7, #17]
 8001d92:	454c      	cmp	r4, r9
 8001d94:	bfa8      	it	ge
 8001d96:	464c      	movge	r4, r9
 8001d98:	b2a4      	uxth	r4, r4
				memcpy(buf, iface->extra,
 8001d9a:	4622      	mov	r2, r4
 8001d9c:	4650      	mov	r0, sl
 8001d9e:	f000 fc08 	bl	80025b2 <memcpy>
				buf += count;
 8001da2:	44a2      	add	sl, r4
				len -= count;
 8001da4:	eba9 0904 	sub.w	r9, r9, r4
 8001da8:	fa1f f989 	uxth.w	r9, r9
				total += count;
 8001dac:	44a3      	add	fp, r4
 8001dae:	fa1f fb8b 	uxth.w	fp, fp
				totallen += iface->extralen;
 8001db2:	f8d7 3011 	ldr.w	r3, [r7, #17]
 8001db6:	4433      	add	r3, r6
 8001db8:	b29b      	uxth	r3, r3
 8001dba:	9301      	str	r3, [sp, #4]
{
 8001dbc:	2500      	movs	r5, #0
 8001dbe:	e778      	b.n	8001cb2 <build_config_descriptor+0x46>
	for (i = 0; i < cfg->bNumInterfaces; i++) {
 8001dc0:	9b06      	ldr	r3, [sp, #24]
 8001dc2:	3301      	adds	r3, #1
 8001dc4:	b29b      	uxth	r3, r3
 8001dc6:	9306      	str	r3, [sp, #24]
 8001dc8:	9b04      	ldr	r3, [sp, #16]
 8001dca:	791b      	ldrb	r3, [r3, #4]
 8001dcc:	9a06      	ldr	r2, [sp, #24]
 8001dce:	4293      	cmp	r3, r2
 8001dd0:	d921      	bls.n	8001e16 <build_config_descriptor+0x1aa>
		if (cfg->interface[i].iface_assoc) {
 8001dd2:	9b04      	ldr	r3, [sp, #16]
 8001dd4:	f8d3 3009 	ldr.w	r3, [r3, #9]
 8001dd8:	9a06      	ldr	r2, [sp, #24]
 8001dda:	0112      	lsls	r2, r2, #4
 8001ddc:	9205      	str	r2, [sp, #20]
 8001dde:	4413      	add	r3, r2
 8001de0:	689d      	ldr	r5, [r3, #8]
 8001de2:	b1ad      	cbz	r5, 8001e10 <build_config_descriptor+0x1a4>
			memcpy(buf, assoc, count = MIN(len, assoc->bLength));
 8001de4:	782c      	ldrb	r4, [r5, #0]
 8001de6:	454c      	cmp	r4, r9
 8001de8:	bf28      	it	cs
 8001dea:	464c      	movcs	r4, r9
 8001dec:	4622      	mov	r2, r4
 8001dee:	4629      	mov	r1, r5
 8001df0:	4650      	mov	r0, sl
 8001df2:	f000 fbde 	bl	80025b2 <memcpy>
			buf += count;
 8001df6:	44a2      	add	sl, r4
			len -= count;
 8001df8:	eba9 0904 	sub.w	r9, r9, r4
 8001dfc:	fa1f f989 	uxth.w	r9, r9
			total += count;
 8001e00:	445c      	add	r4, fp
 8001e02:	fa1f fb84 	uxth.w	fp, r4
			totallen += assoc->bLength;
 8001e06:	782b      	ldrb	r3, [r5, #0]
 8001e08:	9a01      	ldr	r2, [sp, #4]
 8001e0a:	4413      	add	r3, r2
 8001e0c:	b29b      	uxth	r3, r3
 8001e0e:	9301      	str	r3, [sp, #4]
{
 8001e10:	2300      	movs	r3, #0
 8001e12:	9303      	str	r3, [sp, #12]
 8001e14:	e790      	b.n	8001d38 <build_config_descriptor+0xcc>
	*(uint16_t *)(tmpbuf + 2) = totallen;
 8001e16:	9b07      	ldr	r3, [sp, #28]
 8001e18:	f8bd 2004 	ldrh.w	r2, [sp, #4]
 8001e1c:	805a      	strh	r2, [r3, #2]
}
 8001e1e:	4658      	mov	r0, fp
 8001e20:	b009      	add	sp, #36	; 0x24
 8001e22:	e8bd 8ff0 	ldmia.w	sp!, {r4, r5, r6, r7, r8, r9, sl, fp, pc}

08001e26 <usb_standard_get_descriptor>:
{
 8001e26:	e92d 43f8 	stmdb	sp!, {r3, r4, r5, r6, r7, r8, r9, lr}
 8001e2a:	4605      	mov	r5, r0
 8001e2c:	460f      	mov	r7, r1
 8001e2e:	4691      	mov	r9, r2
 8001e30:	461e      	mov	r6, r3
	descr_idx = usb_descriptor_index(req->wValue);
 8001e32:	884c      	ldrh	r4, [r1, #2]
 8001e34:	4620      	mov	r0, r4
 8001e36:	f7ff fe2e 	bl	8001a96 <usb_descriptor_index>
 8001e3a:	4680      	mov	r8, r0
	switch (usb_descriptor_type(req->wValue)) {
 8001e3c:	4620      	mov	r0, r4
 8001e3e:	f7ff fe28 	bl	8001a92 <usb_descriptor_type>
 8001e42:	2802      	cmp	r0, #2
 8001e44:	d011      	beq.n	8001e6a <usb_standard_get_descriptor+0x44>
 8001e46:	2803      	cmp	r0, #3
 8001e48:	d01b      	beq.n	8001e82 <usb_standard_get_descriptor+0x5c>
 8001e4a:	2801      	cmp	r0, #1
 8001e4c:	d001      	beq.n	8001e52 <usb_standard_get_descriptor+0x2c>
	return USBD_REQ_NOTSUPP;
 8001e4e:	2000      	movs	r0, #0
 8001e50:	e009      	b.n	8001e66 <usb_standard_get_descriptor+0x40>
		*buf = (uint8_t *) usbd_dev->desc;
 8001e52:	682b      	ldr	r3, [r5, #0]
 8001e54:	f8c9 3000 	str.w	r3, [r9]
		*len = MIN(*len, usbd_dev->desc->bLength);
 8001e58:	682b      	ldr	r3, [r5, #0]
 8001e5a:	781b      	ldrb	r3, [r3, #0]
 8001e5c:	8832      	ldrh	r2, [r6, #0]
 8001e5e:	4293      	cmp	r3, r2
 8001e60:	bf28      	it	cs
 8001e62:	4613      	movcs	r3, r2
 8001e64:	8033      	strh	r3, [r6, #0]
}
 8001e66:	e8bd 83f8 	ldmia.w	sp!, {r3, r4, r5, r6, r7, r8, r9, pc}
		*buf = usbd_dev->ctrl_buf;
 8001e6a:	692a      	ldr	r2, [r5, #16]
 8001e6c:	f8c9 2000 	str.w	r2, [r9]
		*len = build_config_descriptor(usbd_dev, descr_idx, *buf, *len);
 8001e70:	8833      	ldrh	r3, [r6, #0]
 8001e72:	fa5f f188 	uxtb.w	r1, r8
 8001e76:	4628      	mov	r0, r5
 8001e78:	f7ff fef8 	bl	8001c6c <build_config_descriptor>
 8001e7c:	8030      	strh	r0, [r6, #0]
		return USBD_REQ_HANDLED;
 8001e7e:	2001      	movs	r0, #1
 8001e80:	e7f1      	b.n	8001e66 <usb_standard_get_descriptor+0x40>
		sd = (struct usb_string_descriptor *)usbd_dev->ctrl_buf;
 8001e82:	692c      	ldr	r4, [r5, #16]
		if (descr_idx == 0) {
 8001e84:	f1b8 0f00 	cmp.w	r8, #0
 8001e88:	d10f      	bne.n	8001eaa <usb_standard_get_descriptor+0x84>
			sd->wData[0] = USB_LANGID_ENGLISH_US;
 8001e8a:	2309      	movs	r3, #9
 8001e8c:	70a3      	strb	r3, [r4, #2]
 8001e8e:	2304      	movs	r3, #4
 8001e90:	70e3      	strb	r3, [r4, #3]
			sd->bLength = sizeof(sd->bLength) +
 8001e92:	7023      	strb	r3, [r4, #0]
			*len = MIN(*len, sd->bLength);
 8001e94:	8833      	ldrh	r3, [r6, #0]
 8001e96:	2b04      	cmp	r3, #4
 8001e98:	bf28      	it	cs
 8001e9a:	2304      	movcs	r3, #4
 8001e9c:	8033      	strh	r3, [r6, #0]
		sd->bDescriptorType = USB_DT_STRING;
 8001e9e:	2303      	movs	r3, #3
 8001ea0:	7063      	strb	r3, [r4, #1]
		*buf = (uint8_t *)sd;
 8001ea2:	f8c9 4000 	str.w	r4, [r9]
		return USBD_REQ_HANDLED;
 8001ea6:	2001      	movs	r0, #1
 8001ea8:	e7dd      	b.n	8001e66 <usb_standard_get_descriptor+0x40>
			array_idx = descr_idx - 1;
 8001eaa:	f108 38ff 	add.w	r8, r8, #4294967295	; 0xffffffff
			if (!usbd_dev->strings) {
 8001eae:	68ab      	ldr	r3, [r5, #8]
 8001eb0:	b343      	cbz	r3, 8001f04 <usb_standard_get_descriptor+0xde>
			if (array_idx >= usbd_dev->num_strings) {
 8001eb2:	68ea      	ldr	r2, [r5, #12]
 8001eb4:	4542      	cmp	r2, r8
 8001eb6:	dd27      	ble.n	8001f08 <usb_standard_get_descriptor+0xe2>
			if (req->wIndex != USB_LANGID_ENGLISH_US) {
 8001eb8:	88b9      	ldrh	r1, [r7, #4]
 8001eba:	f240 4209 	movw	r2, #1033	; 0x409
 8001ebe:	4291      	cmp	r1, r2
 8001ec0:	d001      	beq.n	8001ec6 <usb_standard_get_descriptor+0xa0>
				return USBD_REQ_NOTSUPP;
 8001ec2:	2000      	movs	r0, #0
 8001ec4:	e7cf      	b.n	8001e66 <usb_standard_get_descriptor+0x40>
			sd->bLength = strlen(usbd_dev->strings[array_idx]) * 2 +
 8001ec6:	ea4f 0788 	mov.w	r7, r8, lsl #2
 8001eca:	f853 0028 	ldr.w	r0, [r3, r8, lsl #2]
 8001ece:	f000 fb88 	bl	80025e2 <strlen>
 8001ed2:	1c43      	adds	r3, r0, #1
 8001ed4:	005b      	lsls	r3, r3, #1
 8001ed6:	b2db      	uxtb	r3, r3
 8001ed8:	7023      	strb	r3, [r4, #0]
			*len = MIN(*len, sd->bLength);
 8001eda:	b29b      	uxth	r3, r3
 8001edc:	8832      	ldrh	r2, [r6, #0]
 8001ede:	4293      	cmp	r3, r2
 8001ee0:	bf28      	it	cs
 8001ee2:	4613      	movcs	r3, r2
 8001ee4:	8033      	strh	r3, [r6, #0]
			for (i = 0; i < (*len / 2) - 1; i++) {
 8001ee6:	2200      	movs	r2, #0
 8001ee8:	e006      	b.n	8001ef8 <usb_standard_get_descriptor+0xd2>
					usbd_dev->strings[array_idx][i];
 8001eea:	68ab      	ldr	r3, [r5, #8]
 8001eec:	59db      	ldr	r3, [r3, r7]
 8001eee:	5c99      	ldrb	r1, [r3, r2]
				sd->wData[i] =
 8001ef0:	eb04 0342 	add.w	r3, r4, r2, lsl #1
 8001ef4:	8059      	strh	r1, [r3, #2]
			for (i = 0; i < (*len / 2) - 1; i++) {
 8001ef6:	3201      	adds	r2, #1
 8001ef8:	8833      	ldrh	r3, [r6, #0]
 8001efa:	085b      	lsrs	r3, r3, #1
 8001efc:	3b01      	subs	r3, #1
 8001efe:	4293      	cmp	r3, r2
 8001f00:	dcf3      	bgt.n	8001eea <usb_standard_get_descriptor+0xc4>
 8001f02:	e7cc      	b.n	8001e9e <usb_standard_get_descriptor+0x78>
				return USBD_REQ_NOTSUPP;
 8001f04:	2000      	movs	r0, #0
 8001f06:	e7ae      	b.n	8001e66 <usb_standard_get_descriptor+0x40>
				return USBD_REQ_NOTSUPP;
 8001f08:	2000      	movs	r0, #0
 8001f0a:	e7ac      	b.n	8001e66 <usb_standard_get_descriptor+0x40>

08001f0c <usb_standard_endpoint_get_status>:
{
 8001f0c:	b510      	push	{r4, lr}
 8001f0e:	4614      	mov	r4, r2
	if (*len > 2) {
 8001f10:	881a      	ldrh	r2, [r3, #0]
 8001f12:	2a02      	cmp	r2, #2
 8001f14:	d901      	bls.n	8001f1a <usb_standard_endpoint_get_status+0xe>
		*len = 2;
 8001f16:	2202      	movs	r2, #2
 8001f18:	801a      	strh	r2, [r3, #0]
	(*buf)[0] = usbd_ep_stall_get(usbd_dev, req->wIndex) ? 1 : 0;
 8001f1a:	8889      	ldrh	r1, [r1, #4]
 8001f1c:	b2c9      	uxtb	r1, r1
 8001f1e:	f7ff fc53 	bl	80017c8 <usbd_ep_stall_get>
 8001f22:	6823      	ldr	r3, [r4, #0]
 8001f24:	3000      	adds	r0, #0
 8001f26:	bf18      	it	ne
 8001f28:	2001      	movne	r0, #1
 8001f2a:	7018      	strb	r0, [r3, #0]
	(*buf)[1] = 0;
 8001f2c:	6823      	ldr	r3, [r4, #0]
 8001f2e:	2200      	movs	r2, #0
 8001f30:	705a      	strb	r2, [r3, #1]
}
 8001f32:	2001      	movs	r0, #1
 8001f34:	bd10      	pop	{r4, pc}

08001f36 <usb_standard_endpoint_stall>:
{
 8001f36:	b508      	push	{r3, lr}
	usbd_ep_stall_set(usbd_dev, req->wIndex, 1);
 8001f38:	8889      	ldrh	r1, [r1, #4]
 8001f3a:	2201      	movs	r2, #1
 8001f3c:	b2c9      	uxtb	r1, r1
 8001f3e:	f7ff fc3d 	bl	80017bc <usbd_ep_stall_set>
}
 8001f42:	2001      	movs	r0, #1
 8001f44:	bd08      	pop	{r3, pc}

08001f46 <usb_standard_endpoint_unstall>:
{
 8001f46:	b508      	push	{r3, lr}
	usbd_ep_stall_set(usbd_dev, req->wIndex, 0);
 8001f48:	8889      	ldrh	r1, [r1, #4]
 8001f4a:	2200      	movs	r2, #0
 8001f4c:	b2c9      	uxtb	r1, r1
 8001f4e:	f7ff fc35 	bl	80017bc <usbd_ep_stall_set>
}
 8001f52:	2001      	movs	r0, #1
 8001f54:	bd08      	pop	{r3, pc}

08001f56 <usbd_register_set_config_callback>:
	for (i = 0; i < MAX_USER_SET_CONFIG_CALLBACK; i++) {
 8001f56:	2300      	movs	r3, #0
 8001f58:	2b03      	cmp	r3, #3
 8001f5a:	dc0d      	bgt.n	8001f78 <usbd_register_set_config_callback+0x22>
		if (usbd_dev->user_callback_set_config[i])
 8001f5c:	f103 0230 	add.w	r2, r3, #48	; 0x30
 8001f60:	eb00 0282 	add.w	r2, r0, r2, lsl #2
 8001f64:	6852      	ldr	r2, [r2, #4]
 8001f66:	b10a      	cbz	r2, 8001f6c <usbd_register_set_config_callback+0x16>
	for (i = 0; i < MAX_USER_SET_CONFIG_CALLBACK; i++) {
 8001f68:	3301      	adds	r3, #1
 8001f6a:	e7f5      	b.n	8001f58 <usbd_register_set_config_callback+0x2>
		usbd_dev->user_callback_set_config[i] = callback;
 8001f6c:	3330      	adds	r3, #48	; 0x30
 8001f6e:	eb00 0383 	add.w	r3, r0, r3, lsl #2
 8001f72:	6059      	str	r1, [r3, #4]
		return 0;
 8001f74:	2000      	movs	r0, #0
 8001f76:	4770      	bx	lr
	return -1;
 8001f78:	f04f 30ff 	mov.w	r0, #4294967295	; 0xffffffff
}
 8001f7c:	4770      	bx	lr

08001f7e <_usbd_standard_request>:

int _usbd_standard_request(usbd_device *usbd_dev, struct usb_setup_data *req,
			   uint8_t **buf, uint16_t *len)
{
 8001f7e:	b510      	push	{r4, lr}
	/* FIXME: Have class/vendor requests as well. */
	if ((req->bmRequestType & USB_REQ_TYPE_TYPE) != USB_REQ_TYPE_STANDARD) {
 8001f80:	780c      	ldrb	r4, [r1, #0]
 8001f82:	f014 0f60 	tst.w	r4, #96	; 0x60
 8001f86:	d111      	bne.n	8001fac <_usbd_standard_request+0x2e>
		return 0;
	}

	switch (req->bmRequestType & USB_REQ_TYPE_RECIPIENT) {
 8001f88:	f004 041f 	and.w	r4, r4, #31
 8001f8c:	2c01      	cmp	r4, #1
 8001f8e:	d007      	beq.n	8001fa0 <_usbd_standard_request+0x22>
 8001f90:	b11c      	cbz	r4, 8001f9a <_usbd_standard_request+0x1c>
 8001f92:	2c02      	cmp	r4, #2
 8001f94:	d007      	beq.n	8001fa6 <_usbd_standard_request+0x28>
		return _usbd_standard_request_interface(usbd_dev, req,
							buf, len);
	case USB_REQ_TYPE_ENDPOINT:
		return _usbd_standard_request_endpoint(usbd_dev, req, buf, len);
	default:
		return 0;
 8001f96:	2000      	movs	r0, #0
 8001f98:	e009      	b.n	8001fae <_usbd_standard_request+0x30>
		return _usbd_standard_request_device(usbd_dev, req, buf, len);
 8001f9a:	f7ff f8a1 	bl	80010e0 <_usbd_standard_request_device>
 8001f9e:	e006      	b.n	8001fae <_usbd_standard_request+0x30>
		return _usbd_standard_request_interface(usbd_dev, req,
 8001fa0:	f7ff f8c4 	bl	800112c <_usbd_standard_request_interface>
 8001fa4:	e003      	b.n	8001fae <_usbd_standard_request+0x30>
		return _usbd_standard_request_endpoint(usbd_dev, req, buf, len);
 8001fa6:	f7ff f8db 	bl	8001160 <_usbd_standard_request_endpoint>
 8001faa:	e000      	b.n	8001fae <_usbd_standard_request+0x30>
		return 0;
 8001fac:	2000      	movs	r0, #0
	}
}
 8001fae:	bd10      	pop	{r4, pc}

08001fb0 <st_usbfs_copy_to_pm>:

void st_usbfs_copy_to_pm(volatile void *vPM, const void *buf, uint16_t len)
{
	const uint16_t *lbuf = buf;
	volatile uint32_t *PM = vPM;
	for (len = (len + 1) >> 1; len; len--) {
 8001fb0:	3201      	adds	r2, #1
 8001fb2:	0852      	lsrs	r2, r2, #1
 8001fb4:	e005      	b.n	8001fc2 <st_usbfs_copy_to_pm+0x12>
		*PM++ = *lbuf++;
 8001fb6:	880b      	ldrh	r3, [r1, #0]
 8001fb8:	6003      	str	r3, [r0, #0]
	for (len = (len + 1) >> 1; len; len--) {
 8001fba:	3a01      	subs	r2, #1
 8001fbc:	b292      	uxth	r2, r2
		*PM++ = *lbuf++;
 8001fbe:	3004      	adds	r0, #4
 8001fc0:	3102      	adds	r1, #2
	for (len = (len + 1) >> 1; len; len--) {
 8001fc2:	2a00      	cmp	r2, #0
 8001fc4:	d1f7      	bne.n	8001fb6 <st_usbfs_copy_to_pm+0x6>
	}
}
 8001fc6:	4770      	bx	lr

08001fc8 <st_usbfs_copy_from_pm>:
 * @param buf Source pointer to data buffer.
 * @param vPM Destination pointer into packet memory.
 * @param len Number of bytes to copy.
 */
void st_usbfs_copy_from_pm(void *buf, const volatile void *vPM, uint16_t len)
{
 8001fc8:	b410      	push	{r4}
	uint16_t *lbuf = buf;
