
.pioenvs/bluepill_f103c8/firmware.elf:     file format elf32-littlearm

SYMBOL TABLE:
08000000 l    d  .boot_text	00000000 .boot_text
08006c00 l    d  .text	00000000 .text
080050b0 l    d  .boot_preinit_array	00000000 .boot_preinit_array
0800a800 l    d  .preinit_array	00000000 .preinit_array
080050b0 l    d  .boot_init_array	00000000 .boot_init_array
0800a800 l    d  .init_array	00000000 .init_array
080050b0 l    d  .boot_fini_array	00000000 .boot_fini_array
0800a814 l    d  .fini_array	00000000 .fini_array
20000000 l    d  .boot_data	00000000 .boot_data
20001000 l    d  .data	00000000 .data
2000012c l    d  .boot_bss	00000000 .boot_bss
20001008 l    d  .bss	00000000 .bss
200047bc l    d  .boot_buf	00000000 .boot_buf
00000000 l    d  .ARM.attributes	00000000 .ARM.attributes
00000000 l    d  .comment	00000000 .comment
00000000 l    d  .debug_line	00000000 .debug_line
00000000 l    d  .debug_info	00000000 .debug_info
00000000 l    d  .debug_abbrev	00000000 .debug_abbrev
00000000 l    d  .debug_aranges	00000000 .debug_aranges
00000000 l    d  .debug_str	00000000 .debug_str
00000000 l    d  .debug_loc	00000000 .debug_loc
00000000 l    d  .debug_ranges	00000000 .debug_ranges
00000000 l    d  .debug_macro	00000000 .debug_macro
00000000 l    d  .debug_frame	00000000 .debug_frame
00000000 l    df *ABS*	00000000 vector.c
00000000 l    df *ABS*	00000000 baseloader.c
2000012c l     O .boot_bss	00000004 bytes_flashed.5195
20000130 l     O .boot_bss	00000004 dest.5192
20000134 l     O .boot_bss	00000004 erase_end.5199
20000138 l     O .boot_bss	00000004 erase_start.5198
2000013c l     O .boot_bss	00000004 flash_end.5200
20000140 l     O .boot_bss	00000004 half_word_count.5194
20000148 l     O .boot_bss	00000001 should_disable_interrupts.5197
20000144 l     O .boot_bss	00000004 src.5193
20000149 l     O .boot_bss	00000001 verified.5196
00000000 l    df *ABS*	00000000 timer.cpp
08002a38 l     F .boot_text	00000074 _ZL25custom_rtc_awake_from_off7rcc_osc
08002aac l     F .boot_text	00000090 _ZL9rtc_setupv
20000444 l     O .boot_bss	00000004 _ZL10alarmCount
20000448 l     O .boot_bss	00000004 _ZL8tickFunc
2000044c l     O .boot_bss	00000004 _ZL9alarmFunc
20000450 l     O .boot_bss	00000004 _ZL9tickCount
20000455 l     O .boot_bss	00000001 _ZZ20platform_start_timerE12timerStarted
00000000 l    df *ABS*	00000000 uartint.cpp
08008e50 l     F .text	0000001c _Z41__static_initialization_and_destruction_0ii
08009fb2 l     F .text	0000000e _GLOBAL__sub_I__ZN13UARTInterfaceC2Ejj
20002194 l     O .bss	0000006c _ZL13responseQueue
00000000 l    df *ABS*	00000000 reset_handler.c
08000680 l     F .boot_text	00000050 pre_main
00000000 l    df *ABS*	00000000 codal_target_hal.cpp
08000768 l     F .boot_text	00000024 _ZL11timer_alarmv
0800078c l     F .boot_text	00000070 _ZL15poll_bootloaderv
080007fc l     F .boot_text	00000018 _ZL10timer_tickv
08000814 l     F .boot_text	0000002c _ZL11os_schedulev
20000164 l     O .boot_bss	00000001 _ZL11initialised
2000014c l     O .boot_bss	00000004 _ZL11poll_status
20000150 l     O .boot_bss	00000004 _ZL13tick_callback
20000154 l     O .boot_bss	00000004 _ZL14alarm_callback
20000158 l     O .boot_bss	00000004 _ZL16prev_poll_status
2000015c l     O .boot_bss	00000004 _ZL19bootloader_callback
00000000 l    df *ABS*	00000000 asm/CortexContextSwitch.s.o
08000a20 l       .boot_text	00000000 store_context_complete
08000a32 l       .boot_text	00000000 store_stack_complete
08000a26 l       .boot_text	00000000 store_stack
08000a4c l       .boot_text	00000000 restore_stack_complete
08000a40 l       .boot_text	00000000 restore_stack
08000aa0 l       .boot_text	00000000 store_stack1
00000000 l    df *ABS*	00000000 desig.c
08004624 l     O .boot_text	00000011 chars.4166
00000000 l    df *ABS*	00000000 rcc.c
00000000 l    df *ABS*	00000000 rtc.c
00000000 l    df *ABS*	00000000 pwr_common_all.c
00000000 l    df *ABS*	00000000 exti_common_all.c
00000000 l    df *ABS*	00000000 flash_common_f01.c
00000000 l    df *ABS*	00000000 usb.c
00000000 l    df *ABS*	00000000 usb_standard.c
08001a92 l     F .boot_text	00000004 usb_descriptor_type
08001a96 l     F .boot_text	00000004 usb_descriptor_index
08001a9a l     F .boot_text	00000030 usb_standard_set_address
08001aca l     F .boot_text	000000ba usb_standard_set_configuration
08001b84 l     F .boot_text	00000024 usb_standard_get_configuration
08001ba8 l     F .boot_text	00000056 usb_standard_set_interface
08001bfe l     F .boot_text	0000003e usb_standard_get_interface
08001c3c l     F .boot_text	00000018 usb_standard_device_get_status
08001c54 l     F .boot_text	00000018 usb_standard_interface_get_status
08001c6c l     F .boot_text	000001ba build_config_descriptor
08001e26 l     F .boot_text	000000e6 usb_standard_get_descriptor
08001f0c l     F .boot_text	0000002a usb_standard_endpoint_get_status
08001f36 l     F .boot_text	00000010 usb_standard_endpoint_stall
08001f46 l     F .boot_text	00000010 usb_standard_endpoint_unstall
00000000 l    df *ABS*	00000000 st_usbfs_v1.c
080011a4 l     F .boot_text	00000030 st_usbfs_v1_usbd_init
00000000 l    df *ABS*	00000000 scb.c
00000000 l    df *ABS*	00000000 st_usbfs_core.c
00000000 l    df *ABS*	00000000 gpio.c
00000000 l    df *ABS*	00000000 gpio_common_all.c
00000000 l    df *ABS*	00000000 usart_common_f124.c
00000000 l    df *ABS*	00000000 rcc_common_all.c
00000000 l    df *ABS*	00000000 usb_control.c
080017d4 l     F .boot_text	00000014 stall_transaction
080017e8 l     F .boot_text	00000032 usb_control_setup_write
0800181a l     F .boot_text	0000003c usb_control_recv_chunk
08001856 l     F .boot_text	00000048 usb_control_send_chunk
0800189e l     F .boot_text	00000060 usb_control_request_dispatch
080018fe l     F .boot_text	0000003a usb_control_setup_read
00000000 l    df *ABS*	00000000 nvic.c
00000000 l    df *ABS*	00000000 os_event.c
20000168 l     O .boot_bss	0000000e eventList
20000226 l     O .boot_bss	00000001 nEvents
20000014 l     O .boot_data	00000001 lastSignaledEvent
00000000 l    df *ABS*	00000000 os_kernel.c
00000000 l    df *ABS*	00000000 os_msgqueue.c
20000178 l     O .boot_bss	00000020 msgQList
20000227 l     O .boot_bss	00000001 nQueues
00000000 l    df *ABS*	00000000 os_sem.c
20000228 l     O .boot_bss	00000001 nSemaphores
00000000 l    df *ABS*	00000000 os_task.c
080022dc l     F .boot_text	0000001c os_task_wait_queue_empty
080022f8 l     F .boot_text	00000014 task_ready_set
20000229 l     O .boot_bss	00000001 nTasks
20000198 l     O .boot_bss	0000008c task_list
00000000 l    df *ABS*	00000000 os_assert.c
20000224 l     O .boot_bss	00000002 l.4990
00000000 l    df *ABS*	00000000 os_cbk.c
00000000 l    df *ABS*	00000000 memcmp.c
00000000 l    df *ABS*	00000000 memcpy.c
00000000 l    df *ABS*	00000000 memset.c
00000000 l    df *ABS*	00000000 strlen.c
00000000 l    df *ABS*	00000000 strncpy.c
00000000 l    df *ABS*	00000000 logger.cpp
08002634 l     F .boot_text	00000024 _ZL10__semihostiPv
080028a0 l     F .boot_text	0000001e _ZL14semihost_writemPKhj
08002658 l     F .boot_text	0000003c _ZL16write_all_outputPKhtb
08002694 l     F .boot_text	0000005c _ZL12debug_appendPKcj
20000442 l     O .boot_bss	00000001 _ZL10logEnabled
2000022c l     O .boot_bss	00000201 _ZL11debugBuffer
20000430 l     O .boot_bss	00000010 _ZL12output_funcs
20000440 l     O .boot_bss	00000002 _ZL17debugBufferLength
00000000 l    df *ABS*	00000000 bluepill.cpp
20000454 l     O .boot_bss	00000001 _ZL12debugEnabled
00000000 l    df *ABS*	00000000 led.cpp
00000000 l    df *ABS*	00000000 bootloader.c
08002bd4 l     F .boot_text	00000034 get_serial_number
08002c28 l     F .boot_text	000000cc poll_loop
20000458 l     O .boot_bss	00000004 baseloader_addr
2000045c l     O .boot_bss	00000004 baseloader_status
20000460 l     O .boot_bss	00000004 byte_count
20000464 l     O .boot_bss	00000004 cycleCount
20000468 l     O .boot_bss	00000004 dest
2000046c l     O .boot_bss	00000004 last_status
20000470 l     O .boot_bss	00000004 msTimer
20000728 l     O .boot_bss	00000001 poll_restart_requested
20000474 l     O .boot_bss	00000004 src
20000478 l     O .boot_bss	00000004 status
2000047c l     O .boot_bss	00000004 usbd_dev
20000018 l     O .boot_data	00000004 flushCount
00000000 l    df *ABS*	00000000 target_stm32f103.c
080044c2 l     F .boot_text	00000014 sleep_us
08002e64 l     F .boot_text	0000005c validate_application
20000729 l     O .boot_bss	00000001 forced_startup_mode
2000072a l     O .boot_bss	00000001 startup_mode
00000000 l    df *ABS*	00000000 usb_conf.c
08003098 l     F .boot_text	00000014 hf2_connected
080044e0 l     F .boot_text	00000004 usb_descriptor_type
080044e4 l     F .boot_text	00000004 usb_descriptor_index
080030ac l     F .boot_text	00000020 cdc_connected
080030cc l     F .boot_text	00000030 usb_cdc_transmit
080030fc l     F .boot_text	00000010 sof_callback
0800310c l     F .boot_text	00000050 set_aggregate_callback
0800350c l     F .boot_text	000000a8 aggregate_callback
2000072b l     O .boot_bss	00000001 cdc_is_connected
20000480 l     O .boot_bss	00000028 config_callback
200004a8 l     O .boot_bss	00000050 control_callback
2000072c l     O .boot_bss	00000001 hf2_is_connected
200004f8 l     O .boot_bss	00000004 last_busy_time
200004fc l     O .boot_bss	00000004 last_frame_time
20000500 l     O .boot_bss	00000019 serial_number
20000628 l     O .boot_bss	00000100 usbd_control_buffer
2000001c l     O .boot_data	00000008 capabilities
20000024 l     O .boot_data	00000024 usb_strings
080048f4 l     O .boot_text	00000009 bos_descriptor
08004900 l     O .boot_text	00000008 cdc_iface_assoc
08004908 l     O .boot_text	00000013 cdcacm_functional_descriptors
0800491c l     O .boot_text	0000000f comm_endp
0800492c l     O .boot_text	00000015 comm_iface
08004944 l     O .boot_text	0000000d config
08004a64 l     O .boot_text	00000030 interfaces
08004954 l     O .boot_text	0000001e data_endp
08004974 l     O .boot_text	00000015 data_iface
0800498c l     O .boot_text	00000012 dev
08004a2c l     O .boot_text	0000001e hf2_endp
08004a4c l     O .boot_text	00000015 hf2_iface
00000000 l    df *ABS*	00000000 webusb.c
080035b4 l     F .boot_text	00000028 webusb_set_config
080035dc l     F .boot_text	000000d0 webusb_control_vendor_request
20000520 l     O .boot_bss	00000004 webusb_https_url
00000000 l    df *ABS*	00000000 winusb.c
080044e8 l     F .boot_text	00000004 usb_descriptor_type
080044ec l     F .boot_text	00000004 usb_descriptor_index
080036f8 l     F .boot_text	00000028 winusb_set_config
08003780 l     F .boot_text	000000c0 winusb_control_vendor_request
08003720 l     F .boot_text	00000060 winusb_descriptor_request
20000048 l     O .boot_data	000000b2 msos20_descriptor_set
200000fc l     O .boot_data	00000028 winusb_wcid
08004c0c l     O .boot_text	00000092 guid
08004d14 l     O .boot_text	00000012 winusb_string_descriptor
00000000 l    df *ABS*	00000000 cdc.c
08003898 l     F .boot_text	00000010 cdcacm_comm_cb
080038a8 l     F .boot_text	00000064 cdcacm_set_config
08003a00 l     F .boot_text	0000004c cdcacm_data_rx_cb
0800390c l     F .boot_text	0000008c cdcacm_control_request
2000072d l     O .boot_bss	00000001 connected
20000524 l     O .boot_bss	00000004 connected_func
20000528 l     O .boot_bss	00000041 rx_buf
08004d90 l     O .boot_text	00000007 line_coding
00000000 l    df *ABS*	00000000 hf2.c
08003a78 l     F .boot_text	00000020 assert
08003a98 l     F .boot_text	00000040 hf2_set_config
08004174 l     F .boot_text	00000058 hf2_data_tx_cb
080040b0 l     F .boot_text	000000c4 hf2_data_rx_cb
08003ad8 l     F .boot_text	000000c8 pokeSend
080044f0 l     F .boot_text	00000018 send_hf2_response
08003ba0 l     F .boot_text	000002fc handle_flash_write
08003e9c l     F .boot_text	00000214 handle_command
2000056c l     O .boot_bss	00000004 _usbd_dev
20000570 l     O .boot_bss	00000004 cmdId.6006
2000072e l     O .boot_bss	00000001 connected
20000574 l     O .boot_bss	00000004 connected_func
2000072f l     O .boot_bss	00000001 flush_count.6008
20000578 l     O .boot_bss	00000004 new_app_start.6010
2000057c l     O .boot_bss	00000004 new_base_vector.6009
20000580 l     O .boot_bss	00000004 new_baseloader_size.6012
20000584 l     O .boot_bss	00000004 new_bootloader_size.6011
20000588 l     O .boot_bss	00000004 pkt.6041
2000058c l     O .boot_bss	00000004 prevCmdId.6007
20000590 l     O .boot_bss	00000004 remDataToSend
20000730 l     O .boot_bss	00000001 remDataToSendFlag
20000594 l     O .boot_bss	00000004 remDataToSendLength
20000731 l     O .boot_bss	00000001 restart_request
20000598 l     O .boot_bss	00000040 rx_buf
200005d8 l     O .boot_bss	00000004 rx_time
200005dc l     O .boot_bss	00000040 tx_buf
08004da4 l     O .boot_text	0000000b bad_packet_message
00000000 l    df *ABS*	00000000 backup.c
00000000 l    df *ABS*	00000000 usb21_standard.c
08004298 l     F .boot_text	00000028 usb21_set_config
080042c0 l     F .boot_text	0000005c usb21_standard_get_descriptor
08004508 l     F .boot_text	0000007c build_bos_descriptor
2000061c l     O .boot_bss	00000004 usb21_bos
00000000 l    df *ABS*	00000000 ghostfat.c
20000620 l     O .boot_bss	00000004 lastFlush
20000624 l     O .boot_bss	00000004 ms
20000128 l     O .boot_data	00000001 firstFlush
20000124 l     O .boot_data	00000004 flashAddr
00000000 l    df *ABS*	00000000 application.cpp
08007fbc l     F .text	00000048 _ZL8pre_mainv
00000000 l    df *ABS*	00000000 main.cpp
08006ca4 l     F .text	00000044 _ZL10debug_dumpRN5codal13STM32BluePillEPKc
08006ce8 l     F .text	00000030 _Z41__static_initialization_and_destruction_0ii
0800900c l     F .text	0000000e _GLOBAL__sub_I_bluepill
00000000 l    df *ABS*	00000000 uart.cpp
08006e64 l     F .text	00000024 _Z41__static_initialization_and_destruction_0ii
0800901a l     F .text	0000000e _GLOBAL__sub_I_serialPort
00000000 l    df *ABS*	00000000 CodalComponent.cpp
00000000 l    df *ABS*	00000000 CodalDmesg.cpp
20002140 l     O .bss	00000004 _ZL14dmesg_flush_fn
00000000 l    df *ABS*	00000000 CodalFiber.cpp
08007148 l     F .text	00000034 _ZL10handle_fobv
20002148 l     O .bss	00000004 _ZN5codalL10messageBusE
2000214c l     O .bss	00000004 _ZN5codalL10sleepQueueE
20002211 l     O .bss	00000001 _ZN5codalL11fiber_flagsE
20002150 l     O .bss	00000004 _ZN5codalL11forkedFiberE
20002154 l     O .bss	00000004 _ZN5codalL8runQueueE
20002158 l     O .bss	00000004 _ZN5codalL9fiberPoolE
2000215c l     O .bss	00000004 _ZN5codalL9idleFiberE
20002160 l     O .bss	00000004 _ZN5codalL9waitQueueE
00000000 l    df *ABS*	00000000 CodalHeapAllocator.cpp
20002212 l     O .bss	00000001 _ZZ13device_mallocE11initialised
00000000 l    df *ABS*	00000000 Serial.cpp
00000000 l    df *ABS*	00000000 Timer.cpp
00000000 l    df *ABS*	00000000 MessageBus.cpp
20001004 l     O .data	00000002 _ZL12userNotifyId
00000000 l    df *ABS*	00000000 Event.cpp
00000000 l    df *ABS*	00000000 ManagedString.cpp
08007c04 l     F .text	00000038 _Z41__static_initialization_and_destruction_0ii
08009b1c l     F .text	0000000e _GLOBAL__sub_I__ZN5codal13ManagedString9initEmptyEv
0800a32c l     O .text	00000004 _ZL9emptyData
00000000 l    df *ABS*	00000000 CodalCompat.cpp
00000000 l    df *ABS*	00000000 CmPin.cpp
00000000 l    df *ABS*	00000000 CmSerial.cpp
00000000 l    df *ABS*	00000000 CmTimer.cpp
2000217c l     O .bss	00000004 _ZN5codal3_cmL12last_triggerE
20002180 l     O .bss	00000004 _ZN5codal3_cmL14trigger_periodE
00000000 l    df *ABS*	00000000 tasks.cpp
08008004 l     F .text	00000050 _ZL15restart_handlerN5codal5EventE
08008054 l     F .text	00000018 _ZL10flush_taskv
0800806c l     F .text	00000028 _Z41__static_initialization_and_destruction_0ii
08009f98 l     F .text	0000000e _GLOBAL__sub_I_restart_callback
20002188 l     O .bss	00000008 _ZL13restart_event
20002190 l     O .bss	00000004 _ZL16flush_task_fibre
20002214 l     O .bss	00000001 _ZL24restart_listener_started
00000000 l    df *ABS*	00000000 STM32BluePill.cpp
00000000 l    df *ABS*	00000000 STM32BluePillIO.cpp
00000000 l    df *ABS*	00000000 CmI2C.cpp
00000000 l    df *ABS*	00000000 CmSPI.cpp
20002200 l     O .bss	00000010 _ZN5codal3_cmL10_instancesE
00000000 l    df *ABS*	00000000 CmPinMap.cpp
0800a084 l     F .text	00000018 _ZL22pinmap_find_peripheralhPK6PinMap
0800a09c l     F .text	00000016 _ZL16pinmap_find_modehPK6PinMap
0800a0b2 l     F .text	00000016 _ZL15pinmap_find_cnfhPK6PinMap
00000000 l    df *ABS*	00000000 I2C.cpp
00000000 l    df *ABS*	00000000 CodalListener.cpp
00000000 l    df *ABS*	00000000 RefCounted.cpp
00000000 l    df *ABS*	00000000 RefCountedInit.cpp
00000000 l    df *ABS*	00000000 MemberFunctionCallback.cpp
08008fac g     F .text	00000028 pinmap_mode
08007848 g     F .text	00000034 _ZN5codal5TimerC1Ev
080043ec g     F .boot_text	000000cc flash_write
0800931e g     F .text	000001cc _ZN5codal6Serial9readUntilENS_13ManagedStringENS_10SerialModeE
08009c8e g     F .text	00000004 _ZN5codal3_cm3Pin15setServoPulseUsEi
08009994 g     F .text	00000012 _ZN5codal10MessageBusD0Ev
08009008  w    F .text	00000002 _ZN5codal14CodalComponent16periodicCallbackEv
08006dc4  w    F .text	0000004c _ZN5codal13STM32BluePillD1Ev
08002178 g     F .boot_text	00000044 st_usbfs_ep_stall_get
08006ff4 g     F .text	0000003c _ZN5codal14scheduler_tickENS_5EventE
08009dc4 g     F .text	00000008 _ZN5codal3_cm6Serial7rxInUseEv
080050b0 g     O .boot_preinit_array	00000004 __boot_preinit_array_start
080019b2 g     F .boot_text	0000008a _usbd_control_out
080009ca g     F .boot_text	00000004 tcb_configure_stack_base
08009fd0 g     F .text	0000000c _ZN5codal3_cm3SPI12setFrequencyEm
080006d0 g     F .boot_text	00000098 reset_handler
08009d1e g     F .text	0000000a _ZN5codal3_cm6Serial8unlockRxEv
08000910 g     F .boot_text	00000008 fiber_initial_stack_base
00006c00 g       *ABS*	00000000 _bootrom_size
20002213 g     O .bss	00000001 heap_count
08009fb0 g     F .text	00000002 _ZN13UARTInterfaceC1Ejj
08002d28 g     F .boot_text	0000013c bootloader_start
080077c0 g     F .text	00000060 _ZN5codal6SerialC1ERNS_3PinES2_hht
080017a4 g     F .boot_text	0000000c usbd_ep_write_packet
08007df8  w    F .text	00000014 _ZN5codal3_cm6SerialD1Ev
08003038 g     F .boot_text	00000020 boot_target_set_restart_callback
080017bc g     F .boot_text	0000000c usbd_ep_stall_set
08009c3e g     F .text	0000000e _ZN5codal3_cm3Pin8isOutputEv
0800a614 g     O .text	00000048 PinMap_SPI_MOSI
080091e6 g     F .text	00000018 _ZN5codal8ListenerD2Ev
080009c6 g     F .boot_text	00000004 tcb_configure_sp
080005c4  w    F .boot_text	00000002 usart3_isr
08006dc4  w    F .text	0000004c _ZN5codal13STM32BluePillD2Ev
080005c8  w    F .boot_text	00000030 rtc_isr
080005c4 g       .boot_text	00000000 _base_etext
08003058 g     F .boot_text	00000020 boot_target_manifest_app
0800a3ec g     O .text	00000018 _ZTVN5codal3_cm5TimerE
0800283c g     F .boot_text	00000034 _Z11debug_printi
08007b18 g     F .text	00000074 _ZN5codal10MessageBusC2Ev
0800288c g     F .boot_text	00000014 _Z13debug_printlni
08009ae2 g     F .text	0000001e _ZN5codal13ManagedStringaSERKS0_
080005c4  w    F .boot_text	00000002 tim7_isr
08009d8c g     F .text	00000010 _ZN5codal3_cm6Serial4baudEi
08001068 g     F .boot_text	0000000c exti_reset_request
20000838 g     O .boot_bss	00000001 running_tid
080005c4  w    F .boot_text	00000002 adc1_2_isr
080099fc g     F .text	00000022 _ZN5codal14EventQueueItemC2ENS_5EventE
08007820 g     F .text	00000028 _ZN5codal6SerialD1Ev
08009a1e g     F .text	0000000e _ZN5codal13ManagedStringD1Ev
0800a5b0 g     O .text	0000001c _ZTVN5codal13STM32BluePillE
080009d2 g     F .boot_text	00000004 get_current_sp
080005c4  w    F .boot_text	00000002 tim1_trg_com_isr
08009316 g     F .text	00000008 _ZN5codal6Serial7rxInUseEv
08007820 g     F .text	00000028 _ZN5codal6SerialD2Ev
08009fcc g     F .text	00000004 _ZN5codal3_cm3I2C12readRegisterEthPhib
08009b96 g     F .text	00000032 _ZN5codal14string_reverseEPc
0800a1f6 g     F .text	00000046 _ZN5codal3I2C12readRegisterEthPhib
08006fbc g     F .text	00000028 _ZN5codal14CodalComponent15removeComponentEv
08001f7e g     F .boot_text	00000032 _usbd_standard_request
08009d06  w    F .text	00000004 _ZN5codal3_cm6Serial13configurePinsERNS_3PinES3_
08002586 g     F .boot_text	0000000c os_tick
08009cba g     F .text	00000014 _ZN5codal3_cm3Pin13disableEventsEv
080005c4  w    F .boot_text	00000002 usb_hp_can_tx_isr
08009cfa  w    F .text	00000004 _ZN5codal3_cm6Serial15enableInterruptENS_19SerialInterruptTypeE
08008ee4 g     F .text	0000009c _ZN5codal3_cm3SPIC2ERNS0_3PinES3_S3_S3_
08006d18  w    F .text	00000018 _ZN5codal14CodalComponentD2Ev
0800a144 g     F .text	0000001e _ZN5codal3I2C13writeRegisterEthh
0800a162 g     F .text	00000078 _ZN5codal3I2C4readEtPhib
080005c4  w    F .boot_text	00000002 tim6_isr
080050b0 g       *ABS*	00000000 _boot_data_loadaddr
08009cfe  w    F .text	00000004 _ZN5codal3_cm6Serial16disableInterruptENS_19SerialInterruptTypeE
0800a814 g       .init_array	00000000 _etext
08001694 g     F .boot_text	0000006c gpio_set_mode
080050b0 g     O .boot_fini_array	00000004 __boot_fini_array_start
08009028 g     F .text	0000002e _ZN5codal11queue_fiberEPNS_5FiberEPS1_
080005c4  w    F .boot_text	00000002 usb_wakeup_isr
080005c4 g     F .boot_text	00000002 blocking_handler
20000839 g     O .boot_bss	00000001 running
00000800 g       *ABS*	00000000 _baseram_size
080029dc g     F .boot_text	00000020 led_setup
080005c4  w    F .boot_text	00000002 tim5_isr
08009274 g     F .text	00000050 _ZN5codal6Serial12initialiseRxEv
08009a96 g     F .text	00000030 _ZN5codal13ManagedStringC2EPKcs
08002870 g     F .boot_text	0000001c debug_println
200047bc g     O .boot_buf	00000442 hf2_buffer
080005c4  w    F .boot_text	00000002 otg_fs_isr
08000918 g     F .boot_text	00000074 test_codal
08009c2c g     F .text	00000004 _ZN5codal3_cm3Pin14getAnalogValueEv
08008f80 g     F .text	0000002c pinmap_peripheral
080005c4  w    F .boot_text	00000002 spi1_isr
0800926a g     F .text	0000000a _ZN5codal6Serial8unlockRxEv
080008dc g     F .boot_text	00000014 target_wait_us
080026fc g     F .boot_text	00000048 logger_add_output
080076ec g     F .text	0000003c _Z18device_create_heapmm
08001750 g     F .boot_text	00000004 usbd_register_sof_callback
0800911e g     F .text	000000a0 _Z16device_malloc_injR14HeapDefinition
08003840 g     F .boot_text	00000058 winusb_setup
08000c78 g     F .boot_text	00000014 rcc_set_pll_multiplication_factor
08009cce g     F .text	0000002c _ZN5codal3_cm3Pin7eventOnEi
080025b2 g     F .boot_text	0000001a memcpy
080005c4  w    F .boot_text	00000002 exti2_isr
080005c4  w    F .boot_text	00000002 dma1_channel6_isr
20001000 g     O .data	00000004 app_data_test
080005c6 g     F .boot_text	00000002 null_handler
20000008 g     O .boot_data	00000004 rcc_ahb_frequency
08008250 g     F .text	000000a8 _ZN5codal13STM32BluePillC2Ev
0800a006 g     F .text	00000054 _ZN5codal3_cm16_codal_setup_pinEPNS0_3PinEmPK6PinMap
08009bc8 g     F .text	00000018 _ZN5codal22MemberFunctionCallback4fireENS_5EventE
08002c08 g     F .boot_text	00000020 poll_restart_callback
080009da g     F .boot_text	00000008 tcb_configure_args
20002184 g     O .bss	00000004 app_bss_test
080041cc g     F .boot_text	00000080 hf2_setup
080005c4  w    F .boot_text	00000002 can_rx1_isr
0800a814 g       .fini_array	00000000 __fini_array_end
080005c4  w    F .boot_text	00000002 dma1_channel5_isr
080004d0 g     F .boot_text	000000e0 baseloader_fetch
0800a05a g     F .text	0000002a _ZN5codal3_cm3SPI13startTransferEPKhmPhmPFvPvES5_
0800170a g     F .boot_text	00000008 usart_recv
08007d54 g     F .text	0000002c _ZN5codal3_cm3PinC1EhmmtNS_13PinCapabilityE
08009b88 g     F .text	00000008 _ZN5codal10RefCounted7destroyEv
08007728  w    F .text	00000054 malloc
080005c4  w    F .boot_text	00000002 dma2_channel5_isr
080091e6 g     F .text	00000018 _ZN5codal8ListenerD1Ev
08004638 g     O .boot_text	00000034 st_usbfs_v1_usb_driver
080044b8 g     F .boot_text	0000000a bootloader_set_restart_callback
08000f80 g     F .boot_text	00000034 rtc_clear_flag
08000b14 g     F .boot_text	00000020 desig_get_unique_id
08009550 g     F .text	0000006a _ZN5codal5Timer8setEventEmttb
08007340 g     F .text	00000068 _Z14__create_fibermmmi
08006fe4 g     F .text	00000010 codal_dmesg_flush
080009a4 g     F .boot_text	0000000c target_set_bootloader_callback
080005c4  w    F .boot_text	00000002 usart1_isr
08007a8c  w    F .text	0000008c _ZN5codal10EventModel6listenINS_10MessageBusEEEittPT_MS3_FvNS_5EventEEt
00000844 g       *ABS*	00000000 _bootbuf_size
080073b8 g     F .text	00000044 _ZN5codal4idleEv
20000160 g     O .boot_bss	00000004 .hidden __dso_handle
08008fd4 g     F .text	00000028 pinmap_cnf
080009d6 g     F .boot_text	00000004 tcb_get_sp
08001f56 g     F .boot_text	00000028 usbd_register_set_config_callback
08009d02  w    F .text	00000004 _ZN5codal3_cm6Serial11setBaudrateEm
08001254 g     F .boot_text	00000160 st_usbfs_ep_setup
08007ccc g     F .text	00000008 _ZN5codal3_cm3Pin17getAnalogPeriodUsEv
08009fc8 g     F .text	00000004 _ZN5codal3_cm3I2C4readEtPhib
08009534 g     F .text	0000000e _ZN5codal5Timer7getTimeEv
080090ea g     F .text	00000010 _ZN5codal13release_fiberEPv
0800777c g     F .text	00000044 device_free
08009c0e  w    F .text	00000006 _ZN5codal3Pin8drainPinEv
080005c4  w    F .boot_text	00000002 usage_fault_handler
080005c4  w    F .boot_text	00000002 tim8_trg_com_isr
08007f28 g     F .text	00000034 _ZN5codal3_cm5TimerC1Ev
080005c4  w    F .boot_text	00000002 can2_rx0_isr
080028f0 g     F .boot_text	00000070 debug_printhex
08000ca0 g     F .boot_text	00000014 rcc_set_pllxtpre
0800a0e0 g     F .text	00000006 _ZN5codal3I2C4readENS_15AcknowledgeTypeE
08002380 g     F .boot_text	00000044 os_task_highest_prio_ready_task
080005c4  w    F .boot_text	00000002 tim1_brk_isr
080080f0 g     F .text	000000e0 start_background_tasks
080079c4 g     F .text	00000088 _ZN5codal10MessageBus7processERNS_5EventEb
08009fb0 g     F .text	00000002 _ZN13UARTInterfaceC2Ejj
08006d18  w    F .text	00000018 _ZN5codal14CodalComponentD1Ev
080028be g     F .boot_text	0000000a debug_flush
080036ac g     F .boot_text	0000004c webusb_setup
2000204c g     O .bss	00000001 serialPort
0800a0c8 g     F .text	00000006 _ZN5codal3I2C12setFrequencyEm
080075b4 g     F .text	00000038 _ZN5codal11fiber_sleepEm
080098b4 g     F .text	00000018 _ZN5codal10MessageBus4sendENS_5EventE
08000e68 g     F .boot_text	00000024 rtc_exit_config_mode
08000c64 g     F .boot_text	00000014 rcc_set_sysclk_source
0800a6ec g     O .text	0000002c _ZTVN5codal3_cm3I2CE
080005c4  w    F .boot_text	00000002 can2_rx1_isr
08002bc4 g     F .boot_text	00000008 _ZdlPv
08000fe4 g     F .boot_text	00000010 pwr_disable_backup_domain_write_protect
08007ea8 g     F .text	00000014 _ZN5codal3_cm14alarm_callbackEv
08000000 g       .boot_text	00000000 _boot_text
080005c4  w    F .boot_text	00000002 tim1_cc_isr
08009a72 g     F .text	00000024 _ZN5codal13ManagedStringC1Ei
08007894 g     F .text	00000024 _ZN5codal27system_timer_event_every_usEmtt
08009d0a  w    F .text	00000004 _ZN5codal3_cm6Serial4putcEc
08007cd4 g     F .text	00000018 _ZN5codal3_cm3Pin15getAnalogPeriodEv
08004350 g     F .boot_text	0000009c flash_flush
08001712 g     F .boot_text	0000001c rcc_periph_clock_enable
08001774 g     F .boot_text	00000030 _usbd_reset
08002cf4 g     F .boot_text	00000034 bootloader_poll
0800a1da g     F .text	0000001c _ZN5codal3I2C5writeEth
08003320 g     F .boot_text	00000048 dump_buffer
08007ebc g     F .text	00000024 _ZN5codal3_cm5Timer9triggerInEm
080005c4  w    F .boot_text	00000002 sdio_isr
08000d8c g     F .boot_text	00000014 rcc_set_ppre1
08002ba4 g     F .boot_text	0000000c platform_alarm_count
08001a3c g     F .boot_text	00000056 _usbd_control_in
0800424c g     F .boot_text	00000034 backup_write
080005c4  w    F .boot_text	00000002 eth_isr
0800a0da g     F .text	00000006 _ZN5codal3I2C5writeEh
2000000c g     O .boot_data	00000004 rcc_apb1_frequency
08004280 g     F .boot_text	00000018 backup_read
20002210 g     O .bss	00000001 _ZN5codal14CodalComponent13configurationE
08002ec0 g     F .boot_text	000000b8 boot_target_get_startup_mode
08000da0 g     F .boot_text	00000014 rcc_set_hpre
080005c4  w    F .boot_text	00000002 dma1_channel4_isr
080005c4  w    F .boot_text	00000002 tim8_brk_isr
0800787c g     F .text	00000018 _ZN5codal25system_timer_current_timeEv
08009d0e  w    F .text	00000006 _ZN5codal3_cm6Serial4getcEv
080005c4  w    F .boot_text	00000002 dma2_channel4_5_isr
080023c4 g     F .boot_text	0000001c os_task_clear_wait_queue
08009260 g     F .text	0000000a _ZN5codal6Serial6lockRxEv
080099fc g     F .text	00000022 _ZN5codal14EventQueueItemC1ENS_5EventE
08003078 g     F .boot_text	00000020 boot_target_manifest_bootloader
20002144 g     O .bss	00000004 _ZN5codal12currentFiberE
08009692 g     F .text	00000002 _ZN5codal5TimerD2Ev
08000998 g     F .boot_text	0000000c target_set_alarm_callback
080044d6 g     F .boot_text	0000000a boot_target_get_serial_number
20002170 g     O .bss	00000004 _ZN5codal10EventModel15defaultEventBusE
080073a8 g     F .text	00000010 _ZN5codal24scheduler_runqueue_emptyEv
08006e88 g     F .text	00000068 _Z18component_callbackN5codal5EventE
08003224 g     F .boot_text	00000038 get_usb_status
20002218 g       .bss	00000000 _ebss
080099c2 g     F .text	0000001e _ZN5codal5EventC1EttNS_15EventLaunchModeE
080021e8 g     F .boot_text	00000030 os_init
08001760 g     F .boot_text	00000014 usbd_ep_setup
08006c9c  w    F .text	00000008 _ZN5codal14CodalComponent4initEv
08000ae6 g       .boot_text	00000000 restore_register_context
08001938 g     F .boot_text	00000030 usbd_register_control_callback
080095ca g     F .text	00000024 _ZN5codal5Timer4syncEm
20000000 g     O .boot_data	00000004 hal_data_test
080005c4  w    F .boot_text	00000002 pvd_isr
080017b0 g     F .boot_text	0000000c usbd_ep_read_packet
08008ffc g     F .text	0000000c _ZN5codal3I2CC2ERNS_3PinES2_
08007a5c  w    F .text	00000030 _ZN5codal22MemberFunctionCallbackC1INS_10MessageBusEEEPT_MS3_FvNS_5EventEE
080099e0 g     F .text	0000001c _ZN5codal5EventC1EttmNS_15EventLaunchModeE
0800297c g     F .boot_text	0000004c platform_setup
08007e0c  w    F .text	0000001c _ZN5codal3_cm6SerialD0Ev
08007a5c  w    F .text	00000030 _ZN5codal22MemberFunctionCallbackC2INS_10MessageBusEEEPT_MS3_FvNS_5EventEE
080078d4  w    F .text	00000008 _ZN5codal10EventModel6removeEPNS_8ListenerE
080021bc g     F .boot_text	0000000c os_event_init
080082f8 g     F .text	00000b58 _ZN5codal15STM32BluePillIOC2Ev
0800908a g     F .text	0000001e _ZN5codal12create_fiberEPFvvES1_
08009a96 g     F .text	00000030 _ZN5codal13ManagedStringC1EPKcs
2000051c g     O .boot_bss	00000004 usbd_dev
08009b00 g     F .text	0000001c _ZN5codal13ManagedString6charAtEs
080009b4 g     F .boot_text	00000004 target_disable_irq
080029fc g     F .boot_text	00000014 led_on
080090dc g     F .text	0000000e _ZN5codal16launch_new_fiberEPFvvES1_
00001000 g       *ABS*	00000000 _bootram_size
08000168 g     F .boot_text	00000368 baseloader_start
08002218 g     F .boot_text	0000000c os_running
2000083a g     O .boot_bss	00000001 last_running_task
08007b8c g     F .text	00000050 _ZN5codal10MessageBusD2Ev
080005c6  w    F .boot_text	00000002 sv_call_handler
20001008 g     O .bss	00001044 bluepill
080005c4  w    F .boot_text	00000002 rcc_isr
080095ba g     F .text	00000010 _ZN5codal5Timer12eventEveryUsEmtt
20002174 g     O .bss	00000004 _ZN5codal13ManagedString11EmptyStringE
08000000 g     O .boot_text	00000150 vector_table
08000b34 g     F .boot_text	00000050 desig_get_unique_id_as_string
08000ab6 g       .boot_text	00000000 save_register_context
0800329c g     F .boot_text	00000060 aggregate_register_callback
0800a28c g     O .text	00000038 _ZTVN5codal6SerialE
08006c00 g     F .text	00000088 application_start
080005c4  w    F .boot_text	00000002 flash_isr
0800a814 g       *ABS*	00000000 _data_loadaddr
080072b0 g     F .text	00000090 _ZN5codal19fiber_wake_on_eventEtt
20005000 g       .boot_buf	00000000 end
080005c4  w    F .boot_text	00000002 uart4_isr
08009fa6 g     F .text	00000002 _ZN5codal13STM32BluePill16periodicCallbackEv
08000f00 g     F .boot_text	00000040 rtc_interrupt_enable
080081d0 g     F .text	00000080 _ZN5codal13STM32BluePill4initEv
08007cec g     F .text	00000068 _ZN5codal3_cm3Pin15setDigitalValueEi
080005f8  w    F .boot_text	0000002c rtc_alarm_isr
080005c4  w    F .boot_text	00000002 exti15_10_isr
080050b0 g     O .boot_init_array	00000004 __boot_init_array_end
0800717c g     F .text	00000018 _ZN5codal23fiber_scheduler_runningEv
080095ee g     F .text	000000a4 _ZN5codal5Timer7triggerEv
08009c14 g     F .text	00000004 _ZN5codal3_cm3Pin15getDigitalValueEv
08000c8c g     F .boot_text	00000014 rcc_set_pll_source
080009ce g     F .boot_text	00000004 tcb_get_stack_base
08009dcc g     F .text	000001cc _ZN5codal3_cm6Serial9readUntilENS_13ManagedStringENS_10SerialModeE
080099ae g     F .text	00000014 _ZN5codal5EventC2Ev
08009fa8 g     F .text	00000008 _ZN5codal13STM32BluePill12idleCallbackEv
08003998 g     F .boot_text	00000068 cdcadm_transmit
0800225c g     F .boot_text	00000074 os_msgQ_tick
080009b8 g     F .boot_text	0000000a tcb_allocate
0800a2c4 g     O .text	00000018 _ZTVN5codal5TimerE
08009522 g     F .text	00000012 _ZN5codal5Timer17releaseTimerEventEPNS_10TimerEventE
0800a760 g     O .text	0000001c _ZTVN5codal3_cm3SPIE
0800a65c g     O .text	00000048 PinMap_SPI_NSS
080005c4  w    F .boot_text	00000002 hard_fault_handler
0800a0e6 g     F .text	0000005e _ZN5codal3I2C5writeEtPhib
080005c4  w    F .boot_text	00000002 exti1_isr
08009c66 g     F .text	00000006 _ZN5codal3_cm3Pin7setPullENS_8PullModeE
08007f5c g     F .text	00000060 _ZN5codal3_cm5Timer4initEv
080023e0 g     F .boot_text	000000ac os_task_tick
080032fc g     F .boot_text	00000024 usb_set_serial_number
080005c4  w    F .boot_text	00000002 i2c1_ev_isr
080075ec g     F .text	00000070 _ZN5codal13release_fiberEv
0800172e g     F .boot_text	00000022 rcc_periph_reset_pulse
08009a5a g     F .text	00000018 _ZN5codal13ManagedStringC2EPNS_10StringDataE
0800a6a4 g     O .text	00000048 PinMap_SPI_SCK
08001434 g     F .boot_text	00000090 st_usbfs_ep_write_packet
08002004 g     F .boot_text	0000006c st_usbfs_endpoints_reset
080005c4  w    F .boot_text	00000002 dma2_channel1_isr
080096a4  w    F .text	00000036 _ZN5codal22MemberFunctionCallback10methodCallINS_10MessageBusEEEvPvPmNS_5EventE
080078cc  w    F .text	00000008 _ZN5codal10EventModel3addEPNS_8ListenerE
08007728 g     F .text	00000054 device_malloc
080026f0 g     F .boot_text	0000000c enable_log
080005c6  w    F .boot_text	00000002 pend_sv_handler
08002bb0 g     F .boot_text	0000000c __cxa_pure_virtual
08007030 g     F .text	000000c0 _ZN5codal15scheduler_eventENS_5EventE
08000fb4 g     F .boot_text	00000030 rtc_check_flag
08009d9c g     F .text	00000028 _ZN5codal3_cm6Serial7eventOnENS_13ManagedStringENS_10SerialModeE
0800a5cc g     O .text	00000048 PinMap_SPI_MISO
080005c4  w    F .boot_text	00000002 spi2_isr
08007ca4 g     F .text	00000020 _ZN5codal3_cm3Pin14setAnalogValueEi
08000840 g     F .boot_text	00000030 target_init
20000898 g       .boot_bss	00000000 boot_end
08007194 g     F .text	0000011c _ZN5codal14scheduler_initERNS_10EventModelE
08009542 g     F .text	0000000e _ZN5codal5Timer9getTimeUsEv
08002524 g     F .boot_text	00000038 os_task_run
08000d64 g     F .boot_text	00000014 rcc_set_adcpre
08009fc4 g     F .text	00000004 _ZN5codal3_cm3I2C5writeEtPhib
080017c8 g     F .boot_text	0000000c usbd_ep_stall_get
08009b52 g     F .text	00000036 _ZN5codal10RefCounted4decrEv
080005c4  w    F .boot_text	00000002 tim8_up_isr
080025f2 g     F .boot_text	00000040 strncpy
080022d0 g     F .boot_text	0000000c os_sem_init
08007a4c g     F .text	00000010 _ZN5codal19allocateNotifyEventEv
0800990a  w    F .text	0000003e _ZN5codal8ListenerC2INS_10MessageBusEEEttPT_MS3_FvNS_5EventEEt
08006e10  w    F .text	00000054 _ZN5codal13STM32BluePillD0Ev
08009948  w    F .text	00000044 _ZN5codal10EventModel6ignoreINS_10MessageBusEEEittPT_MS3_FvNS_5EventEE
08009056 g     F .text	00000034 _ZN5codal13dequeue_fiberEPNS_5FiberE
080005c4  w    F .boot_text	00000002 dma2_channel2_isr
08001074 g     F .boot_text	00000014 flash_set_ws
080050b0 g     O .boot_fini_array	00000004 __boot_fini_array_end
08009a1e g     F .text	0000000e _ZN5codal13ManagedStringD2Ev
08000cc4 g     F .boot_text	000000a0 rcc_set_rtc_clock_source
080011f4 g     F .boot_text	00000060 st_usbfs_set_ep_rx_bufsize
08007e28 g     F .text	00000050 _ZN5codal3_cm6SerialC2ERNS0_3PinES3_hh
08003368 g     F .boot_text	000001a4 dump_usb_request
0800a23c  w    O .text	0000001c _ZTVN5codal14CodalComponentE
080050b0 g       .boot_init_array	00000000 _boot_etext
08002592 g     F .boot_text	00000020 memcmp
080092c4 g     F .text	00000028 _ZN5codal6Serial12circularCopyEPhhS1_tt
08001968 g     F .boot_text	0000004a _usbd_control_setup
08009c58 g     F .text	0000000e _ZN5codal3_cm3Pin8isAnalogEv
08000d78 g     F .boot_text	00000014 rcc_set_ppre2
080005c6  w    F .boot_text	00000002 debug_monitor_handler
080005c4  w    F .boot_text	00000002 exti3_isr
080005c4  w    F .boot_text	00000002 adc3_isr
08006d30  w    F .text	00000020 _ZN5codal14CodalComponentD0Ev
08000a72 g       .boot_text	00000000 save_context
080005c4  w    F .boot_text	00000002 tim3_isr
08000624  w    F .boot_text	0000005c usart2_isr
080011d4 g     F .boot_text	00000010 scb_reset_system
080008f0 g     F .boot_text	00000020 target_panic
080094fe g     F .text	00000024 _ZN5codal5Timer13getTimerEventEv
080028c8 g     F .boot_text	00000018 debug_print
080005c4  w    F .boot_text	00000002 usb_lp_can_rx0_isr
08006c00 g       .text	00000000 _text
080009f0 g       .boot_text	00000000 swap_context
20004c00 g     O .boot_buf	00000400 flashBuf
080021c8 g     F .boot_text	00000010 os_signal_event
0800a814 g       .fini_array	00000000 __fini_array_start
080005c4  w    F .boot_text	00000002 i2c2_er_isr
08002584 g     F .boot_text	00000002 os_cbkSleep
080013b4 g     F .boot_text	00000080 st_usbfs_ep_nak_set
08009ad6 g     F .text	0000000c _ZN5codal13ManagedStringC1Ev
080025cc g     F .boot_text	00000016 memset
2000216c g     O .bss	00000004 _ZN5codal12system_timerE
08006c88 g     F .text	00000014 main
080090a8 g     F .text	00000020 _ZN5codal12create_fiberEPFvPvES0_S2_
08001088 g     F .boot_text	00000058 usbd_init
20002050 g     O .bss	000000f0 _ZN5codal14CodalComponent10componentsE
08008ffc g     F .text	0000000c _ZN5codal3I2CC1ERNS_3PinES2_
080005c4  w    F .boot_text	00000002 i2c2_ev_isr
080021d8 g     F .boot_text	00000010 os_event_set_signaling_tid
08006d50 g     F .text	00000074 _Z10Blink_mainRN5codal13STM32BluePillE
080005c4  w    F .boot_text	00000002 uart5_isr
20002164 g     O .bss	00000008 heap
08002b70 g     F .boot_text	00000034 platform_set_alarm
2000083c g     O .boot_bss	0000005b hf2_buffer_mini
08009fee g     F .text	00000018 _ZN5codal3_cm3SPI7setModeEii
080005c6  w    F .boot_text	00000002 sys_tick_handler
0800a2dc  w    O .text	00000014 _ZTVN5codal10EventModelE
0800255c g     F .boot_text	00000028 os_on_assert
08007b8c g     F .text	00000050 _ZN5codal10MessageBusD1Ev
0800a814 g       .init_array	00000000 __init_array_end
080005c4  w    F .boot_text	00000002 fsmc_isr
080005c4  w    F .boot_text	00000002 dma1_channel1_isr
080005c4  w    F .boot_text	00000002 exti4_isr
08007f28 g     F .text	00000034 _ZN5codal3_cm5TimerC2Ev
0800a338 g     O .text	00000054 _ZTVN5codal3_cm3PinE
20000004 g     O .boot_data	00000004 codal_heap_start
08009fdc g     F .text	0000000e _ZN5codal3_cm3SPI5writeEi
08007df8  w    F .text	00000014 _ZN5codal3_cm6SerialD2Ev
08007848 g     F .text	00000034 _ZN5codal5TimerC2Ev
080090c8 g     F .text	00000014 _ZN5codal20fiber_wait_for_eventEtt
08000870 g     F .boot_text	00000010 target_wait_for_event
080091be g     F .text	00000028 _ZN5codal8ListenerC2EttPFvNS_5EventEEt
0800431c g     F .boot_text	00000034 usb21_setup
080077c0 g     F .text	00000060 _ZN5codal6SerialC2ERNS_3PinES2_hht
08000b84 g     F .boot_text	00000070 rcc_wait_for_osc_ready
08002794 g     F .boot_text	00000020 debug_force_flush
08009c92 g     F .text	00000018 _ZN5codal3_cm3Pin17setAnalogPeriodUsEi
080027b4 g     F .boot_text	00000088 _Z11debug_printj
08009fc0 g     F .text	00000004 _ZN5codal3_cm3I2C12setFrequencyEm
08007b18 g     F .text	00000074 _ZN5codal10MessageBusC1Ev
08009770 g     F .text	00000076 _ZN5codal10MessageBus6removeEPNS_8ListenerE
08001050 g     F .boot_text	00000018 exti_enable_request
08001004 g     F .boot_text	0000004c exti_set_trigger
080005c4  w    F .boot_text	00000002 mem_manage_handler
08008094 g     F .text	0000005c restart_callback
08009c30 g     F .text	0000000e _ZN5codal3_cm3Pin7isInputEv
08009c4c g     F .text	0000000c _ZN5codal3_cm3Pin9isDigitalEv
20000010 g     O .boot_data	00000004 rcc_apb2_frequency
080099ae g     F .text	00000014 _ZN5codal5EventC1Ev
08000e8c g     F .boot_text	00000020 rtc_set_alarm_time
08001754 g     F .boot_text	0000000c usbd_poll
0800a0d4 g     F .text	00000006 _ZN5codal3I2C4stopEv
080009e2 g     F .boot_text	00000002 _fini
08009a2c g     F .text	0000002e _ZN5codal13ManagedString10initStringEPKci
08000880 g     F .boot_text	0000005c target_wait
080005c4  w    F .boot_text	00000002 can2_tx_isr
08008e6c g     F .text	0000001c _ZN5codal3_cm3I2CC1ERNS_3PinES3_
0800765c g     F .text	00000090 _ZN5codal6invokeEPFvPvES0_
080005c4  w    F .boot_text	00000002 exti9_5_isr
08002a10 g     F .boot_text	00000014 led_off
08009c02  w    F .text	00000006 _ZN5codal3Pin15setServoPulseUsEm
080005c4  w    F .boot_text	00000002 dma2_channel3_isr
08009b2a g     F .text	00000028 _ZN5codal10RefCounted4incrEv
08000cb4 g     F .boot_text	00000010 rcc_enable_rtc_clock
080096da g     F .text	00000096 _Z14async_callbackPv
0800112c g     F .boot_text	00000034 _usbd_standard_request_interface
08001160 g     F .boot_text	00000044 _usbd_standard_request_endpoint
0800900a  w    F .text	00000002 _ZN5codal14CodalComponent12idleCallbackEv
0800248c g     F .boot_text	00000098 os_task_signal_event
0800a800 g       .preinit_array	00000000 __preinit_array_end
08001fec g     F .boot_text	00000018 nvic_enable_irq
08002a24 g     F .boot_text	00000014 led_wait
080009e8 g     F .boot_text	00000008 target_enable_debug
080082f8 g     F .text	00000b58 _ZN5codal15STM32BluePillIOC1Ev
080005c4  w    F .boot_text	00000002 dma1_channel7_isr
08003004 g     F .boot_text	00000034 boot_target_usb_init
08002b3c g     F .boot_text	00000034 platform_start_timer
080091be g     F .text	00000028 _ZN5codal8ListenerC1EttPFvNS_5EventEEt
08003a4c g     F .boot_text	0000002c cdc_setup
080005c4  w    F .boot_text	00000002 tim1_up_isr
20001000 g       .data	00000000 _data
08000eac g     F .boot_text	00000020 rtc_set_prescale_val
080005b0 g     F .boot_text	00000014 base_flash_program_array
08007ee0 g     F .text	00000048 _ZN5codal3_cm5Timer11syncRequestEv
08009c18 g     F .text	00000014 _ZN5codal3_cm3Pin15getDigitalValueENS_8PullModeE
20002178 g     O .bss	00000004 _ZN5codal3_cm5Timer8instanceE
08008e6c g     F .text	0000001c _ZN5codal3_cm3I2CC2ERNS_3PinES3_
08000db4 g     F .boot_text	00000090 rcc_clock_setup_in_hse_8mhz_out_72mhz
08009c88 g     F .text	00000006 _ZN5codal3_cm3Pin10disconnectEv
08009b90 g     F .text	00000006 _ZN5codal10RefCounted4initEv
08007e78 g     F .text	00000030 _ZN5codal3_cm13tick_callbackEv
08009ac6 g     F .text	00000010 _ZN5codal13ManagedStringC2ERKS0_
08009ad6 g     F .text	0000000c _ZN5codal13ManagedStringC2Ev
08009be0 g     F .text	00000022 _ZN5codal22MemberFunctionCallbackeqERKS0_
08000ecc g     F .boot_text	00000014 rtc_get_counter_val
08009c08  w    F .text	00000006 _ZN5codal3Pin17setAnalogPeriodUsEm
08009caa g     F .text	00000010 _ZN5codal3_cm3Pin15setAnalogPeriodEi
080005c4  w    F .boot_text	00000002 can2_sce_isr
08000ff4 g     F .boot_text	00000010 pwr_enable_backup_domain_write_protect
080005c4  w    F .boot_text	00000002 tim4_isr
0800a7d4 g     O .text	0000002c _ZTVN5codal3I2CE
080097e6 g     F .text	00000024 _ZN5codal10MessageBus12dequeueEventEv
08002070 g     F .boot_text	00000108 st_usbfs_ep_stall_set
0800980a g     F .text	0000004c _ZN5codal10MessageBus21deleteMarkedListenersEv
0800315c g     F .boot_text	000000ac usb_setup
20000898 g       .boot_bss	00000000 _boot_ebss
08007d54 g     F .text	0000002c _ZN5codal3_cm3PinC2EhmmtNS_13PinCapabilityE
20001008 g       .data	00000000 _edata
080090fa g     F .text	00000018 _ZN5codal22launch_new_fiber_paramEPFvPvES2_S0_
080078dc g     F .text	000000e8 _ZN5codal10MessageBus3addEPNS_8ListenerE
0800a38c g     O .text	00000038 _ZTVN5codal3_cm6SerialE
080005c4  w    F .boot_text	00000002 dma1_channel2_isr
08009ac6 g     F .text	00000010 _ZN5codal13ManagedStringC1ERKS0_
080005c4  w    F .boot_text	00000002 i2c1_er_isr
080099e0 g     F .text	0000001c _ZN5codal5EventC2EttmNS_15EventLaunchModeE
080010e0 g     F .boot_text	0000004c _usbd_standard_request_device
080070f0 g     F .text	00000058 _Z15getFiberContextv
080009b0 g     F .boot_text	00000004 target_enable_irq
080094ea g     F .text	0000000a _ZN5codal5Timer17disableInterruptsEv
080005c4  w    F .boot_text	00000002 can_sce_isr
08009fea g     F .text	00000004 _ZN5codal3_cm3SPI8transferEPKhmPhm
080005c6  w    F .boot_text	00000002 nmi_handler
0800990a  w    F .text	0000003e _ZN5codal8ListenerC1INS_10MessageBusEEEttPT_MS3_FvNS_5EventEEt
08000f40 g     F .boot_text	00000040 rtc_interrupt_disable
080050b0 g     O .boot_preinit_array	00000004 __boot_preinit_array_end
08002744 g     F .boot_text	00000050 _Z20debug_flush_internalb
08002bbc g     F .boot_text	00000008 _Znwj
20000738 g     O .boot_bss	00000008 st_usbfs_force_nak
0800a2f0 g     O .text	0000003c _ZTVN5codal10MessageBusE
20000000 g       .boot_data	00000000 _boot_data
08009112 g     F .text	0000000c _ZN5codal9idle_taskEv
080099a6 g     F .text	00000008 _ZThn8_N5codal10MessageBusD0Ev
080005c4  w    F .boot_text	00000002 tim8_cc_isr
08008e88 g     F .text	0000005c _ZN5codal3_cm3SPI4initEv
08008250 g     F .text	000000a8 _ZN5codal13STM32BluePillC1Ev
08000bf4 g     F .boot_text	00000070 rcc_osc_on
200047bc g       .boot_buf	00000000 _boot_stack
08009694 g     F .text	00000010 _ZN5codal10MessageBus9elementAtEi
08001598 g     F .boot_text	000000fc st_usbfs_poll
0800998c g     F .text	00000008 _ZThn8_N5codal10MessageBusD1Ev
08004bbc g     O .boot_text	00000018 webusb_platform_capability_descriptor
080073fc g     F .text	000001b8 _ZN5codal8scheduleEv
080050b0 g     O .boot_init_array	00000004 __boot_init_array_start
08009d64 g     F .text	00000028 _ZN5codal3_cm6Serial12circularCopyEPhhS2_tt
08007d80 g     F .text	00000078 _ZN5codal3_cm3Pin13setServoValueEiii
08002f98 g     F .boot_text	0000006c boot_target_gpio_setup
20000734 g     O .boot_bss	00000004 hal_bss_test
080005c4  w    F .boot_text	00000002 tamper_isr
0800a800 g       .init_array	00000000 __init_array_start
08001704 g     F .boot_text	00000006 gpio_clear
0800325c g     F .boot_text	00000040 aggregate_register_config_callback
08006ef0 g     F .text	000000cc _ZN5codal14CodalComponent12addComponentEv
080005c4  w    F .boot_text	00000002 eth_wkup_isr
080029c8 g     F .boot_text	00000014 enable_debug
08001fb0 g     F .boot_text	00000018 st_usbfs_copy_to_pm
080098cc g     F .text	0000003e _ZN5codal10MessageBus4idleENS_5EventE
080099c2 g     F .text	0000001e _ZN5codal5EventC2EttNS_15EventLaunchModeE
080078b8  w    F .text	00000014 _ZN5codal10EventModel4sendENS_5EventE
0800230c g     F .boot_text	00000074 os_task_init
08009a5a g     F .text	00000018 _ZN5codal13ManagedStringC1EPNS_10StringDataE
08009856 g     F .text	0000005e _ZN5codal10MessageBus10queueEventERNS_5EventE
08001fc8 g     F .boot_text	00000024 st_usbfs_copy_from_pm
08002f78 g     F .boot_text	00000020 boot_target_set_led
080025e2 g     F .boot_text	00000010 strlen
08002960 g     F .boot_text	0000001c debug_printhex_unsigned
080009c2 g     F .boot_text	00000004 tcb_configure_lr
2000012c g       .boot_data	00000000 _boot_edata
20005000 g       .boot_buf	00000000 _stack
08009d14 g     F .text	0000000a _ZN5codal3_cm6Serial6lockRxEv
08007bf8 g     F .text	0000000c _ZN5codal13ManagedString9initEmptyEv
20005000 g       .boot_buf	00000000 _eboot_buf
08007bdc g     F .text	0000001c _ZN5codal5Event4fireEv
08001700 g     F .boot_text	00000004 gpio_set
08009c6c g     F .text	0000001c _ZN5codal3_cm3Pin5setupEhh
080091fe g     F .text	00000062 _ZN5codal8Listener5queueENS_5EventE
080005c4  w    F .boot_text	00000002 bus_fault_handler
080005c4  w    F .boot_text	00000002 wwdg_isr
080005c4  w    F .boot_text	00000002 dma1_channel3_isr
080094f4 g     F .text	0000000a _ZN5codal5Timer16enableInterruptsEv
08007c3c g     F .text	00000068 _ZN5codal4itoaEiPc
08000ee0 g     F .boot_text	00000020 rtc_set_counter_val
20000740 g     O .boot_bss	000000f8 st_usbfs_dev
08009692 g     F .text	00000002 _ZN5codal5TimerD1Ev
08009d28 g     F .text	0000003c _ZN5codal3_cm6Serial12initialiseRxEv
08009a72 g     F .text	00000024 _ZN5codal13ManagedStringC2Ei
08002224 g     F .boot_text	00000038 os_msgQ_init
0800a800 g       .preinit_array	00000000 __preinit_array_start
080014c4 g     F .boot_text	000000d4 st_usbfs_ep_read_packet
080005c4  w    F .boot_text	00000002 spi3_isr
08008ee4 g     F .text	0000009c _ZN5codal3_cm3SPIC1ERNS0_3PinES3_S3_S3_
080009e4 g     F .boot_text	00000004 __aeabi_atexit
080028e0 g     F .boot_text	00000008 debug_print_int
08005058 g     O .boot_text	00000055 infoUf2File
08000150 g     O .boot_text	00000018 base_vector_table
08002bcc g     F .boot_text	00000008 millis
08007e28 g     F .text	00000050 _ZN5codal3_cm6SerialC1ERNS0_3PinES3_hh
08007cc4 g     F .text	00000008 _ZN5codal3_cm3Pin9isTouchedEv
0800098c g     F .boot_text	0000000c target_set_tick_callback
08003208 g     F .boot_text	0000001c set_usb_busy
080005c4  w    F .boot_text	00000002 tim2_isr
080028e8 g     F .boot_text	00000008 debug_print_unsigned
08004ca0 g     O .boot_text	0000001c microsoft_platform_capability_descriptor
0800777c  w    F .text	00000044 free
08000e44 g     F .boot_text	00000024 rtc_enter_config_mode
080005c4  w    F .boot_text	00000002 exti0_isr
080011e4 g     F .boot_text	00000010 st_usbfs_set_address
0800a0ce g     F .text	00000006 _ZN5codal3I2C5startEv
080092ec g     F .text	0000002a _ZN5codal6Serial7eventOnENS_13ManagedStringENS_10SerialModeE



Disassembly of section .boot_text:

08000000 <vector_table>:
 8000000:	00 50 00 20 d1 06 00 08 c7 05 00 08 c5 05 00 08     .P. ............
 8000010:	c5 05 00 08 c5 05 00 08 c5 05 00 08 00 00 00 00     ................
	...
 800002c:	c7 05 00 08 c7 05 00 08 00 00 00 00 c7 05 00 08     ................
 800003c:	c7 05 00 08 c5 05 00 08 c5 05 00 08 c5 05 00 08     ................
 800004c:	c9 05 00 08 c5 05 00 08 c5 05 00 08 c5 05 00 08     ................
 800005c:	c5 05 00 08 c5 05 00 08 c5 05 00 08 c5 05 00 08     ................
 800006c:	c5 05 00 08 c5 05 00 08 c5 05 00 08 c5 05 00 08     ................
 800007c:	c5 05 00 08 c5 05 00 08 c5 05 00 08 c5 05 00 08     ................
 800008c:	c5 05 00 08 c5 05 00 08 c5 05 00 08 c5 05 00 08     ................
 800009c:	c5 05 00 08 c5 05 00 08 c5 05 00 08 c5 05 00 08     ................
 80000ac:	c5 05 00 08 c5 05 00 08 c5 05 00 08 c5 05 00 08     ................
 80000bc:	c5 05 00 08 c5 05 00 08 c5 05 00 08 c5 05 00 08     ................
 80000cc:	c5 05 00 08 c5 05 00 08 c5 05 00 08 25 06 00 08     ............%...
 80000dc:	c5 05 00 08 c5 05 00 08 f9 05 00 08 c5 05 00 08     ................
 80000ec:	c5 05 00 08 c5 05 00 08 c5 05 00 08 c5 05 00 08     ................
 80000fc:	c5 05 00 08 c5 05 00 08 c5 05 00 08 c5 05 00 08     ................
 800010c:	c5 05 00 08 c5 05 00 08 c5 05 00 08 c5 05 00 08     ................
 800011c:	c5 05 00 08 c5 05 00 08 c5 05 00 08 c5 05 00 08     ................
 800012c:	c5 05 00 08 c5 05 00 08 c5 05 00 08 c5 05 00 08     ................
 800013c:	c5 05 00 08 c5 05 00 08 c5 05 00 08 c5 05 00 08     ................
 800014c:	c5 05 00 08                                         ....

08000150 <base_vector_table>:
 8000150:	69 19 05 22 01 00 01 00 69 01 00 08 c4 05 00 08     i.."....i.......
 8000160:	01 6c 00 08 22 05 69 19                             .l..".i.

08000168 <baseloader_start>:
	static uint16_t *src;
	static size_t half_word_count;
	static int bytes_flashed;
	static bool verified, should_disable_interrupts;

	dest = (uint16_t *) dest0;
 8000168:	4b88      	ldr	r3, [pc, #544]	; (800038c <baseloader_start+0x224>)
 800016a:	6018      	str	r0, [r3, #0]
	src =  (uint16_t *) src0;
 800016c:	4b88      	ldr	r3, [pc, #544]	; (8000390 <baseloader_start+0x228>)
 800016e:	6019      	str	r1, [r3, #0]
	half_word_count = byte_count / 2;
 8000170:	0852      	lsrs	r2, r2, #1
 8000172:	4b88      	ldr	r3, [pc, #544]	; (8000394 <baseloader_start+0x22c>)
 8000174:	601a      	str	r2, [r3, #0]
	bytes_flashed = 0;
 8000176:	2300      	movs	r3, #0
 8000178:	4a87      	ldr	r2, [pc, #540]	; (8000398 <baseloader_start+0x230>)
 800017a:	6013      	str	r3, [r2, #0]
	should_disable_interrupts = false;
 800017c:	4a87      	ldr	r2, [pc, #540]	; (800039c <baseloader_start+0x234>)
 800017e:	7013      	strb	r3, [r2, #0]

    static uint16_t *erase_start, *erase_end, *flash_end;
    verified = true; erase_start = NULL; erase_end = NULL;
 8000180:	4a87      	ldr	r2, [pc, #540]	; (80003a0 <baseloader_start+0x238>)
 8000182:	2101      	movs	r1, #1
 8000184:	7011      	strb	r1, [r2, #0]
 8000186:	4a87      	ldr	r2, [pc, #540]	; (80003a4 <baseloader_start+0x23c>)
 8000188:	6013      	str	r3, [r2, #0]
 800018a:	4a87      	ldr	r2, [pc, #540]	; (80003a8 <baseloader_start+0x240>)
 800018c:	6013      	str	r3, [r2, #0]
    flash_end = base_get_flash_end();  //  Remember the bounds of erased data in the current page
 800018e:	4b87      	ldr	r3, [pc, #540]	; (80003ac <baseloader_start+0x244>)
 8000190:	4a87      	ldr	r2, [pc, #540]	; (80003b0 <baseloader_start+0x248>)
 8000192:	601a      	str	r2, [r3, #0]

	//  Disable interrupts when overwriting the vector table.
	if ((uint32_t) dest == FLASH_BASE) { should_disable_interrupts = true; }
 8000194:	f1b0 6f00 	cmp.w	r0, #134217728	; 0x8000000
 8000198:	d00f      	beq.n	80001ba <baseloader_start+0x52>
	if (should_disable_interrupts) { disable_interrupts(); } // Only for baseloader.
 800019a:	4b80      	ldr	r3, [pc, #512]	; (800039c <baseloader_start+0x234>)
 800019c:	781b      	ldrb	r3, [r3, #0]
 800019e:	b12b      	cbz	r3, 80001ac <baseloader_start+0x44>
 80001a0:	b672      	cpsid	i
 80001a2:	2300      	movs	r3, #0
 80001a4:	4a83      	ldr	r2, [pc, #524]	; (80003b4 <baseloader_start+0x24c>)
 80001a6:	6013      	str	r3, [r2, #0]
 80001a8:	4a83      	ldr	r2, [pc, #524]	; (80003b8 <baseloader_start+0x250>)
 80001aa:	6013      	str	r3, [r2, #0]

	base_flash_unlock();  //  TODO: Check MakeCode flashing.
 80001ac:	4b83      	ldr	r3, [pc, #524]	; (80003bc <baseloader_start+0x254>)
 80001ae:	4a84      	ldr	r2, [pc, #528]	; (80003c0 <baseloader_start+0x258>)
 80001b0:	601a      	str	r2, [r3, #0]
 80001b2:	f102 3288 	add.w	r2, r2, #2290649224	; 0x88888888
 80001b6:	601a      	str	r2, [r3, #0]
    while (half_word_count > 0) {
 80001b8:	e131      	b.n	800041e <baseloader_start+0x2b6>
	if ((uint32_t) dest == FLASH_BASE) { should_disable_interrupts = true; }
 80001ba:	4b78      	ldr	r3, [pc, #480]	; (800039c <baseloader_start+0x234>)
 80001bc:	7019      	strb	r1, [r3, #0]
 80001be:	e7ec      	b.n	800019a <baseloader_start+0x32>
        /* Avoid writing past the end of flash */
        if (dest >= flash_end) {  //  debug_println("dest >= flash_end"); debug_flush();
            verified = false;
 80001c0:	4b77      	ldr	r3, [pc, #476]	; (80003a0 <baseloader_start+0x238>)
 80001c2:	2200      	movs	r2, #0
 80001c4:	701a      	strb	r2, [r3, #0]
        dest++;
        src++;
        half_word_count--;
		bytes_flashed += 2;
    }
	base_flash_lock();  //  TODO: Check MakeCode flashing.
 80001c6:	4a7f      	ldr	r2, [pc, #508]	; (80003c4 <baseloader_start+0x25c>)
 80001c8:	6813      	ldr	r3, [r2, #0]
 80001ca:	f043 0380 	orr.w	r3, r3, #128	; 0x80
 80001ce:	6013      	str	r3, [r2, #0]

	//  Vector table may have been overwritten. Restart to use the new vector table.
	//  TODO: Erase the second vector table.
    //  TODO: if (should_disable_interrupts) { scb_reset_system(); }
	
	return verified ? bytes_flashed : -1;
 80001d0:	4b73      	ldr	r3, [pc, #460]	; (80003a0 <baseloader_start+0x238>)
 80001d2:	781b      	ldrb	r3, [r3, #0]
 80001d4:	2b00      	cmp	r3, #0
 80001d6:	f000 815f 	beq.w	8000498 <baseloader_start+0x330>
 80001da:	4b6f      	ldr	r3, [pc, #444]	; (8000398 <baseloader_start+0x230>)
 80001dc:	6818      	ldr	r0, [r3, #0]
 80001de:	4770      	bx	lr
            erase_start = base_get_flash_page_address(dest);
 80001e0:	f420 707f 	bic.w	r0, r0, #1020	; 0x3fc
 80001e4:	f020 0003 	bic.w	r0, r0, #3
 80001e8:	4b6e      	ldr	r3, [pc, #440]	; (80003a4 <baseloader_start+0x23c>)
 80001ea:	6018      	str	r0, [r3, #0]
            erase_end = erase_start + (FLASH_PAGE_SIZE)/sizeof(uint16_t);
 80001ec:	f500 6280 	add.w	r2, r0, #1024	; 0x400
 80001f0:	4b6d      	ldr	r3, [pc, #436]	; (80003a8 <baseloader_start+0x240>)
 80001f2:	601a      	str	r2, [r3, #0]
            base_flash_erase_page((uint32_t)erase_start);
 80001f4:	4b74      	ldr	r3, [pc, #464]	; (80003c8 <baseloader_start+0x260>)
 80001f6:	6819      	ldr	r1, [r3, #0]
 80001f8:	f001 0235 	and.w	r2, r1, #53	; 0x35
 80001fc:	4b73      	ldr	r3, [pc, #460]	; (80003cc <baseloader_start+0x264>)
 80001fe:	881b      	ldrh	r3, [r3, #0]
 8000200:	b29b      	uxth	r3, r3
 8000202:	f5b3 7f00 	cmp.w	r3, #512	; 0x200
 8000206:	d904      	bls.n	8000212 <baseloader_start+0xaa>
 8000208:	4b71      	ldr	r3, [pc, #452]	; (80003d0 <baseloader_start+0x268>)
 800020a:	681a      	ldr	r2, [r3, #0]
 800020c:	430a      	orrs	r2, r1
 800020e:	f002 0235 	and.w	r2, r2, #53	; 0x35
 8000212:	f012 0f01 	tst.w	r2, #1
 8000216:	d00f      	beq.n	8000238 <baseloader_start+0xd0>
 8000218:	4b6b      	ldr	r3, [pc, #428]	; (80003c8 <baseloader_start+0x260>)
 800021a:	6819      	ldr	r1, [r3, #0]
 800021c:	f001 0235 	and.w	r2, r1, #53	; 0x35
 8000220:	4b6a      	ldr	r3, [pc, #424]	; (80003cc <baseloader_start+0x264>)
 8000222:	881b      	ldrh	r3, [r3, #0]
 8000224:	b29b      	uxth	r3, r3
 8000226:	f5b3 7f00 	cmp.w	r3, #512	; 0x200
 800022a:	d9f2      	bls.n	8000212 <baseloader_start+0xaa>
 800022c:	4b68      	ldr	r3, [pc, #416]	; (80003d0 <baseloader_start+0x268>)
 800022e:	681a      	ldr	r2, [r3, #0]
 8000230:	430a      	orrs	r2, r1
 8000232:	f002 0235 	and.w	r2, r2, #53	; 0x35
 8000236:	e7ec      	b.n	8000212 <baseloader_start+0xaa>
 8000238:	4b64      	ldr	r3, [pc, #400]	; (80003cc <baseloader_start+0x264>)
 800023a:	881b      	ldrh	r3, [r3, #0]
 800023c:	b29b      	uxth	r3, r3
 800023e:	f5b3 7f00 	cmp.w	r3, #512	; 0x200
 8000242:	d910      	bls.n	8000266 <baseloader_start+0xfe>
 8000244:	4b63      	ldr	r3, [pc, #396]	; (80003d4 <baseloader_start+0x26c>)
 8000246:	4298      	cmp	r0, r3
 8000248:	d90d      	bls.n	8000266 <baseloader_start+0xfe>
 800024a:	4b63      	ldr	r3, [pc, #396]	; (80003d8 <baseloader_start+0x270>)
 800024c:	681a      	ldr	r2, [r3, #0]
 800024e:	f042 0202 	orr.w	r2, r2, #2
 8000252:	601a      	str	r2, [r3, #0]
 8000254:	4a53      	ldr	r2, [pc, #332]	; (80003a4 <baseloader_start+0x23c>)
 8000256:	6811      	ldr	r1, [r2, #0]
 8000258:	4a60      	ldr	r2, [pc, #384]	; (80003dc <baseloader_start+0x274>)
 800025a:	6011      	str	r1, [r2, #0]
 800025c:	681a      	ldr	r2, [r3, #0]
 800025e:	f042 0240 	orr.w	r2, r2, #64	; 0x40
 8000262:	601a      	str	r2, [r3, #0]
 8000264:	e00c      	b.n	8000280 <baseloader_start+0x118>
 8000266:	4b57      	ldr	r3, [pc, #348]	; (80003c4 <baseloader_start+0x25c>)
 8000268:	681a      	ldr	r2, [r3, #0]
 800026a:	f042 0202 	orr.w	r2, r2, #2
 800026e:	601a      	str	r2, [r3, #0]
 8000270:	4a4c      	ldr	r2, [pc, #304]	; (80003a4 <baseloader_start+0x23c>)
 8000272:	6811      	ldr	r1, [r2, #0]
 8000274:	4a5a      	ldr	r2, [pc, #360]	; (80003e0 <baseloader_start+0x278>)
 8000276:	6011      	str	r1, [r2, #0]
 8000278:	681a      	ldr	r2, [r3, #0]
 800027a:	f042 0240 	orr.w	r2, r2, #64	; 0x40
 800027e:	601a      	str	r2, [r3, #0]
 8000280:	4b51      	ldr	r3, [pc, #324]	; (80003c8 <baseloader_start+0x260>)
 8000282:	6819      	ldr	r1, [r3, #0]
 8000284:	f001 0235 	and.w	r2, r1, #53	; 0x35
 8000288:	4b50      	ldr	r3, [pc, #320]	; (80003cc <baseloader_start+0x264>)
 800028a:	881b      	ldrh	r3, [r3, #0]
 800028c:	b29b      	uxth	r3, r3
 800028e:	f5b3 7f00 	cmp.w	r3, #512	; 0x200
 8000292:	d904      	bls.n	800029e <baseloader_start+0x136>
 8000294:	4b4e      	ldr	r3, [pc, #312]	; (80003d0 <baseloader_start+0x268>)
 8000296:	681a      	ldr	r2, [r3, #0]
 8000298:	430a      	orrs	r2, r1
 800029a:	f002 0235 	and.w	r2, r2, #53	; 0x35
 800029e:	f012 0f01 	tst.w	r2, #1
 80002a2:	d00f      	beq.n	80002c4 <baseloader_start+0x15c>
 80002a4:	4b48      	ldr	r3, [pc, #288]	; (80003c8 <baseloader_start+0x260>)
 80002a6:	6819      	ldr	r1, [r3, #0]
 80002a8:	f001 0235 	and.w	r2, r1, #53	; 0x35
 80002ac:	4b47      	ldr	r3, [pc, #284]	; (80003cc <baseloader_start+0x264>)
 80002ae:	881b      	ldrh	r3, [r3, #0]
 80002b0:	b29b      	uxth	r3, r3
 80002b2:	f5b3 7f00 	cmp.w	r3, #512	; 0x200
 80002b6:	d9f2      	bls.n	800029e <baseloader_start+0x136>
 80002b8:	4b45      	ldr	r3, [pc, #276]	; (80003d0 <baseloader_start+0x268>)
 80002ba:	681a      	ldr	r2, [r3, #0]
 80002bc:	430a      	orrs	r2, r1
 80002be:	f002 0235 	and.w	r2, r2, #53	; 0x35
 80002c2:	e7ec      	b.n	800029e <baseloader_start+0x136>
 80002c4:	4b41      	ldr	r3, [pc, #260]	; (80003cc <baseloader_start+0x264>)
 80002c6:	881b      	ldrh	r3, [r3, #0]
 80002c8:	b29b      	uxth	r3, r3
 80002ca:	f5b3 7f00 	cmp.w	r3, #512	; 0x200
 80002ce:	d90a      	bls.n	80002e6 <baseloader_start+0x17e>
 80002d0:	4b34      	ldr	r3, [pc, #208]	; (80003a4 <baseloader_start+0x23c>)
 80002d2:	681a      	ldr	r2, [r3, #0]
 80002d4:	4b3f      	ldr	r3, [pc, #252]	; (80003d4 <baseloader_start+0x26c>)
 80002d6:	429a      	cmp	r2, r3
 80002d8:	d905      	bls.n	80002e6 <baseloader_start+0x17e>
 80002da:	4a3f      	ldr	r2, [pc, #252]	; (80003d8 <baseloader_start+0x270>)
 80002dc:	6813      	ldr	r3, [r2, #0]
 80002de:	f023 0302 	bic.w	r3, r3, #2
 80002e2:	6013      	str	r3, [r2, #0]
 80002e4:	e0b1      	b.n	800044a <baseloader_start+0x2e2>
 80002e6:	4a37      	ldr	r2, [pc, #220]	; (80003c4 <baseloader_start+0x25c>)
 80002e8:	6813      	ldr	r3, [r2, #0]
 80002ea:	f023 0302 	bic.w	r3, r3, #2
 80002ee:	6013      	str	r3, [r2, #0]
 80002f0:	e0ab      	b.n	800044a <baseloader_start+0x2e2>
        base_flash_program_half_word((uint32_t)dest, *src);
 80002f2:	4b36      	ldr	r3, [pc, #216]	; (80003cc <baseloader_start+0x264>)
 80002f4:	881b      	ldrh	r3, [r3, #0]
 80002f6:	b29b      	uxth	r3, r3
 80002f8:	f5b3 7f00 	cmp.w	r3, #512	; 0x200
 80002fc:	d90a      	bls.n	8000314 <baseloader_start+0x1ac>
 80002fe:	4b23      	ldr	r3, [pc, #140]	; (800038c <baseloader_start+0x224>)
 8000300:	681a      	ldr	r2, [r3, #0]
 8000302:	4b34      	ldr	r3, [pc, #208]	; (80003d4 <baseloader_start+0x26c>)
 8000304:	429a      	cmp	r2, r3
 8000306:	d905      	bls.n	8000314 <baseloader_start+0x1ac>
 8000308:	4a33      	ldr	r2, [pc, #204]	; (80003d8 <baseloader_start+0x270>)
 800030a:	6813      	ldr	r3, [r2, #0]
 800030c:	f043 0301 	orr.w	r3, r3, #1
 8000310:	6013      	str	r3, [r2, #0]
 8000312:	e004      	b.n	800031e <baseloader_start+0x1b6>
 8000314:	4a2b      	ldr	r2, [pc, #172]	; (80003c4 <baseloader_start+0x25c>)
 8000316:	6813      	ldr	r3, [r2, #0]
 8000318:	f043 0301 	orr.w	r3, r3, #1
 800031c:	6013      	str	r3, [r2, #0]
 800031e:	4b1b      	ldr	r3, [pc, #108]	; (800038c <baseloader_start+0x224>)
 8000320:	6818      	ldr	r0, [r3, #0]
 8000322:	4b1b      	ldr	r3, [pc, #108]	; (8000390 <baseloader_start+0x228>)
 8000324:	681b      	ldr	r3, [r3, #0]
 8000326:	881b      	ldrh	r3, [r3, #0]
 8000328:	8003      	strh	r3, [r0, #0]
 800032a:	4b27      	ldr	r3, [pc, #156]	; (80003c8 <baseloader_start+0x260>)
 800032c:	6819      	ldr	r1, [r3, #0]
 800032e:	f001 0235 	and.w	r2, r1, #53	; 0x35
 8000332:	4b26      	ldr	r3, [pc, #152]	; (80003cc <baseloader_start+0x264>)
 8000334:	881b      	ldrh	r3, [r3, #0]
 8000336:	b29b      	uxth	r3, r3
 8000338:	f5b3 7f00 	cmp.w	r3, #512	; 0x200
 800033c:	d904      	bls.n	8000348 <baseloader_start+0x1e0>
 800033e:	4b24      	ldr	r3, [pc, #144]	; (80003d0 <baseloader_start+0x268>)
 8000340:	681a      	ldr	r2, [r3, #0]
 8000342:	430a      	orrs	r2, r1
 8000344:	f002 0235 	and.w	r2, r2, #53	; 0x35
 8000348:	f012 0f01 	tst.w	r2, #1
 800034c:	d00f      	beq.n	800036e <baseloader_start+0x206>
 800034e:	4b1e      	ldr	r3, [pc, #120]	; (80003c8 <baseloader_start+0x260>)
 8000350:	6819      	ldr	r1, [r3, #0]
 8000352:	f001 0235 	and.w	r2, r1, #53	; 0x35
 8000356:	4b1d      	ldr	r3, [pc, #116]	; (80003cc <baseloader_start+0x264>)
 8000358:	881b      	ldrh	r3, [r3, #0]
 800035a:	b29b      	uxth	r3, r3
 800035c:	f5b3 7f00 	cmp.w	r3, #512	; 0x200
 8000360:	d9f2      	bls.n	8000348 <baseloader_start+0x1e0>
 8000362:	4b1b      	ldr	r3, [pc, #108]	; (80003d0 <baseloader_start+0x268>)
 8000364:	681a      	ldr	r2, [r3, #0]
 8000366:	430a      	orrs	r2, r1
 8000368:	f002 0235 	and.w	r2, r2, #53	; 0x35
 800036c:	e7ec      	b.n	8000348 <baseloader_start+0x1e0>
 800036e:	4b17      	ldr	r3, [pc, #92]	; (80003cc <baseloader_start+0x264>)
 8000370:	881b      	ldrh	r3, [r3, #0]
 8000372:	b29b      	uxth	r3, r3
 8000374:	f5b3 7f00 	cmp.w	r3, #512	; 0x200
 8000378:	d934      	bls.n	80003e4 <baseloader_start+0x27c>
 800037a:	4b16      	ldr	r3, [pc, #88]	; (80003d4 <baseloader_start+0x26c>)
 800037c:	4298      	cmp	r0, r3
 800037e:	d931      	bls.n	80003e4 <baseloader_start+0x27c>
 8000380:	4a15      	ldr	r2, [pc, #84]	; (80003d8 <baseloader_start+0x270>)
 8000382:	6813      	ldr	r3, [r2, #0]
 8000384:	f023 0301 	bic.w	r3, r3, #1
 8000388:	6013      	str	r3, [r2, #0]
 800038a:	e030      	b.n	80003ee <baseloader_start+0x286>
 800038c:	20000130 	.word	0x20000130
 8000390:	20000144 	.word	0x20000144
 8000394:	20000140 	.word	0x20000140
 8000398:	2000012c 	.word	0x2000012c
 800039c:	20000148 	.word	0x20000148
 80003a0:	20000149 	.word	0x20000149
 80003a4:	20000138 	.word	0x20000138
 80003a8:	20000134 	.word	0x20000134
 80003ac:	2000013c 	.word	0x2000013c
 80003b0:	08010000 	.word	0x08010000
 80003b4:	e000e010 	.word	0xe000e010
 80003b8:	40021008 	.word	0x40021008
 80003bc:	40022004 	.word	0x40022004
 80003c0:	45670123 	.word	0x45670123
 80003c4:	40022010 	.word	0x40022010
 80003c8:	4002200c 	.word	0x4002200c
 80003cc:	1ffff7e0 	.word	0x1ffff7e0
 80003d0:	4002204c 	.word	0x4002204c
 80003d4:	0807ffff 	.word	0x0807ffff
 80003d8:	40022050 	.word	0x40022050
 80003dc:	40022054 	.word	0x40022054
 80003e0:	40022014 	.word	0x40022014
 80003e4:	4a2e      	ldr	r2, [pc, #184]	; (80004a0 <baseloader_start+0x338>)
 80003e6:	6813      	ldr	r3, [r2, #0]
 80003e8:	f023 0301 	bic.w	r3, r3, #1
 80003ec:	6013      	str	r3, [r2, #0]
        erase_start = dest + 1;
 80003ee:	4b2d      	ldr	r3, [pc, #180]	; (80004a4 <baseloader_start+0x33c>)
 80003f0:	681b      	ldr	r3, [r3, #0]
 80003f2:	1c9a      	adds	r2, r3, #2
 80003f4:	492c      	ldr	r1, [pc, #176]	; (80004a8 <baseloader_start+0x340>)
 80003f6:	600a      	str	r2, [r1, #0]
        if (*dest != *src) {  //  debug_println("*dest != *src"); debug_flush();
 80003f8:	8818      	ldrh	r0, [r3, #0]
 80003fa:	4b2c      	ldr	r3, [pc, #176]	; (80004ac <baseloader_start+0x344>)
 80003fc:	681b      	ldr	r3, [r3, #0]
 80003fe:	8819      	ldrh	r1, [r3, #0]
 8000400:	4288      	cmp	r0, r1
 8000402:	d145      	bne.n	8000490 <baseloader_start+0x328>
        dest++;
 8000404:	4927      	ldr	r1, [pc, #156]	; (80004a4 <baseloader_start+0x33c>)
 8000406:	600a      	str	r2, [r1, #0]
        src++;
 8000408:	3302      	adds	r3, #2
 800040a:	4a28      	ldr	r2, [pc, #160]	; (80004ac <baseloader_start+0x344>)
 800040c:	6013      	str	r3, [r2, #0]
        half_word_count--;
 800040e:	4a28      	ldr	r2, [pc, #160]	; (80004b0 <baseloader_start+0x348>)
 8000410:	6813      	ldr	r3, [r2, #0]
 8000412:	3b01      	subs	r3, #1
 8000414:	6013      	str	r3, [r2, #0]
		bytes_flashed += 2;
 8000416:	4a27      	ldr	r2, [pc, #156]	; (80004b4 <baseloader_start+0x34c>)
 8000418:	6813      	ldr	r3, [r2, #0]
 800041a:	3302      	adds	r3, #2
 800041c:	6013      	str	r3, [r2, #0]
    while (half_word_count > 0) {
 800041e:	4b24      	ldr	r3, [pc, #144]	; (80004b0 <baseloader_start+0x348>)
 8000420:	681b      	ldr	r3, [r3, #0]
 8000422:	2b00      	cmp	r3, #0
 8000424:	f43f aecf 	beq.w	80001c6 <baseloader_start+0x5e>
        if (dest >= flash_end) {  //  debug_println("dest >= flash_end"); debug_flush();
 8000428:	4b1e      	ldr	r3, [pc, #120]	; (80004a4 <baseloader_start+0x33c>)
 800042a:	6818      	ldr	r0, [r3, #0]
 800042c:	4a22      	ldr	r2, [pc, #136]	; (80004b8 <baseloader_start+0x350>)
 800042e:	6812      	ldr	r2, [r2, #0]
 8000430:	4290      	cmp	r0, r2
 8000432:	f4bf aec5 	bcs.w	80001c0 <baseloader_start+0x58>
        if (dest >= erase_end || dest < erase_start) {
 8000436:	4a21      	ldr	r2, [pc, #132]	; (80004bc <baseloader_start+0x354>)
 8000438:	6812      	ldr	r2, [r2, #0]
 800043a:	4290      	cmp	r0, r2
 800043c:	f4bf aed0 	bcs.w	80001e0 <baseloader_start+0x78>
 8000440:	4a19      	ldr	r2, [pc, #100]	; (80004a8 <baseloader_start+0x340>)
 8000442:	6812      	ldr	r2, [r2, #0]
 8000444:	4290      	cmp	r0, r2
 8000446:	f4ff aecb 	bcc.w	80001e0 <baseloader_start+0x78>
        base_flash_program_half_word((uint32_t)dest, *src);
 800044a:	4b1d      	ldr	r3, [pc, #116]	; (80004c0 <baseloader_start+0x358>)
 800044c:	6819      	ldr	r1, [r3, #0]
 800044e:	f001 0235 	and.w	r2, r1, #53	; 0x35
 8000452:	4b1c      	ldr	r3, [pc, #112]	; (80004c4 <baseloader_start+0x35c>)
 8000454:	881b      	ldrh	r3, [r3, #0]
 8000456:	b29b      	uxth	r3, r3
 8000458:	f5b3 7f00 	cmp.w	r3, #512	; 0x200
 800045c:	d904      	bls.n	8000468 <baseloader_start+0x300>
 800045e:	4b1a      	ldr	r3, [pc, #104]	; (80004c8 <baseloader_start+0x360>)
 8000460:	681a      	ldr	r2, [r3, #0]
 8000462:	430a      	orrs	r2, r1
 8000464:	f002 0235 	and.w	r2, r2, #53	; 0x35
 8000468:	f012 0f01 	tst.w	r2, #1
 800046c:	f43f af41 	beq.w	80002f2 <baseloader_start+0x18a>
 8000470:	4b13      	ldr	r3, [pc, #76]	; (80004c0 <baseloader_start+0x358>)
 8000472:	6819      	ldr	r1, [r3, #0]
 8000474:	f001 0235 	and.w	r2, r1, #53	; 0x35
 8000478:	4b12      	ldr	r3, [pc, #72]	; (80004c4 <baseloader_start+0x35c>)
 800047a:	881b      	ldrh	r3, [r3, #0]
 800047c:	b29b      	uxth	r3, r3
 800047e:	f5b3 7f00 	cmp.w	r3, #512	; 0x200
 8000482:	d9f1      	bls.n	8000468 <baseloader_start+0x300>
 8000484:	4b10      	ldr	r3, [pc, #64]	; (80004c8 <baseloader_start+0x360>)
 8000486:	681a      	ldr	r2, [r3, #0]
 8000488:	430a      	orrs	r2, r1
 800048a:	f002 0235 	and.w	r2, r2, #53	; 0x35
 800048e:	e7eb      	b.n	8000468 <baseloader_start+0x300>
            verified = false;
 8000490:	4b0e      	ldr	r3, [pc, #56]	; (80004cc <baseloader_start+0x364>)
 8000492:	2200      	movs	r2, #0
 8000494:	701a      	strb	r2, [r3, #0]
            break;
 8000496:	e696      	b.n	80001c6 <baseloader_start+0x5e>
	return verified ? bytes_flashed : -1;
 8000498:	f04f 30ff 	mov.w	r0, #4294967295	; 0xffffffff
}
 800049c:	4770      	bx	lr
 800049e:	bf00      	nop
 80004a0:	40022010 	.word	0x40022010
 80004a4:	20000130 	.word	0x20000130
 80004a8:	20000138 	.word	0x20000138
 80004ac:	20000144 	.word	0x20000144
 80004b0:	20000140 	.word	0x20000140
 80004b4:	2000012c 	.word	0x2000012c
 80004b8:	2000013c 	.word	0x2000013c
 80004bc:	20000134 	.word	0x20000134
 80004c0:	4002200c 	.word	0x4002200c
 80004c4:	1ffff7e0 	.word	0x1ffff7e0
 80004c8:	4002204c 	.word	0x4002204c
 80004cc:	20000149 	.word	0x20000149

080004d0 <baseloader_fetch>:

int baseloader_fetch(baseloader_func *baseloader_addr, uint32_t **dest, const uint32_t **src, size_t *byte_count) {
	//  Return the address of the baseloader function, located in the Second Base Vector Table.
	//  Also return the parameters to be passed to the baseloader function: dest, src, byte_count.
	if (!baseloader_addr || !dest || !src || !byte_count) { return -1; }
 80004d0:	2800      	cmp	r0, #0
 80004d2:	d047      	beq.n	8000564 <baseloader_fetch+0x94>
int baseloader_fetch(baseloader_func *baseloader_addr, uint32_t **dest, const uint32_t **src, size_t *byte_count) {
 80004d4:	b5f0      	push	{r4, r5, r6, r7, lr}
 80004d6:	4607      	mov	r7, r0
	if (!baseloader_addr || !dest || !src || !byte_count) { return -1; }
 80004d8:	2900      	cmp	r1, #0
 80004da:	d046      	beq.n	800056a <baseloader_fetch+0x9a>
 80004dc:	2a00      	cmp	r2, #0
 80004de:	d047      	beq.n	8000570 <baseloader_fetch+0xa0>
 80004e0:	2b00      	cmp	r3, #0
 80004e2:	d048      	beq.n	8000576 <baseloader_fetch+0xa6>
	//  Search for the First and Second Base Vector Tables and find the bootloader range.
	//  First Base Vector Table is in the start of the application ROM.
	if (!IS_VALID_BASE_VECTOR_TABLE(application_start)) { return -2; }  //  Quit if First Base Vector Table is not found.
 80004e4:	482d      	ldr	r0, [pc, #180]	; (800059c <baseloader_fetch+0xcc>)
 80004e6:	f420 7c7f 	bic.w	ip, r0, #1020	; 0x3fc
 80004ea:	f02c 0c03 	bic.w	ip, ip, #3
 80004ee:	4c2c      	ldr	r4, [pc, #176]	; (80005a0 <baseloader_fetch+0xd0>)
 80004f0:	f3c4 0409 	ubfx	r4, r4, #0, #10
 80004f4:	ea4c 0504 	orr.w	r5, ip, r4
 80004f8:	f8d5 e000 	ldr.w	lr, [r5]
 80004fc:	4e29      	ldr	r6, [pc, #164]	; (80005a4 <baseloader_fetch+0xd4>)
 80004fe:	45b6      	cmp	lr, r6
 8000500:	d13c      	bne.n	800057c <baseloader_fetch+0xac>
 8000502:	f8d5 e014 	ldr.w	lr, [r5, #20]
 8000506:	4e28      	ldr	r6, [pc, #160]	; (80005a8 <baseloader_fetch+0xd8>)
 8000508:	45b6      	cmp	lr, r6
 800050a:	d13a      	bne.n	8000582 <baseloader_fetch+0xb2>
	base_vector_table_t *begin_base_vector = BASE_VECTOR_TABLE(application_start);

	//  Get size of new bootloader from the First Base Vector Table (same as the Application ROM start address).
	uint32_t bootloader_size = (uint32_t) (begin_base_vector->application) - FLASH_BASE;
 800050c:	692e      	ldr	r6, [r5, #16]
 800050e:	f106 4678 	add.w	r6, r6, #4160749568	; 0xf8000000
	if ((uint32_t) application_start + bootloader_size + FLASH_PAGE_SIZE 
 8000512:	f500 6580 	add.w	r5, r0, #1024	; 0x400
 8000516:	4435      	add	r5, r6
 8000518:	f8df e090 	ldr.w	lr, [pc, #144]	; 80005ac <baseloader_fetch+0xdc>
 800051c:	4575      	cmp	r5, lr
 800051e:	d833      	bhi.n	8000588 <baseloader_fetch+0xb8>
		>= FLASH_BASE + FLASH_SIZE_OVERRIDE) { return -3; }  //  Quit if bootloader size is too big.

	//  Second Base Vector Table is at start of application ROM + bootloader size.  Round up to the next flash page.
	uint32_t flash_page_addr = FLASH_CEIL_ADDRESS((uint32_t) application_start + bootloader_size);
 8000520:	4430      	add	r0, r6
 8000522:	f420 757f 	bic.w	r5, r0, #1020	; 0x3fc
 8000526:	f025 0503 	bic.w	r5, r5, #3
 800052a:	42a8      	cmp	r0, r5
 800052c:	d901      	bls.n	8000532 <baseloader_fetch+0x62>
 800052e:	f505 6580 	add.w	r5, r5, #1024	; 0x400
	if (!IS_VALID_BASE_VECTOR_TABLE(flash_page_addr)) { return -4; }  //  Quit if Second Base Vector Table is not found.
 8000532:	ea44 0005 	orr.w	r0, r4, r5
 8000536:	f8d0 e000 	ldr.w	lr, [r0]
 800053a:	4c1a      	ldr	r4, [pc, #104]	; (80005a4 <baseloader_fetch+0xd4>)
 800053c:	45a6      	cmp	lr, r4
 800053e:	d126      	bne.n	800058e <baseloader_fetch+0xbe>
 8000540:	f8d0 e014 	ldr.w	lr, [r0, #20]
 8000544:	4c18      	ldr	r4, [pc, #96]	; (80005a8 <baseloader_fetch+0xd8>)
 8000546:	45a6      	cmp	lr, r4
 8000548:	d124      	bne.n	8000594 <baseloader_fetch+0xc4>
	base_vector_table_t *end_base_vector = BASE_VECTOR_TABLE(flash_page_addr);

	//  Jump to the baseloader in the Second Base Vector Table.
	*baseloader_addr = (baseloader_func) ((uint32_t) (end_base_vector->baseloader) - FLASH_BASE + flash_page_addr);
 800054a:	6880      	ldr	r0, [r0, #8]
 800054c:	4405      	add	r5, r0
 800054e:	f105 4578 	add.w	r5, r5, #4160749568	; 0xf8000000
 8000552:	603d      	str	r5, [r7, #0]
	*dest = (uint32_t *) FLASH_BASE;  		 //  Overwrite the old bootloader...
 8000554:	f04f 6000 	mov.w	r0, #134217728	; 0x8000000
 8000558:	6008      	str	r0, [r1, #0]
	*src  = (uint32_t *) FLASH_ADDRESS(application_start);  //  By the new bootloader from the Application space.
 800055a:	f8c2 c000 	str.w	ip, [r2]
	*byte_count = bootloader_size;			 //  For this number of bytes.
 800055e:	601e      	str	r6, [r3, #0]
	return 0;
 8000560:	2000      	movs	r0, #0
}
 8000562:	bdf0      	pop	{r4, r5, r6, r7, pc}
	if (!baseloader_addr || !dest || !src || !byte_count) { return -1; }
 8000564:	f04f 30ff 	mov.w	r0, #4294967295	; 0xffffffff
}
 8000568:	4770      	bx	lr
	if (!baseloader_addr || !dest || !src || !byte_count) { return -1; }
 800056a:	f04f 30ff 	mov.w	r0, #4294967295	; 0xffffffff
 800056e:	e7f8      	b.n	8000562 <baseloader_fetch+0x92>
 8000570:	f04f 30ff 	mov.w	r0, #4294967295	; 0xffffffff
 8000574:	e7f5      	b.n	8000562 <baseloader_fetch+0x92>
 8000576:	f04f 30ff 	mov.w	r0, #4294967295	; 0xffffffff
 800057a:	e7f2      	b.n	8000562 <baseloader_fetch+0x92>
	if (!IS_VALID_BASE_VECTOR_TABLE(application_start)) { return -2; }  //  Quit if First Base Vector Table is not found.
 800057c:	f06f 0001 	mvn.w	r0, #1
 8000580:	e7ef      	b.n	8000562 <baseloader_fetch+0x92>
 8000582:	f06f 0001 	mvn.w	r0, #1
 8000586:	e7ec      	b.n	8000562 <baseloader_fetch+0x92>
		>= FLASH_BASE + FLASH_SIZE_OVERRIDE) { return -3; }  //  Quit if bootloader size is too big.
 8000588:	f06f 0002 	mvn.w	r0, #2
 800058c:	e7e9      	b.n	8000562 <baseloader_fetch+0x92>
	if (!IS_VALID_BASE_VECTOR_TABLE(flash_page_addr)) { return -4; }  //  Quit if Second Base Vector Table is not found.
 800058e:	f06f 0003 	mvn.w	r0, #3
 8000592:	e7e6      	b.n	8000562 <baseloader_fetch+0x92>
 8000594:	f06f 0003 	mvn.w	r0, #3
 8000598:	e7e3      	b.n	8000562 <baseloader_fetch+0x92>
 800059a:	bf00      	nop
 800059c:	08006c01 	.word	0x08006c01
 80005a0:	08000150 	.word	0x08000150
 80005a4:	22051969 	.word	0x22051969
 80005a8:	19690522 	.word	0x19690522
 80005ac:	0800ffff 	.word	0x0800ffff

080005b0 <base_flash_program_array>:

int base_flash_program_array(uint16_t *dest0, const uint16_t *src0, size_t half_word_count0) {
 80005b0:	b508      	push	{r3, lr}
	//  Return the number of half-words flashed.
	//  TODO: Validate dest, src, half_word_count before flashing.
	int bytes_flashed = baseloader_start((uint32_t *) dest0, (const uint32_t *) src0, half_word_count0 * 2);
 80005b2:	0052      	lsls	r2, r2, #1
 80005b4:	f7ff fdd8 	bl	8000168 <baseloader_start>
	return (bytes_flashed > 0) ? bytes_flashed / 2 : bytes_flashed;
 80005b8:	2800      	cmp	r0, #0
 80005ba:	dd02      	ble.n	80005c2 <base_flash_program_array+0x12>
 80005bc:	eb00 70d0 	add.w	r0, r0, r0, lsr #31
 80005c0:	1040      	asrs	r0, r0, #1
}
 80005c2:	bd08      	pop	{r3, pc}

080005c4 <blocking_handler>:
	}

}

void blocking_handler(void)
{
 80005c4:	e7fe      	b.n	80005c4 <blocking_handler>

080005c6 <null_handler>:
}

void null_handler(void)
{
	/* Do nothing. */
}
 80005c6:	4770      	bx	lr

080005c8 <rtc_isr>:
volatile uint32_t platform_get_alarm(void) {
	//  Get alarm time.
	return rtc_get_alarm_val();
}

void rtc_isr(void) {
 80005c8:	b508      	push	{r3, lr}
	//  Interrupt Service Routine for RTC Tick, Alarm, Overflow.  Don't call any I/O functions here.
	if (rtc_check_flag(RTC_SEC)) {
 80005ca:	2000      	movs	r0, #0
 80005cc:	f000 fcf2 	bl	8000fb4 <rtc_check_flag>
 80005d0:	b900      	cbnz	r0, 80005d4 <rtc_isr+0xc>
		//  Call the alarm function.
		if (alarmFunc != NULL) { alarmFunc(); }
		return;
	}
#endif  //  NOTUSED
}
 80005d2:	bd08      	pop	{r3, pc}
		rtc_clear_flag(RTC_SEC);
 80005d4:	2000      	movs	r0, #0
 80005d6:	f000 fcd3 	bl	8000f80 <rtc_clear_flag>
		tickCount++;
 80005da:	4a05      	ldr	r2, [pc, #20]	; (80005f0 <rtc_isr+0x28>)
 80005dc:	6813      	ldr	r3, [r2, #0]
 80005de:	3301      	adds	r3, #1
 80005e0:	6013      	str	r3, [r2, #0]
		if (tickFunc != NULL) { tickFunc(); }
 80005e2:	4b04      	ldr	r3, [pc, #16]	; (80005f4 <rtc_isr+0x2c>)
 80005e4:	681b      	ldr	r3, [r3, #0]
 80005e6:	2b00      	cmp	r3, #0
 80005e8:	d0f3      	beq.n	80005d2 <rtc_isr+0xa>
 80005ea:	4798      	blx	r3
 80005ec:	e7f1      	b.n	80005d2 <rtc_isr+0xa>
 80005ee:	bf00      	nop
 80005f0:	20000450 	.word	0x20000450
 80005f4:	20000448 	.word	0x20000448

080005f8 <rtc_alarm_isr>:

void rtc_alarm_isr(void) {
 80005f8:	b508      	push	{r3, lr}
	//  Interrupt Service Routine for RTC Alarm Wakeup.  Don't call any I/O functions here.
	//  The RTC alarm appears as EXTI 17 which must be reset independently of the RTC alarm flag.
	exti_reset_request(EXTI17);
 80005fa:	f44f 3000 	mov.w	r0, #131072	; 0x20000
 80005fe:	f000 fd33 	bl	8001068 <exti_reset_request>
	rtc_clear_flag(RTC_ALR);
 8000602:	2001      	movs	r0, #1
 8000604:	f000 fcbc 	bl	8000f80 <rtc_clear_flag>
	alarmCount++;
 8000608:	4a04      	ldr	r2, [pc, #16]	; (800061c <rtc_alarm_isr+0x24>)
 800060a:	6813      	ldr	r3, [r2, #0]
 800060c:	3301      	adds	r3, #1
 800060e:	6013      	str	r3, [r2, #0]
	//  Call the alarm function.
	if (alarmFunc != NULL) { alarmFunc(); }
 8000610:	4b03      	ldr	r3, [pc, #12]	; (8000620 <rtc_alarm_isr+0x28>)
 8000612:	681b      	ldr	r3, [r3, #0]
 8000614:	b103      	cbz	r3, 8000618 <rtc_alarm_isr+0x20>
 8000616:	4798      	blx	r3
}
 8000618:	bd08      	pop	{r3, pc}
 800061a:	bf00      	nop
 800061c:	20000444 	.word	0x20000444
 8000620:	2000044c 	.word	0x2000044c

08000624 <usart2_isr>:
	usart_set_stopbits(USART2, USART_STOPBITS_1);
	usart_set_flow_control(USART2, USART_FLOWCONTROL_NONE);
	usart_set_mode(USART2, USART_MODE_TX_RX);
}

void usart2_isr(void) {
 8000624:	b508      	push	{r3, lr}
    //  Interrupt service routine for USART2. We enqueue each byte received.
	//  Check if we were called because of received data (RXNE). */
	if (((USART_CR1(USART2) & USART_CR1_RXNEIE) != 0) &&
 8000626:	4b12      	ldr	r3, [pc, #72]	; (8000670 <usart2_isr+0x4c>)
 8000628:	681b      	ldr	r3, [r3, #0]
 800062a:	f013 0f20 	tst.w	r3, #32
 800062e:	d004      	beq.n	800063a <usart2_isr+0x16>
	    ((USART_SR(USART2) & USART_SR_RXNE) != 0)) {
 8000630:	4b10      	ldr	r3, [pc, #64]	; (8000674 <usart2_isr+0x50>)
 8000632:	681b      	ldr	r3, [r3, #0]
	if (((USART_CR1(USART2) & USART_CR1_RXNEIE) != 0) &&
 8000634:	f013 0f20 	tst.w	r3, #32
 8000638:	d100      	bne.n	800063c <usart2_isr+0x18>
		//  Read the next received byte and add to response queue.
		uint8_t ch = usart_recv(USART2);
        responseQueue.push(ch);
	}
}
 800063a:	bd08      	pop	{r3, pc}
		uint8_t ch = usart_recv(USART2);
 800063c:	480d      	ldr	r0, [pc, #52]	; (8000674 <usart2_isr+0x50>)
 800063e:	f001 f864 	bl	800170a <usart_recv>
 8000642:	b2c0      	uxtb	r0, r0
      {
	memory_order __b = __m & __memory_order_mask;
	__glibcxx_assert(__b != memory_order_release);
	__glibcxx_assert(__b != memory_order_acq_rel);

	return __atomic_load_n(&_M_i, __m);
 8000644:	4b0c      	ldr	r3, [pc, #48]	; (8000678 <usart2_isr+0x54>)
 8000646:	681a      	ldr	r2, [r3, #0]
        write_index_(0), read_index_(0)
    {}

    static size_t next_index(size_t arg, size_t max_size)
    {
        size_t ret = arg + 1;
 8000648:	1c53      	adds	r3, r2, #1
        while (BOOST_UNLIKELY(ret >= max_size))
 800064a:	2b25      	cmp	r3, #37	; 0x25
 800064c:	d80e      	bhi.n	800066c <usart2_isr+0x48>
 800064e:	490a      	ldr	r1, [pc, #40]	; (8000678 <usart2_isr+0x54>)
 8000650:	6c09      	ldr	r1, [r1, #64]	; 0x40
 8000652:	f3bf 8f5b 	dmb	ish
    bool push(T const & t, T * buffer, size_t max_size)
    {
        const size_t write_index = write_index_.load(memory_order_relaxed);  // only written from push thread
        const size_t next = next_index(write_index, max_size);

        if (next == read_index_.load(memory_order_acquire))
 8000656:	428b      	cmp	r3, r1
 8000658:	d0ef      	beq.n	800063a <usart2_isr+0x16>
            return false; /* ringbuffer is full */

        new (buffer + write_index) T(t); // copy-construct
 800065a:	4908      	ldr	r1, [pc, #32]	; (800067c <usart2_isr+0x58>)
 800065c:	42d1      	cmn	r1, r2
 800065e:	d000      	beq.n	8000662 <usart2_isr+0x3e>
 8000660:	5488      	strb	r0, [r1, r2]
	__atomic_store_n(&_M_i, __i, __m);
 8000662:	f3bf 8f5b 	dmb	ish
 8000666:	4a04      	ldr	r2, [pc, #16]	; (8000678 <usart2_isr+0x54>)
 8000668:	6013      	str	r3, [r2, #0]
}
 800066a:	e7e6      	b.n	800063a <usart2_isr+0x16>
            ret -= max_size;
 800066c:	3b26      	subs	r3, #38	; 0x26
 800066e:	e7ec      	b.n	800064a <usart2_isr+0x26>
 8000670:	4000440c 	.word	0x4000440c
 8000674:	40004400 	.word	0x40004400
 8000678:	20002194 	.word	0x20002194
 800067c:	200021d8 	.word	0x200021d8

08000680 <pre_main>:
extern void application_start(void);

uint32_t hal_bss_test;                   //  Test whether BSS Section is loaded correctly.
uint32_t hal_data_test = 0x87654321;     //  Test whether Data Section is loaded correctly.

static void pre_main() {
 8000680:	b508      	push	{r3, lr}
	//  Init the STM32 platform and start the timer.  Note: Constructors are not called yet.
    //  Note: Must disable debug when testing Deep Sleep.  Else device will not run without ST Link.
    target_enable_debug();       //  Uncomment to allow display of debug messages in development devices. NOTE: This will hang if no Arm Semihosting debugger is attached.
 8000682:	f000 f9b1 	bl	80009e8 <target_enable_debug>
    //  target_disable_debug();  //  Uncomment to disable display of debug messages.  For use in production devices.
    target_init();               //  Init the STM32 platform.
 8000686:	f000 f8db 	bl	8000840 <target_init>

	//  Test whether Bootloader BSS and Data Sections are loaded correctly.
    if (hal_bss_test != 0x0 || hal_data_test != 0x87654321) {
 800068a:	4b0c      	ldr	r3, [pc, #48]	; (80006bc <pre_main+0x3c>)
 800068c:	681b      	ldr	r3, [r3, #0]
 800068e:	b923      	cbnz	r3, 800069a <pre_main+0x1a>
 8000690:	4b0b      	ldr	r3, [pc, #44]	; (80006c0 <pre_main+0x40>)
 8000692:	681a      	ldr	r2, [r3, #0]
 8000694:	4b0b      	ldr	r3, [pc, #44]	; (80006c4 <pre_main+0x44>)
 8000696:	429a      	cmp	r2, r3
 8000698:	d00e      	beq.n	80006b8 <pre_main+0x38>
        debug_print("*** hal bss/data failed, bss_test = "); debug_printhex_unsigned(hal_bss_test);
 800069a:	480b      	ldr	r0, [pc, #44]	; (80006c8 <pre_main+0x48>)
 800069c:	f002 f914 	bl	80028c8 <debug_print>
 80006a0:	4b06      	ldr	r3, [pc, #24]	; (80006bc <pre_main+0x3c>)
 80006a2:	6818      	ldr	r0, [r3, #0]
 80006a4:	f002 f95c 	bl	8002960 <debug_printhex_unsigned>
        debug_print(", data_test = "); debug_printhex_unsigned(hal_data_test);
 80006a8:	4808      	ldr	r0, [pc, #32]	; (80006cc <pre_main+0x4c>)
 80006aa:	f002 f90d 	bl	80028c8 <debug_print>
 80006ae:	4b04      	ldr	r3, [pc, #16]	; (80006c0 <pre_main+0x40>)
 80006b0:	6818      	ldr	r0, [r3, #0]
 80006b2:	f002 f955 	bl	8002960 <debug_printhex_unsigned>
 80006b6:	e7fe      	b.n	80006b6 <pre_main+0x36>
    }
#ifdef UNIT_TEST
    //  Run the unit tests if any.  Don't run unit test in bootloader, because we will run out of space in bootrom.
    run_unit_test();	
#endif  //  UNIT_TEST
}
 80006b8:	bd08      	pop	{r3, pc}
 80006ba:	bf00      	nop
 80006bc:	20000734 	.word	0x20000734
 80006c0:	20000000 	.word	0x20000000
 80006c4:	87654321 	.word	0x87654321
 80006c8:	08004584 	.word	0x08004584
 80006cc:	080045ac 	.word	0x080045ac

080006d0 <reset_handler>:

void reset_handler(void) {
 80006d0:	b510      	push	{r4, lr}
	//  We also call the constructors.  The vector table points to this function.
	volatile unsigned *src, *boot_dest;
	funcp_t *fp;

	//  Copy Bootloader data section from ROM to RAM.
	for (src = &_boot_data_loadaddr, boot_dest = &_boot_data;
 80006d2:	4b1a      	ldr	r3, [pc, #104]	; (800073c <reset_handler+0x6c>)
 80006d4:	491a      	ldr	r1, [pc, #104]	; (8000740 <reset_handler+0x70>)
 80006d6:	e003      	b.n	80006e0 <reset_handler+0x10>
		boot_dest < &_boot_edata;  //  Bootloader
		src++, boot_dest++) {
		*boot_dest = *src;
 80006d8:	f851 2b04 	ldr.w	r2, [r1], #4
 80006dc:	f843 2b04 	str.w	r2, [r3], #4
	for (src = &_boot_data_loadaddr, boot_dest = &_boot_data;
 80006e0:	4a18      	ldr	r2, [pc, #96]	; (8000744 <reset_handler+0x74>)
 80006e2:	4293      	cmp	r3, r2
 80006e4:	d3f8      	bcc.n	80006d8 <reset_handler+0x8>
 80006e6:	e002      	b.n	80006ee <reset_handler+0x1e>
	}

	//  Init variables in Bootloader BSS section to null.
	while (boot_dest < &_boot_ebss) { *boot_dest++ = 0; }
 80006e8:	2200      	movs	r2, #0
 80006ea:	601a      	str	r2, [r3, #0]
 80006ec:	3304      	adds	r3, #4
 80006ee:	4a16      	ldr	r2, [pc, #88]	; (8000748 <reset_handler+0x78>)
 80006f0:	4293      	cmp	r3, r2
 80006f2:	d3f9      	bcc.n	80006e8 <reset_handler+0x18>

	/* Ensure 8-byte alignment of stack pointer on interrupts */
	/* Enabled by default on most Cortex-M parts, but not M3 r1 */
	SCB_CCR |= SCB_CCR_STKALIGN;
 80006f4:	4a15      	ldr	r2, [pc, #84]	; (800074c <reset_handler+0x7c>)
 80006f6:	6813      	ldr	r3, [r2, #0]
 80006f8:	f443 7300 	orr.w	r3, r3, #512	; 0x200
 80006fc:	6013      	str	r3, [r2, #0]

	//  Perform our platform initialisation.  pre_main() will not return if bootloader decides to run in Bootloader Mode.
	pre_main();
 80006fe:	f7ff ffbf 	bl	8000680 <pre_main>
	//  Application constructors will be called by application_start().
	//  TODO: Fix these bootloader constructors:
	// .init_array    0x0000000008009778        0x4 .pioenvs/bluepill_f103c8/src/uart.o
 	// .init_array    0x000000000800977c        0x4 .pioenvs/bluepill_f103c8/lib33e/libuartint.a(uartint.o)
 	// .init_array    0x0000000008009780        0x4 .pioenvs/bluepill_f103c8/lib3e7/libcodal-core.a(ManagedString.o)
	for (fp = &__boot_preinit_array_start; fp < &__boot_preinit_array_end; fp++) {
 8000702:	4c13      	ldr	r4, [pc, #76]	; (8000750 <reset_handler+0x80>)
 8000704:	e002      	b.n	800070c <reset_handler+0x3c>
		(*fp)();
 8000706:	f854 3b04 	ldr.w	r3, [r4], #4
 800070a:	4798      	blx	r3
	for (fp = &__boot_preinit_array_start; fp < &__boot_preinit_array_end; fp++) {
 800070c:	4b11      	ldr	r3, [pc, #68]	; (8000754 <reset_handler+0x84>)
 800070e:	429c      	cmp	r4, r3
 8000710:	d3f9      	bcc.n	8000706 <reset_handler+0x36>
	}
	for (fp = &__boot_init_array_start; fp < &__boot_init_array_end; fp++) {
 8000712:	4c11      	ldr	r4, [pc, #68]	; (8000758 <reset_handler+0x88>)
 8000714:	e002      	b.n	800071c <reset_handler+0x4c>
		(*fp)();
 8000716:	f854 3b04 	ldr.w	r3, [r4], #4
 800071a:	4798      	blx	r3
	for (fp = &__boot_init_array_start; fp < &__boot_init_array_end; fp++) {
 800071c:	4b0f      	ldr	r3, [pc, #60]	; (800075c <reset_handler+0x8c>)
 800071e:	429c      	cmp	r4, r3
 8000720:	d3f9      	bcc.n	8000716 <reset_handler+0x46>
	}

    //  Start the bootloader.  This function will not return if the bootloader decides to run in Bootloader Mode (polling forever for USB commands).
    bootloader_start();
 8000722:	f002 fb01 	bl	8002d28 <bootloader_start>

	//  If we return here, that means we are running in Application Mode.
	//  Call the application's entry point. application_start() is always located at a fixed address (_text) so we can change the application easily.
	application_start();
 8000726:	f006 fa6b 	bl	8006c00 <application_start>

	//  TODO: We should not allow our low-level STM32 functions to have C++ destructors.
	//  Application destructors will be called by application_start().
	for (fp = &__boot_fini_array_start; fp < &__boot_fini_array_end; fp++) {
 800072a:	4c0d      	ldr	r4, [pc, #52]	; (8000760 <reset_handler+0x90>)
 800072c:	e002      	b.n	8000734 <reset_handler+0x64>
		(*fp)();
 800072e:	f854 3b04 	ldr.w	r3, [r4], #4
 8000732:	4798      	blx	r3
	for (fp = &__boot_fini_array_start; fp < &__boot_fini_array_end; fp++) {
 8000734:	4b0b      	ldr	r3, [pc, #44]	; (8000764 <reset_handler+0x94>)
 8000736:	429c      	cmp	r4, r3
 8000738:	d3f9      	bcc.n	800072e <reset_handler+0x5e>
	}

}
 800073a:	bd10      	pop	{r4, pc}
 800073c:	20000000 	.word	0x20000000
 8000740:	080050b0 	.word	0x080050b0
 8000744:	2000012c 	.word	0x2000012c
 8000748:	20000898 	.word	0x20000898
 800074c:	e000ed14 	.word	0xe000ed14
 8000750:	080050b0 	.word	0x080050b0
 8000754:	080050b0 	.word	0x080050b0
 8000758:	080050b0 	.word	0x080050b0
 800075c:	080050b0 	.word	0x080050b0
 8000760:	080050b0 	.word	0x080050b0
 8000764:	080050b0 	.word	0x080050b0

08000768 <_ZL11timer_alarmv>:
    if (tick_callback) { tick_callback(); }
    //  Call cocoOS at every tick.
    os_tick();
}

static void timer_alarm() {
 8000768:	b508      	push	{r3, lr}
        debug_print(";");
        poll_bootloader();
    }
#endif  //  NOTUSED
    //  If Codal Timer exists, update the timer.
    if (alarm_callback) { alarm_callback(); }
 800076a:	4b06      	ldr	r3, [pc, #24]	; (8000784 <_ZL11timer_alarmv+0x1c>)
 800076c:	681b      	ldr	r3, [r3, #0]
 800076e:	b10b      	cbz	r3, 8000774 <_ZL11timer_alarmv+0xc>
 8000770:	4798      	blx	r3
    else { if (millis() < 200) { debug_print("a? "); } }
}
 8000772:	bd08      	pop	{r3, pc}
    else { if (millis() < 200) { debug_print("a? "); } }
 8000774:	f002 fa2a 	bl	8002bcc <millis>
 8000778:	28c7      	cmp	r0, #199	; 0xc7
 800077a:	d8fa      	bhi.n	8000772 <_ZL11timer_alarmv+0xa>
 800077c:	4802      	ldr	r0, [pc, #8]	; (8000788 <_ZL11timer_alarmv+0x20>)
 800077e:	f002 f8a3 	bl	80028c8 <debug_print>
}
 8000782:	e7f6      	b.n	8000772 <_ZL11timer_alarmv+0xa>
 8000784:	20000154 	.word	0x20000154
 8000788:	080045bc 	.word	0x080045bc

0800078c <_ZL15poll_bootloaderv>:
    if (!bootloader_callback) { return; }
 800078c:	4b16      	ldr	r3, [pc, #88]	; (80007e8 <_ZL15poll_bootloaderv+0x5c>)
 800078e:	681b      	ldr	r3, [r3, #0]
 8000790:	b343      	cbz	r3, 80007e4 <_ZL15poll_bootloaderv+0x58>
static void poll_bootloader() {
 8000792:	b510      	push	{r4, lr}
    poll_status = bootloader_callback();
 8000794:	4798      	blx	r3
 8000796:	4b15      	ldr	r3, [pc, #84]	; (80007ec <_ZL15poll_bootloaderv+0x60>)
 8000798:	6018      	str	r0, [r3, #0]
    prev_poll_status = poll_status;
 800079a:	6819      	ldr	r1, [r3, #0]
 800079c:	4a14      	ldr	r2, [pc, #80]	; (80007f0 <_ZL15poll_bootloaderv+0x64>)
 800079e:	6011      	str	r1, [r2, #0]
    if (poll_status > 0) { debug_print("u{ "); }
 80007a0:	681b      	ldr	r3, [r3, #0]
 80007a2:	2b00      	cmp	r3, #0
 80007a4:	dc12      	bgt.n	80007cc <_ZL15poll_bootloaderv+0x40>
    while (poll_status > 0) {  //  If we receive any USB requests,,,
 80007a6:	4b11      	ldr	r3, [pc, #68]	; (80007ec <_ZL15poll_bootloaderv+0x60>)
 80007a8:	681b      	ldr	r3, [r3, #0]
 80007aa:	2b00      	cmp	r3, #0
 80007ac:	dd12      	ble.n	80007d4 <_ZL15poll_bootloaderv+0x48>
        poll_status = 0;       //  Continue polling a few times for subsequent USB requests.
 80007ae:	2400      	movs	r4, #0
 80007b0:	4b0e      	ldr	r3, [pc, #56]	; (80007ec <_ZL15poll_bootloaderv+0x60>)
 80007b2:	601c      	str	r4, [r3, #0]
        for (uint16_t i = 0; i < MAX_BURST_POLL; i++) {
 80007b4:	2c09      	cmp	r4, #9
 80007b6:	d8f6      	bhi.n	80007a6 <_ZL15poll_bootloaderv+0x1a>
            poll_status = poll_status | bootloader_callback();
 80007b8:	4b0b      	ldr	r3, [pc, #44]	; (80007e8 <_ZL15poll_bootloaderv+0x5c>)
 80007ba:	681b      	ldr	r3, [r3, #0]
 80007bc:	4798      	blx	r3
 80007be:	4a0b      	ldr	r2, [pc, #44]	; (80007ec <_ZL15poll_bootloaderv+0x60>)
 80007c0:	6813      	ldr	r3, [r2, #0]
 80007c2:	4318      	orrs	r0, r3
 80007c4:	6010      	str	r0, [r2, #0]
        for (uint16_t i = 0; i < MAX_BURST_POLL; i++) {
 80007c6:	3401      	adds	r4, #1
 80007c8:	b2a4      	uxth	r4, r4
 80007ca:	e7f3      	b.n	80007b4 <_ZL15poll_bootloaderv+0x28>
    if (poll_status > 0) { debug_print("u{ "); }
 80007cc:	4809      	ldr	r0, [pc, #36]	; (80007f4 <_ZL15poll_bootloaderv+0x68>)
 80007ce:	f002 f87b 	bl	80028c8 <debug_print>
 80007d2:	e7e8      	b.n	80007a6 <_ZL15poll_bootloaderv+0x1a>
    if (prev_poll_status > 0) { debug_print("} "); }
 80007d4:	4b06      	ldr	r3, [pc, #24]	; (80007f0 <_ZL15poll_bootloaderv+0x64>)
 80007d6:	681b      	ldr	r3, [r3, #0]
 80007d8:	2b00      	cmp	r3, #0
 80007da:	dd02      	ble.n	80007e2 <_ZL15poll_bootloaderv+0x56>
 80007dc:	4806      	ldr	r0, [pc, #24]	; (80007f8 <_ZL15poll_bootloaderv+0x6c>)
 80007de:	f002 f873 	bl	80028c8 <debug_print>
}
 80007e2:	bd10      	pop	{r4, pc}
 80007e4:	4770      	bx	lr
 80007e6:	bf00      	nop
 80007e8:	2000015c 	.word	0x2000015c
 80007ec:	2000014c 	.word	0x2000014c
 80007f0:	20000158 	.word	0x20000158
 80007f4:	080045c0 	.word	0x080045c0
 80007f8:	080045c4 	.word	0x080045c4

080007fc <_ZL10timer_tickv>:
static void timer_tick() {
 80007fc:	b508      	push	{r3, lr}
    poll_bootloader();
 80007fe:	f7ff ffc5 	bl	800078c <_ZL15poll_bootloaderv>
    if (tick_callback) { tick_callback(); }
 8000802:	4b03      	ldr	r3, [pc, #12]	; (8000810 <_ZL10timer_tickv+0x14>)
 8000804:	681b      	ldr	r3, [r3, #0]
 8000806:	b103      	cbz	r3, 800080a <_ZL10timer_tickv+0xe>
 8000808:	4798      	blx	r3
    os_tick();
 800080a:	f001 febc 	bl	8002586 <os_tick>
}
 800080e:	bd08      	pop	{r3, pc}
 8000810:	20000150 	.word	0x20000150

08000814 <_ZL11os_schedulev>:
    if (os_running()) { return; }  //  Already running.
    running = 1;
    os_enable_interrupts();
}

static void os_schedule( void ) {
 8000814:	b510      	push	{r4, lr}
    //  Call this to schedule a task.
    if (!os_running()) { return; }  //  Don't schedule if cocoOS scheduler is not started.
 8000816:	f001 fcff 	bl	8002218 <os_running>
 800081a:	b900      	cbnz	r0, 800081e <_ZL11os_schedulev+0xa>
        os_task_run();
    }
    else {
        os_cbkSleep();
    }
}
 800081c:	bd10      	pop	{r4, pc}
    running_tid = NO_TID;
 800081e:	4c07      	ldr	r4, [pc, #28]	; (800083c <_ZL11os_schedulev+0x28>)
 8000820:	23ff      	movs	r3, #255	; 0xff
 8000822:	7023      	strb	r3, [r4, #0]
    running_tid = os_task_highest_prio_ready_task();   
 8000824:	f001 fdac 	bl	8002380 <os_task_highest_prio_ready_task>
 8000828:	7020      	strb	r0, [r4, #0]
    if ( running_tid != NO_TID ) {
 800082a:	28ff      	cmp	r0, #255	; 0xff
 800082c:	d002      	beq.n	8000834 <_ZL11os_schedulev+0x20>
        os_task_run();
 800082e:	f001 fe79 	bl	8002524 <os_task_run>
 8000832:	e7f3      	b.n	800081c <_ZL11os_schedulev+0x8>
        os_cbkSleep();
 8000834:	f001 fea6 	bl	8002584 <os_cbkSleep>
 8000838:	e7f0      	b.n	800081c <_ZL11os_schedulev+0x8>
 800083a:	bf00      	nop
 800083c:	20000838 	.word	0x20000838

08000840 <target_init>:
void target_init(void) {
 8000840:	b508      	push	{r3, lr}
    if (initialised) { return; }  //  Already initialised, skip.
 8000842:	4b08      	ldr	r3, [pc, #32]	; (8000864 <target_init+0x24>)
 8000844:	781b      	ldrb	r3, [r3, #0]
 8000846:	b103      	cbz	r3, 800084a <target_init+0xa>
}
 8000848:	bd08      	pop	{r3, pc}
    initialised = true;
 800084a:	4b06      	ldr	r3, [pc, #24]	; (8000864 <target_init+0x24>)
 800084c:	2201      	movs	r2, #1
 800084e:	701a      	strb	r2, [r3, #0]
    platform_setup();  //  STM32 platform setup.
 8000850:	f002 f894 	bl	800297c <platform_setup>
    os_init();         //  Init cocoOS before creating any multitasking objects.
 8000854:	f001 fcc8 	bl	80021e8 <os_init>
    platform_start_timer(timer_tick, timer_alarm);
 8000858:	4903      	ldr	r1, [pc, #12]	; (8000868 <target_init+0x28>)
 800085a:	4804      	ldr	r0, [pc, #16]	; (800086c <target_init+0x2c>)
 800085c:	f002 f96e 	bl	8002b3c <platform_start_timer>
 8000860:	e7f2      	b.n	8000848 <target_init+0x8>
 8000862:	bf00      	nop
 8000864:	20000164 	.word	0x20000164
 8000868:	08000769 	.word	0x08000769
 800086c:	080007fd 	.word	0x080007fd

08000870 <target_wait_for_event>:
    if (!initialised) { return; }  //  If not initialised, quit.
 8000870:	4b02      	ldr	r3, [pc, #8]	; (800087c <target_wait_for_event+0xc>)
 8000872:	781b      	ldrb	r3, [r3, #0]
 8000874:	b103      	cbz	r3, 8000878 <target_wait_for_event+0x8>
    __asm("wfe");  //  Allow CPU to go to sleep.
 8000876:	bf20      	wfe
}
 8000878:	4770      	bx	lr
 800087a:	bf00      	nop
 800087c:	20000164 	.word	0x20000164

08000880 <target_wait>:
    if (milliseconds <= 0) { return; }
 8000880:	b310      	cbz	r0, 80008c8 <target_wait+0x48>
void target_wait(uint32_t milliseconds) {
 8000882:	b510      	push	{r4, lr}
 8000884:	4604      	mov	r4, r0
    if (!initialised) { return; }  //  If not initialised, quit.
 8000886:	4b11      	ldr	r3, [pc, #68]	; (80008cc <target_wait+0x4c>)
 8000888:	781b      	ldrb	r3, [r3, #0]
 800088a:	b903      	cbnz	r3, 800088e <target_wait+0xe>
}
 800088c:	bd10      	pop	{r4, pc}
    debug_print("wt <"); debug_print_unsigned(milliseconds / 1000);
 800088e:	4810      	ldr	r0, [pc, #64]	; (80008d0 <target_wait+0x50>)
 8000890:	f002 f81a 	bl	80028c8 <debug_print>
 8000894:	480f      	ldr	r0, [pc, #60]	; (80008d4 <target_wait+0x54>)
 8000896:	fba0 3004 	umull	r3, r0, r0, r4
 800089a:	0980      	lsrs	r0, r0, #6
 800089c:	f002 f824 	bl	80028e8 <debug_print_unsigned>
    uint32_t end = millis() + milliseconds;
 80008a0:	f002 f994 	bl	8002bcc <millis>
 80008a4:	4404      	add	r4, r0
 80008a6:	e000      	b.n	80008aa <target_wait+0x2a>
        __asm("wfe");  //  Allow CPU to go to sleep.
 80008a8:	bf20      	wfe
        if (millis() >= end) { break; }
 80008aa:	f002 f98f 	bl	8002bcc <millis>
 80008ae:	42a0      	cmp	r0, r4
 80008b0:	d206      	bcs.n	80008c0 <target_wait+0x40>
        if (os_running()) { os_schedule(); }  //  Schedule a cocoOS task to run.
 80008b2:	f001 fcb1 	bl	8002218 <os_running>
 80008b6:	2800      	cmp	r0, #0
 80008b8:	d0f6      	beq.n	80008a8 <target_wait+0x28>
 80008ba:	f7ff ffab 	bl	8000814 <_ZL11os_schedulev>
 80008be:	e7f3      	b.n	80008a8 <target_wait+0x28>
    debug_print("> ");
 80008c0:	4805      	ldr	r0, [pc, #20]	; (80008d8 <target_wait+0x58>)
 80008c2:	f002 f801 	bl	80028c8 <debug_print>
 80008c6:	e7e1      	b.n	800088c <target_wait+0xc>
 80008c8:	4770      	bx	lr
 80008ca:	bf00      	nop
 80008cc:	20000164 	.word	0x20000164
 80008d0:	080045dc 	.word	0x080045dc
 80008d4:	10624dd3 	.word	0x10624dd3
 80008d8:	080045e4 	.word	0x080045e4

080008dc <target_wait_us>:
void target_wait_us(unsigned long microseconds) {
 80008dc:	b508      	push	{r3, lr}
    return target_wait(microseconds / 1000);
 80008de:	4b03      	ldr	r3, [pc, #12]	; (80008ec <target_wait_us+0x10>)
 80008e0:	fba3 3000 	umull	r3, r0, r3, r0
 80008e4:	0980      	lsrs	r0, r0, #6
 80008e6:	f7ff ffcb 	bl	8000880 <target_wait>
}
 80008ea:	bd08      	pop	{r3, pc}
 80008ec:	10624dd3 	.word	0x10624dd3

080008f0 <target_panic>:
void target_panic(int statusCode) {
 80008f0:	b508      	push	{r3, lr}
 80008f2:	4604      	mov	r4, r0
    target_disable_irq();
 80008f4:	f000 f85e 	bl	80009b4 <target_disable_irq>
	debug_print("*****target_panic ");
 80008f8:	4804      	ldr	r0, [pc, #16]	; (800090c <target_panic+0x1c>)
 80008fa:	f001 ffe5 	bl	80028c8 <debug_print>
	debug_println((int) statusCode);
 80008fe:	4620      	mov	r0, r4
 8000900:	f001 ffc4 	bl	800288c <_Z13debug_printlni>
	debug_flush();
 8000904:	f001 ffdb 	bl	80028be <debug_flush>
        __asm("wfe");  //  Allow CPU to go to sleep.
 8000908:	bf20      	wfe
 800090a:	e7fd      	b.n	8000908 <target_panic+0x18>
 800090c:	080045c8 	.word	0x080045c8

08000910 <fiber_initial_stack_base>:
}
 8000910:	4800      	ldr	r0, [pc, #0]	; (8000914 <fiber_initial_stack_base+0x4>)
 8000912:	4770      	bx	lr
 8000914:	20005000 	.word	0x20005000

08000918 <test_codal>:
void test_codal() {
 8000918:	b538      	push	{r3, r4, r5, lr}
	PROCESSOR_WORD_TYPE start = (PROCESSOR_WORD_TYPE)(codal_heap_start); 
 800091a:	4b15      	ldr	r3, [pc, #84]	; (8000970 <test_codal+0x58>)
 800091c:	681d      	ldr	r5, [r3, #0]
	PROCESSOR_WORD_TYPE size = end - start;
 800091e:	f1c5 5400 	rsb	r4, r5, #536870912	; 0x20000000
 8000922:	f504 4490 	add.w	r4, r4, #18432	; 0x4800
	debug_print("heap start: "); debug_printhex_unsigned((size_t) start);
 8000926:	4813      	ldr	r0, [pc, #76]	; (8000974 <test_codal+0x5c>)
 8000928:	f001 ffce 	bl	80028c8 <debug_print>
 800092c:	4628      	mov	r0, r5
 800092e:	f002 f817 	bl	8002960 <debug_printhex_unsigned>
	debug_print(", end: ");      debug_printhex_unsigned((size_t) end);
 8000932:	4811      	ldr	r0, [pc, #68]	; (8000978 <test_codal+0x60>)
 8000934:	f001 ffc8 	bl	80028c8 <debug_print>
 8000938:	4810      	ldr	r0, [pc, #64]	; (800097c <test_codal+0x64>)
 800093a:	f002 f811 	bl	8002960 <debug_printhex_unsigned>
	debug_print(", size: ");     debug_print((size_t) (size >> 10));
 800093e:	4810      	ldr	r0, [pc, #64]	; (8000980 <test_codal+0x68>)
 8000940:	f001 ffc2 	bl	80028c8 <debug_print>
 8000944:	0aa0      	lsrs	r0, r4, #10
 8000946:	f001 ff35 	bl	80027b4 <_Z11debug_printj>
	debug_print(" KB, stack used: "); debug_print((size_t) 
 800094a:	480e      	ldr	r0, [pc, #56]	; (8000984 <test_codal+0x6c>)
 800094c:	f001 ffbc 	bl	80028c8 <debug_print>
        ((PROCESSOR_WORD_TYPE)(DEVICE_STACK_BASE) - get_current_sp()) >> 10);
 8000950:	f000 f83f 	bl	80009d2 <get_current_sp>
 8000954:	f1c0 5000 	rsb	r0, r0, #536870912	; 0x20000000
 8000958:	f500 40a0 	add.w	r0, r0, #20480	; 0x5000
	debug_print(" KB, stack used: "); debug_print((size_t) 
 800095c:	0a80      	lsrs	r0, r0, #10
 800095e:	f001 ff29 	bl	80027b4 <_Z11debug_printj>
    debug_println(" KB"); debug_flush();
 8000962:	4809      	ldr	r0, [pc, #36]	; (8000988 <test_codal+0x70>)
 8000964:	f001 ff84 	bl	8002870 <debug_println>
 8000968:	f001 ffa9 	bl	80028be <debug_flush>
}
 800096c:	bd38      	pop	{r3, r4, r5, pc}
 800096e:	bf00      	nop
 8000970:	20000004 	.word	0x20000004
 8000974:	080045e8 	.word	0x080045e8
 8000978:	080045f8 	.word	0x080045f8
 800097c:	20004800 	.word	0x20004800
 8000980:	08004600 	.word	0x08004600
 8000984:	0800460c 	.word	0x0800460c
 8000988:	08004620 	.word	0x08004620

0800098c <target_set_tick_callback>:
    tick_callback = tick_callback0;
 800098c:	4b01      	ldr	r3, [pc, #4]	; (8000994 <target_set_tick_callback+0x8>)
 800098e:	6018      	str	r0, [r3, #0]
}
 8000990:	4770      	bx	lr
 8000992:	bf00      	nop
 8000994:	20000150 	.word	0x20000150

08000998 <target_set_alarm_callback>:
    alarm_callback = alarm_callback0;
 8000998:	4b01      	ldr	r3, [pc, #4]	; (80009a0 <target_set_alarm_callback+0x8>)
 800099a:	6018      	str	r0, [r3, #0]
}
 800099c:	4770      	bx	lr
 800099e:	bf00      	nop
 80009a0:	20000154 	.word	0x20000154

080009a4 <target_set_bootloader_callback>:
    bootloader_callback = bootloader_callback0;
 80009a4:	4b01      	ldr	r3, [pc, #4]	; (80009ac <target_set_bootloader_callback+0x8>)
 80009a6:	6018      	str	r0, [r3, #0]
}
 80009a8:	4770      	bx	lr
 80009aa:	bf00      	nop
 80009ac:	2000015c 	.word	0x2000015c

080009b0 <target_enable_irq>:
 *
 * Disable the interrupt mask and enable interrupts globally
 */
static inline void cm_enable_interrupts(void)
{
	__asm__("CPSIE I\n");
 80009b0:	b662      	cpsie	i
}
 80009b2:	4770      	bx	lr

080009b4 <target_disable_irq>:
 *
 * Mask all interrupts globally
 */
static inline void cm_disable_interrupts(void)
{
	__asm__("CPSID I\n");
 80009b4:	b672      	cpsid	i
}
 80009b6:	4770      	bx	lr

080009b8 <tcb_allocate>:
void *tcb_allocate() {
 80009b8:	b508      	push	{r3, lr}
    return (void *)malloc(sizeof(PROCESSOR_TCB));
 80009ba:	2040      	movs	r0, #64	; 0x40
 80009bc:	f006 feb4 	bl	8007728 <device_malloc>
}
 80009c0:	bd08      	pop	{r3, pc}

080009c2 <tcb_configure_lr>:
    tcbPointer->LR = function;
 80009c2:	6381      	str	r1, [r0, #56]	; 0x38
}
 80009c4:	4770      	bx	lr

080009c6 <tcb_configure_sp>:
    tcbPointer->SP = sp;
 80009c6:	6341      	str	r1, [r0, #52]	; 0x34
}
 80009c8:	4770      	bx	lr

080009ca <tcb_configure_stack_base>:
    tcbPointer->stack_base = stack_base;
 80009ca:	63c1      	str	r1, [r0, #60]	; 0x3c
}
 80009cc:	4770      	bx	lr

080009ce <tcb_get_stack_base>:
}
 80009ce:	6bc0      	ldr	r0, [r0, #60]	; 0x3c
 80009d0:	4770      	bx	lr

080009d2 <get_current_sp>:
}
 80009d2:	4668      	mov	r0, sp
 80009d4:	4770      	bx	lr

080009d6 <tcb_get_sp>:
}
 80009d6:	6b40      	ldr	r0, [r0, #52]	; 0x34
 80009d8:	4770      	bx	lr

080009da <tcb_configure_args>:
    tcbPointer->R0 = (uint32_t)ep;
 80009da:	6001      	str	r1, [r0, #0]
    tcbPointer->R1 = (uint32_t)cp;
 80009dc:	6042      	str	r2, [r0, #4]
    tcbPointer->R2 = (uint32_t)pm;
 80009de:	6083      	str	r3, [r0, #8]
}
 80009e0:	4770      	bx	lr

080009e2 <_fini>:
    void _fini(void) { }
 80009e2:	4770      	bx	lr

080009e4 <__aeabi_atexit>:
    }
 80009e4:	2000      	movs	r0, #0
 80009e6:	4770      	bx	lr

080009e8 <target_enable_debug>:
void target_enable_debug(void) {
 80009e8:	b508      	push	{r3, lr}
    enable_debug();   
 80009ea:	f001 ffed 	bl	80029c8 <enable_debug>
}
 80009ee:	bd08      	pop	{r3, pc}

080009f0 <swap_context>:

    @ Write our core registers into the TCB
    @ First, store the general registers

    @ Skip this is we're given a NULL parameter for the TCB
    CMP     R0, #0
 80009f0:	2800      	cmp	r0, #0
    BEQ     store_context_complete
 80009f2:	d015      	beq.n	8000a20 <store_context_complete>

    STR     R0, [R0,#0]
 80009f4:	6000      	str	r0, [r0, #0]
    STR     R1, [R0,#4]
 80009f6:	6041      	str	r1, [r0, #4]
    STR     R2, [R0,#8]
 80009f8:	6082      	str	r2, [r0, #8]
    STR     R3, [R0,#12]
 80009fa:	60c3      	str	r3, [r0, #12]
    STR     R4, [R0,#16]
 80009fc:	6104      	str	r4, [r0, #16]
    STR     R5, [R0,#20]
 80009fe:	6145      	str	r5, [r0, #20]
    STR     R6, [R0,#24]
 8000a00:	6186      	str	r6, [r0, #24]
    STR     R7, [R0,#28]
 8000a02:	61c7      	str	r7, [r0, #28]

    @ Now the high general purpose registers
    MOV     R4, R8
 8000a04:	4644      	mov	r4, r8
    STR     R4, [R0,#32]
 8000a06:	6204      	str	r4, [r0, #32]
    MOV     R4, R9
 8000a08:	464c      	mov	r4, r9
    STR     R4, [R0,#36]
 8000a0a:	6244      	str	r4, [r0, #36]	; 0x24
    MOV     R4, R10
 8000a0c:	4654      	mov	r4, sl
    STR     R4, [R0,#40]
 8000a0e:	6284      	str	r4, [r0, #40]	; 0x28
    MOV     R4, R11
 8000a10:	465c      	mov	r4, fp
    STR     R4, [R0,#44]
 8000a12:	62c4      	str	r4, [r0, #44]	; 0x2c
    MOV     R4, R12
 8000a14:	4664      	mov	r4, ip
    STR     R4, [R0,#48]
 8000a16:	6304      	str	r4, [r0, #48]	; 0x30

    @ Now the Stack and Link Register.
    @ As this context is only intended for use with a fiber scheduler,
    @ we don't need the PC.
    MOV     R6, SP
 8000a18:	466e      	mov	r6, sp
    STR     R6, [R0,#52]
 8000a1a:	6346      	str	r6, [r0, #52]	; 0x34
    MOV     R4, LR
 8000a1c:	4674      	mov	r4, lr
    STR     R4, [R0,#56]
 8000a1e:	6384      	str	r4, [r0, #56]	; 0x38

08000a20 <store_context_complete>:
store_context_complete:
    @ Finally, Copy the stack. We do this to reduce RAM footprint, as stack is usually very small at the point
    @ of scheduling, but we need a lot of capacity for interrupt handling and other functions.

    @ Skip this is we're given a NULL parameter for the stack.
    CMP     R1, #0
 8000a20:	2900      	cmp	r1, #0
    BEQ     store_stack_complete
 8000a22:	d006      	beq.n	8000a32 <store_stack_complete>

    LDR     R4, [R0,#60]         @ Load R4 with the fiber's defined stack_base.
 8000a24:	6bc4      	ldr	r4, [r0, #60]	; 0x3c

08000a26 <store_stack>:
store_stack:
    SUBS    R4, #4
 8000a26:	3c04      	subs	r4, #4
    SUBS    R1, #4
 8000a28:	3904      	subs	r1, #4

    LDR     R5, [R4]
 8000a2a:	6825      	ldr	r5, [r4, #0]
    STR     R5, [R1]
 8000a2c:	600d      	str	r5, [r1, #0]

    CMP     R4, R6
 8000a2e:	42b4      	cmp	r4, r6
    BNE     store_stack
 8000a30:	d1f9      	bne.n	8000a26 <store_stack>

08000a32 <store_stack_complete>:

    @
    @ Now page in the new context.
    @ Update all registers except the PC. We can also safely ignore the STATUS register, as we're just a fiber scheduler.
    @
    LDR     R4, [R2, #56]
 8000a32:	6b94      	ldr	r4, [r2, #56]	; 0x38
    MOV     LR, R4
 8000a34:	46a6      	mov	lr, r4
    LDR     R6, [R2, #52]
 8000a36:	6b56      	ldr	r6, [r2, #52]	; 0x34
    MOV     SP, R6
 8000a38:	46b5      	mov	sp, r6

    @ Copy the stack in.
    @ n.b. we do this after setting the SP to make comparisons easier.

    @ Skip this is we're given a NULL parameter for the stack.
    CMP     R3, #0
 8000a3a:	2b00      	cmp	r3, #0
    BEQ     restore_stack_complete
 8000a3c:	d006      	beq.n	8000a4c <restore_stack_complete>

    LDR     R4, [R2,#60]         @ Load R4 with the fiber's defined stack_base.
 8000a3e:	6bd4      	ldr	r4, [r2, #60]	; 0x3c

08000a40 <restore_stack>:

restore_stack:
    SUBS    R4, #4
 8000a40:	3c04      	subs	r4, #4
    SUBS    R3, #4
 8000a42:	3b04      	subs	r3, #4

    LDR     R5, [R3]
 8000a44:	681d      	ldr	r5, [r3, #0]
    STR     R5, [R4]
 8000a46:	6025      	str	r5, [r4, #0]

    CMP     R4, R6
 8000a48:	42b4      	cmp	r4, r6
    BNE     restore_stack
 8000a4a:	d1f9      	bne.n	8000a40 <restore_stack>

08000a4c <restore_stack_complete>:

restore_stack_complete:
    LDR     R4, [R2, #48]
 8000a4c:	6b14      	ldr	r4, [r2, #48]	; 0x30
    MOV     R12, R4
 8000a4e:	46a4      	mov	ip, r4
    LDR     R4, [R2, #44]
 8000a50:	6ad4      	ldr	r4, [r2, #44]	; 0x2c
    MOV     R11, R4
 8000a52:	46a3      	mov	fp, r4
    LDR     R4, [R2, #40]
 8000a54:	6a94      	ldr	r4, [r2, #40]	; 0x28
    MOV     R10, R4
 8000a56:	46a2      	mov	sl, r4
    LDR     R4, [R2, #36]
 8000a58:	6a54      	ldr	r4, [r2, #36]	; 0x24
    MOV     R9, R4
 8000a5a:	46a1      	mov	r9, r4
    LDR     R4, [R2, #32]
 8000a5c:	6a14      	ldr	r4, [r2, #32]
    MOV     R8, R4
 8000a5e:	46a0      	mov	r8, r4

    LDR     R7, [R2, #28]
 8000a60:	69d7      	ldr	r7, [r2, #28]
    LDR     R6, [R2, #24]
 8000a62:	6996      	ldr	r6, [r2, #24]
    LDR     R5, [R2, #20]
 8000a64:	6955      	ldr	r5, [r2, #20]
    LDR     R4, [R2, #16]
 8000a66:	6914      	ldr	r4, [r2, #16]
    LDR     R3, [R2, #12]
 8000a68:	68d3      	ldr	r3, [r2, #12]
    LDR     R1, [R2, #4]
 8000a6a:	6851      	ldr	r1, [r2, #4]
    LDR     R0, [R2, #0]
 8000a6c:	6810      	ldr	r0, [r2, #0]
    LDR     R2, [R2, #8]
 8000a6e:	6892      	ldr	r2, [r2, #8]

    @ Return to caller (scheduler).
    BX      LR
 8000a70:	4770      	bx	lr

08000a72 <save_context>:
save_context:

    @ Write our core registers into the TCB
    @ First, store the general registers

    STR     R0, [R0,#0]
 8000a72:	6000      	str	r0, [r0, #0]
    STR     R1, [R0,#4]
 8000a74:	6041      	str	r1, [r0, #4]
    STR     R2, [R0,#8]
 8000a76:	6082      	str	r2, [r0, #8]
    STR     R3, [R0,#12]
 8000a78:	60c3      	str	r3, [r0, #12]
    STR     R4, [R0,#16]
 8000a7a:	6104      	str	r4, [r0, #16]
    STR     R5, [R0,#20]
 8000a7c:	6145      	str	r5, [r0, #20]
    STR     R6, [R0,#24]
 8000a7e:	6186      	str	r6, [r0, #24]
    STR     R7, [R0,#28]
 8000a80:	61c7      	str	r7, [r0, #28]

    @ Now the high general purpose registers
    MOV     R4, R8
 8000a82:	4644      	mov	r4, r8
    STR     R4, [R0,#32]
 8000a84:	6204      	str	r4, [r0, #32]
    MOV     R4, R9
 8000a86:	464c      	mov	r4, r9
    STR     R4, [R0,#36]
 8000a88:	6244      	str	r4, [r0, #36]	; 0x24
    MOV     R4, R10
 8000a8a:	4654      	mov	r4, sl
    STR     R4, [R0,#40]
 8000a8c:	6284      	str	r4, [r0, #40]	; 0x28
    MOV     R4, R11
 8000a8e:	465c      	mov	r4, fp
    STR     R4, [R0,#44]
 8000a90:	62c4      	str	r4, [r0, #44]	; 0x2c
    MOV     R4, R12
 8000a92:	4664      	mov	r4, ip
    STR     R4, [R0,#48]
 8000a94:	6304      	str	r4, [r0, #48]	; 0x30

    @ Now the Stack and Link Register.
    @ As this context is only intended for use with a fiber scheduler,
    @ we don't need the PC.
    MOV     R6, SP
 8000a96:	466e      	mov	r6, sp
    STR     R6, [R0,#52]
 8000a98:	6346      	str	r6, [r0, #52]	; 0x34
    MOV     R4, LR
 8000a9a:	4674      	mov	r4, lr
    STR     R4, [R0,#56]
 8000a9c:	6384      	str	r4, [r0, #56]	; 0x38

    @ Finally, Copy the stack. We do this to reduce RAM footprint, as stackis usually very small at the point
    @ of sceduling, but we need a lot of capacity for interrupt handling and other functions.

    LDR     R4, [R0,#60]         @ Load R4 with the fiber's defined stack_base.
 8000a9e:	6bc4      	ldr	r4, [r0, #60]	; 0x3c

08000aa0 <store_stack1>:

store_stack1:
    SUBS    R4, #4
 8000aa0:	3c04      	subs	r4, #4
    SUBS    R1, #4
 8000aa2:	3904      	subs	r1, #4

    LDR     R5, [R4]
 8000aa4:	6825      	ldr	r5, [r4, #0]
    STR     R5, [R1]
 8000aa6:	600d      	str	r5, [r1, #0]

    CMP     R4, R6
 8000aa8:	42b4      	cmp	r4, r6
    BNE     store_stack1
 8000aaa:	d1f9      	bne.n	8000aa0 <store_stack1>

    @ Restore scratch registers.

    LDR     R7, [R0, #28]
 8000aac:	69c7      	ldr	r7, [r0, #28]
    LDR     R6, [R0, #24]
 8000aae:	6986      	ldr	r6, [r0, #24]
    LDR     R5, [R0, #20]
 8000ab0:	6945      	ldr	r5, [r0, #20]
    LDR     R4, [R0, #16]
 8000ab2:	6904      	ldr	r4, [r0, #16]

    @ Return to caller (scheduler).
    BX      LR
 8000ab4:	4770      	bx	lr

08000ab6 <save_register_context>:
save_register_context:

    @ Write our core registers into the TCB
    @ First, store the general registers

    STR     R0, [R0,#0]
 8000ab6:	6000      	str	r0, [r0, #0]
    STR     R1, [R0,#4]
 8000ab8:	6041      	str	r1, [r0, #4]
    STR     R2, [R0,#8]
 8000aba:	6082      	str	r2, [r0, #8]
    STR     R3, [R0,#12]
 8000abc:	60c3      	str	r3, [r0, #12]
    STR     R4, [R0,#16]
 8000abe:	6104      	str	r4, [r0, #16]
    STR     R5, [R0,#20]
 8000ac0:	6145      	str	r5, [r0, #20]
    STR     R6, [R0,#24]
 8000ac2:	6186      	str	r6, [r0, #24]
    STR     R7, [R0,#28]
 8000ac4:	61c7      	str	r7, [r0, #28]

    @ Now the high general purpose registers
    MOV     R4, R8
 8000ac6:	4644      	mov	r4, r8
    STR     R4, [R0,#32]
 8000ac8:	6204      	str	r4, [r0, #32]
    MOV     R4, R9
 8000aca:	464c      	mov	r4, r9
    STR     R4, [R0,#36]
 8000acc:	6244      	str	r4, [r0, #36]	; 0x24
    MOV     R4, R10
 8000ace:	4654      	mov	r4, sl
    STR     R4, [R0,#40]
 8000ad0:	6284      	str	r4, [r0, #40]	; 0x28
    MOV     R4, R11
 8000ad2:	465c      	mov	r4, fp
    STR     R4, [R0,#44]
 8000ad4:	62c4      	str	r4, [r0, #44]	; 0x2c
    MOV     R4, R12
 8000ad6:	4664      	mov	r4, ip
    STR     R4, [R0,#48]
 8000ad8:	6304      	str	r4, [r0, #48]	; 0x30

    @ Now the Stack Pointer and Link Register.
    @ As this context is only intended for use with a fiber scheduler,
    @ we don't need the PC.
    MOV     R4, SP
 8000ada:	466c      	mov	r4, sp
    STR     R4, [R0,#52]
 8000adc:	6344      	str	r4, [r0, #52]	; 0x34
    MOV     R4, LR
 8000ade:	4674      	mov	r4, lr
    STR     R4, [R0,#56]
 8000ae0:	6384      	str	r4, [r0, #56]	; 0x38

    @ Restore scratch registers.
    LDR     R4, [R0, #16]
 8000ae2:	6904      	ldr	r4, [r0, #16]

    @ Return to caller (scheduler).
    BX      LR
 8000ae4:	4770      	bx	lr

08000ae6 <restore_register_context>:

    @
    @ Now page in the new context.
    @ Update all registers except the PC. We can also safely ignore the STATUS register, as we're just a fiber scheduler.
    @
    LDR     R4, [R0, #56]
 8000ae6:	6b84      	ldr	r4, [r0, #56]	; 0x38
    MOV     LR, R4
 8000ae8:	46a6      	mov	lr, r4
    LDR     R4, [R0, #52]
 8000aea:	6b44      	ldr	r4, [r0, #52]	; 0x34
    MOV     SP, R4
 8000aec:	46a5      	mov	sp, r4

    @ High registers...
    LDR     R4, [R0, #48]
 8000aee:	6b04      	ldr	r4, [r0, #48]	; 0x30
    MOV     R12, R4
 8000af0:	46a4      	mov	ip, r4
    LDR     R4, [R0, #44]
 8000af2:	6ac4      	ldr	r4, [r0, #44]	; 0x2c
    MOV     R11, R4
 8000af4:	46a3      	mov	fp, r4
    LDR     R4, [R0, #40]
 8000af6:	6a84      	ldr	r4, [r0, #40]	; 0x28
    MOV     R10, R4
 8000af8:	46a2      	mov	sl, r4
    LDR     R4, [R0, #36]
 8000afa:	6a44      	ldr	r4, [r0, #36]	; 0x24
    MOV     R9, R4
 8000afc:	46a1      	mov	r9, r4
    LDR     R4, [R0, #32]
 8000afe:	6a04      	ldr	r4, [r0, #32]
    MOV     R8, R4
 8000b00:	46a0      	mov	r8, r4

    @ Low registers...
    LDR     R7, [R0, #28]
 8000b02:	69c7      	ldr	r7, [r0, #28]
    LDR     R6, [R0, #24]
 8000b04:	6986      	ldr	r6, [r0, #24]
    LDR     R5, [R0, #20]
 8000b06:	6945      	ldr	r5, [r0, #20]
    LDR     R4, [R0, #16]
 8000b08:	6904      	ldr	r4, [r0, #16]
    LDR     R3, [R0, #12]
 8000b0a:	68c3      	ldr	r3, [r0, #12]
    LDR     R2, [R0, #8]
 8000b0c:	6882      	ldr	r2, [r0, #8]
    LDR     R0, [R0, #0]
 8000b0e:	6800      	ldr	r0, [r0, #0]
    LDR     R1, [R0, #4]
 8000b10:	6841      	ldr	r1, [r0, #4]

    @ Return to caller (normally the scheduler).
    BX      LR
 8000b12:	4770      	bx	lr

08000b14 <desig_get_unique_id>:
	return DESIG_FLASH_SIZE;
}

void desig_get_unique_id(uint32_t result[])
{
	result[0] = DESIG_UNIQUE_ID2;
 8000b14:	4b04      	ldr	r3, [pc, #16]	; (8000b28 <desig_get_unique_id+0x14>)
 8000b16:	681b      	ldr	r3, [r3, #0]
 8000b18:	6003      	str	r3, [r0, #0]
	result[1] = DESIG_UNIQUE_ID1;
 8000b1a:	4b04      	ldr	r3, [pc, #16]	; (8000b2c <desig_get_unique_id+0x18>)
 8000b1c:	681b      	ldr	r3, [r3, #0]
 8000b1e:	6043      	str	r3, [r0, #4]
	result[2] = DESIG_UNIQUE_ID0;
 8000b20:	4b03      	ldr	r3, [pc, #12]	; (8000b30 <desig_get_unique_id+0x1c>)
 8000b22:	681b      	ldr	r3, [r3, #0]
 8000b24:	6083      	str	r3, [r0, #8]
}
 8000b26:	4770      	bx	lr
 8000b28:	1ffff7f0 	.word	0x1ffff7f0
 8000b2c:	1ffff7ec 	.word	0x1ffff7ec
 8000b30:	1ffff7e8 	.word	0x1ffff7e8

08000b34 <desig_get_unique_id_as_string>:

void desig_get_unique_id_as_string(char *string,
				   unsigned int string_len)
{
 8000b34:	b570      	push	{r4, r5, r6, lr}
 8000b36:	b084      	sub	sp, #16
 8000b38:	4604      	mov	r4, r0
 8000b3a:	460d      	mov	r5, r1
	int i, len;
	uint8_t device_id[12];
	static const char chars[] = "0123456789ABCDEF";

	desig_get_unique_id((uint32_t *)device_id);
 8000b3c:	a801      	add	r0, sp, #4
 8000b3e:	f7ff ffe9 	bl	8000b14 <desig_get_unique_id>

	/* Each byte produces two characters */
	len = (2 * sizeof(device_id) < string_len) ?
		2 * sizeof(device_id) : string_len - 1;
 8000b42:	2d19      	cmp	r5, #25
 8000b44:	bf28      	it	cs
 8000b46:	2519      	movcs	r5, #25
 8000b48:	1e69      	subs	r1, r5, #1
	len = (2 * sizeof(device_id) < string_len) ?
 8000b4a:	460e      	mov	r6, r1

	for (i = 0; i < len; i += 2) {
 8000b4c:	2300      	movs	r3, #0
 8000b4e:	e010      	b.n	8000b72 <desig_get_unique_id_as_string+0x3e>
		string[i]     = chars[(device_id[i / 2] >> 4) & 0x0F];
 8000b50:	eb03 72d3 	add.w	r2, r3, r3, lsr #31
 8000b54:	a804      	add	r0, sp, #16
 8000b56:	eb00 0262 	add.w	r2, r0, r2, asr #1
 8000b5a:	f812 2c0c 	ldrb.w	r2, [r2, #-12]
 8000b5e:	0915      	lsrs	r5, r2, #4
 8000b60:	4807      	ldr	r0, [pc, #28]	; (8000b80 <desig_get_unique_id_as_string+0x4c>)
 8000b62:	5d45      	ldrb	r5, [r0, r5]
 8000b64:	54e5      	strb	r5, [r4, r3]
		string[i + 1] = chars[(device_id[i / 2] >> 0) & 0x0F];
 8000b66:	f002 020f 	and.w	r2, r2, #15
 8000b6a:	1c5d      	adds	r5, r3, #1
 8000b6c:	5c82      	ldrb	r2, [r0, r2]
 8000b6e:	5562      	strb	r2, [r4, r5]
	for (i = 0; i < len; i += 2) {
 8000b70:	3302      	adds	r3, #2
 8000b72:	42b3      	cmp	r3, r6
 8000b74:	dbec      	blt.n	8000b50 <desig_get_unique_id_as_string+0x1c>
	}

	string[len] = '\0';
 8000b76:	2300      	movs	r3, #0
 8000b78:	5463      	strb	r3, [r4, r1]
}
 8000b7a:	b004      	add	sp, #16
 8000b7c:	bd70      	pop	{r4, r5, r6, pc}
 8000b7e:	bf00      	nop
 8000b80:	08004624 	.word	0x08004624

08000b84 <rcc_wait_for_osc_ready>:
@param[in] osc enum ::osc_t. Oscillator ID
*/

void rcc_wait_for_osc_ready(enum rcc_osc osc)
{
	switch (osc) {
 8000b84:	2806      	cmp	r0, #6
 8000b86:	d82e      	bhi.n	8000be6 <rcc_wait_for_osc_ready+0x62>
 8000b88:	e8df f000 	tbb	[pc, r0]
 8000b8c:	16100a04 	.word	0x16100a04
 8000b90:	221c      	.short	0x221c
 8000b92:	28          	.byte	0x28
 8000b93:	00          	.byte	0x00
	case PLL:
		while ((RCC_CR & RCC_CR_PLLRDY) == 0);
 8000b94:	4b14      	ldr	r3, [pc, #80]	; (8000be8 <rcc_wait_for_osc_ready+0x64>)
 8000b96:	681b      	ldr	r3, [r3, #0]
 8000b98:	f013 7f00 	tst.w	r3, #33554432	; 0x2000000
 8000b9c:	d0fa      	beq.n	8000b94 <rcc_wait_for_osc_ready+0x10>
 8000b9e:	4770      	bx	lr
		break;
	case PLL2:
		while ((RCC_CR & RCC_CR_PLL2RDY) == 0);
 8000ba0:	4b11      	ldr	r3, [pc, #68]	; (8000be8 <rcc_wait_for_osc_ready+0x64>)
 8000ba2:	681b      	ldr	r3, [r3, #0]
 8000ba4:	f013 6f00 	tst.w	r3, #134217728	; 0x8000000
 8000ba8:	d0fa      	beq.n	8000ba0 <rcc_wait_for_osc_ready+0x1c>
 8000baa:	4770      	bx	lr
		break;
	case PLL3:
		while ((RCC_CR & RCC_CR_PLL3RDY) == 0);
 8000bac:	4b0e      	ldr	r3, [pc, #56]	; (8000be8 <rcc_wait_for_osc_ready+0x64>)
 8000bae:	681b      	ldr	r3, [r3, #0]
 8000bb0:	f013 5f00 	tst.w	r3, #536870912	; 0x20000000
 8000bb4:	d0fa      	beq.n	8000bac <rcc_wait_for_osc_ready+0x28>
 8000bb6:	4770      	bx	lr
		break;
	case HSE:
		while ((RCC_CR & RCC_CR_HSERDY) == 0);
 8000bb8:	4b0b      	ldr	r3, [pc, #44]	; (8000be8 <rcc_wait_for_osc_ready+0x64>)
 8000bba:	681b      	ldr	r3, [r3, #0]
 8000bbc:	f413 3f00 	tst.w	r3, #131072	; 0x20000
 8000bc0:	d0fa      	beq.n	8000bb8 <rcc_wait_for_osc_ready+0x34>
 8000bc2:	4770      	bx	lr
		break;
	case HSI:
		while ((RCC_CR & RCC_CR_HSIRDY) == 0);
 8000bc4:	4b08      	ldr	r3, [pc, #32]	; (8000be8 <rcc_wait_for_osc_ready+0x64>)
 8000bc6:	681b      	ldr	r3, [r3, #0]
 8000bc8:	f013 0f02 	tst.w	r3, #2
 8000bcc:	d0fa      	beq.n	8000bc4 <rcc_wait_for_osc_ready+0x40>
 8000bce:	4770      	bx	lr
		break;
	case LSE:
		while ((RCC_BDCR & RCC_BDCR_LSERDY) == 0);
 8000bd0:	4b06      	ldr	r3, [pc, #24]	; (8000bec <rcc_wait_for_osc_ready+0x68>)
 8000bd2:	681b      	ldr	r3, [r3, #0]
 8000bd4:	f013 0f02 	tst.w	r3, #2
 8000bd8:	d0fa      	beq.n	8000bd0 <rcc_wait_for_osc_ready+0x4c>
 8000bda:	4770      	bx	lr
		break;
	case LSI:
		while ((RCC_CSR & RCC_CSR_LSIRDY) == 0);
 8000bdc:	4b04      	ldr	r3, [pc, #16]	; (8000bf0 <rcc_wait_for_osc_ready+0x6c>)
 8000bde:	681b      	ldr	r3, [r3, #0]
 8000be0:	f013 0f02 	tst.w	r3, #2
 8000be4:	d0fa      	beq.n	8000bdc <rcc_wait_for_osc_ready+0x58>
		break;
	}
}
 8000be6:	4770      	bx	lr
 8000be8:	40021000 	.word	0x40021000
 8000bec:	40021020 	.word	0x40021020
 8000bf0:	40021024 	.word	0x40021024

08000bf4 <rcc_osc_on>:
@param[in] osc enum ::osc_t. Oscillator ID
*/

void rcc_osc_on(enum rcc_osc osc)
{
	switch (osc) {
 8000bf4:	2806      	cmp	r0, #6
 8000bf6:	d82e      	bhi.n	8000c56 <rcc_osc_on+0x62>
 8000bf8:	e8df f000 	tbb	[pc, r0]
 8000bfc:	16100a04 	.word	0x16100a04
 8000c00:	221c      	.short	0x221c
 8000c02:	28          	.byte	0x28
 8000c03:	00          	.byte	0x00
	case PLL:
		RCC_CR |= RCC_CR_PLLON;
 8000c04:	4a14      	ldr	r2, [pc, #80]	; (8000c58 <rcc_osc_on+0x64>)
 8000c06:	6813      	ldr	r3, [r2, #0]
 8000c08:	f043 7380 	orr.w	r3, r3, #16777216	; 0x1000000
 8000c0c:	6013      	str	r3, [r2, #0]
		break;
 8000c0e:	4770      	bx	lr
	case PLL2:
		RCC_CR |= RCC_CR_PLL2ON;
 8000c10:	4a11      	ldr	r2, [pc, #68]	; (8000c58 <rcc_osc_on+0x64>)
 8000c12:	6813      	ldr	r3, [r2, #0]
 8000c14:	f043 6380 	orr.w	r3, r3, #67108864	; 0x4000000
 8000c18:	6013      	str	r3, [r2, #0]
		break;
 8000c1a:	4770      	bx	lr
	case PLL3:
		RCC_CR |= RCC_CR_PLL3ON;
 8000c1c:	4a0e      	ldr	r2, [pc, #56]	; (8000c58 <rcc_osc_on+0x64>)
 8000c1e:	6813      	ldr	r3, [r2, #0]
 8000c20:	f043 5380 	orr.w	r3, r3, #268435456	; 0x10000000
 8000c24:	6013      	str	r3, [r2, #0]
		break;
 8000c26:	4770      	bx	lr
	case HSE:
		RCC_CR |= RCC_CR_HSEON;
 8000c28:	4a0b      	ldr	r2, [pc, #44]	; (8000c58 <rcc_osc_on+0x64>)
 8000c2a:	6813      	ldr	r3, [r2, #0]
 8000c2c:	f443 3380 	orr.w	r3, r3, #65536	; 0x10000
 8000c30:	6013      	str	r3, [r2, #0]
		break;
 8000c32:	4770      	bx	lr
	case HSI:
		RCC_CR |= RCC_CR_HSION;
 8000c34:	4a08      	ldr	r2, [pc, #32]	; (8000c58 <rcc_osc_on+0x64>)
 8000c36:	6813      	ldr	r3, [r2, #0]
 8000c38:	f043 0301 	orr.w	r3, r3, #1
 8000c3c:	6013      	str	r3, [r2, #0]
		break;
 8000c3e:	4770      	bx	lr
	case LSE:
		RCC_BDCR |= RCC_BDCR_LSEON;
 8000c40:	4a06      	ldr	r2, [pc, #24]	; (8000c5c <rcc_osc_on+0x68>)
 8000c42:	6813      	ldr	r3, [r2, #0]
 8000c44:	f043 0301 	orr.w	r3, r3, #1
 8000c48:	6013      	str	r3, [r2, #0]
		break;
 8000c4a:	4770      	bx	lr
	case LSI:
		RCC_CSR |= RCC_CSR_LSION;
 8000c4c:	4a04      	ldr	r2, [pc, #16]	; (8000c60 <rcc_osc_on+0x6c>)
 8000c4e:	6813      	ldr	r3, [r2, #0]
 8000c50:	f043 0301 	orr.w	r3, r3, #1
 8000c54:	6013      	str	r3, [r2, #0]
		break;
	}
}
 8000c56:	4770      	bx	lr
 8000c58:	40021000 	.word	0x40021000
 8000c5c:	40021020 	.word	0x40021020
 8000c60:	40021024 	.word	0x40021024

08000c64 <rcc_set_sysclk_source>:
@param[in] clk Unsigned int32. System Clock Selection @ref rcc_cfgr_scs
*/

void rcc_set_sysclk_source(uint32_t clk)
{
	RCC_CFGR = (RCC_CFGR & ~RCC_CFGR_SW) |
 8000c64:	4a03      	ldr	r2, [pc, #12]	; (8000c74 <rcc_set_sysclk_source+0x10>)
 8000c66:	6813      	ldr	r3, [r2, #0]
 8000c68:	f023 0303 	bic.w	r3, r3, #3
 8000c6c:	4318      	orrs	r0, r3
 8000c6e:	6010      	str	r0, [r2, #0]
			(clk << RCC_CFGR_SW_SHIFT);
}
 8000c70:	4770      	bx	lr
 8000c72:	bf00      	nop
 8000c74:	40021004 	.word	0x40021004

08000c78 <rcc_set_pll_multiplication_factor>:
@param[in] mul Unsigned int32. PLL multiplication factor @ref rcc_cfgr_pmf
*/

void rcc_set_pll_multiplication_factor(uint32_t mul)
{
	RCC_CFGR = (RCC_CFGR & ~RCC_CFGR_PLLMUL) |
 8000c78:	4a03      	ldr	r2, [pc, #12]	; (8000c88 <rcc_set_pll_multiplication_factor+0x10>)
 8000c7a:	6813      	ldr	r3, [r2, #0]
 8000c7c:	f423 1370 	bic.w	r3, r3, #3932160	; 0x3c0000
 8000c80:	ea43 4080 	orr.w	r0, r3, r0, lsl #18
 8000c84:	6010      	str	r0, [r2, #0]
			(mul << RCC_CFGR_PLLMUL_SHIFT);
}
 8000c86:	4770      	bx	lr
 8000c88:	40021004 	.word	0x40021004

08000c8c <rcc_set_pll_source>:
@param[in] pllsrc Unsigned int32. PLL clock source @ref rcc_cfgr_pcs
*/

void rcc_set_pll_source(uint32_t pllsrc)
{
	RCC_CFGR = (RCC_CFGR & ~RCC_CFGR_PLLSRC) |
 8000c8c:	4a03      	ldr	r2, [pc, #12]	; (8000c9c <rcc_set_pll_source+0x10>)
 8000c8e:	6813      	ldr	r3, [r2, #0]
 8000c90:	f423 3380 	bic.w	r3, r3, #65536	; 0x10000
 8000c94:	ea43 4000 	orr.w	r0, r3, r0, lsl #16
 8000c98:	6010      	str	r0, [r2, #0]
			(pllsrc << 16);
}
 8000c9a:	4770      	bx	lr
 8000c9c:	40021004 	.word	0x40021004

08000ca0 <rcc_set_pllxtpre>:
@param[in] pllxtpre Unsigned int32. HSE division factor @ref rcc_cfgr_hsepre
*/

void rcc_set_pllxtpre(uint32_t pllxtpre)
{
	RCC_CFGR = (RCC_CFGR & ~RCC_CFGR_PLLXTPRE) |
 8000ca0:	4a03      	ldr	r2, [pc, #12]	; (8000cb0 <rcc_set_pllxtpre+0x10>)
 8000ca2:	6813      	ldr	r3, [r2, #0]
 8000ca4:	f423 3300 	bic.w	r3, r3, #131072	; 0x20000
 8000ca8:	ea43 4040 	orr.w	r0, r3, r0, lsl #17
 8000cac:	6010      	str	r0, [r2, #0]
			(pllxtpre << 17);
}
 8000cae:	4770      	bx	lr
 8000cb0:	40021004 	.word	0x40021004

08000cb4 <rcc_enable_rtc_clock>:

*/

void rcc_enable_rtc_clock(void)
{
	RCC_BDCR |= RCC_BDCR_RTCEN;
 8000cb4:	4a02      	ldr	r2, [pc, #8]	; (8000cc0 <rcc_enable_rtc_clock+0xc>)
 8000cb6:	6813      	ldr	r3, [r2, #0]
 8000cb8:	f443 4300 	orr.w	r3, r3, #32768	; 0x8000
 8000cbc:	6013      	str	r3, [r2, #0]
}
 8000cbe:	4770      	bx	lr
 8000cc0:	40021020 	.word	0x40021020

08000cc4 <rcc_set_rtc_clock_source>:

void rcc_set_rtc_clock_source(enum rcc_osc clock_source)
{
	uint32_t reg32;

	switch (clock_source) {
 8000cc4:	2806      	cmp	r0, #6
 8000cc6:	d846      	bhi.n	8000d56 <rcc_set_rtc_clock_source+0x92>
 8000cc8:	e8df f000 	tbb	[pc, r0]
 8000ccc:	2c404040 	.word	0x2c404040
 8000cd0:	0440      	.short	0x0440
 8000cd2:	18          	.byte	0x18
 8000cd3:	00          	.byte	0x00
	case LSE:
		/* Turn the LSE on and wait while it stabilises. */
		RCC_BDCR |= RCC_BDCR_LSEON;
 8000cd4:	4a20      	ldr	r2, [pc, #128]	; (8000d58 <rcc_set_rtc_clock_source+0x94>)
 8000cd6:	6813      	ldr	r3, [r2, #0]
 8000cd8:	f043 0301 	orr.w	r3, r3, #1
 8000cdc:	6013      	str	r3, [r2, #0]
		while ((reg32 = (RCC_BDCR & RCC_BDCR_LSERDY)) == 0);
 8000cde:	4b1e      	ldr	r3, [pc, #120]	; (8000d58 <rcc_set_rtc_clock_source+0x94>)
 8000ce0:	681b      	ldr	r3, [r3, #0]
 8000ce2:	f013 0f02 	tst.w	r3, #2
 8000ce6:	d0fa      	beq.n	8000cde <rcc_set_rtc_clock_source+0x1a>

		/* Choose LSE as the RTC clock source. */
		RCC_BDCR &= ~((1 << 8) | (1 << 9));
 8000ce8:	4b1b      	ldr	r3, [pc, #108]	; (8000d58 <rcc_set_rtc_clock_source+0x94>)
 8000cea:	681a      	ldr	r2, [r3, #0]
 8000cec:	f422 7240 	bic.w	r2, r2, #768	; 0x300
 8000cf0:	601a      	str	r2, [r3, #0]
		RCC_BDCR |= (1 << 8);
 8000cf2:	681a      	ldr	r2, [r3, #0]
 8000cf4:	f442 7280 	orr.w	r2, r2, #256	; 0x100
 8000cf8:	601a      	str	r2, [r3, #0]
		break;
 8000cfa:	4770      	bx	lr
	case LSI:
		/* Turn the LSI on and wait while it stabilises. */
		RCC_CSR |= RCC_CSR_LSION;
 8000cfc:	4a17      	ldr	r2, [pc, #92]	; (8000d5c <rcc_set_rtc_clock_source+0x98>)
 8000cfe:	6813      	ldr	r3, [r2, #0]
 8000d00:	f043 0301 	orr.w	r3, r3, #1
 8000d04:	6013      	str	r3, [r2, #0]
		while ((reg32 = (RCC_CSR & RCC_CSR_LSIRDY)) == 0);
 8000d06:	4b15      	ldr	r3, [pc, #84]	; (8000d5c <rcc_set_rtc_clock_source+0x98>)
 8000d08:	681b      	ldr	r3, [r3, #0]
 8000d0a:	f013 0f02 	tst.w	r3, #2
 8000d0e:	d0fa      	beq.n	8000d06 <rcc_set_rtc_clock_source+0x42>

		/* Choose LSI as the RTC clock source. */
		RCC_BDCR &= ~((1 << 8) | (1 << 9));
 8000d10:	4b11      	ldr	r3, [pc, #68]	; (8000d58 <rcc_set_rtc_clock_source+0x94>)
 8000d12:	681a      	ldr	r2, [r3, #0]
 8000d14:	f422 7240 	bic.w	r2, r2, #768	; 0x300
 8000d18:	601a      	str	r2, [r3, #0]
		RCC_BDCR |= (1 << 9);
 8000d1a:	681a      	ldr	r2, [r3, #0]
 8000d1c:	f442 7200 	orr.w	r2, r2, #512	; 0x200
 8000d20:	601a      	str	r2, [r3, #0]
		break;
 8000d22:	4770      	bx	lr
	case HSE:
		/* Turn the HSE on and wait while it stabilises. */
		RCC_CR |= RCC_CR_HSEON;
 8000d24:	4a0e      	ldr	r2, [pc, #56]	; (8000d60 <rcc_set_rtc_clock_source+0x9c>)
 8000d26:	6813      	ldr	r3, [r2, #0]
 8000d28:	f443 3380 	orr.w	r3, r3, #65536	; 0x10000
 8000d2c:	6013      	str	r3, [r2, #0]
		while ((reg32 = (RCC_CR & RCC_CR_HSERDY)) == 0);
 8000d2e:	4b0c      	ldr	r3, [pc, #48]	; (8000d60 <rcc_set_rtc_clock_source+0x9c>)
 8000d30:	681b      	ldr	r3, [r3, #0]
 8000d32:	f413 3f00 	tst.w	r3, #131072	; 0x20000
 8000d36:	d0fa      	beq.n	8000d2e <rcc_set_rtc_clock_source+0x6a>

		/* Choose HSE as the RTC clock source. */
		RCC_BDCR &= ~((1 << 8) | (1 << 9));
 8000d38:	4b07      	ldr	r3, [pc, #28]	; (8000d58 <rcc_set_rtc_clock_source+0x94>)
 8000d3a:	681a      	ldr	r2, [r3, #0]
 8000d3c:	f422 7240 	bic.w	r2, r2, #768	; 0x300
 8000d40:	601a      	str	r2, [r3, #0]
		RCC_BDCR |= (1 << 9) | (1 << 8);
 8000d42:	681a      	ldr	r2, [r3, #0]
 8000d44:	f442 7240 	orr.w	r2, r2, #768	; 0x300
 8000d48:	601a      	str	r2, [r3, #0]
		break;
 8000d4a:	4770      	bx	lr
	case PLL2:
	case PLL3:
	case HSI:
		/* Unusable clock source, here to prevent warnings. */
		/* Turn off clock sources to RTC. */
		RCC_BDCR &= ~((1 << 8) | (1 << 9));
 8000d4c:	4a02      	ldr	r2, [pc, #8]	; (8000d58 <rcc_set_rtc_clock_source+0x94>)
 8000d4e:	6813      	ldr	r3, [r2, #0]
 8000d50:	f423 7340 	bic.w	r3, r3, #768	; 0x300
 8000d54:	6013      	str	r3, [r2, #0]
		break;
	}
}
 8000d56:	4770      	bx	lr
 8000d58:	40021020 	.word	0x40021020
 8000d5c:	40021024 	.word	0x40021024
 8000d60:	40021000 	.word	0x40021000

08000d64 <rcc_set_adcpre>:
@param[in] adcpre uint32_t. Prescale divider taken from @ref rcc_cfgr_adcpre
*/

void rcc_set_adcpre(uint32_t adcpre)
{
	RCC_CFGR = (RCC_CFGR & ~RCC_CFGR_ADCPRE) |
 8000d64:	4a03      	ldr	r2, [pc, #12]	; (8000d74 <rcc_set_adcpre+0x10>)
 8000d66:	6813      	ldr	r3, [r2, #0]
 8000d68:	f423 4340 	bic.w	r3, r3, #49152	; 0xc000
 8000d6c:	ea43 3080 	orr.w	r0, r3, r0, lsl #14
 8000d70:	6010      	str	r0, [r2, #0]
			(adcpre << RCC_CFGR_ADCPRE_SHIFT);
}
 8000d72:	4770      	bx	lr
 8000d74:	40021004 	.word	0x40021004

08000d78 <rcc_set_ppre2>:
@param[in] ppre2 Unsigned int32. APB2 prescale factor @ref rcc_cfgr_apb2pre
*/

void rcc_set_ppre2(uint32_t ppre2)
{
	RCC_CFGR = (RCC_CFGR & ~RCC_CFGR_PPRE2) |
 8000d78:	4a03      	ldr	r2, [pc, #12]	; (8000d88 <rcc_set_ppre2+0x10>)
 8000d7a:	6813      	ldr	r3, [r2, #0]
 8000d7c:	f423 5360 	bic.w	r3, r3, #14336	; 0x3800
 8000d80:	ea43 20c0 	orr.w	r0, r3, r0, lsl #11
 8000d84:	6010      	str	r0, [r2, #0]
			(ppre2 << RCC_CFGR_PPRE2_SHIFT);
}
 8000d86:	4770      	bx	lr
 8000d88:	40021004 	.word	0x40021004

08000d8c <rcc_set_ppre1>:
@param[in] ppre1 Unsigned int32. APB1 prescale factor @ref rcc_cfgr_apb1pre
*/

void rcc_set_ppre1(uint32_t ppre1)
{
	RCC_CFGR = (RCC_CFGR & ~RCC_CFGR_PPRE1) |
 8000d8c:	4a03      	ldr	r2, [pc, #12]	; (8000d9c <rcc_set_ppre1+0x10>)
 8000d8e:	6813      	ldr	r3, [r2, #0]
 8000d90:	f423 63e0 	bic.w	r3, r3, #1792	; 0x700
 8000d94:	ea43 2000 	orr.w	r0, r3, r0, lsl #8
 8000d98:	6010      	str	r0, [r2, #0]
			(ppre1 << RCC_CFGR_PPRE1_SHIFT);

}
 8000d9a:	4770      	bx	lr
 8000d9c:	40021004 	.word	0x40021004

08000da0 <rcc_set_hpre>:
@param[in] hpre Unsigned int32. AHB prescale factor @ref rcc_cfgr_ahbpre
*/

void rcc_set_hpre(uint32_t hpre)
{
	RCC_CFGR = (RCC_CFGR & ~RCC_CFGR_HPRE) |
 8000da0:	4a03      	ldr	r2, [pc, #12]	; (8000db0 <rcc_set_hpre+0x10>)
 8000da2:	6813      	ldr	r3, [r2, #0]
 8000da4:	f023 03f0 	bic.w	r3, r3, #240	; 0xf0
 8000da8:	ea43 1000 	orr.w	r0, r3, r0, lsl #4
 8000dac:	6010      	str	r0, [r2, #0]
			(hpre << RCC_CFGR_HPRE_SHIFT);

}
 8000dae:	4770      	bx	lr
 8000db0:	40021004 	.word	0x40021004

08000db4 <rcc_clock_setup_in_hse_8mhz_out_72mhz>:
/** @brief RCC Set System Clock PLL at 72MHz from HSE at 8MHz

*/

void rcc_clock_setup_in_hse_8mhz_out_72mhz(void)
{
 8000db4:	b508      	push	{r3, lr}
	/* Enable internal high-speed oscillator. */
	rcc_osc_on(HSI);
 8000db6:	2004      	movs	r0, #4
 8000db8:	f7ff ff1c 	bl	8000bf4 <rcc_osc_on>
	rcc_wait_for_osc_ready(HSI);
 8000dbc:	2004      	movs	r0, #4
 8000dbe:	f7ff fee1 	bl	8000b84 <rcc_wait_for_osc_ready>

	/* Select HSI as SYSCLK source. */
	rcc_set_sysclk_source(RCC_CFGR_SW_SYSCLKSEL_HSICLK);
 8000dc2:	2000      	movs	r0, #0
 8000dc4:	f7ff ff4e 	bl	8000c64 <rcc_set_sysclk_source>

	/* Enable external high-speed oscillator 8MHz. */
	rcc_osc_on(HSE);
 8000dc8:	2003      	movs	r0, #3
 8000dca:	f7ff ff13 	bl	8000bf4 <rcc_osc_on>
	rcc_wait_for_osc_ready(HSE);
 8000dce:	2003      	movs	r0, #3
 8000dd0:	f7ff fed8 	bl	8000b84 <rcc_wait_for_osc_ready>
	rcc_set_sysclk_source(RCC_CFGR_SW_SYSCLKSEL_HSECLK);
 8000dd4:	2001      	movs	r0, #1
 8000dd6:	f7ff ff45 	bl	8000c64 <rcc_set_sysclk_source>

	/*
	 * Set prescalers for AHB, ADC, ABP1, ABP2.
	 * Do this before touching the PLL (TODO: why?).
	 */
	rcc_set_hpre(RCC_CFGR_HPRE_SYSCLK_NODIV);    /* Set. 72MHz Max. 72MHz */
 8000dda:	2000      	movs	r0, #0
 8000ddc:	f7ff ffe0 	bl	8000da0 <rcc_set_hpre>
	rcc_set_adcpre(RCC_CFGR_ADCPRE_PCLK2_DIV8);  /* Set.  9MHz Max. 14MHz */
 8000de0:	2003      	movs	r0, #3
 8000de2:	f7ff ffbf 	bl	8000d64 <rcc_set_adcpre>
	rcc_set_ppre1(RCC_CFGR_PPRE1_HCLK_DIV2);     /* Set. 36MHz Max. 36MHz */
 8000de6:	2004      	movs	r0, #4
 8000de8:	f7ff ffd0 	bl	8000d8c <rcc_set_ppre1>
	rcc_set_ppre2(RCC_CFGR_PPRE2_HCLK_NODIV);    /* Set. 72MHz Max. 72MHz */
 8000dec:	2000      	movs	r0, #0
 8000dee:	f7ff ffc3 	bl	8000d78 <rcc_set_ppre2>
	 * Sysclk runs with 72MHz -> 2 waitstates.
	 * 0WS from 0-24MHz
	 * 1WS from 24-48MHz
	 * 2WS from 48-72MHz
	 */
	flash_set_ws(FLASH_ACR_LATENCY_2WS);
 8000df2:	2002      	movs	r0, #2
 8000df4:	f000 f93e 	bl	8001074 <flash_set_ws>

	/*
	 * Set the PLL multiplication factor to 9.
	 * 8MHz (external) * 9 (multiplier) = 72MHz
	 */
	rcc_set_pll_multiplication_factor(RCC_CFGR_PLLMUL_PLL_CLK_MUL9);
 8000df8:	2007      	movs	r0, #7
 8000dfa:	f7ff ff3d 	bl	8000c78 <rcc_set_pll_multiplication_factor>

	/* Select HSE as PLL source. */
	rcc_set_pll_source(RCC_CFGR_PLLSRC_HSE_CLK);
 8000dfe:	2001      	movs	r0, #1
 8000e00:	f7ff ff44 	bl	8000c8c <rcc_set_pll_source>

	/*
	 * External frequency undivided before entering PLL
	 * (only valid/needed for HSE).
	 */
	rcc_set_pllxtpre(RCC_CFGR_PLLXTPRE_HSE_CLK);
 8000e04:	2000      	movs	r0, #0
 8000e06:	f7ff ff4b 	bl	8000ca0 <rcc_set_pllxtpre>

	/* Enable PLL oscillator and wait for it to stabilize. */
	rcc_osc_on(PLL);
 8000e0a:	2000      	movs	r0, #0
 8000e0c:	f7ff fef2 	bl	8000bf4 <rcc_osc_on>
	rcc_wait_for_osc_ready(PLL);
 8000e10:	2000      	movs	r0, #0
 8000e12:	f7ff feb7 	bl	8000b84 <rcc_wait_for_osc_ready>

	/* Select PLL as SYSCLK source. */
	rcc_set_sysclk_source(RCC_CFGR_SW_SYSCLKSEL_PLLCLK);
 8000e16:	2002      	movs	r0, #2
 8000e18:	f7ff ff24 	bl	8000c64 <rcc_set_sysclk_source>

	/* Set the peripheral clock frequencies used */
	rcc_ahb_frequency = 72000000;
 8000e1c:	4b04      	ldr	r3, [pc, #16]	; (8000e30 <rcc_clock_setup_in_hse_8mhz_out_72mhz+0x7c>)
 8000e1e:	4a05      	ldr	r2, [pc, #20]	; (8000e34 <rcc_clock_setup_in_hse_8mhz_out_72mhz+0x80>)
 8000e20:	6013      	str	r3, [r2, #0]
	rcc_apb1_frequency = 36000000;
 8000e22:	4a05      	ldr	r2, [pc, #20]	; (8000e38 <rcc_clock_setup_in_hse_8mhz_out_72mhz+0x84>)
 8000e24:	4905      	ldr	r1, [pc, #20]	; (8000e3c <rcc_clock_setup_in_hse_8mhz_out_72mhz+0x88>)
 8000e26:	6011      	str	r1, [r2, #0]
	rcc_apb2_frequency = 72000000;
 8000e28:	4a05      	ldr	r2, [pc, #20]	; (8000e40 <rcc_clock_setup_in_hse_8mhz_out_72mhz+0x8c>)
 8000e2a:	6013      	str	r3, [r2, #0]
}
 8000e2c:	bd08      	pop	{r3, pc}
 8000e2e:	bf00      	nop
 8000e30:	044aa200 	.word	0x044aa200
 8000e34:	20000008 	.word	0x20000008
 8000e38:	2000000c 	.word	0x2000000c
 8000e3c:	02255100 	.word	0x02255100
 8000e40:	20000010 	.word	0x20000010

08000e44 <rtc_enter_config_mode>:
Prime the RTC for configuration changes by giving access to the prescaler,
and counter and alarm registers.
*/

void rtc_enter_config_mode(void)
{
 8000e44:	b082      	sub	sp, #8
	volatile uint32_t reg32;  ////  Added volatile.

	/* Wait until the RTOFF bit is 1 (no RTC register writes ongoing). */
	while ((reg32 = (RTC_CRL & RTC_CRL_RTOFF)) == 0);
 8000e46:	4b07      	ldr	r3, [pc, #28]	; (8000e64 <rtc_enter_config_mode+0x20>)
 8000e48:	681b      	ldr	r3, [r3, #0]
 8000e4a:	f003 0320 	and.w	r3, r3, #32
 8000e4e:	9301      	str	r3, [sp, #4]
 8000e50:	2b00      	cmp	r3, #0
 8000e52:	d0f8      	beq.n	8000e46 <rtc_enter_config_mode+0x2>

	/* Enter configuration mode. */
	RTC_CRL |= RTC_CRL_CNF;
 8000e54:	4a03      	ldr	r2, [pc, #12]	; (8000e64 <rtc_enter_config_mode+0x20>)
 8000e56:	6813      	ldr	r3, [r2, #0]
 8000e58:	f043 0310 	orr.w	r3, r3, #16
 8000e5c:	6013      	str	r3, [r2, #0]
}
 8000e5e:	b002      	add	sp, #8
 8000e60:	4770      	bx	lr
 8000e62:	bf00      	nop
 8000e64:	40002804 	.word	0x40002804

08000e68 <rtc_exit_config_mode>:

Revert the RTC to operational state.
*/

void rtc_exit_config_mode(void)
{
 8000e68:	b082      	sub	sp, #8
	volatile uint32_t reg32;  ////  Added volatile.

	/* Exit configuration mode. */
	RTC_CRL &= ~RTC_CRL_CNF;
 8000e6a:	4a07      	ldr	r2, [pc, #28]	; (8000e88 <rtc_exit_config_mode+0x20>)
 8000e6c:	6813      	ldr	r3, [r2, #0]
 8000e6e:	f023 0310 	bic.w	r3, r3, #16
 8000e72:	6013      	str	r3, [r2, #0]

	/* Wait until the RTOFF bit is 1 (our RTC register write finished). */
	while ((reg32 = (RTC_CRL & RTC_CRL_RTOFF)) == 0);
 8000e74:	4b04      	ldr	r3, [pc, #16]	; (8000e88 <rtc_exit_config_mode+0x20>)
 8000e76:	681b      	ldr	r3, [r3, #0]
 8000e78:	f003 0320 	and.w	r3, r3, #32
 8000e7c:	9301      	str	r3, [sp, #4]
 8000e7e:	2b00      	cmp	r3, #0
 8000e80:	d0f8      	beq.n	8000e74 <rtc_exit_config_mode+0xc>
}
 8000e82:	b002      	add	sp, #8
 8000e84:	4770      	bx	lr
 8000e86:	bf00      	nop
 8000e88:	40002804 	.word	0x40002804

08000e8c <rtc_set_alarm_time>:

@param[in] alarm_time uint32_t. time at which the alarm event is triggered.
*/

void rtc_set_alarm_time(uint32_t alarm_time)
{
 8000e8c:	b510      	push	{r4, lr}
 8000e8e:	4604      	mov	r4, r0
	rtc_enter_config_mode();
 8000e90:	f7ff ffd8 	bl	8000e44 <rtc_enter_config_mode>
	RTC_ALRL = (alarm_time & 0x0000ffff);
 8000e94:	b2a2      	uxth	r2, r4
 8000e96:	4b04      	ldr	r3, [pc, #16]	; (8000ea8 <rtc_set_alarm_time+0x1c>)
 8000e98:	601a      	str	r2, [r3, #0]
	RTC_ALRH = (alarm_time & 0xffff0000) >> 16;
 8000e9a:	0c24      	lsrs	r4, r4, #16
 8000e9c:	3b04      	subs	r3, #4
 8000e9e:	601c      	str	r4, [r3, #0]
	rtc_exit_config_mode();
 8000ea0:	f7ff ffe2 	bl	8000e68 <rtc_exit_config_mode>
}
 8000ea4:	bd10      	pop	{r4, pc}
 8000ea6:	bf00      	nop
 8000ea8:	40002824 	.word	0x40002824

08000eac <rtc_set_prescale_val>:

@param[in] prescale_val uint32_t. 20 bit prescale divider.
*/

void rtc_set_prescale_val(uint32_t prescale_val)
{
 8000eac:	b510      	push	{r4, lr}
 8000eae:	4604      	mov	r4, r0
	rtc_enter_config_mode();
 8000eb0:	f7ff ffc8 	bl	8000e44 <rtc_enter_config_mode>
	RTC_PRLL = prescale_val & 0x0000ffff;         /* PRL[15:0] */
 8000eb4:	b2a2      	uxth	r2, r4
 8000eb6:	4b04      	ldr	r3, [pc, #16]	; (8000ec8 <rtc_set_prescale_val+0x1c>)
 8000eb8:	601a      	str	r2, [r3, #0]
	RTC_PRLH = (prescale_val & 0x000f0000) >> 16; /* PRL[19:16] */
 8000eba:	f3c4 4403 	ubfx	r4, r4, #16, #4
 8000ebe:	3b04      	subs	r3, #4
 8000ec0:	601c      	str	r4, [r3, #0]
	rtc_exit_config_mode();
 8000ec2:	f7ff ffd1 	bl	8000e68 <rtc_exit_config_mode>
}
 8000ec6:	bd10      	pop	{r4, pc}
 8000ec8:	4000280c 	.word	0x4000280c

08000ecc <rtc_get_counter_val>:
@returns uint32_t: the 32 bit counter value.
*/

uint32_t rtc_get_counter_val(void)
{
	return (RTC_CNTH << 16) | RTC_CNTL;
 8000ecc:	4b03      	ldr	r3, [pc, #12]	; (8000edc <rtc_get_counter_val+0x10>)
 8000ece:	6818      	ldr	r0, [r3, #0]
 8000ed0:	3304      	adds	r3, #4
 8000ed2:	681b      	ldr	r3, [r3, #0]
}
 8000ed4:	ea43 4000 	orr.w	r0, r3, r0, lsl #16
 8000ed8:	4770      	bx	lr
 8000eda:	bf00      	nop
 8000edc:	40002818 	.word	0x40002818

08000ee0 <rtc_set_counter_val>:

@param[in] uint32_t counter_val: 32 bit time setting for the counter.
*/

void rtc_set_counter_val(uint32_t counter_val)
{
 8000ee0:	b510      	push	{r4, lr}
 8000ee2:	4604      	mov	r4, r0
	rtc_enter_config_mode();
 8000ee4:	f7ff ffae 	bl	8000e44 <rtc_enter_config_mode>
	RTC_CNTH = (counter_val & 0xffff0000) >> 16; /* CNT[31:16] */
 8000ee8:	0c22      	lsrs	r2, r4, #16
 8000eea:	4b04      	ldr	r3, [pc, #16]	; (8000efc <rtc_set_counter_val+0x1c>)
 8000eec:	601a      	str	r2, [r3, #0]
	RTC_CNTL = counter_val & 0x0000ffff;         /* CNT[15:0] */
 8000eee:	b2a4      	uxth	r4, r4
 8000ef0:	3304      	adds	r3, #4
 8000ef2:	601c      	str	r4, [r3, #0]
	rtc_exit_config_mode();
 8000ef4:	f7ff ffb8 	bl	8000e68 <rtc_exit_config_mode>
}
 8000ef8:	bd10      	pop	{r4, pc}
 8000efa:	bf00      	nop
 8000efc:	40002818 	.word	0x40002818

08000f00 <rtc_interrupt_enable>:

@param[in] flag_val ::rtcflag_t: The flag to enable.
*/

void rtc_interrupt_enable(rtcflag_t flag_val)
{
 8000f00:	b510      	push	{r4, lr}
 8000f02:	4604      	mov	r4, r0
	rtc_enter_config_mode();
 8000f04:	f7ff ff9e 	bl	8000e44 <rtc_enter_config_mode>

	/* Set the correct interrupt enable. */
	switch (flag_val) {
 8000f08:	2c01      	cmp	r4, #1
 8000f0a:	d00b      	beq.n	8000f24 <rtc_interrupt_enable+0x24>
 8000f0c:	b124      	cbz	r4, 8000f18 <rtc_interrupt_enable+0x18>
 8000f0e:	2c02      	cmp	r4, #2
 8000f10:	d00e      	beq.n	8000f30 <rtc_interrupt_enable+0x30>
	case RTC_OW:
		RTC_CRH |= RTC_CRH_OWIE;
		break;
	}

	rtc_exit_config_mode();
 8000f12:	f7ff ffa9 	bl	8000e68 <rtc_exit_config_mode>
}
 8000f16:	bd10      	pop	{r4, pc}
		RTC_CRH |= RTC_CRH_SECIE;
 8000f18:	4a08      	ldr	r2, [pc, #32]	; (8000f3c <rtc_interrupt_enable+0x3c>)
 8000f1a:	6813      	ldr	r3, [r2, #0]
 8000f1c:	f043 0301 	orr.w	r3, r3, #1
 8000f20:	6013      	str	r3, [r2, #0]
		break;
 8000f22:	e7f6      	b.n	8000f12 <rtc_interrupt_enable+0x12>
		RTC_CRH |= RTC_CRH_ALRIE;
 8000f24:	4a05      	ldr	r2, [pc, #20]	; (8000f3c <rtc_interrupt_enable+0x3c>)
 8000f26:	6813      	ldr	r3, [r2, #0]
 8000f28:	f043 0302 	orr.w	r3, r3, #2
 8000f2c:	6013      	str	r3, [r2, #0]
		break;
 8000f2e:	e7f0      	b.n	8000f12 <rtc_interrupt_enable+0x12>
		RTC_CRH |= RTC_CRH_OWIE;
 8000f30:	4a02      	ldr	r2, [pc, #8]	; (8000f3c <rtc_interrupt_enable+0x3c>)
 8000f32:	6813      	ldr	r3, [r2, #0]
 8000f34:	f043 0304 	orr.w	r3, r3, #4
 8000f38:	6013      	str	r3, [r2, #0]
		break;
 8000f3a:	e7ea      	b.n	8000f12 <rtc_interrupt_enable+0x12>
 8000f3c:	40002800 	.word	0x40002800

08000f40 <rtc_interrupt_disable>:

@param[in] flag_val ::rtcflag_t: The flag to disable.
*/

void rtc_interrupt_disable(rtcflag_t flag_val)
{
 8000f40:	b510      	push	{r4, lr}
 8000f42:	4604      	mov	r4, r0
	rtc_enter_config_mode();
 8000f44:	f7ff ff7e 	bl	8000e44 <rtc_enter_config_mode>

	/* Disable the correct interrupt enable. */
	switch (flag_val) {
 8000f48:	2c01      	cmp	r4, #1
 8000f4a:	d00b      	beq.n	8000f64 <rtc_interrupt_disable+0x24>
 8000f4c:	b124      	cbz	r4, 8000f58 <rtc_interrupt_disable+0x18>
 8000f4e:	2c02      	cmp	r4, #2
 8000f50:	d00e      	beq.n	8000f70 <rtc_interrupt_disable+0x30>
	case RTC_OW:
		RTC_CRH &= ~RTC_CRH_OWIE;
		break;
	}

	rtc_exit_config_mode();
 8000f52:	f7ff ff89 	bl	8000e68 <rtc_exit_config_mode>
}
 8000f56:	bd10      	pop	{r4, pc}
		RTC_CRH &= ~RTC_CRH_SECIE;
 8000f58:	4a08      	ldr	r2, [pc, #32]	; (8000f7c <rtc_interrupt_disable+0x3c>)
 8000f5a:	6813      	ldr	r3, [r2, #0]
 8000f5c:	f023 0301 	bic.w	r3, r3, #1
 8000f60:	6013      	str	r3, [r2, #0]
		break;
 8000f62:	e7f6      	b.n	8000f52 <rtc_interrupt_disable+0x12>
		RTC_CRH &= ~RTC_CRH_ALRIE;
 8000f64:	4a05      	ldr	r2, [pc, #20]	; (8000f7c <rtc_interrupt_disable+0x3c>)
 8000f66:	6813      	ldr	r3, [r2, #0]
 8000f68:	f023 0302 	bic.w	r3, r3, #2
 8000f6c:	6013      	str	r3, [r2, #0]
		break;
 8000f6e:	e7f0      	b.n	8000f52 <rtc_interrupt_disable+0x12>
		RTC_CRH &= ~RTC_CRH_OWIE;
 8000f70:	4a02      	ldr	r2, [pc, #8]	; (8000f7c <rtc_interrupt_disable+0x3c>)
 8000f72:	6813      	ldr	r3, [r2, #0]
 8000f74:	f023 0304 	bic.w	r3, r3, #4
 8000f78:	6013      	str	r3, [r2, #0]
		break;
 8000f7a:	e7ea      	b.n	8000f52 <rtc_interrupt_disable+0x12>
 8000f7c:	40002800 	.word	0x40002800

08000f80 <rtc_clear_flag>:
void rtc_clear_flag(rtcflag_t flag_val)
{
	/* Configuration mode not needed. */

	/* Clear the correct flag. */
	switch (flag_val) {
 8000f80:	2801      	cmp	r0, #1
 8000f82:	d009      	beq.n	8000f98 <rtc_clear_flag+0x18>
 8000f84:	b110      	cbz	r0, 8000f8c <rtc_clear_flag+0xc>
 8000f86:	2802      	cmp	r0, #2
 8000f88:	d00c      	beq.n	8000fa4 <rtc_clear_flag+0x24>
 8000f8a:	4770      	bx	lr
	case RTC_SEC:
		RTC_CRL &= ~RTC_CRL_SECF;
 8000f8c:	4a08      	ldr	r2, [pc, #32]	; (8000fb0 <rtc_clear_flag+0x30>)
 8000f8e:	6813      	ldr	r3, [r2, #0]
 8000f90:	f023 0301 	bic.w	r3, r3, #1
 8000f94:	6013      	str	r3, [r2, #0]
		break;
 8000f96:	4770      	bx	lr
	case RTC_ALR:
		RTC_CRL &= ~RTC_CRL_ALRF;
 8000f98:	4a05      	ldr	r2, [pc, #20]	; (8000fb0 <rtc_clear_flag+0x30>)
 8000f9a:	6813      	ldr	r3, [r2, #0]
 8000f9c:	f023 0302 	bic.w	r3, r3, #2
 8000fa0:	6013      	str	r3, [r2, #0]
		break;
 8000fa2:	4770      	bx	lr
	case RTC_OW:
		RTC_CRL &= ~RTC_CRL_OWF;
 8000fa4:	4a02      	ldr	r2, [pc, #8]	; (8000fb0 <rtc_clear_flag+0x30>)
 8000fa6:	6813      	ldr	r3, [r2, #0]
 8000fa8:	f023 0304 	bic.w	r3, r3, #4
 8000fac:	6013      	str	r3, [r2, #0]
		break;
	}
}
 8000fae:	4770      	bx	lr
 8000fb0:	40002804 	.word	0x40002804

08000fb4 <rtc_check_flag>:
uint32_t rtc_check_flag(rtcflag_t flag_val)
{
	uint32_t reg32;

	/* Read correct flag. */
	switch (flag_val) {
 8000fb4:	2801      	cmp	r0, #1
 8000fb6:	d009      	beq.n	8000fcc <rtc_check_flag+0x18>
 8000fb8:	b118      	cbz	r0, 8000fc2 <rtc_check_flag+0xe>
 8000fba:	2802      	cmp	r0, #2
 8000fbc:	d00b      	beq.n	8000fd6 <rtc_check_flag+0x22>
		break;
	case RTC_OW:
		reg32 = RTC_CRL & RTC_CRL_OWF;
		break;
	default:
		reg32 = 0;
 8000fbe:	2000      	movs	r0, #0
		break;
	}

	return reg32;
}
 8000fc0:	4770      	bx	lr
		reg32 = RTC_CRL & RTC_CRL_SECF;
 8000fc2:	4b07      	ldr	r3, [pc, #28]	; (8000fe0 <rtc_check_flag+0x2c>)
 8000fc4:	6818      	ldr	r0, [r3, #0]
 8000fc6:	f000 0001 	and.w	r0, r0, #1
		break;
 8000fca:	4770      	bx	lr
		reg32 = RTC_CRL & RTC_CRL_ALRF;
 8000fcc:	4b04      	ldr	r3, [pc, #16]	; (8000fe0 <rtc_check_flag+0x2c>)
 8000fce:	6818      	ldr	r0, [r3, #0]
 8000fd0:	f000 0002 	and.w	r0, r0, #2
		break;
 8000fd4:	4770      	bx	lr
		reg32 = RTC_CRL & RTC_CRL_OWF;
 8000fd6:	4b02      	ldr	r3, [pc, #8]	; (8000fe0 <rtc_check_flag+0x2c>)
 8000fd8:	6818      	ldr	r0, [r3, #0]
 8000fda:	f000 0004 	and.w	r0, r0, #4
		break;
 8000fde:	4770      	bx	lr
 8000fe0:	40002804 	.word	0x40002804

08000fe4 <pwr_disable_backup_domain_write_protect>:
protected after a reset.
*/

void pwr_disable_backup_domain_write_protect(void)
{
	PWR_CR |= PWR_CR_DBP;
 8000fe4:	4a02      	ldr	r2, [pc, #8]	; (8000ff0 <pwr_disable_backup_domain_write_protect+0xc>)
 8000fe6:	6813      	ldr	r3, [r2, #0]
 8000fe8:	f443 7380 	orr.w	r3, r3, #256	; 0x100
 8000fec:	6013      	str	r3, [r2, #0]
}
 8000fee:	4770      	bx	lr
 8000ff0:	40007000 	.word	0x40007000

08000ff4 <pwr_enable_backup_domain_write_protect>:
This protects backup domain registers from inadvertent change.
*/

void pwr_enable_backup_domain_write_protect(void)
{
	PWR_CR &= ~PWR_CR_DBP;
 8000ff4:	4a02      	ldr	r2, [pc, #8]	; (8001000 <pwr_enable_backup_domain_write_protect+0xc>)
 8000ff6:	6813      	ldr	r3, [r2, #0]
 8000ff8:	f423 7380 	bic.w	r3, r3, #256	; 0x100
 8000ffc:	6013      	str	r3, [r2, #0]
}
 8000ffe:	4770      	bx	lr
 8001000:	40007000 	.word	0x40007000

08001004 <exti_set_trigger>:
#       include <libopencm3/stm32/syscfg.h>
#endif

void exti_set_trigger(uint32_t extis, enum exti_trigger_type trig)
{
	switch (trig) {
 8001004:	2901      	cmp	r1, #1
 8001006:	d00d      	beq.n	8001024 <exti_set_trigger+0x20>
 8001008:	b111      	cbz	r1, 8001010 <exti_set_trigger+0xc>
 800100a:	2902      	cmp	r1, #2
 800100c:	d014      	beq.n	8001038 <exti_set_trigger+0x34>
 800100e:	4770      	bx	lr
	case EXTI_TRIGGER_RISING:
		EXTI_RTSR |= extis;
 8001010:	4a0e      	ldr	r2, [pc, #56]	; (800104c <exti_set_trigger+0x48>)
 8001012:	6813      	ldr	r3, [r2, #0]
 8001014:	4303      	orrs	r3, r0
 8001016:	6013      	str	r3, [r2, #0]
		EXTI_FTSR &= ~extis;
 8001018:	3204      	adds	r2, #4
 800101a:	6813      	ldr	r3, [r2, #0]
 800101c:	ea23 0000 	bic.w	r0, r3, r0
 8001020:	6010      	str	r0, [r2, #0]
		break;
 8001022:	4770      	bx	lr
	case EXTI_TRIGGER_FALLING:
		EXTI_RTSR &= ~extis;
 8001024:	4a09      	ldr	r2, [pc, #36]	; (800104c <exti_set_trigger+0x48>)
 8001026:	6813      	ldr	r3, [r2, #0]
 8001028:	ea23 0300 	bic.w	r3, r3, r0
 800102c:	6013      	str	r3, [r2, #0]
		EXTI_FTSR |= extis;
 800102e:	3204      	adds	r2, #4
 8001030:	6813      	ldr	r3, [r2, #0]
 8001032:	4318      	orrs	r0, r3
 8001034:	6010      	str	r0, [r2, #0]
		break;
 8001036:	4770      	bx	lr
	case EXTI_TRIGGER_BOTH:
		EXTI_RTSR |= extis;
 8001038:	4a04      	ldr	r2, [pc, #16]	; (800104c <exti_set_trigger+0x48>)
 800103a:	6813      	ldr	r3, [r2, #0]
 800103c:	4303      	orrs	r3, r0
 800103e:	6013      	str	r3, [r2, #0]
		EXTI_FTSR |= extis;
 8001040:	3204      	adds	r2, #4
 8001042:	6813      	ldr	r3, [r2, #0]
 8001044:	4318      	orrs	r0, r3
 8001046:	6010      	str	r0, [r2, #0]
		break;
	}
}
 8001048:	4770      	bx	lr
 800104a:	bf00      	nop
 800104c:	40010408 	.word	0x40010408

08001050 <exti_enable_request>:

void exti_enable_request(uint32_t extis)
{
	/* Enable interrupts. */
	EXTI_IMR |= extis;
 8001050:	4a04      	ldr	r2, [pc, #16]	; (8001064 <exti_enable_request+0x14>)
 8001052:	6813      	ldr	r3, [r2, #0]
 8001054:	4303      	orrs	r3, r0
 8001056:	6013      	str	r3, [r2, #0]

	/* Enable events. */
	EXTI_EMR |= extis;
 8001058:	3204      	adds	r2, #4
 800105a:	6813      	ldr	r3, [r2, #0]
 800105c:	4318      	orrs	r0, r3
 800105e:	6010      	str	r0, [r2, #0]
}
 8001060:	4770      	bx	lr
 8001062:	bf00      	nop
 8001064:	40010400 	.word	0x40010400

08001068 <exti_reset_request>:
 * Reset the interrupt request by writing a 1 to the corresponding
 * pending bit register.
 */
void exti_reset_request(uint32_t extis)
{
	EXTI_PR = extis;
 8001068:	4b01      	ldr	r3, [pc, #4]	; (8001070 <exti_reset_request+0x8>)
 800106a:	6018      	str	r0, [r3, #0]
}
 800106c:	4770      	bx	lr
 800106e:	bf00      	nop
 8001070:	40010414 	.word	0x40010414

08001074 <flash_set_ws>:
@param[in] uint32_t ws: values from @ref flash_latency.
*/

void flash_set_ws(uint32_t ws)
{
	FLASH_ACR = (FLASH_ACR & ~FLASH_ACR_LATENCY) | ws;
 8001074:	4a03      	ldr	r2, [pc, #12]	; (8001084 <flash_set_ws+0x10>)
 8001076:	6813      	ldr	r3, [r2, #0]
 8001078:	f023 0307 	bic.w	r3, r3, #7
 800107c:	4318      	orrs	r0, r3
 800107e:	6010      	str	r0, [r2, #0]
}
 8001080:	4770      	bx	lr
 8001082:	bf00      	nop
 8001084:	40022000 	.word	0x40022000

08001088 <usbd_init>:
usbd_device *usbd_init(const usbd_driver *driver,
		       const struct usb_device_descriptor *dev,
		       const struct usb_config_descriptor *conf,
		       const char **strings, int num_strings,
		       uint8_t *control_buffer, uint16_t control_buffer_size)
{
 8001088:	b5f8      	push	{r3, r4, r5, r6, r7, lr}
 800108a:	4604      	mov	r4, r0
 800108c:	460f      	mov	r7, r1
 800108e:	4616      	mov	r6, r2
 8001090:	461d      	mov	r5, r3
	usbd_device *usbd_dev;

	usbd_dev = driver->init();
 8001092:	6803      	ldr	r3, [r0, #0]
 8001094:	4798      	blx	r3

	usbd_dev->driver = driver;
 8001096:	f8c0 40d8 	str.w	r4, [r0, #216]	; 0xd8
	usbd_dev->desc = dev;
 800109a:	6007      	str	r7, [r0, #0]
	usbd_dev->config = conf;
 800109c:	6046      	str	r6, [r0, #4]
	usbd_dev->strings = strings;
 800109e:	6085      	str	r5, [r0, #8]
	usbd_dev->num_strings = num_strings;
 80010a0:	9b06      	ldr	r3, [sp, #24]
 80010a2:	60c3      	str	r3, [r0, #12]
	usbd_dev->ctrl_buf = control_buffer;
 80010a4:	9b07      	ldr	r3, [sp, #28]
 80010a6:	6103      	str	r3, [r0, #16]
	usbd_dev->ctrl_buf_len = control_buffer_size;
 80010a8:	f8bd 3020 	ldrh.w	r3, [sp, #32]
 80010ac:	8283      	strh	r3, [r0, #20]

	usbd_dev->user_callback_ctr[0][USB_TRANSACTION_SETUP] =
 80010ae:	4b09      	ldr	r3, [pc, #36]	; (80010d4 <usbd_init+0x4c>)
 80010b0:	66c3      	str	r3, [r0, #108]	; 0x6c
	    _usbd_control_setup;
	usbd_dev->user_callback_ctr[0][USB_TRANSACTION_OUT] =
 80010b2:	4b09      	ldr	r3, [pc, #36]	; (80010d8 <usbd_init+0x50>)
 80010b4:	6683      	str	r3, [r0, #104]	; 0x68
	    _usbd_control_out;
	usbd_dev->user_callback_ctr[0][USB_TRANSACTION_IN] =
 80010b6:	4b09      	ldr	r3, [pc, #36]	; (80010dc <usbd_init+0x54>)
 80010b8:	6643      	str	r3, [r0, #100]	; 0x64
	    _usbd_control_in;

	int i;
	for (i = 0; i < MAX_USER_SET_CONFIG_CALLBACK; i++) {
 80010ba:	2300      	movs	r3, #0
 80010bc:	e006      	b.n	80010cc <usbd_init+0x44>
		usbd_dev->user_callback_set_config[i] = NULL;
 80010be:	f103 0230 	add.w	r2, r3, #48	; 0x30
 80010c2:	eb00 0282 	add.w	r2, r0, r2, lsl #2
 80010c6:	2100      	movs	r1, #0
 80010c8:	6051      	str	r1, [r2, #4]
	for (i = 0; i < MAX_USER_SET_CONFIG_CALLBACK; i++) {
 80010ca:	3301      	adds	r3, #1
 80010cc:	2b03      	cmp	r3, #3
 80010ce:	ddf6      	ble.n	80010be <usbd_init+0x36>
	}

	return usbd_dev;
}
 80010d0:	bdf8      	pop	{r3, r4, r5, r6, r7, pc}
 80010d2:	bf00      	nop
 80010d4:	08001969 	.word	0x08001969
 80010d8:	080019b3 	.word	0x080019b3
 80010dc:	08001a3d 	.word	0x08001a3d

080010e0 <_usbd_standard_request_device>:
/**@}*/

int _usbd_standard_request_device(usbd_device *usbd_dev,
				  struct usb_setup_data *req, uint8_t **buf,
				  uint16_t *len)
{
 80010e0:	b510      	push	{r4, lr}
	int (*command)(usbd_device *usbd_dev, struct usb_setup_data *req,
		       uint8_t **buf, uint16_t *len) = NULL;

	switch (req->bRequest) {
 80010e2:	784c      	ldrb	r4, [r1, #1]
 80010e4:	2c09      	cmp	r4, #9
 80010e6:	d812      	bhi.n	800110e <_usbd_standard_request_device+0x2e>
 80010e8:	e8df f004 	tbb	[pc, r4]
 80010ec:	1111110b 	.word	0x1111110b
 80010f0:	11090511 	.word	0x11090511
 80010f4:	0d07      	.short	0x0d07
	case USB_REQ_SET_ADDRESS:
		/*
		 * SET ADDRESS is an exception.
		 * It is only processed at STATUS stage.
		 */
		command = usb_standard_set_address;
 80010f6:	4c08      	ldr	r4, [pc, #32]	; (8001118 <_usbd_standard_request_device+0x38>)
 80010f8:	e006      	b.n	8001108 <_usbd_standard_request_device+0x28>
		break;
	case USB_REQ_SET_CONFIGURATION:
		command = usb_standard_set_configuration;
		break;
	case USB_REQ_GET_CONFIGURATION:
		command = usb_standard_get_configuration;
 80010fa:	4c08      	ldr	r4, [pc, #32]	; (800111c <_usbd_standard_request_device+0x3c>)
		break;
 80010fc:	e004      	b.n	8001108 <_usbd_standard_request_device+0x28>
	case USB_REQ_GET_DESCRIPTOR:
		command = usb_standard_get_descriptor;
 80010fe:	4c08      	ldr	r4, [pc, #32]	; (8001120 <_usbd_standard_request_device+0x40>)
		break;
 8001100:	e002      	b.n	8001108 <_usbd_standard_request_device+0x28>
	case USB_REQ_GET_STATUS:
		/*
		 * GET_STATUS always responds with zero reply.
		 * The application may override this behaviour.
		 */
		command = usb_standard_device_get_status;
 8001102:	4c08      	ldr	r4, [pc, #32]	; (8001124 <_usbd_standard_request_device+0x44>)
		break;
 8001104:	e000      	b.n	8001108 <_usbd_standard_request_device+0x28>
		command = usb_standard_set_configuration;
 8001106:	4c08      	ldr	r4, [pc, #32]	; (8001128 <_usbd_standard_request_device+0x48>)
	case USB_REQ_SET_DESCRIPTOR:
		/* SET_DESCRIPTOR is optional and not implemented. */
		break;
	}

	if (!command) {
 8001108:	b11c      	cbz	r4, 8001112 <_usbd_standard_request_device+0x32>
		return 0;
	}

	return command(usbd_dev, req, buf, len);
 800110a:	47a0      	blx	r4
}
 800110c:	bd10      	pop	{r4, pc}
		return 0;
 800110e:	2000      	movs	r0, #0
 8001110:	e7fc      	b.n	800110c <_usbd_standard_request_device+0x2c>
 8001112:	2000      	movs	r0, #0
 8001114:	e7fa      	b.n	800110c <_usbd_standard_request_device+0x2c>
 8001116:	bf00      	nop
 8001118:	08001a9b 	.word	0x08001a9b
 800111c:	08001b85 	.word	0x08001b85
 8001120:	08001e27 	.word	0x08001e27
 8001124:	08001c3d 	.word	0x08001c3d
 8001128:	08001acb 	.word	0x08001acb

0800112c <_usbd_standard_request_interface>:

int _usbd_standard_request_interface(usbd_device *usbd_dev,
				     struct usb_setup_data *req, uint8_t **buf,
				     uint16_t *len)
{
 800112c:	b510      	push	{r4, lr}
	int (*command)(usbd_device *usbd_dev, struct usb_setup_data *req,
		       uint8_t **buf, uint16_t *len) = NULL;

	switch (req->bRequest) {
 800112e:	784c      	ldrb	r4, [r1, #1]
 8001130:	2c0a      	cmp	r4, #10
 8001132:	d004      	beq.n	800113e <_usbd_standard_request_interface+0x12>
 8001134:	2c0b      	cmp	r4, #11
 8001136:	d008      	beq.n	800114a <_usbd_standard_request_interface+0x1e>
 8001138:	b12c      	cbz	r4, 8001146 <_usbd_standard_request_interface+0x1a>
		command = usb_standard_interface_get_status;
		break;
	}

	if (!command) {
		return 0;
 800113a:	2000      	movs	r0, #0
 800113c:	e002      	b.n	8001144 <_usbd_standard_request_interface+0x18>
		command = usb_standard_get_interface;
 800113e:	4c05      	ldr	r4, [pc, #20]	; (8001154 <_usbd_standard_request_interface+0x28>)
	if (!command) {
 8001140:	b12c      	cbz	r4, 800114e <_usbd_standard_request_interface+0x22>
	}

	return command(usbd_dev, req, buf, len);
 8001142:	47a0      	blx	r4
}
 8001144:	bd10      	pop	{r4, pc}
		command = usb_standard_interface_get_status;
 8001146:	4c04      	ldr	r4, [pc, #16]	; (8001158 <_usbd_standard_request_interface+0x2c>)
		break;
 8001148:	e7fa      	b.n	8001140 <_usbd_standard_request_interface+0x14>
		command = usb_standard_set_interface;
 800114a:	4c04      	ldr	r4, [pc, #16]	; (800115c <_usbd_standard_request_interface+0x30>)
 800114c:	e7f8      	b.n	8001140 <_usbd_standard_request_interface+0x14>
		return 0;
 800114e:	2000      	movs	r0, #0
 8001150:	e7f8      	b.n	8001144 <_usbd_standard_request_interface+0x18>
 8001152:	bf00      	nop
 8001154:	08001bff 	.word	0x08001bff
 8001158:	08001c55 	.word	0x08001c55
 800115c:	08001ba9 	.word	0x08001ba9

08001160 <_usbd_standard_request_endpoint>:

int _usbd_standard_request_endpoint(usbd_device *usbd_dev,
				    struct usb_setup_data *req, uint8_t **buf,
				    uint16_t *len)
{
 8001160:	b510      	push	{r4, lr}
	int (*command) (usbd_device *usbd_dev, struct usb_setup_data *req,
			uint8_t **buf, uint16_t *len) = NULL;

	switch (req->bRequest) {
 8001162:	784c      	ldrb	r4, [r1, #1]
 8001164:	2c01      	cmp	r4, #1
 8001166:	d004      	beq.n	8001172 <_usbd_standard_request_endpoint+0x12>
 8001168:	b16c      	cbz	r4, 8001186 <_usbd_standard_request_endpoint+0x26>
 800116a:	2c03      	cmp	r4, #3
 800116c:	d007      	beq.n	800117e <_usbd_standard_request_endpoint+0x1e>
		 */
		break;
	}

	if (!command) {
		return 0;
 800116e:	2000      	movs	r0, #0
 8001170:	e00c      	b.n	800118c <_usbd_standard_request_endpoint+0x2c>
		if (req->wValue == USB_FEAT_ENDPOINT_HALT) {
 8001172:	884c      	ldrh	r4, [r1, #2]
 8001174:	b90c      	cbnz	r4, 800117a <_usbd_standard_request_endpoint+0x1a>
			command = usb_standard_endpoint_unstall;
 8001176:	4c08      	ldr	r4, [pc, #32]	; (8001198 <_usbd_standard_request_endpoint+0x38>)
 8001178:	e006      	b.n	8001188 <_usbd_standard_request_endpoint+0x28>
		return 0;
 800117a:	2000      	movs	r0, #0
 800117c:	e006      	b.n	800118c <_usbd_standard_request_endpoint+0x2c>
		if (req->wValue == USB_FEAT_ENDPOINT_HALT) {
 800117e:	884c      	ldrh	r4, [r1, #2]
 8001180:	b92c      	cbnz	r4, 800118e <_usbd_standard_request_endpoint+0x2e>
			command = usb_standard_endpoint_stall;
 8001182:	4c06      	ldr	r4, [pc, #24]	; (800119c <_usbd_standard_request_endpoint+0x3c>)
 8001184:	e000      	b.n	8001188 <_usbd_standard_request_endpoint+0x28>
		command = usb_standard_endpoint_get_status;
 8001186:	4c06      	ldr	r4, [pc, #24]	; (80011a0 <_usbd_standard_request_endpoint+0x40>)
	if (!command) {
 8001188:	b11c      	cbz	r4, 8001192 <_usbd_standard_request_endpoint+0x32>
	}

	return command(usbd_dev, req, buf, len);
 800118a:	47a0      	blx	r4
}
 800118c:	bd10      	pop	{r4, pc}
		return 0;
 800118e:	2000      	movs	r0, #0
 8001190:	e7fc      	b.n	800118c <_usbd_standard_request_endpoint+0x2c>
 8001192:	2000      	movs	r0, #0
 8001194:	e7fa      	b.n	800118c <_usbd_standard_request_endpoint+0x2c>
 8001196:	bf00      	nop
 8001198:	08001f47 	.word	0x08001f47
 800119c:	08001f37 	.word	0x08001f37
 80011a0:	08001f0d 	.word	0x08001f0d

080011a4 <st_usbfs_v1_usbd_init>:
	.poll = st_usbfs_poll,
};

/** Initialize the USB device controller hardware of the STM32. */
static usbd_device *st_usbfs_v1_usbd_init(void)
{
 80011a4:	b508      	push	{r3, lr}
	rcc_periph_clock_enable(RCC_USB);
 80011a6:	f240 3097 	movw	r0, #919	; 0x397
 80011aa:	f000 fab2 	bl	8001712 <rcc_periph_clock_enable>
	SET_REG(USB_CNTR_REG, 0);
 80011ae:	4a06      	ldr	r2, [pc, #24]	; (80011c8 <st_usbfs_v1_usbd_init+0x24>)
 80011b0:	2300      	movs	r3, #0
 80011b2:	6013      	str	r3, [r2, #0]
	SET_REG(USB_BTABLE_REG, 0);
 80011b4:	4905      	ldr	r1, [pc, #20]	; (80011cc <st_usbfs_v1_usbd_init+0x28>)
 80011b6:	600b      	str	r3, [r1, #0]
	SET_REG(USB_ISTR_REG, 0);
 80011b8:	390c      	subs	r1, #12
 80011ba:	600b      	str	r3, [r1, #0]

	/* Enable RESET, SUSPEND, RESUME and CTR interrupts. */
	SET_REG(USB_CNTR_REG, USB_CNTR_RESETM | USB_CNTR_CTRM |
 80011bc:	f44f 431c 	mov.w	r3, #39936	; 0x9c00
 80011c0:	6013      	str	r3, [r2, #0]
		USB_CNTR_SUSPM | USB_CNTR_WKUPM);
	return &st_usbfs_dev;
}
 80011c2:	4803      	ldr	r0, [pc, #12]	; (80011d0 <st_usbfs_v1_usbd_init+0x2c>)
 80011c4:	bd08      	pop	{r3, pc}
 80011c6:	bf00      	nop
 80011c8:	40005c40 	.word	0x40005c40
 80011cc:	40005c50 	.word	0x40005c50
 80011d0:	20000740 	.word	0x20000740

080011d4 <scb_reset_system>:
}
#endif

void scb_reset_system(void)
{
	SCB_AIRCR = SCB_AIRCR_VECTKEY | SCB_AIRCR_SYSRESETREQ;
 80011d4:	4b01      	ldr	r3, [pc, #4]	; (80011dc <scb_reset_system+0x8>)
 80011d6:	4a02      	ldr	r2, [pc, #8]	; (80011e0 <scb_reset_system+0xc>)
 80011d8:	601a      	str	r2, [r3, #0]
 80011da:	e7fe      	b.n	80011da <scb_reset_system+0x6>
 80011dc:	e000ed0c 	.word	0xe000ed0c
 80011e0:	05fa0004 	.word	0x05fa0004

080011e4 <st_usbfs_set_address>:

void st_usbfs_set_address(usbd_device *dev, uint8_t addr)
{
	(void)dev;
	/* Set device address and enable. */
	SET_REG(USB_DADDR_REG, (addr & USB_DADDR_ADDR) | USB_DADDR_EF);
 80011e4:	f041 0180 	orr.w	r1, r1, #128	; 0x80
 80011e8:	4b01      	ldr	r3, [pc, #4]	; (80011f0 <st_usbfs_set_address+0xc>)
 80011ea:	6019      	str	r1, [r3, #0]
}
 80011ec:	4770      	bx	lr
 80011ee:	bf00      	nop
 80011f0:	40005c4c 	.word	0x40005c4c

080011f4 <st_usbfs_set_ep_rx_bufsize>:
 * @param size Size in bytes of the RX buffer.
 */
void st_usbfs_set_ep_rx_bufsize(usbd_device *dev, uint8_t ep, uint32_t size)
{
	(void)dev;
	if (size > 62) {
 80011f4:	2a3e      	cmp	r2, #62	; 0x3e
 80011f6:	d915      	bls.n	8001224 <st_usbfs_set_ep_rx_bufsize+0x30>
		if (size & 0x1f) {
 80011f8:	f012 0f1f 	tst.w	r2, #31
 80011fc:	d000      	beq.n	8001200 <st_usbfs_set_ep_rx_bufsize+0xc>
			size -= 32;
 80011fe:	3a20      	subs	r2, #32
		}
		USB_SET_EP_RX_COUNT(ep, (size << 5) | 0x8000);
 8001200:	4b12      	ldr	r3, [pc, #72]	; (800124c <st_usbfs_set_ep_rx_bufsize+0x58>)
 8001202:	681b      	ldr	r3, [r3, #0]
 8001204:	b29b      	uxth	r3, r3
 8001206:	eb03 03c1 	add.w	r3, r3, r1, lsl #3
 800120a:	3306      	adds	r3, #6
 800120c:	005b      	lsls	r3, r3, #1
 800120e:	f103 4380 	add.w	r3, r3, #1073741824	; 0x40000000
 8001212:	f503 43c0 	add.w	r3, r3, #24576	; 0x6000
 8001216:	ea6f 5282 	mvn.w	r2, r2, lsl #22
 800121a:	ea6f 4252 	mvn.w	r2, r2, lsr #17
 800121e:	b292      	uxth	r2, r2
 8001220:	601a      	str	r2, [r3, #0]
 8001222:	4770      	bx	lr
	} else {
		if (size & 1) {
 8001224:	f012 0f01 	tst.w	r2, #1
 8001228:	d000      	beq.n	800122c <st_usbfs_set_ep_rx_bufsize+0x38>
			size++;
 800122a:	3201      	adds	r2, #1
		}
		USB_SET_EP_RX_COUNT(ep, size << 10);
 800122c:	4b07      	ldr	r3, [pc, #28]	; (800124c <st_usbfs_set_ep_rx_bufsize+0x58>)
 800122e:	681b      	ldr	r3, [r3, #0]
 8001230:	b29b      	uxth	r3, r3
 8001232:	eb03 03c1 	add.w	r3, r3, r1, lsl #3
 8001236:	3306      	adds	r3, #6
 8001238:	005b      	lsls	r3, r3, #1
 800123a:	f103 4380 	add.w	r3, r3, #1073741824	; 0x40000000
 800123e:	f503 43c0 	add.w	r3, r3, #24576	; 0x6000
 8001242:	4903      	ldr	r1, [pc, #12]	; (8001250 <st_usbfs_set_ep_rx_bufsize+0x5c>)
 8001244:	ea01 2282 	and.w	r2, r1, r2, lsl #10
 8001248:	601a      	str	r2, [r3, #0]
	}
}
 800124a:	4770      	bx	lr
 800124c:	40005c50 	.word	0x40005c50
 8001250:	03fffc00 	.word	0x03fffc00

08001254 <st_usbfs_ep_setup>:

void st_usbfs_ep_setup(usbd_device *dev, uint8_t addr, uint8_t type,
		uint16_t max_size,
		void (*callback) (usbd_device *usbd_dev,
		uint8_t ep))
{
 8001254:	e92d 41f0 	stmdb	sp!, {r4, r5, r6, r7, r8, lr}
 8001258:	b082      	sub	sp, #8
 800125a:	4684      	mov	ip, r0
 800125c:	460c      	mov	r4, r1
 800125e:	f8dd 8020 	ldr.w	r8, [sp, #32]
	/* Translate USB standard type codes to STM32. */
	const uint16_t typelookup[] = {
 8001262:	4952      	ldr	r1, [pc, #328]	; (80013ac <st_usbfs_ep_setup+0x158>)
 8001264:	c903      	ldmia	r1, {r0, r1}
 8001266:	ad02      	add	r5, sp, #8
 8001268:	e905 0003 	stmdb	r5, {r0, r1}
		[USB_ENDPOINT_ATTR_ISOCHRONOUS] = USB_EP_TYPE_ISO,
		[USB_ENDPOINT_ATTR_BULK] = USB_EP_TYPE_BULK,
		[USB_ENDPOINT_ATTR_INTERRUPT] = USB_EP_TYPE_INTERRUPT,
	};
	uint8_t dir = addr & 0x80;
	addr &= 0x7f;
 800126c:	f004 077f 	and.w	r7, r4, #127	; 0x7f

	/* Assign address. */
	USB_SET_EP_ADDR(addr, addr);
 8001270:	00be      	lsls	r6, r7, #2
 8001272:	f106 4680 	add.w	r6, r6, #1073741824	; 0x40000000
 8001276:	f506 46b8 	add.w	r6, r6, #23552	; 0x5c00
 800127a:	6831      	ldr	r1, [r6, #0]
 800127c:	b209      	sxth	r1, r1
 800127e:	f421 41e0 	bic.w	r1, r1, #28672	; 0x7000
 8001282:	f021 017f 	bic.w	r1, r1, #127	; 0x7f
 8001286:	4339      	orrs	r1, r7
 8001288:	b289      	uxth	r1, r1
 800128a:	6031      	str	r1, [r6, #0]
	USB_SET_EP_TYPE(addr, typelookup[type]);
 800128c:	6831      	ldr	r1, [r6, #0]
 800128e:	f421 41ec 	bic.w	r1, r1, #30208	; 0x7600
 8001292:	f021 0170 	bic.w	r1, r1, #112	; 0x70
 8001296:	0409      	lsls	r1, r1, #16
 8001298:	0c09      	lsrs	r1, r1, #16
 800129a:	eb05 0242 	add.w	r2, r5, r2, lsl #1
 800129e:	f832 2c08 	ldrh.w	r2, [r2, #-8]
 80012a2:	4311      	orrs	r1, r2
 80012a4:	6031      	str	r1, [r6, #0]
 80012a6:	b262      	sxtb	r2, r4

	if (dir || (addr == 0)) {
 80012a8:	2a00      	cmp	r2, #0
 80012aa:	db01      	blt.n	80012b0 <st_usbfs_ep_setup+0x5c>
 80012ac:	2f00      	cmp	r7, #0
 80012ae:	d138      	bne.n	8001322 <st_usbfs_ep_setup+0xce>
		USB_SET_EP_TX_ADDR(addr, dev->pm_top);
 80012b0:	f8bc 0018 	ldrh.w	r0, [ip, #24]
 80012b4:	493e      	ldr	r1, [pc, #248]	; (80013b0 <st_usbfs_ep_setup+0x15c>)
 80012b6:	6809      	ldr	r1, [r1, #0]
 80012b8:	b289      	uxth	r1, r1
 80012ba:	eb01 01c7 	add.w	r1, r1, r7, lsl #3
 80012be:	0049      	lsls	r1, r1, #1
 80012c0:	f101 4180 	add.w	r1, r1, #1073741824	; 0x40000000
 80012c4:	f501 41c0 	add.w	r1, r1, #24576	; 0x6000
 80012c8:	6008      	str	r0, [r1, #0]
		if (callback) {
 80012ca:	f1b8 0f00 	cmp.w	r8, #0
 80012ce:	d005      	beq.n	80012dc <st_usbfs_ep_setup+0x88>
			dev->user_callback_ctr[addr][USB_TRANSACTION_IN] =
 80012d0:	eb07 0047 	add.w	r0, r7, r7, lsl #1
 80012d4:	0081      	lsls	r1, r0, #2
 80012d6:	4461      	add	r1, ip
 80012d8:	f8c1 8064 	str.w	r8, [r1, #100]	; 0x64
			    (void *)callback;
		}
		USB_CLR_EP_TX_DTOG(addr);
 80012dc:	6831      	ldr	r1, [r6, #0]
 80012de:	f421 41e0 	bic.w	r1, r1, #28672	; 0x7000
 80012e2:	f021 0130 	bic.w	r1, r1, #48	; 0x30
 80012e6:	0409      	lsls	r1, r1, #16
 80012e8:	0c09      	lsrs	r1, r1, #16
 80012ea:	6031      	str	r1, [r6, #0]
		USB_SET_EP_TX_STAT(addr, USB_EP_TX_STAT_NAK);
 80012ec:	6835      	ldr	r5, [r6, #0]
 80012ee:	b2ad      	uxth	r5, r5
 80012f0:	f425 45e0 	bic.w	r5, r5, #28672	; 0x7000
 80012f4:	f025 0540 	bic.w	r5, r5, #64	; 0x40
 80012f8:	b2ad      	uxth	r5, r5
 80012fa:	2401      	movs	r4, #1
 80012fc:	e001      	b.n	8001302 <st_usbfs_ep_setup+0xae>
 80012fe:	0064      	lsls	r4, r4, #1
 8001300:	b2a4      	uxth	r4, r4
 8001302:	b124      	cbz	r4, 800130e <st_usbfs_ep_setup+0xba>
 8001304:	f014 0f20 	tst.w	r4, #32
 8001308:	d0f9      	beq.n	80012fe <st_usbfs_ep_setup+0xaa>
 800130a:	4065      	eors	r5, r4
 800130c:	e7f7      	b.n	80012fe <st_usbfs_ep_setup+0xaa>
 800130e:	f445 4500 	orr.w	r5, r5, #32768	; 0x8000
 8001312:	f045 0580 	orr.w	r5, r5, #128	; 0x80
 8001316:	6035      	str	r5, [r6, #0]
		dev->pm_top += max_size;
 8001318:	f8bc 1018 	ldrh.w	r1, [ip, #24]
 800131c:	4419      	add	r1, r3
 800131e:	f8ac 1018 	strh.w	r1, [ip, #24]
	}

	if (!dir) {
 8001322:	2a00      	cmp	r2, #0
 8001324:	db3e      	blt.n	80013a4 <st_usbfs_ep_setup+0x150>
 8001326:	461c      	mov	r4, r3
 8001328:	4665      	mov	r5, ip
		USB_SET_EP_RX_ADDR(addr, dev->pm_top);
 800132a:	f8bc 2018 	ldrh.w	r2, [ip, #24]
 800132e:	4b20      	ldr	r3, [pc, #128]	; (80013b0 <st_usbfs_ep_setup+0x15c>)
 8001330:	681b      	ldr	r3, [r3, #0]
 8001332:	b29b      	uxth	r3, r3
 8001334:	eb03 03c7 	add.w	r3, r3, r7, lsl #3
 8001338:	3304      	adds	r3, #4
 800133a:	005b      	lsls	r3, r3, #1
 800133c:	f103 4380 	add.w	r3, r3, #1073741824	; 0x40000000
 8001340:	f503 43c0 	add.w	r3, r3, #24576	; 0x6000
 8001344:	601a      	str	r2, [r3, #0]
		st_usbfs_set_ep_rx_bufsize(dev, addr, max_size);
 8001346:	4622      	mov	r2, r4
 8001348:	4639      	mov	r1, r7
 800134a:	4660      	mov	r0, ip
 800134c:	f7ff ff52 	bl	80011f4 <st_usbfs_set_ep_rx_bufsize>
		if (callback) {
 8001350:	f1b8 0f00 	cmp.w	r8, #0
 8001354:	d005      	beq.n	8001362 <st_usbfs_ep_setup+0x10e>
			dev->user_callback_ctr[addr][USB_TRANSACTION_OUT] =
 8001356:	eb07 0747 	add.w	r7, r7, r7, lsl #1
 800135a:	00bb      	lsls	r3, r7, #2
 800135c:	442b      	add	r3, r5
 800135e:	f8c3 8068 	str.w	r8, [r3, #104]	; 0x68
			    (void *)callback;
		}
		USB_CLR_EP_RX_DTOG(addr);
 8001362:	6833      	ldr	r3, [r6, #0]
 8001364:	f423 5341 	bic.w	r3, r3, #12352	; 0x3040
 8001368:	f023 0330 	bic.w	r3, r3, #48	; 0x30
 800136c:	041b      	lsls	r3, r3, #16
 800136e:	0c1b      	lsrs	r3, r3, #16
 8001370:	6033      	str	r3, [r6, #0]
		USB_SET_EP_RX_STAT(addr, USB_EP_RX_STAT_VALID);
 8001372:	6833      	ldr	r3, [r6, #0]
 8001374:	b29b      	uxth	r3, r3
 8001376:	f423 4380 	bic.w	r3, r3, #16384	; 0x4000
 800137a:	f023 0370 	bic.w	r3, r3, #112	; 0x70
 800137e:	b29b      	uxth	r3, r3
 8001380:	2201      	movs	r2, #1
 8001382:	e001      	b.n	8001388 <st_usbfs_ep_setup+0x134>
 8001384:	0052      	lsls	r2, r2, #1
 8001386:	b292      	uxth	r2, r2
 8001388:	b122      	cbz	r2, 8001394 <st_usbfs_ep_setup+0x140>
 800138a:	f412 5f40 	tst.w	r2, #12288	; 0x3000
 800138e:	d0f9      	beq.n	8001384 <st_usbfs_ep_setup+0x130>
 8001390:	4053      	eors	r3, r2
 8001392:	e7f7      	b.n	8001384 <st_usbfs_ep_setup+0x130>
 8001394:	f443 4300 	orr.w	r3, r3, #32768	; 0x8000
 8001398:	f043 0380 	orr.w	r3, r3, #128	; 0x80
 800139c:	6033      	str	r3, [r6, #0]
		dev->pm_top += max_size;
 800139e:	8b2b      	ldrh	r3, [r5, #24]
 80013a0:	4423      	add	r3, r4
 80013a2:	832b      	strh	r3, [r5, #24]
	}
}
 80013a4:	b002      	add	sp, #8
 80013a6:	e8bd 81f0 	ldmia.w	sp!, {r4, r5, r6, r7, r8, pc}
 80013aa:	bf00      	nop
 80013ac:	0800466c 	.word	0x0800466c
 80013b0:	40005c50 	.word	0x40005c50

080013b4 <st_usbfs_ep_nak_set>:

void st_usbfs_ep_nak_set(usbd_device *dev, uint8_t addr, uint8_t nak)
{
	(void)dev;
	/* It does not make sence to force NAK on IN endpoints. */
	if (addr & 0x80) {
 80013b4:	f011 0f80 	tst.w	r1, #128	; 0x80
 80013b8:	d139      	bne.n	800142e <st_usbfs_ep_nak_set+0x7a>
		return;
	}

	st_usbfs_force_nak[addr] = nak;
 80013ba:	4b1d      	ldr	r3, [pc, #116]	; (8001430 <st_usbfs_ep_nak_set+0x7c>)
 80013bc:	545a      	strb	r2, [r3, r1]

	if (nak) {
 80013be:	b1da      	cbz	r2, 80013f8 <st_usbfs_ep_nak_set+0x44>
		USB_SET_EP_RX_STAT(addr, USB_EP_RX_STAT_NAK);
 80013c0:	0089      	lsls	r1, r1, #2
 80013c2:	f101 4180 	add.w	r1, r1, #1073741824	; 0x40000000
 80013c6:	f501 41b8 	add.w	r1, r1, #23552	; 0x5c00
 80013ca:	680a      	ldr	r2, [r1, #0]
 80013cc:	b292      	uxth	r2, r2
 80013ce:	f422 4280 	bic.w	r2, r2, #16384	; 0x4000
 80013d2:	f022 0270 	bic.w	r2, r2, #112	; 0x70
 80013d6:	b292      	uxth	r2, r2
 80013d8:	2301      	movs	r3, #1
 80013da:	e001      	b.n	80013e0 <st_usbfs_ep_nak_set+0x2c>
 80013dc:	005b      	lsls	r3, r3, #1
 80013de:	b29b      	uxth	r3, r3
 80013e0:	b123      	cbz	r3, 80013ec <st_usbfs_ep_nak_set+0x38>
 80013e2:	f413 5f00 	tst.w	r3, #8192	; 0x2000
 80013e6:	d0f9      	beq.n	80013dc <st_usbfs_ep_nak_set+0x28>
 80013e8:	405a      	eors	r2, r3
 80013ea:	e7f7      	b.n	80013dc <st_usbfs_ep_nak_set+0x28>
 80013ec:	f442 4200 	orr.w	r2, r2, #32768	; 0x8000
 80013f0:	f042 0280 	orr.w	r2, r2, #128	; 0x80
 80013f4:	600a      	str	r2, [r1, #0]
 80013f6:	4770      	bx	lr
	} else {
		USB_SET_EP_RX_STAT(addr, USB_EP_RX_STAT_VALID);
 80013f8:	0089      	lsls	r1, r1, #2
 80013fa:	f101 4180 	add.w	r1, r1, #1073741824	; 0x40000000
 80013fe:	f501 41b8 	add.w	r1, r1, #23552	; 0x5c00
 8001402:	680a      	ldr	r2, [r1, #0]
 8001404:	b292      	uxth	r2, r2
 8001406:	f422 4280 	bic.w	r2, r2, #16384	; 0x4000
 800140a:	f022 0270 	bic.w	r2, r2, #112	; 0x70
 800140e:	b292      	uxth	r2, r2
 8001410:	2301      	movs	r3, #1
 8001412:	e001      	b.n	8001418 <st_usbfs_ep_nak_set+0x64>
 8001414:	005b      	lsls	r3, r3, #1
 8001416:	b29b      	uxth	r3, r3
 8001418:	b123      	cbz	r3, 8001424 <st_usbfs_ep_nak_set+0x70>
 800141a:	f413 5f40 	tst.w	r3, #12288	; 0x3000
 800141e:	d0f9      	beq.n	8001414 <st_usbfs_ep_nak_set+0x60>
 8001420:	405a      	eors	r2, r3
 8001422:	e7f7      	b.n	8001414 <st_usbfs_ep_nak_set+0x60>
 8001424:	f442 4200 	orr.w	r2, r2, #32768	; 0x8000
 8001428:	f042 0280 	orr.w	r2, r2, #128	; 0x80
 800142c:	600a      	str	r2, [r1, #0]
	}
}
 800142e:	4770      	bx	lr
 8001430:	20000738 	.word	0x20000738

08001434 <st_usbfs_ep_write_packet>:

uint16_t st_usbfs_ep_write_packet(usbd_device *dev, uint8_t addr,
				     const void *buf, uint16_t len)
{
 8001434:	b5f8      	push	{r3, r4, r5, r6, r7, lr}
	(void)dev;
	addr &= 0x7F;
 8001436:	f001 067f 	and.w	r6, r1, #127	; 0x7f

	if ((*USB_EP_REG(addr) & USB_EP_TX_STAT) == USB_EP_TX_STAT_VALID) {
 800143a:	00b4      	lsls	r4, r6, #2
 800143c:	f104 4480 	add.w	r4, r4, #1073741824	; 0x40000000
 8001440:	f504 44b8 	add.w	r4, r4, #23552	; 0x5c00
 8001444:	6827      	ldr	r7, [r4, #0]
 8001446:	f007 0730 	and.w	r7, r7, #48	; 0x30
 800144a:	2f30      	cmp	r7, #48	; 0x30
 800144c:	d036      	beq.n	80014bc <st_usbfs_ep_write_packet+0x88>
 800144e:	461d      	mov	r5, r3
 8001450:	4611      	mov	r1, r2
		return 0;
	}

	st_usbfs_copy_to_pm(USB_GET_EP_TX_BUFF(addr), buf, len);
 8001452:	4f1b      	ldr	r7, [pc, #108]	; (80014c0 <st_usbfs_ep_write_packet+0x8c>)
 8001454:	683b      	ldr	r3, [r7, #0]
 8001456:	b29b      	uxth	r3, r3
 8001458:	00f6      	lsls	r6, r6, #3
 800145a:	4433      	add	r3, r6
 800145c:	005b      	lsls	r3, r3, #1
 800145e:	f103 4380 	add.w	r3, r3, #1073741824	; 0x40000000
 8001462:	f503 43c0 	add.w	r3, r3, #24576	; 0x6000
 8001466:	8818      	ldrh	r0, [r3, #0]
 8001468:	0040      	lsls	r0, r0, #1
 800146a:	462a      	mov	r2, r5
 800146c:	f100 4080 	add.w	r0, r0, #1073741824	; 0x40000000
 8001470:	f500 40c0 	add.w	r0, r0, #24576	; 0x6000
 8001474:	f000 fd9c 	bl	8001fb0 <st_usbfs_copy_to_pm>
	USB_SET_EP_TX_COUNT(addr, len);
 8001478:	683b      	ldr	r3, [r7, #0]
 800147a:	b29b      	uxth	r3, r3
 800147c:	4433      	add	r3, r6
 800147e:	3302      	adds	r3, #2
 8001480:	005b      	lsls	r3, r3, #1
 8001482:	f103 4380 	add.w	r3, r3, #1073741824	; 0x40000000
 8001486:	f503 43c0 	add.w	r3, r3, #24576	; 0x6000
 800148a:	601d      	str	r5, [r3, #0]
	USB_SET_EP_TX_STAT(addr, USB_EP_TX_STAT_VALID);
 800148c:	6821      	ldr	r1, [r4, #0]
 800148e:	b289      	uxth	r1, r1
 8001490:	f421 41e0 	bic.w	r1, r1, #28672	; 0x7000
 8001494:	f021 0140 	bic.w	r1, r1, #64	; 0x40
 8001498:	b289      	uxth	r1, r1
 800149a:	2201      	movs	r2, #1
 800149c:	e001      	b.n	80014a2 <st_usbfs_ep_write_packet+0x6e>
 800149e:	0052      	lsls	r2, r2, #1
 80014a0:	b292      	uxth	r2, r2
 80014a2:	b122      	cbz	r2, 80014ae <st_usbfs_ep_write_packet+0x7a>
 80014a4:	f012 0f30 	tst.w	r2, #48	; 0x30
 80014a8:	d0f9      	beq.n	800149e <st_usbfs_ep_write_packet+0x6a>
 80014aa:	4051      	eors	r1, r2
 80014ac:	e7f7      	b.n	800149e <st_usbfs_ep_write_packet+0x6a>
 80014ae:	f441 4100 	orr.w	r1, r1, #32768	; 0x8000
 80014b2:	f041 0180 	orr.w	r1, r1, #128	; 0x80
 80014b6:	6021      	str	r1, [r4, #0]

	return len;
 80014b8:	4628      	mov	r0, r5
}
 80014ba:	bdf8      	pop	{r3, r4, r5, r6, r7, pc}
		return 0;
 80014bc:	2000      	movs	r0, #0
 80014be:	e7fc      	b.n	80014ba <st_usbfs_ep_write_packet+0x86>
 80014c0:	40005c50 	.word	0x40005c50

080014c4 <st_usbfs_ep_read_packet>:

uint16_t st_usbfs_ep_read_packet(usbd_device *dev, uint8_t addr,
					 void *buf, uint16_t len)
{
 80014c4:	b5f8      	push	{r3, r4, r5, r6, r7, lr}
	(void)dev;
	if ((*USB_EP_REG(addr) & USB_EP_RX_STAT) == USB_EP_RX_STAT_VALID) {
 80014c6:	008c      	lsls	r4, r1, #2
 80014c8:	f104 4480 	add.w	r4, r4, #1073741824	; 0x40000000
 80014cc:	f504 44b8 	add.w	r4, r4, #23552	; 0x5c00
 80014d0:	6820      	ldr	r0, [r4, #0]
 80014d2:	f400 5040 	and.w	r0, r0, #12288	; 0x3000
 80014d6:	f5b0 5f40 	cmp.w	r0, #12288	; 0x3000
 80014da:	d056      	beq.n	800158a <st_usbfs_ep_read_packet+0xc6>
		return 0;
	}

	len = MIN(USB_GET_EP_RX_COUNT(addr) & 0x3ff, len);
 80014dc:	482c      	ldr	r0, [pc, #176]	; (8001590 <st_usbfs_ep_read_packet+0xcc>)
 80014de:	6806      	ldr	r6, [r0, #0]
 80014e0:	b2b6      	uxth	r6, r6
 80014e2:	00cf      	lsls	r7, r1, #3
 80014e4:	443e      	add	r6, r7
 80014e6:	3606      	adds	r6, #6
 80014e8:	0076      	lsls	r6, r6, #1
 80014ea:	f106 4680 	add.w	r6, r6, #1073741824	; 0x40000000
 80014ee:	f506 46c0 	add.w	r6, r6, #24576	; 0x6000
 80014f2:	8830      	ldrh	r0, [r6, #0]
 80014f4:	f3c0 0009 	ubfx	r0, r0, #0, #10
 80014f8:	4298      	cmp	r0, r3
 80014fa:	da0d      	bge.n	8001518 <st_usbfs_ep_read_packet+0x54>
 80014fc:	4b24      	ldr	r3, [pc, #144]	; (8001590 <st_usbfs_ep_read_packet+0xcc>)
 80014fe:	681b      	ldr	r3, [r3, #0]
 8001500:	b29b      	uxth	r3, r3
 8001502:	443b      	add	r3, r7
 8001504:	3306      	adds	r3, #6
 8001506:	005b      	lsls	r3, r3, #1
 8001508:	f103 4380 	add.w	r3, r3, #1073741824	; 0x40000000
 800150c:	f503 43c0 	add.w	r3, r3, #24576	; 0x6000
 8001510:	881d      	ldrh	r5, [r3, #0]
 8001512:	f3c5 0509 	ubfx	r5, r5, #0, #10
 8001516:	e000      	b.n	800151a <st_usbfs_ep_read_packet+0x56>
 8001518:	461d      	mov	r5, r3
 800151a:	4610      	mov	r0, r2
 800151c:	460e      	mov	r6, r1
	st_usbfs_copy_from_pm(buf, USB_GET_EP_RX_BUFF(addr), len);
 800151e:	4b1c      	ldr	r3, [pc, #112]	; (8001590 <st_usbfs_ep_read_packet+0xcc>)
 8001520:	681b      	ldr	r3, [r3, #0]
 8001522:	b29b      	uxth	r3, r3
 8001524:	443b      	add	r3, r7
 8001526:	3304      	adds	r3, #4
 8001528:	005b      	lsls	r3, r3, #1
 800152a:	f103 4380 	add.w	r3, r3, #1073741824	; 0x40000000
 800152e:	f503 43c0 	add.w	r3, r3, #24576	; 0x6000
 8001532:	8819      	ldrh	r1, [r3, #0]
 8001534:	0049      	lsls	r1, r1, #1
 8001536:	462a      	mov	r2, r5
 8001538:	f101 4180 	add.w	r1, r1, #1073741824	; 0x40000000
 800153c:	f501 41c0 	add.w	r1, r1, #24576	; 0x6000
 8001540:	f000 fd42 	bl	8001fc8 <st_usbfs_copy_from_pm>
	USB_CLR_EP_RX_CTR(addr);
 8001544:	6823      	ldr	r3, [r4, #0]
 8001546:	f023 03f0 	bic.w	r3, r3, #240	; 0xf0
 800154a:	051b      	lsls	r3, r3, #20
 800154c:	0d1b      	lsrs	r3, r3, #20
 800154e:	f043 0380 	orr.w	r3, r3, #128	; 0x80
 8001552:	6023      	str	r3, [r4, #0]

	if (!st_usbfs_force_nak[addr]) {
 8001554:	4b0f      	ldr	r3, [pc, #60]	; (8001594 <st_usbfs_ep_read_packet+0xd0>)
 8001556:	5d9b      	ldrb	r3, [r3, r6]
 8001558:	b9ab      	cbnz	r3, 8001586 <st_usbfs_ep_read_packet+0xc2>
		USB_SET_EP_RX_STAT(addr, USB_EP_RX_STAT_VALID);
 800155a:	6821      	ldr	r1, [r4, #0]
 800155c:	b289      	uxth	r1, r1
 800155e:	f421 4180 	bic.w	r1, r1, #16384	; 0x4000
 8001562:	f021 0170 	bic.w	r1, r1, #112	; 0x70
 8001566:	b289      	uxth	r1, r1
 8001568:	2201      	movs	r2, #1
 800156a:	e001      	b.n	8001570 <st_usbfs_ep_read_packet+0xac>
 800156c:	0052      	lsls	r2, r2, #1
 800156e:	b292      	uxth	r2, r2
 8001570:	b122      	cbz	r2, 800157c <st_usbfs_ep_read_packet+0xb8>
 8001572:	f412 5f40 	tst.w	r2, #12288	; 0x3000
 8001576:	d0f9      	beq.n	800156c <st_usbfs_ep_read_packet+0xa8>
 8001578:	4051      	eors	r1, r2
 800157a:	e7f7      	b.n	800156c <st_usbfs_ep_read_packet+0xa8>
 800157c:	f441 4100 	orr.w	r1, r1, #32768	; 0x8000
 8001580:	f041 0180 	orr.w	r1, r1, #128	; 0x80
 8001584:	6021      	str	r1, [r4, #0]
	}

	return len;
}
 8001586:	4628      	mov	r0, r5
 8001588:	bdf8      	pop	{r3, r4, r5, r6, r7, pc}
		return 0;
 800158a:	2500      	movs	r5, #0
 800158c:	e7fb      	b.n	8001586 <st_usbfs_ep_read_packet+0xc2>
 800158e:	bf00      	nop
 8001590:	40005c50 	.word	0x40005c50
 8001594:	20000738 	.word	0x20000738

08001598 <st_usbfs_poll>:

void st_usbfs_poll(usbd_device *dev)
{
 8001598:	b538      	push	{r3, r4, r5, lr}
 800159a:	4605      	mov	r5, r0
	uint16_t istr = *USB_ISTR_REG;
 800159c:	4b3b      	ldr	r3, [pc, #236]	; (800168c <st_usbfs_poll+0xf4>)
 800159e:	6819      	ldr	r1, [r3, #0]

	if (istr & USB_ISTR_RESET) {
 80015a0:	b28c      	uxth	r4, r1
 80015a2:	f414 6f80 	tst.w	r4, #1024	; 0x400
 80015a6:	d129      	bne.n	80015fc <st_usbfs_poll+0x64>
		dev->pm_top = USBD_PM_TOP;
		_usbd_reset(dev);
		return;
	}

	if (istr & USB_ISTR_CTR) {
 80015a8:	f411 4f00 	tst.w	r1, #32768	; 0x8000
 80015ac:	d12e      	bne.n	800160c <st_usbfs_poll+0x74>
		} else {
			USB_CLR_EP_RX_CTR(ep);
		}
	}

	if (istr & USB_ISTR_SUSP) {
 80015ae:	f414 6f00 	tst.w	r4, #2048	; 0x800
 80015b2:	d006      	beq.n	80015c2 <st_usbfs_poll+0x2a>
		USB_CLR_ISTR_SUSP();
 80015b4:	4b35      	ldr	r3, [pc, #212]	; (800168c <st_usbfs_poll+0xf4>)
 80015b6:	f24f 72ff 	movw	r2, #63487	; 0xf7ff
 80015ba:	601a      	str	r2, [r3, #0]
		if (dev->user_callback_suspend) {
 80015bc:	6a2b      	ldr	r3, [r5, #32]
 80015be:	b103      	cbz	r3, 80015c2 <st_usbfs_poll+0x2a>
			dev->user_callback_suspend();
 80015c0:	4798      	blx	r3
		}
	}

	if (istr & USB_ISTR_WKUP) {
 80015c2:	f414 5f80 	tst.w	r4, #4096	; 0x1000
 80015c6:	d006      	beq.n	80015d6 <st_usbfs_poll+0x3e>
		USB_CLR_ISTR_WKUP();
 80015c8:	4b30      	ldr	r3, [pc, #192]	; (800168c <st_usbfs_poll+0xf4>)
 80015ca:	f64e 72ff 	movw	r2, #61439	; 0xefff
 80015ce:	601a      	str	r2, [r3, #0]
		if (dev->user_callback_resume) {
 80015d0:	6a6b      	ldr	r3, [r5, #36]	; 0x24
 80015d2:	b103      	cbz	r3, 80015d6 <st_usbfs_poll+0x3e>
			dev->user_callback_resume();
 80015d4:	4798      	blx	r3
		}
	}

	if (istr & USB_ISTR_SOF) {
 80015d6:	f414 7f00 	tst.w	r4, #512	; 0x200
 80015da:	d006      	beq.n	80015ea <st_usbfs_poll+0x52>
		USB_CLR_ISTR_SOF();
 80015dc:	4b2b      	ldr	r3, [pc, #172]	; (800168c <st_usbfs_poll+0xf4>)
 80015de:	f64f 52ff 	movw	r2, #65023	; 0xfdff
 80015e2:	601a      	str	r2, [r3, #0]
		if (dev->user_callback_sof) {
 80015e4:	6aab      	ldr	r3, [r5, #40]	; 0x28
 80015e6:	b103      	cbz	r3, 80015ea <st_usbfs_poll+0x52>
			dev->user_callback_sof();
 80015e8:	4798      	blx	r3
		}
	}

	if (dev->user_callback_sof) {
 80015ea:	6aab      	ldr	r3, [r5, #40]	; 0x28
 80015ec:	2b00      	cmp	r3, #0
 80015ee:	d046      	beq.n	800167e <st_usbfs_poll+0xe6>
		*USB_CNTR_REG |= USB_CNTR_SOFM;
 80015f0:	4a27      	ldr	r2, [pc, #156]	; (8001690 <st_usbfs_poll+0xf8>)
 80015f2:	6813      	ldr	r3, [r2, #0]
 80015f4:	f443 7300 	orr.w	r3, r3, #512	; 0x200
 80015f8:	6013      	str	r3, [r2, #0]
	} else {
		*USB_CNTR_REG &= ~USB_CNTR_SOFM;
	}
}
 80015fa:	bd38      	pop	{r3, r4, r5, pc}
		USB_CLR_ISTR_RESET();
 80015fc:	f64f 32ff 	movw	r2, #64511	; 0xfbff
 8001600:	601a      	str	r2, [r3, #0]
		dev->pm_top = USBD_PM_TOP;
 8001602:	2340      	movs	r3, #64	; 0x40
 8001604:	8303      	strh	r3, [r0, #24]
		_usbd_reset(dev);
 8001606:	f000 f8b5 	bl	8001774 <_usbd_reset>
		return;
 800160a:	e7f6      	b.n	80015fa <st_usbfs_poll+0x62>
		uint8_t ep = istr & USB_ISTR_EP_ID;
 800160c:	f001 010f 	and.w	r1, r1, #15
		if (istr & USB_ISTR_DIR) {
 8001610:	f014 0f10 	tst.w	r4, #16
 8001614:	d00a      	beq.n	800162c <st_usbfs_poll+0x94>
			if (*USB_EP_REG(ep) & USB_EP_SETUP) {
 8001616:	008b      	lsls	r3, r1, #2
 8001618:	f103 4380 	add.w	r3, r3, #1073741824	; 0x40000000
 800161c:	f503 43b8 	add.w	r3, r3, #23552	; 0x5c00
 8001620:	681b      	ldr	r3, [r3, #0]
 8001622:	f413 6f00 	tst.w	r3, #2048	; 0x800
 8001626:	d01a      	beq.n	800165e <st_usbfs_poll+0xc6>
				type = USB_TRANSACTION_SETUP;
 8001628:	2202      	movs	r2, #2
 800162a:	e00d      	b.n	8001648 <st_usbfs_poll+0xb0>
			USB_CLR_EP_TX_CTR(ep);
 800162c:	008b      	lsls	r3, r1, #2
 800162e:	f103 4380 	add.w	r3, r3, #1073741824	; 0x40000000
 8001632:	f503 43b8 	add.w	r3, r3, #23552	; 0x5c00
 8001636:	681a      	ldr	r2, [r3, #0]
 8001638:	f022 02f0 	bic.w	r2, r2, #240	; 0xf0
 800163c:	0512      	lsls	r2, r2, #20
 800163e:	0d12      	lsrs	r2, r2, #20
 8001640:	f442 4200 	orr.w	r2, r2, #32768	; 0x8000
 8001644:	601a      	str	r2, [r3, #0]
			type = USB_TRANSACTION_IN;
 8001646:	2200      	movs	r2, #0
		if (dev->user_callback_ctr[ep][type]) {
 8001648:	eb01 0341 	add.w	r3, r1, r1, lsl #1
 800164c:	4413      	add	r3, r2
 800164e:	3318      	adds	r3, #24
 8001650:	eb05 0383 	add.w	r3, r5, r3, lsl #2
 8001654:	685b      	ldr	r3, [r3, #4]
 8001656:	b123      	cbz	r3, 8001662 <st_usbfs_poll+0xca>
			dev->user_callback_ctr[ep][type] (dev, ep);
 8001658:	4628      	mov	r0, r5
 800165a:	4798      	blx	r3
 800165c:	e7a7      	b.n	80015ae <st_usbfs_poll+0x16>
				type = USB_TRANSACTION_OUT;
 800165e:	2201      	movs	r2, #1
 8001660:	e7f2      	b.n	8001648 <st_usbfs_poll+0xb0>
			USB_CLR_EP_RX_CTR(ep);
 8001662:	0089      	lsls	r1, r1, #2
 8001664:	f101 4180 	add.w	r1, r1, #1073741824	; 0x40000000
 8001668:	f501 41b8 	add.w	r1, r1, #23552	; 0x5c00
 800166c:	680b      	ldr	r3, [r1, #0]
 800166e:	f023 03f0 	bic.w	r3, r3, #240	; 0xf0
 8001672:	051b      	lsls	r3, r3, #20
 8001674:	0d1b      	lsrs	r3, r3, #20
 8001676:	f043 0380 	orr.w	r3, r3, #128	; 0x80
 800167a:	600b      	str	r3, [r1, #0]
 800167c:	e797      	b.n	80015ae <st_usbfs_poll+0x16>
		*USB_CNTR_REG &= ~USB_CNTR_SOFM;
 800167e:	4a04      	ldr	r2, [pc, #16]	; (8001690 <st_usbfs_poll+0xf8>)
 8001680:	6813      	ldr	r3, [r2, #0]
 8001682:	f423 7300 	bic.w	r3, r3, #512	; 0x200
 8001686:	6013      	str	r3, [r2, #0]
 8001688:	e7b7      	b.n	80015fa <st_usbfs_poll+0x62>
 800168a:	bf00      	nop
 800168c:	40005c44 	.word	0x40005c44
 8001690:	40005c40 	.word	0x40005c40

08001694 <gpio_set_mode>:
	     If multiple pins are to be set, use logical OR '|' to separate
	     them.
*/

void gpio_set_mode(uint32_t gpioport, uint8_t mode, uint8_t cnf, uint16_t gpios)
{
 8001694:	b5f0      	push	{r4, r5, r6, r7, lr}

	/*
	 * We want to set the config only for the pins mentioned in gpios,
	 * but keeping the others, so read out the actual config first.
	 */
	crl = GPIO_CRL(gpioport);
 8001696:	6807      	ldr	r7, [r0, #0]
	crh = GPIO_CRH(gpioport);
 8001698:	6846      	ldr	r6, [r0, #4]

	/* Iterate over all bits, use i as the bitnumber. */
	for (i = 0; i < 16; i++) {
 800169a:	2400      	movs	r4, #0
 800169c:	e009      	b.n	80016b2 <gpio_set_mode+0x1e>
		if (!((1 << i) & gpios)) {
			continue;
		}

		/* Calculate bit offset. */
		offset = (i < 8) ? (i * 4) : ((i - 8) * 4);
 800169e:	f504 557f 	add.w	r5, r4, #16320	; 0x3fc0
 80016a2:	3538      	adds	r5, #56	; 0x38
 80016a4:	00ad      	lsls	r5, r5, #2
 80016a6:	b2ad      	uxth	r5, r5
 80016a8:	e00e      	b.n	80016c8 <gpio_set_mode+0x34>

		/* Use tmp32 to either modify crl or crh. */
		tmp32 = (i < 8) ? crl : crh;
 80016aa:	46b6      	mov	lr, r6
 80016ac:	e00f      	b.n	80016ce <gpio_set_mode+0x3a>
	for (i = 0; i < 16; i++) {
 80016ae:	3401      	adds	r4, #1
 80016b0:	b2a4      	uxth	r4, r4
 80016b2:	2c0f      	cmp	r4, #15
 80016b4:	d821      	bhi.n	80016fa <gpio_set_mode+0x66>
		if (!((1 << i) & gpios)) {
 80016b6:	fa43 f504 	asr.w	r5, r3, r4
 80016ba:	f015 0f01 	tst.w	r5, #1
 80016be:	d0f6      	beq.n	80016ae <gpio_set_mode+0x1a>
		offset = (i < 8) ? (i * 4) : ((i - 8) * 4);
 80016c0:	2c07      	cmp	r4, #7
 80016c2:	d8ec      	bhi.n	800169e <gpio_set_mode+0xa>
 80016c4:	00a5      	lsls	r5, r4, #2
 80016c6:	b2ad      	uxth	r5, r5
		tmp32 = (i < 8) ? crl : crh;
 80016c8:	2c07      	cmp	r4, #7
 80016ca:	d8ee      	bhi.n	80016aa <gpio_set_mode+0x16>
 80016cc:	46be      	mov	lr, r7

		/* Modify bits are needed. */
		tmp32 &= ~(0xf << offset);	/* Clear the bits first. */
 80016ce:	f04f 0c0f 	mov.w	ip, #15
 80016d2:	fa0c fc05 	lsl.w	ip, ip, r5
 80016d6:	ea2e 0e0c 	bic.w	lr, lr, ip
		tmp32 |= (mode << offset) | (cnf << (offset + 2));
 80016da:	fa01 fc05 	lsl.w	ip, r1, r5
 80016de:	3502      	adds	r5, #2
 80016e0:	fa02 f505 	lsl.w	r5, r2, r5
 80016e4:	ea4c 0505 	orr.w	r5, ip, r5
 80016e8:	ea45 050e 	orr.w	r5, r5, lr

		/* Write tmp32 into crl or crh, leave the other unchanged. */
		crl = (i < 8) ? tmp32 : crl;
 80016ec:	2c07      	cmp	r4, #7
 80016ee:	d800      	bhi.n	80016f2 <gpio_set_mode+0x5e>
 80016f0:	462f      	mov	r7, r5
		crh = (i >= 8) ? tmp32 : crh;
 80016f2:	2c07      	cmp	r4, #7
 80016f4:	d9db      	bls.n	80016ae <gpio_set_mode+0x1a>
 80016f6:	462e      	mov	r6, r5
 80016f8:	e7d9      	b.n	80016ae <gpio_set_mode+0x1a>
	}

	GPIO_CRL(gpioport) = crl;
 80016fa:	6007      	str	r7, [r0, #0]
	GPIO_CRH(gpioport) = crh;
 80016fc:	6046      	str	r6, [r0, #4]
}
 80016fe:	bdf0      	pop	{r4, r5, r6, r7, pc}

08001700 <gpio_set>:
	     If multiple pins are to be changed, use logical OR '|' to separate
	     them.
*/
void gpio_set(uint32_t gpioport, uint16_t gpios)
{
	GPIO_BSRR(gpioport) = gpios;
 8001700:	6101      	str	r1, [r0, #16]
}
 8001702:	4770      	bx	lr

08001704 <gpio_clear>:
	     If multiple pins are to be changed, use logical OR '|' to separate
	     them.
*/
void  gpio_clear(uint32_t gpioport, uint16_t gpios)
{
	GPIO_BSRR(gpioport) = (gpios << 16);
 8001704:	0409      	lsls	r1, r1, #16
 8001706:	6101      	str	r1, [r0, #16]
}
 8001708:	4770      	bx	lr

0800170a <usart_recv>:
*/

uint16_t usart_recv(uint32_t usart)
{
	/* Receive data. */
	return USART_DR(usart) & USART_DR_MASK;
 800170a:	6840      	ldr	r0, [r0, #4]
}
 800170c:	f3c0 0008 	ubfx	r0, r0, #0, #9
 8001710:	4770      	bx	lr

08001712 <rcc_periph_clock_enable>:
 * For available constants, see #rcc_periph_clken (RCC_UART1 for example)
 */

void rcc_periph_clock_enable(enum rcc_periph_clken clken)
{
	_RCC_REG(clken) |= _RCC_BIT(clken);
 8001712:	0943      	lsrs	r3, r0, #5
 8001714:	f103 4380 	add.w	r3, r3, #1073741824	; 0x40000000
 8001718:	f503 3304 	add.w	r3, r3, #135168	; 0x21000
 800171c:	681a      	ldr	r2, [r3, #0]
 800171e:	f000 001f 	and.w	r0, r0, #31
 8001722:	2101      	movs	r1, #1
 8001724:	fa01 f000 	lsl.w	r0, r1, r0
 8001728:	4310      	orrs	r0, r2
 800172a:	6018      	str	r0, [r3, #0]
}
 800172c:	4770      	bx	lr

0800172e <rcc_periph_reset_pulse>:
 * For available constants, see #rcc_periph_rst (RST_UART1 for example)
 */

void rcc_periph_reset_pulse(enum rcc_periph_rst rst)
{
	_RCC_REG(rst) |= _RCC_BIT(rst);
 800172e:	0943      	lsrs	r3, r0, #5
 8001730:	f103 4380 	add.w	r3, r3, #1073741824	; 0x40000000
 8001734:	f503 3304 	add.w	r3, r3, #135168	; 0x21000
 8001738:	6819      	ldr	r1, [r3, #0]
 800173a:	f000 021f 	and.w	r2, r0, #31
 800173e:	2001      	movs	r0, #1
 8001740:	4090      	lsls	r0, r2
 8001742:	4301      	orrs	r1, r0
 8001744:	6019      	str	r1, [r3, #0]
	_RCC_REG(rst) &= ~_RCC_BIT(rst);
 8001746:	681a      	ldr	r2, [r3, #0]
 8001748:	ea22 0000 	bic.w	r0, r2, r0
 800174c:	6018      	str	r0, [r3, #0]
}
 800174e:	4770      	bx	lr

08001750 <usbd_register_sof_callback>:
	usbd_dev->user_callback_resume = callback;
}

void usbd_register_sof_callback(usbd_device *usbd_dev, void (*callback)(void))
{
	usbd_dev->user_callback_sof = callback;
 8001750:	6281      	str	r1, [r0, #40]	; 0x28
}
 8001752:	4770      	bx	lr

08001754 <usbd_poll>:
	}
}

/* Functions to wrap the low-level driver */
void usbd_poll(usbd_device *usbd_dev)
{
 8001754:	b508      	push	{r3, lr}
	usbd_dev->driver->poll(usbd_dev);
 8001756:	f8d0 30d8 	ldr.w	r3, [r0, #216]	; 0xd8
 800175a:	6a5b      	ldr	r3, [r3, #36]	; 0x24
 800175c:	4798      	blx	r3
}
 800175e:	bd08      	pop	{r3, pc}

08001760 <usbd_ep_setup>:
	}
}

void usbd_ep_setup(usbd_device *usbd_dev, uint8_t addr, uint8_t type,
		   uint16_t max_size, usbd_endpoint_callback callback)
{
 8001760:	b530      	push	{r4, r5, lr}
 8001762:	b083      	sub	sp, #12
	usbd_dev->driver->ep_setup(usbd_dev, addr, type, max_size, callback);
 8001764:	f8d0 40d8 	ldr.w	r4, [r0, #216]	; 0xd8
 8001768:	68a4      	ldr	r4, [r4, #8]
 800176a:	9d06      	ldr	r5, [sp, #24]
 800176c:	9500      	str	r5, [sp, #0]
 800176e:	47a0      	blx	r4
}
 8001770:	b003      	add	sp, #12
 8001772:	bd30      	pop	{r4, r5, pc}

08001774 <_usbd_reset>:
{
 8001774:	b530      	push	{r4, r5, lr}
 8001776:	b083      	sub	sp, #12
 8001778:	4604      	mov	r4, r0
	usbd_dev->current_address = 0;
 800177a:	2500      	movs	r5, #0
 800177c:	7585      	strb	r5, [r0, #22]
	usbd_dev->current_config = 0;
 800177e:	75c5      	strb	r5, [r0, #23]
	usbd_ep_setup(usbd_dev, 0, USB_ENDPOINT_ATTR_CONTROL, usbd_dev->desc->bMaxPacketSize0, NULL);
 8001780:	6803      	ldr	r3, [r0, #0]
 8001782:	79db      	ldrb	r3, [r3, #7]
 8001784:	9500      	str	r5, [sp, #0]
 8001786:	462a      	mov	r2, r5
 8001788:	4629      	mov	r1, r5
 800178a:	f7ff ffe9 	bl	8001760 <usbd_ep_setup>
	usbd_dev->driver->set_address(usbd_dev, 0);
 800178e:	f8d4 30d8 	ldr.w	r3, [r4, #216]	; 0xd8
 8001792:	685b      	ldr	r3, [r3, #4]
 8001794:	4629      	mov	r1, r5
 8001796:	4620      	mov	r0, r4
 8001798:	4798      	blx	r3
	if (usbd_dev->user_callback_reset) {
 800179a:	69e3      	ldr	r3, [r4, #28]
 800179c:	b103      	cbz	r3, 80017a0 <_usbd_reset+0x2c>
		usbd_dev->user_callback_reset();
 800179e:	4798      	blx	r3
}
 80017a0:	b003      	add	sp, #12
 80017a2:	bd30      	pop	{r4, r5, pc}

080017a4 <usbd_ep_write_packet>:

uint16_t usbd_ep_write_packet(usbd_device *usbd_dev, uint8_t addr,
			 const void *buf, uint16_t len)
{
 80017a4:	b510      	push	{r4, lr}
	return usbd_dev->driver->ep_write_packet(usbd_dev, addr, buf, len);
 80017a6:	f8d0 40d8 	ldr.w	r4, [r0, #216]	; 0xd8
 80017aa:	69e4      	ldr	r4, [r4, #28]
 80017ac:	47a0      	blx	r4
}
 80017ae:	bd10      	pop	{r4, pc}

080017b0 <usbd_ep_read_packet>:

uint16_t usbd_ep_read_packet(usbd_device *usbd_dev, uint8_t addr, void *buf,
			     uint16_t len)
{
 80017b0:	b510      	push	{r4, lr}
	return usbd_dev->driver->ep_read_packet(usbd_dev, addr, buf, len);
 80017b2:	f8d0 40d8 	ldr.w	r4, [r0, #216]	; 0xd8
 80017b6:	6a24      	ldr	r4, [r4, #32]
 80017b8:	47a0      	blx	r4
}
 80017ba:	bd10      	pop	{r4, pc}

080017bc <usbd_ep_stall_set>:

void usbd_ep_stall_set(usbd_device *usbd_dev, uint8_t addr, uint8_t stall)
{
 80017bc:	b508      	push	{r3, lr}
	usbd_dev->driver->ep_stall_set(usbd_dev, addr, stall);
 80017be:	f8d0 30d8 	ldr.w	r3, [r0, #216]	; 0xd8
 80017c2:	691b      	ldr	r3, [r3, #16]
 80017c4:	4798      	blx	r3
}
 80017c6:	bd08      	pop	{r3, pc}

080017c8 <usbd_ep_stall_get>:

uint8_t usbd_ep_stall_get(usbd_device *usbd_dev, uint8_t addr)
{
 80017c8:	b508      	push	{r3, lr}
	return usbd_dev->driver->ep_stall_get(usbd_dev, addr);
 80017ca:	f8d0 30d8 	ldr.w	r3, [r0, #216]	; 0xd8
 80017ce:	699b      	ldr	r3, [r3, #24]
 80017d0:	4798      	blx	r3
}
 80017d2:	bd08      	pop	{r3, pc}

080017d4 <stall_transaction>:
 * According to the USB 2.0 specification, section 8.5.3, when a control
 * transfer is stalled, the pipe becomes idle. We provide one utility to stall
 * a transaction to reduce boilerplate code.
 */
static void stall_transaction(usbd_device *usbd_dev)
{
 80017d4:	b510      	push	{r4, lr}
 80017d6:	4604      	mov	r4, r0
	usbd_ep_stall_set(usbd_dev, 0, 1);
 80017d8:	2201      	movs	r2, #1
 80017da:	2100      	movs	r1, #0
 80017dc:	f7ff ffee 	bl	80017bc <usbd_ep_stall_set>
	usbd_dev->control_state.state = IDLE;
 80017e0:	2300      	movs	r3, #0
 80017e2:	f884 302c 	strb.w	r3, [r4, #44]	; 0x2c
}
 80017e6:	bd10      	pop	{r4, pc}

080017e8 <usb_control_setup_write>:
	}
}

static void usb_control_setup_write(usbd_device *usbd_dev,
				    struct usb_setup_data *req)
{
 80017e8:	b508      	push	{r3, lr}
	if (req->wLength > usbd_dev->ctrl_buf_len) {
 80017ea:	88ca      	ldrh	r2, [r1, #6]
 80017ec:	8a83      	ldrh	r3, [r0, #20]
 80017ee:	429a      	cmp	r2, r3
 80017f0:	d80c      	bhi.n	800180c <usb_control_setup_write+0x24>
		stall_transaction(usbd_dev);
		return;
	}

	/* Buffer into which to write received data. */
	usbd_dev->control_state.ctrl_buf = usbd_dev->ctrl_buf;
 80017f2:	6903      	ldr	r3, [r0, #16]
 80017f4:	6383      	str	r3, [r0, #56]	; 0x38
	usbd_dev->control_state.ctrl_len = 0;
 80017f6:	2300      	movs	r3, #0
 80017f8:	8783      	strh	r3, [r0, #60]	; 0x3c
	/* Wait for DATA OUT stage. */
	if (req->wLength > usbd_dev->desc->bMaxPacketSize0) {
 80017fa:	88ca      	ldrh	r2, [r1, #6]
 80017fc:	6803      	ldr	r3, [r0, #0]
 80017fe:	79db      	ldrb	r3, [r3, #7]
 8001800:	429a      	cmp	r2, r3
 8001802:	d806      	bhi.n	8001812 <usb_control_setup_write+0x2a>
		usbd_dev->control_state.state = DATA_OUT;
	} else {
		usbd_dev->control_state.state = LAST_DATA_OUT;
 8001804:	2306      	movs	r3, #6
 8001806:	f880 302c 	strb.w	r3, [r0, #44]	; 0x2c
	}
}
 800180a:	bd08      	pop	{r3, pc}
		stall_transaction(usbd_dev);
 800180c:	f7ff ffe2 	bl	80017d4 <stall_transaction>
		return;
 8001810:	e7fb      	b.n	800180a <usb_control_setup_write+0x22>
		usbd_dev->control_state.state = DATA_OUT;
 8001812:	2305      	movs	r3, #5
 8001814:	f880 302c 	strb.w	r3, [r0, #44]	; 0x2c
 8001818:	e7f7      	b.n	800180a <usb_control_setup_write+0x22>

0800181a <usb_control_recv_chunk>:
{
 800181a:	b570      	push	{r4, r5, r6, lr}
 800181c:	4605      	mov	r5, r0
	uint16_t packetsize = MIN(usbd_dev->desc->bMaxPacketSize0,
 800181e:	8ec4      	ldrh	r4, [r0, #54]	; 0x36
 8001820:	8f82      	ldrh	r2, [r0, #60]	; 0x3c
 8001822:	1aa4      	subs	r4, r4, r2
 8001824:	6803      	ldr	r3, [r0, #0]
 8001826:	79db      	ldrb	r3, [r3, #7]
 8001828:	429c      	cmp	r4, r3
 800182a:	bfa8      	it	ge
 800182c:	461c      	movge	r4, r3
 800182e:	b2a6      	uxth	r6, r4
				       usbd_dev->control_state.ctrl_buf +
 8001830:	6b81      	ldr	r1, [r0, #56]	; 0x38
	uint16_t size = usbd_ep_read_packet(usbd_dev, 0,
 8001832:	4633      	mov	r3, r6
 8001834:	440a      	add	r2, r1
 8001836:	2100      	movs	r1, #0
 8001838:	f7ff ffba 	bl	80017b0 <usbd_ep_read_packet>
	if (size != packetsize) {
 800183c:	4286      	cmp	r6, r0
 800183e:	d104      	bne.n	800184a <usb_control_recv_chunk+0x30>
	usbd_dev->control_state.ctrl_len += size;
 8001840:	8fab      	ldrh	r3, [r5, #60]	; 0x3c
 8001842:	4418      	add	r0, r3
 8001844:	87a8      	strh	r0, [r5, #60]	; 0x3c
 8001846:	b2a0      	uxth	r0, r4
}
 8001848:	bd70      	pop	{r4, r5, r6, pc}
		stall_transaction(usbd_dev);
 800184a:	4628      	mov	r0, r5
 800184c:	f7ff ffc2 	bl	80017d4 <stall_transaction>
		return -1;
 8001850:	f04f 30ff 	mov.w	r0, #4294967295	; 0xffffffff
 8001854:	e7f8      	b.n	8001848 <usb_control_recv_chunk+0x2e>

08001856 <usb_control_send_chunk>:
{
 8001856:	b510      	push	{r4, lr}
 8001858:	4604      	mov	r4, r0
	if (usbd_dev->desc->bMaxPacketSize0 <
 800185a:	6803      	ldr	r3, [r0, #0]
 800185c:	79da      	ldrb	r2, [r3, #7]
			usbd_dev->control_state.ctrl_len) {
 800185e:	8f83      	ldrh	r3, [r0, #60]	; 0x3c
	if (usbd_dev->desc->bMaxPacketSize0 <
 8001860:	429a      	cmp	r2, r3
 8001862:	d30a      	bcc.n	800187a <usb_control_send_chunk+0x24>
		usbd_ep_write_packet(usbd_dev, 0,
 8001864:	6b82      	ldr	r2, [r0, #56]	; 0x38
 8001866:	2100      	movs	r1, #0
 8001868:	f7ff ff9c 	bl	80017a4 <usbd_ep_write_packet>
		usbd_dev->control_state.state = LAST_DATA_IN;
 800186c:	2303      	movs	r3, #3
 800186e:	f884 302c 	strb.w	r3, [r4, #44]	; 0x2c
		usbd_dev->control_state.ctrl_len = 0;
 8001872:	2300      	movs	r3, #0
 8001874:	87a3      	strh	r3, [r4, #60]	; 0x3c
		usbd_dev->control_state.ctrl_buf = NULL;
 8001876:	63a3      	str	r3, [r4, #56]	; 0x38
}
 8001878:	bd10      	pop	{r4, pc}
		usbd_ep_write_packet(usbd_dev, 0,
 800187a:	4613      	mov	r3, r2
 800187c:	6b82      	ldr	r2, [r0, #56]	; 0x38
 800187e:	2100      	movs	r1, #0
 8001880:	f7ff ff90 	bl	80017a4 <usbd_ep_write_packet>
		usbd_dev->control_state.state = DATA_IN;
 8001884:	2302      	movs	r3, #2
 8001886:	f884 302c 	strb.w	r3, [r4, #44]	; 0x2c
			usbd_dev->desc->bMaxPacketSize0;
 800188a:	6822      	ldr	r2, [r4, #0]
 800188c:	79d1      	ldrb	r1, [r2, #7]
		usbd_dev->control_state.ctrl_buf +=
 800188e:	6ba3      	ldr	r3, [r4, #56]	; 0x38
 8001890:	440b      	add	r3, r1
 8001892:	63a3      	str	r3, [r4, #56]	; 0x38
			usbd_dev->desc->bMaxPacketSize0;
 8001894:	79d2      	ldrb	r2, [r2, #7]
		usbd_dev->control_state.ctrl_len -=
 8001896:	8fa3      	ldrh	r3, [r4, #60]	; 0x3c
 8001898:	1a9b      	subs	r3, r3, r2
 800189a:	87a3      	strh	r3, [r4, #60]	; 0x3c
 800189c:	e7ec      	b.n	8001878 <usb_control_send_chunk+0x22>

0800189e <usb_control_request_dispatch>:
{
 800189e:	e92d 41f0 	stmdb	sp!, {r4, r5, r6, r7, r8, lr}
 80018a2:	b082      	sub	sp, #8
 80018a4:	4605      	mov	r5, r0
 80018a6:	4688      	mov	r8, r1
	struct user_control_callback *cb = usbd_dev->user_control_callback;
 80018a8:	f100 0744 	add.w	r7, r0, #68	; 0x44
	for (i = 0; i < MAX_USER_CONTROL_CALLBACK; i++) {
 80018ac:	2400      	movs	r4, #0
 80018ae:	e000      	b.n	80018b2 <usb_control_request_dispatch+0x14>
 80018b0:	3401      	adds	r4, #1
 80018b2:	2c03      	cmp	r4, #3
 80018b4:	dc18      	bgt.n	80018e8 <usb_control_request_dispatch+0x4a>
		if (cb[i].cb == NULL) {
 80018b6:	eb07 02c4 	add.w	r2, r7, r4, lsl #3
 80018ba:	f857 6034 	ldr.w	r6, [r7, r4, lsl #3]
 80018be:	b19e      	cbz	r6, 80018e8 <usb_control_request_dispatch+0x4a>
		if ((req->bmRequestType & cb[i].type_mask) == cb[i].type) {
 80018c0:	f898 3000 	ldrb.w	r3, [r8]
 80018c4:	7951      	ldrb	r1, [r2, #5]
 80018c6:	400b      	ands	r3, r1
 80018c8:	7912      	ldrb	r2, [r2, #4]
 80018ca:	4293      	cmp	r3, r2
 80018cc:	d1f0      	bne.n	80018b0 <usb_control_request_dispatch+0x12>
			result = cb[i].cb(usbd_dev, req,
 80018ce:	f105 0340 	add.w	r3, r5, #64	; 0x40
 80018d2:	9300      	str	r3, [sp, #0]
 80018d4:	f105 033c 	add.w	r3, r5, #60	; 0x3c
 80018d8:	f105 0238 	add.w	r2, r5, #56	; 0x38
 80018dc:	4641      	mov	r1, r8
 80018de:	4628      	mov	r0, r5
 80018e0:	47b0      	blx	r6
			if (result == USBD_REQ_HANDLED ||
 80018e2:	2801      	cmp	r0, #1
 80018e4:	d8e4      	bhi.n	80018b0 <usb_control_request_dispatch+0x12>
 80018e6:	e007      	b.n	80018f8 <usb_control_request_dispatch+0x5a>
	return _usbd_standard_request(usbd_dev, req,
 80018e8:	f105 033c 	add.w	r3, r5, #60	; 0x3c
 80018ec:	f105 0238 	add.w	r2, r5, #56	; 0x38
 80018f0:	4641      	mov	r1, r8
 80018f2:	4628      	mov	r0, r5
 80018f4:	f000 fb43 	bl	8001f7e <_usbd_standard_request>
}
 80018f8:	b002      	add	sp, #8
 80018fa:	e8bd 81f0 	ldmia.w	sp!, {r4, r5, r6, r7, r8, pc}

080018fe <usb_control_setup_read>:
{
 80018fe:	b510      	push	{r4, lr}
 8001900:	4604      	mov	r4, r0
	usbd_dev->control_state.ctrl_buf = usbd_dev->ctrl_buf;
 8001902:	6903      	ldr	r3, [r0, #16]
 8001904:	6383      	str	r3, [r0, #56]	; 0x38
	usbd_dev->control_state.ctrl_len = req->wLength;
 8001906:	88cb      	ldrh	r3, [r1, #6]
 8001908:	8783      	strh	r3, [r0, #60]	; 0x3c
	if (usb_control_request_dispatch(usbd_dev, req)) {
 800190a:	f7ff ffc8 	bl	800189e <usb_control_request_dispatch>
 800190e:	b178      	cbz	r0, 8001930 <usb_control_setup_read+0x32>
		if (usbd_dev->control_state.ctrl_len) {
 8001910:	8fa3      	ldrh	r3, [r4, #60]	; 0x3c
 8001912:	b11b      	cbz	r3, 800191c <usb_control_setup_read+0x1e>
			usb_control_send_chunk(usbd_dev);
 8001914:	4620      	mov	r0, r4
 8001916:	f7ff ff9e 	bl	8001856 <usb_control_send_chunk>
}
 800191a:	bd10      	pop	{r4, pc}
			usbd_ep_write_packet(usbd_dev, 0, NULL, 0);
 800191c:	2300      	movs	r3, #0
 800191e:	461a      	mov	r2, r3
 8001920:	4619      	mov	r1, r3
 8001922:	4620      	mov	r0, r4
 8001924:	f7ff ff3e 	bl	80017a4 <usbd_ep_write_packet>
			usbd_dev->control_state.state = STATUS_IN;
 8001928:	2304      	movs	r3, #4
 800192a:	f884 302c 	strb.w	r3, [r4, #44]	; 0x2c
 800192e:	e7f4      	b.n	800191a <usb_control_setup_read+0x1c>
		stall_transaction(usbd_dev);
 8001930:	4620      	mov	r0, r4
 8001932:	f7ff ff4f 	bl	80017d4 <stall_transaction>
}
 8001936:	e7f0      	b.n	800191a <usb_control_setup_read+0x1c>

08001938 <usbd_register_control_callback>:
{
 8001938:	b430      	push	{r4, r5}
	for (i = 0; i < MAX_USER_CONTROL_CALLBACK; i++) {
 800193a:	2400      	movs	r4, #0
 800193c:	2c03      	cmp	r4, #3
 800193e:	dc10      	bgt.n	8001962 <usbd_register_control_callback+0x2a>
		if (usbd_dev->user_control_callback[i].cb) {
 8001940:	f104 0508 	add.w	r5, r4, #8
 8001944:	eb00 05c5 	add.w	r5, r0, r5, lsl #3
 8001948:	686d      	ldr	r5, [r5, #4]
 800194a:	b10d      	cbz	r5, 8001950 <usbd_register_control_callback+0x18>
	for (i = 0; i < MAX_USER_CONTROL_CALLBACK; i++) {
 800194c:	3401      	adds	r4, #1
 800194e:	e7f5      	b.n	800193c <usbd_register_control_callback+0x4>
		usbd_dev->user_control_callback[i].type = type;
 8001950:	3408      	adds	r4, #8
 8001952:	eb00 04c4 	add.w	r4, r0, r4, lsl #3
 8001956:	7221      	strb	r1, [r4, #8]
		usbd_dev->user_control_callback[i].type_mask = type_mask;
 8001958:	7262      	strb	r2, [r4, #9]
		usbd_dev->user_control_callback[i].cb = callback;
 800195a:	6063      	str	r3, [r4, #4]
		return 0;
 800195c:	2000      	movs	r0, #0
}
 800195e:	bc30      	pop	{r4, r5}
 8001960:	4770      	bx	lr
	return -1;
 8001962:	f04f 30ff 	mov.w	r0, #4294967295	; 0xffffffff
 8001966:	e7fa      	b.n	800195e <usbd_register_control_callback+0x26>

08001968 <_usbd_control_setup>:

/* Do not appear to belong to the API, so are omitted from docs */
/**@}*/

void _usbd_control_setup(usbd_device *usbd_dev, uint8_t ea)
{
 8001968:	b538      	push	{r3, r4, r5, lr}
 800196a:	4604      	mov	r4, r0
	struct usb_setup_data *req = &usbd_dev->control_state.req;
 800196c:	f100 0530 	add.w	r5, r0, #48	; 0x30
	(void)ea;

	usbd_dev->control_state.complete = NULL;
 8001970:	2100      	movs	r1, #0
 8001972:	6401      	str	r1, [r0, #64]	; 0x40

	if (usbd_ep_read_packet(usbd_dev, 0, req, 8) != 8) {
 8001974:	2308      	movs	r3, #8
 8001976:	462a      	mov	r2, r5
 8001978:	f7ff ff1a 	bl	80017b0 <usbd_ep_read_packet>
 800197c:	2808      	cmp	r0, #8
 800197e:	d10a      	bne.n	8001996 <_usbd_control_setup+0x2e>
		stall_transaction(usbd_dev);
		return;
	}

	if (req->wLength == 0) {
 8001980:	8ee3      	ldrh	r3, [r4, #54]	; 0x36
 8001982:	b163      	cbz	r3, 800199e <_usbd_control_setup+0x36>
		usb_control_setup_read(usbd_dev, req);
	} else if (req->bmRequestType & 0x80) {
 8001984:	f994 3030 	ldrsb.w	r3, [r4, #48]	; 0x30
 8001988:	2b00      	cmp	r3, #0
 800198a:	db0d      	blt.n	80019a8 <_usbd_control_setup+0x40>
		usb_control_setup_read(usbd_dev, req);
	} else {
		usb_control_setup_write(usbd_dev, req);
 800198c:	4629      	mov	r1, r5
 800198e:	4620      	mov	r0, r4
 8001990:	f7ff ff2a 	bl	80017e8 <usb_control_setup_write>
 8001994:	e002      	b.n	800199c <_usbd_control_setup+0x34>
		stall_transaction(usbd_dev);
 8001996:	4620      	mov	r0, r4
 8001998:	f7ff ff1c 	bl	80017d4 <stall_transaction>
	}
}
 800199c:	bd38      	pop	{r3, r4, r5, pc}
		usb_control_setup_read(usbd_dev, req);
 800199e:	4629      	mov	r1, r5
 80019a0:	4620      	mov	r0, r4
 80019a2:	f7ff ffac 	bl	80018fe <usb_control_setup_read>
 80019a6:	e7f9      	b.n	800199c <_usbd_control_setup+0x34>
		usb_control_setup_read(usbd_dev, req);
 80019a8:	4629      	mov	r1, r5
 80019aa:	4620      	mov	r0, r4
 80019ac:	f7ff ffa7 	bl	80018fe <usb_control_setup_read>
 80019b0:	e7f4      	b.n	800199c <_usbd_control_setup+0x34>

080019b2 <_usbd_control_out>:

void _usbd_control_out(usbd_device *usbd_dev, uint8_t ea)
{
 80019b2:	b510      	push	{r4, lr}
 80019b4:	4604      	mov	r4, r0
	(void)ea;

	switch (usbd_dev->control_state.state) {
 80019b6:	f890 302c 	ldrb.w	r3, [r0, #44]	; 0x2c
 80019ba:	2b06      	cmp	r3, #6
 80019bc:	d015      	beq.n	80019ea <_usbd_control_out+0x38>
 80019be:	2b07      	cmp	r3, #7
 80019c0:	d02b      	beq.n	8001a1a <_usbd_control_out+0x68>
 80019c2:	2b05      	cmp	r3, #5
 80019c4:	d002      	beq.n	80019cc <_usbd_control_out+0x1a>
					&(usbd_dev->control_state.req));
		}
		usbd_dev->control_state.complete = NULL;
		break;
	default:
		stall_transaction(usbd_dev);
 80019c6:	f7ff ff05 	bl	80017d4 <stall_transaction>
	}
}
 80019ca:	e036      	b.n	8001a3a <_usbd_control_out+0x88>
		if (usb_control_recv_chunk(usbd_dev) < 0) {
 80019cc:	f7ff ff25 	bl	800181a <usb_control_recv_chunk>
 80019d0:	2800      	cmp	r0, #0
 80019d2:	db32      	blt.n	8001a3a <_usbd_control_out+0x88>
		if ((usbd_dev->control_state.req.wLength -
 80019d4:	8ee3      	ldrh	r3, [r4, #54]	; 0x36
					usbd_dev->control_state.ctrl_len) <=
 80019d6:	8fa2      	ldrh	r2, [r4, #60]	; 0x3c
		if ((usbd_dev->control_state.req.wLength -
 80019d8:	1a9b      	subs	r3, r3, r2
					usbd_dev->desc->bMaxPacketSize0) {
 80019da:	6822      	ldr	r2, [r4, #0]
 80019dc:	79d2      	ldrb	r2, [r2, #7]
		if ((usbd_dev->control_state.req.wLength -
 80019de:	4293      	cmp	r3, r2
 80019e0:	dc2b      	bgt.n	8001a3a <_usbd_control_out+0x88>
			usbd_dev->control_state.state = LAST_DATA_OUT;
 80019e2:	2306      	movs	r3, #6
 80019e4:	f884 302c 	strb.w	r3, [r4, #44]	; 0x2c
 80019e8:	e027      	b.n	8001a3a <_usbd_control_out+0x88>
		if (usb_control_recv_chunk(usbd_dev) < 0) {
 80019ea:	f7ff ff16 	bl	800181a <usb_control_recv_chunk>
 80019ee:	2800      	cmp	r0, #0
 80019f0:	db23      	blt.n	8001a3a <_usbd_control_out+0x88>
		if (usb_control_request_dispatch(usbd_dev,
 80019f2:	f104 0130 	add.w	r1, r4, #48	; 0x30
 80019f6:	4620      	mov	r0, r4
 80019f8:	f7ff ff51 	bl	800189e <usb_control_request_dispatch>
 80019fc:	b148      	cbz	r0, 8001a12 <_usbd_control_out+0x60>
			usbd_ep_write_packet(usbd_dev, 0, NULL, 0);
 80019fe:	2300      	movs	r3, #0
 8001a00:	461a      	mov	r2, r3
 8001a02:	4619      	mov	r1, r3
 8001a04:	4620      	mov	r0, r4
 8001a06:	f7ff fecd 	bl	80017a4 <usbd_ep_write_packet>
			usbd_dev->control_state.state = STATUS_IN;
 8001a0a:	2304      	movs	r3, #4
 8001a0c:	f884 302c 	strb.w	r3, [r4, #44]	; 0x2c
 8001a10:	e013      	b.n	8001a3a <_usbd_control_out+0x88>
			stall_transaction(usbd_dev);
 8001a12:	4620      	mov	r0, r4
 8001a14:	f7ff fede 	bl	80017d4 <stall_transaction>
 8001a18:	e00f      	b.n	8001a3a <_usbd_control_out+0x88>
		usbd_ep_read_packet(usbd_dev, 0, NULL, 0);
 8001a1a:	2300      	movs	r3, #0
 8001a1c:	461a      	mov	r2, r3
 8001a1e:	4619      	mov	r1, r3
 8001a20:	f7ff fec6 	bl	80017b0 <usbd_ep_read_packet>
		usbd_dev->control_state.state = IDLE;
 8001a24:	2300      	movs	r3, #0
 8001a26:	f884 302c 	strb.w	r3, [r4, #44]	; 0x2c
		if (usbd_dev->control_state.complete) {
 8001a2a:	6c23      	ldr	r3, [r4, #64]	; 0x40
 8001a2c:	b11b      	cbz	r3, 8001a36 <_usbd_control_out+0x84>
			usbd_dev->control_state.complete(usbd_dev,
 8001a2e:	f104 0130 	add.w	r1, r4, #48	; 0x30
 8001a32:	4620      	mov	r0, r4
 8001a34:	4798      	blx	r3
		usbd_dev->control_state.complete = NULL;
 8001a36:	2300      	movs	r3, #0
 8001a38:	6423      	str	r3, [r4, #64]	; 0x40
}
 8001a3a:	bd10      	pop	{r4, pc}

08001a3c <_usbd_control_in>:
void _usbd_control_in(usbd_device *usbd_dev, uint8_t ea)
{
	(void)ea;
	struct usb_setup_data *req = &(usbd_dev->control_state.req);

	switch (usbd_dev->control_state.state) {
 8001a3c:	f890 302c 	ldrb.w	r3, [r0, #44]	; 0x2c
 8001a40:	2b03      	cmp	r3, #3
 8001a42:	d00b      	beq.n	8001a5c <_usbd_control_in+0x20>
{
 8001a44:	b510      	push	{r4, lr}
 8001a46:	4604      	mov	r4, r0
	switch (usbd_dev->control_state.state) {
 8001a48:	2b04      	cmp	r3, #4
 8001a4a:	d00b      	beq.n	8001a64 <_usbd_control_in+0x28>
 8001a4c:	2b02      	cmp	r3, #2
 8001a4e:	d002      	beq.n	8001a56 <_usbd_control_in+0x1a>
			usbd_dev->driver->set_address(usbd_dev, req->wValue);
		}
		usbd_dev->control_state.state = IDLE;
		break;
	default:
		stall_transaction(usbd_dev);
 8001a50:	f7ff fec0 	bl	80017d4 <stall_transaction>
	}
}
 8001a54:	e001      	b.n	8001a5a <_usbd_control_in+0x1e>
		usb_control_send_chunk(usbd_dev);
 8001a56:	f7ff fefe 	bl	8001856 <usb_control_send_chunk>
}
 8001a5a:	bd10      	pop	{r4, pc}
		usbd_dev->control_state.state = STATUS_OUT;
 8001a5c:	2307      	movs	r3, #7
 8001a5e:	f880 302c 	strb.w	r3, [r0, #44]	; 0x2c
 8001a62:	4770      	bx	lr
		if (usbd_dev->control_state.complete) {
 8001a64:	6c03      	ldr	r3, [r0, #64]	; 0x40
 8001a66:	b113      	cbz	r3, 8001a6e <_usbd_control_in+0x32>
			usbd_dev->control_state.complete(usbd_dev,
 8001a68:	f100 0130 	add.w	r1, r0, #48	; 0x30
 8001a6c:	4798      	blx	r3
		if ((req->bmRequestType == 0) &&
 8001a6e:	f894 3030 	ldrb.w	r3, [r4, #48]	; 0x30
 8001a72:	b953      	cbnz	r3, 8001a8a <_usbd_control_in+0x4e>
		    (req->bRequest == USB_REQ_SET_ADDRESS)) {
 8001a74:	f894 3031 	ldrb.w	r3, [r4, #49]	; 0x31
		if ((req->bmRequestType == 0) &&
 8001a78:	2b05      	cmp	r3, #5
 8001a7a:	d106      	bne.n	8001a8a <_usbd_control_in+0x4e>
			usbd_dev->driver->set_address(usbd_dev, req->wValue);
 8001a7c:	f8d4 30d8 	ldr.w	r3, [r4, #216]	; 0xd8
 8001a80:	685b      	ldr	r3, [r3, #4]
 8001a82:	8e61      	ldrh	r1, [r4, #50]	; 0x32
 8001a84:	b2c9      	uxtb	r1, r1
 8001a86:	4620      	mov	r0, r4
 8001a88:	4798      	blx	r3
		usbd_dev->control_state.state = IDLE;
 8001a8a:	2300      	movs	r3, #0
 8001a8c:	f884 302c 	strb.w	r3, [r4, #44]	; 0x2c
		break;
 8001a90:	e7e3      	b.n	8001a5a <_usbd_control_in+0x1e>

08001a92 <usb_descriptor_type>:
}
 8001a92:	0a00      	lsrs	r0, r0, #8
 8001a94:	4770      	bx	lr

08001a96 <usb_descriptor_index>:
}
 8001a96:	b2c0      	uxtb	r0, r0
 8001a98:	4770      	bx	lr

08001a9a <usb_standard_set_address>:
{
 8001a9a:	b508      	push	{r3, lr}
	if ((req->bmRequestType != 0) || (req->wValue >= 128)) {
 8001a9c:	780b      	ldrb	r3, [r1, #0]
 8001a9e:	b973      	cbnz	r3, 8001abe <usb_standard_set_address+0x24>
 8001aa0:	884b      	ldrh	r3, [r1, #2]
 8001aa2:	2b7f      	cmp	r3, #127	; 0x7f
 8001aa4:	d80d      	bhi.n	8001ac2 <usb_standard_set_address+0x28>
	usbd_dev->current_address = req->wValue;
 8001aa6:	7583      	strb	r3, [r0, #22]
	if (usbd_dev->driver->set_address_before_status) {
 8001aa8:	f8d0 30d8 	ldr.w	r3, [r0, #216]	; 0xd8
 8001aac:	f893 2030 	ldrb.w	r2, [r3, #48]	; 0x30
 8001ab0:	b14a      	cbz	r2, 8001ac6 <usb_standard_set_address+0x2c>
		usbd_dev->driver->set_address(usbd_dev, req->wValue);
 8001ab2:	685b      	ldr	r3, [r3, #4]
 8001ab4:	8849      	ldrh	r1, [r1, #2]
 8001ab6:	b2c9      	uxtb	r1, r1
 8001ab8:	4798      	blx	r3
	return 1;
 8001aba:	2001      	movs	r0, #1
 8001abc:	e000      	b.n	8001ac0 <usb_standard_set_address+0x26>
		return 0;
 8001abe:	2000      	movs	r0, #0
}
 8001ac0:	bd08      	pop	{r3, pc}
		return 0;
 8001ac2:	2000      	movs	r0, #0
 8001ac4:	e7fc      	b.n	8001ac0 <usb_standard_set_address+0x26>
	return 1;
 8001ac6:	2001      	movs	r0, #1
 8001ac8:	e7fa      	b.n	8001ac0 <usb_standard_set_address+0x26>

08001aca <usb_standard_set_configuration>:
{
 8001aca:	b570      	push	{r4, r5, r6, lr}
	if(req->wValue > 0) {
 8001acc:	884c      	ldrh	r4, [r1, #2]
 8001ace:	b974      	cbnz	r4, 8001aee <usb_standard_set_configuration+0x24>
	int found_index = -1;
 8001ad0:	f04f 33ff 	mov.w	r3, #4294967295	; 0xffffffff
	usbd_dev->current_config = found_index + 1;
 8001ad4:	3301      	adds	r3, #1
 8001ad6:	b2db      	uxtb	r3, r3
 8001ad8:	75c3      	strb	r3, [r0, #23]
	if (usbd_dev->current_config > 0) {
 8001ada:	b35b      	cbz	r3, 8001b34 <usb_standard_set_configuration+0x6a>
		cfg = &usbd_dev->config[usbd_dev->current_config - 1];
 8001adc:	6842      	ldr	r2, [r0, #4]
 8001ade:	eb03 0443 	add.w	r4, r3, r3, lsl #1
 8001ae2:	eb03 0384 	add.w	r3, r3, r4, lsl #2
 8001ae6:	3b0d      	subs	r3, #13
 8001ae8:	4413      	add	r3, r2
		for (i = 0; i < cfg->bNumInterfaces; i++) {
 8001aea:	2200      	movs	r2, #0
 8001aec:	e016      	b.n	8001b1c <usb_standard_set_configuration+0x52>
		for (i = 0; i < usbd_dev->desc->bNumConfigurations; i++) {
 8001aee:	2300      	movs	r3, #0
 8001af0:	6802      	ldr	r2, [r0, #0]
 8001af2:	7c52      	ldrb	r2, [r2, #17]
 8001af4:	429a      	cmp	r2, r3
 8001af6:	d90a      	bls.n	8001b0e <usb_standard_set_configuration+0x44>
			if (req->wValue == usbd_dev->config[i].bConfigurationValue) {
 8001af8:	6842      	ldr	r2, [r0, #4]
 8001afa:	eb03 0543 	add.w	r5, r3, r3, lsl #1
 8001afe:	eb03 0585 	add.w	r5, r3, r5, lsl #2
 8001b02:	442a      	add	r2, r5
 8001b04:	7952      	ldrb	r2, [r2, #5]
 8001b06:	4294      	cmp	r4, r2
 8001b08:	d003      	beq.n	8001b12 <usb_standard_set_configuration+0x48>
		for (i = 0; i < usbd_dev->desc->bNumConfigurations; i++) {
 8001b0a:	3301      	adds	r3, #1
 8001b0c:	e7f0      	b.n	8001af0 <usb_standard_set_configuration+0x26>
	int found_index = -1;
 8001b0e:	f04f 33ff 	mov.w	r3, #4294967295	; 0xffffffff
		if (found_index < 0) {
 8001b12:	2b00      	cmp	r3, #0
 8001b14:	dade      	bge.n	8001ad4 <usb_standard_set_configuration+0xa>
			return USBD_REQ_NOTSUPP;
 8001b16:	2000      	movs	r0, #0
 8001b18:	e033      	b.n	8001b82 <usb_standard_set_configuration+0xb8>
		for (i = 0; i < cfg->bNumInterfaces; i++) {
 8001b1a:	3201      	adds	r2, #1
 8001b1c:	791c      	ldrb	r4, [r3, #4]
 8001b1e:	4294      	cmp	r4, r2
 8001b20:	d908      	bls.n	8001b34 <usb_standard_set_configuration+0x6a>
			if (cfg->interface[i].cur_altsetting) {
 8001b22:	f8d3 5009 	ldr.w	r5, [r3, #9]
 8001b26:	0114      	lsls	r4, r2, #4
 8001b28:	592c      	ldr	r4, [r5, r4]
 8001b2a:	2c00      	cmp	r4, #0
 8001b2c:	d0f5      	beq.n	8001b1a <usb_standard_set_configuration+0x50>
				*cfg->interface[i].cur_altsetting = 0;
 8001b2e:	2500      	movs	r5, #0
 8001b30:	7025      	strb	r5, [r4, #0]
 8001b32:	e7f2      	b.n	8001b1a <usb_standard_set_configuration+0x50>
 8001b34:	460e      	mov	r6, r1
 8001b36:	4604      	mov	r4, r0
	usbd_dev->driver->ep_reset(usbd_dev);
 8001b38:	f8d0 30d8 	ldr.w	r3, [r0, #216]	; 0xd8
 8001b3c:	68db      	ldr	r3, [r3, #12]
 8001b3e:	4798      	blx	r3
	if (usbd_dev->user_callback_set_config[0]) {
 8001b40:	f8d4 30c4 	ldr.w	r3, [r4, #196]	; 0xc4
 8001b44:	b10b      	cbz	r3, 8001b4a <usb_standard_set_configuration+0x80>
		for (i = 0; i < MAX_USER_CONTROL_CALLBACK; i++) {
 8001b46:	2300      	movs	r3, #0
 8001b48:	e008      	b.n	8001b5c <usb_standard_set_configuration+0x92>
	return 1;
 8001b4a:	2001      	movs	r0, #1
 8001b4c:	e019      	b.n	8001b82 <usb_standard_set_configuration+0xb8>
			usbd_dev->user_control_callback[i].cb = NULL;
 8001b4e:	f103 0208 	add.w	r2, r3, #8
 8001b52:	eb04 02c2 	add.w	r2, r4, r2, lsl #3
 8001b56:	2100      	movs	r1, #0
 8001b58:	6051      	str	r1, [r2, #4]
		for (i = 0; i < MAX_USER_CONTROL_CALLBACK; i++) {
 8001b5a:	3301      	adds	r3, #1
 8001b5c:	2b03      	cmp	r3, #3
 8001b5e:	d9f6      	bls.n	8001b4e <usb_standard_set_configuration+0x84>
		for (i = 0; i < MAX_USER_SET_CONFIG_CALLBACK; i++) {
 8001b60:	2500      	movs	r5, #0
 8001b62:	e000      	b.n	8001b66 <usb_standard_set_configuration+0x9c>
 8001b64:	3501      	adds	r5, #1
 8001b66:	2d03      	cmp	r5, #3
 8001b68:	d80a      	bhi.n	8001b80 <usb_standard_set_configuration+0xb6>
			if (usbd_dev->user_callback_set_config[i]) {
 8001b6a:	f105 0330 	add.w	r3, r5, #48	; 0x30
 8001b6e:	eb04 0383 	add.w	r3, r4, r3, lsl #2
 8001b72:	685b      	ldr	r3, [r3, #4]
 8001b74:	2b00      	cmp	r3, #0
 8001b76:	d0f5      	beq.n	8001b64 <usb_standard_set_configuration+0x9a>
				usbd_dev->user_callback_set_config[i](usbd_dev,
 8001b78:	8871      	ldrh	r1, [r6, #2]
 8001b7a:	4620      	mov	r0, r4
 8001b7c:	4798      	blx	r3
 8001b7e:	e7f1      	b.n	8001b64 <usb_standard_set_configuration+0x9a>
	return 1;
 8001b80:	2001      	movs	r0, #1
}
 8001b82:	bd70      	pop	{r4, r5, r6, pc}

08001b84 <usb_standard_get_configuration>:
	if (*len > 1) {
 8001b84:	8819      	ldrh	r1, [r3, #0]
 8001b86:	2901      	cmp	r1, #1
 8001b88:	d901      	bls.n	8001b8e <usb_standard_get_configuration+0xa>
		*len = 1;
 8001b8a:	2101      	movs	r1, #1
 8001b8c:	8019      	strh	r1, [r3, #0]
	const struct usb_config_descriptor *cfg = &usbd_dev->config[usbd_dev->current_config - 1];
 8001b8e:	6841      	ldr	r1, [r0, #4]
 8001b90:	7dc3      	ldrb	r3, [r0, #23]
 8001b92:	eb03 0043 	add.w	r0, r3, r3, lsl #1
 8001b96:	eb03 0380 	add.w	r3, r3, r0, lsl #2
 8001b9a:	3b0d      	subs	r3, #13
 8001b9c:	440b      	add	r3, r1
	(*buf)[0] = cfg->bConfigurationValue;
 8001b9e:	6812      	ldr	r2, [r2, #0]
 8001ba0:	795b      	ldrb	r3, [r3, #5]
 8001ba2:	7013      	strb	r3, [r2, #0]
}
 8001ba4:	2001      	movs	r0, #1
 8001ba6:	4770      	bx	lr

08001ba8 <usb_standard_set_interface>:
{
 8001ba8:	b570      	push	{r4, r5, r6, lr}
	const struct usb_config_descriptor *cfx = &usbd_dev->config[usbd_dev->current_config - 1];
 8001baa:	6844      	ldr	r4, [r0, #4]
 8001bac:	7dc2      	ldrb	r2, [r0, #23]
 8001bae:	eb02 0542 	add.w	r5, r2, r2, lsl #1
 8001bb2:	eb02 0285 	add.w	r2, r2, r5, lsl #2
 8001bb6:	3a0d      	subs	r2, #13
 8001bb8:	4422      	add	r2, r4
	if (req->wIndex >= cfx->bNumInterfaces) {
 8001bba:	888c      	ldrh	r4, [r1, #4]
 8001bbc:	7915      	ldrb	r5, [r2, #4]
 8001bbe:	42ac      	cmp	r4, r5
 8001bc0:	d219      	bcs.n	8001bf6 <usb_standard_set_interface+0x4e>
	iface = &cfx->interface[req->wIndex];
 8001bc2:	f8d2 5009 	ldr.w	r5, [r2, #9]
 8001bc6:	0124      	lsls	r4, r4, #4
 8001bc8:	192e      	adds	r6, r5, r4
	if (req->wValue >= iface->num_altsetting) {
 8001bca:	884a      	ldrh	r2, [r1, #2]
 8001bcc:	7936      	ldrb	r6, [r6, #4]
 8001bce:	42b2      	cmp	r2, r6
 8001bd0:	d213      	bcs.n	8001bfa <usb_standard_set_interface+0x52>
	if (iface->cur_altsetting) {
 8001bd2:	592c      	ldr	r4, [r5, r4]
 8001bd4:	b15c      	cbz	r4, 8001bee <usb_standard_set_interface+0x46>
		*iface->cur_altsetting = req->wValue;
 8001bd6:	7022      	strb	r2, [r4, #0]
 8001bd8:	461c      	mov	r4, r3
	if (usbd_dev->user_callback_set_altsetting) {
 8001bda:	f8d0 30d4 	ldr.w	r3, [r0, #212]	; 0xd4
 8001bde:	b113      	cbz	r3, 8001be6 <usb_standard_set_interface+0x3e>
			usbd_dev->user_callback_set_altsetting(usbd_dev,
 8001be0:	884a      	ldrh	r2, [r1, #2]
 8001be2:	8889      	ldrh	r1, [r1, #4]
 8001be4:	4798      	blx	r3
	*len = 0;
 8001be6:	2300      	movs	r3, #0
 8001be8:	8023      	strh	r3, [r4, #0]
	return USBD_REQ_HANDLED;
 8001bea:	2001      	movs	r0, #1
 8001bec:	e004      	b.n	8001bf8 <usb_standard_set_interface+0x50>
	} else if (req->wValue > 0) {
 8001bee:	2a00      	cmp	r2, #0
 8001bf0:	d0f2      	beq.n	8001bd8 <usb_standard_set_interface+0x30>
		return USBD_REQ_NOTSUPP;
 8001bf2:	2000      	movs	r0, #0
 8001bf4:	e000      	b.n	8001bf8 <usb_standard_set_interface+0x50>
		return USBD_REQ_NOTSUPP;
 8001bf6:	2000      	movs	r0, #0
}
 8001bf8:	bd70      	pop	{r4, r5, r6, pc}
		return USBD_REQ_NOTSUPP;
 8001bfa:	2000      	movs	r0, #0
 8001bfc:	e7fc      	b.n	8001bf8 <usb_standard_set_interface+0x50>

08001bfe <usb_standard_get_interface>:
{
 8001bfe:	b430      	push	{r4, r5}
	const struct usb_config_descriptor *cfx = &usbd_dev->config[usbd_dev->current_config - 1];
 8001c00:	6844      	ldr	r4, [r0, #4]
 8001c02:	7dc0      	ldrb	r0, [r0, #23]
 8001c04:	eb00 0540 	add.w	r5, r0, r0, lsl #1
 8001c08:	eb00 0085 	add.w	r0, r0, r5, lsl #2
 8001c0c:	380d      	subs	r0, #13
 8001c0e:	4420      	add	r0, r4
	if (req->wIndex >= cfx->bNumInterfaces) {
 8001c10:	888d      	ldrh	r5, [r1, #4]
 8001c12:	7904      	ldrb	r4, [r0, #4]
 8001c14:	42a5      	cmp	r5, r4
 8001c16:	d20f      	bcs.n	8001c38 <usb_standard_get_interface+0x3a>
	*len = 1;
 8001c18:	2401      	movs	r4, #1
 8001c1a:	801c      	strh	r4, [r3, #0]
	cur_altsetting = cfx->interface[req->wIndex].cur_altsetting;
 8001c1c:	f8d0 0009 	ldr.w	r0, [r0, #9]
 8001c20:	888b      	ldrh	r3, [r1, #4]
 8001c22:	011b      	lsls	r3, r3, #4
 8001c24:	58c3      	ldr	r3, [r0, r3]
	(*buf)[0] = (cur_altsetting) ? *cur_altsetting : 0;
 8001c26:	b12b      	cbz	r3, 8001c34 <usb_standard_get_interface+0x36>
 8001c28:	7819      	ldrb	r1, [r3, #0]
 8001c2a:	6813      	ldr	r3, [r2, #0]
 8001c2c:	7019      	strb	r1, [r3, #0]
	return USBD_REQ_HANDLED;
 8001c2e:	2001      	movs	r0, #1
}
 8001c30:	bc30      	pop	{r4, r5}
 8001c32:	4770      	bx	lr
	(*buf)[0] = (cur_altsetting) ? *cur_altsetting : 0;
 8001c34:	2100      	movs	r1, #0
 8001c36:	e7f8      	b.n	8001c2a <usb_standard_get_interface+0x2c>
		return USBD_REQ_NOTSUPP;
 8001c38:	2000      	movs	r0, #0
 8001c3a:	e7f9      	b.n	8001c30 <usb_standard_get_interface+0x32>

08001c3c <usb_standard_device_get_status>:
	if (*len > 2) {
 8001c3c:	8819      	ldrh	r1, [r3, #0]
 8001c3e:	2902      	cmp	r1, #2
 8001c40:	d901      	bls.n	8001c46 <usb_standard_device_get_status+0xa>
		*len = 2;
 8001c42:	2102      	movs	r1, #2
 8001c44:	8019      	strh	r1, [r3, #0]
	(*buf)[0] = 0;
 8001c46:	6811      	ldr	r1, [r2, #0]
 8001c48:	2300      	movs	r3, #0
 8001c4a:	700b      	strb	r3, [r1, #0]
	(*buf)[1] = 0;
 8001c4c:	6812      	ldr	r2, [r2, #0]
 8001c4e:	7053      	strb	r3, [r2, #1]
}
 8001c50:	2001      	movs	r0, #1
 8001c52:	4770      	bx	lr

08001c54 <usb_standard_interface_get_status>:
	if (*len > 2) {
 8001c54:	8819      	ldrh	r1, [r3, #0]
 8001c56:	2902      	cmp	r1, #2
 8001c58:	d901      	bls.n	8001c5e <usb_standard_interface_get_status+0xa>
		*len = 2;
 8001c5a:	2102      	movs	r1, #2
 8001c5c:	8019      	strh	r1, [r3, #0]
	(*buf)[0] = 0;
 8001c5e:	6811      	ldr	r1, [r2, #0]
 8001c60:	2300      	movs	r3, #0
 8001c62:	700b      	strb	r3, [r1, #0]
	(*buf)[1] = 0;
 8001c64:	6812      	ldr	r2, [r2, #0]
 8001c66:	7053      	strb	r3, [r2, #1]
}
 8001c68:	2001      	movs	r0, #1
 8001c6a:	4770      	bx	lr

08001c6c <build_config_descriptor>:
{
 8001c6c:	e92d 4ff0 	stmdb	sp!, {r4, r5, r6, r7, r8, r9, sl, fp, lr}
 8001c70:	b089      	sub	sp, #36	; 0x24
 8001c72:	4617      	mov	r7, r2
 8001c74:	9207      	str	r2, [sp, #28]
 8001c76:	461d      	mov	r5, r3
	const struct usb_config_descriptor *cfg = &usbd_dev->config[index];
 8001c78:	6846      	ldr	r6, [r0, #4]
 8001c7a:	eb01 0441 	add.w	r4, r1, r1, lsl #1
 8001c7e:	eb01 0484 	add.w	r4, r1, r4, lsl #2
 8001c82:	1931      	adds	r1, r6, r4
 8001c84:	9104      	str	r1, [sp, #16]
	memcpy(buf, cfg, count = MIN(len, cfg->bLength));
 8001c86:	5d33      	ldrb	r3, [r6, r4]
 8001c88:	42ab      	cmp	r3, r5
 8001c8a:	bf28      	it	cs
 8001c8c:	462b      	movcs	r3, r5
 8001c8e:	469b      	mov	fp, r3
 8001c90:	461a      	mov	r2, r3
 8001c92:	4638      	mov	r0, r7
 8001c94:	f000 fc8d 	bl	80025b2 <memcpy>
	buf += count;
 8001c98:	eb07 0a0b 	add.w	sl, r7, fp
	len -= count;
 8001c9c:	eba5 050b 	sub.w	r5, r5, fp
 8001ca0:	fa1f f985 	uxth.w	r9, r5
	totallen += cfg->bLength;
 8001ca4:	5d33      	ldrb	r3, [r6, r4]
 8001ca6:	9301      	str	r3, [sp, #4]
	for (i = 0; i < cfg->bNumInterfaces; i++) {
 8001ca8:	2300      	movs	r3, #0
 8001caa:	9306      	str	r3, [sp, #24]
 8001cac:	e08c      	b.n	8001dc8 <build_config_descriptor+0x15c>
			for (k = 0; k < iface->bNumEndpoints; k++) {
 8001cae:	3501      	adds	r5, #1
 8001cb0:	b2ad      	uxth	r5, r5
 8001cb2:	9b02      	ldr	r3, [sp, #8]
 8001cb4:	791b      	ldrb	r3, [r3, #4]
 8001cb6:	42ab      	cmp	r3, r5
 8001cb8:	d93a      	bls.n	8001d30 <build_config_descriptor+0xc4>
				    &iface->endpoint[k];
 8001cba:	9b02      	ldr	r3, [sp, #8]
 8001cbc:	f8d3 8009 	ldr.w	r8, [r3, #9]
 8001cc0:	ebc5 1705 	rsb	r7, r5, r5, lsl #4
				const struct usb_endpoint_descriptor *ep =
 8001cc4:	eb08 0607 	add.w	r6, r8, r7
				memcpy(buf, ep, count = MIN(len, ep->bLength));
 8001cc8:	f818 4007 	ldrb.w	r4, [r8, r7]
 8001ccc:	454c      	cmp	r4, r9
 8001cce:	bf28      	it	cs
 8001cd0:	464c      	movcs	r4, r9
 8001cd2:	4622      	mov	r2, r4
 8001cd4:	4631      	mov	r1, r6
 8001cd6:	4650      	mov	r0, sl
 8001cd8:	f000 fc6b 	bl	80025b2 <memcpy>
				buf += count;
 8001cdc:	44a2      	add	sl, r4
				len -= count;
 8001cde:	eba9 0904 	sub.w	r9, r9, r4
 8001ce2:	fa1f f989 	uxth.w	r9, r9
				total += count;
 8001ce6:	44a3      	add	fp, r4
 8001ce8:	fa1f fb8b 	uxth.w	fp, fp
				totallen += ep->bLength;
 8001cec:	f818 3007 	ldrb.w	r3, [r8, r7]
 8001cf0:	9a01      	ldr	r2, [sp, #4]
 8001cf2:	4413      	add	r3, r2
 8001cf4:	b29f      	uxth	r7, r3
 8001cf6:	9701      	str	r7, [sp, #4]
				if (ep->extra) {
 8001cf8:	f8d6 1007 	ldr.w	r1, [r6, #7]
 8001cfc:	2900      	cmp	r1, #0
 8001cfe:	d0d6      	beq.n	8001cae <build_config_descriptor+0x42>
					       count = MIN(len, ep->extralen));
 8001d00:	f8d6 400b 	ldr.w	r4, [r6, #11]
 8001d04:	454c      	cmp	r4, r9
 8001d06:	bfa8      	it	ge
 8001d08:	464c      	movge	r4, r9
 8001d0a:	b2a4      	uxth	r4, r4
					memcpy(buf, ep->extra,
 8001d0c:	4622      	mov	r2, r4
 8001d0e:	4650      	mov	r0, sl
 8001d10:	f000 fc4f 	bl	80025b2 <memcpy>
					buf += count;
 8001d14:	44a2      	add	sl, r4
					len -= count;
 8001d16:	eba9 0904 	sub.w	r9, r9, r4
 8001d1a:	fa1f f989 	uxth.w	r9, r9
					total += count;
 8001d1e:	44a3      	add	fp, r4
 8001d20:	fa1f fb8b 	uxth.w	fp, fp
					totallen += ep->extralen;
 8001d24:	f8d6 300b 	ldr.w	r3, [r6, #11]
 8001d28:	443b      	add	r3, r7
 8001d2a:	b29b      	uxth	r3, r3
 8001d2c:	9301      	str	r3, [sp, #4]
 8001d2e:	e7be      	b.n	8001cae <build_config_descriptor+0x42>
		for (j = 0; j < cfg->interface[i].num_altsetting; j++) {
 8001d30:	9b03      	ldr	r3, [sp, #12]
 8001d32:	3301      	adds	r3, #1
 8001d34:	b29b      	uxth	r3, r3
 8001d36:	9303      	str	r3, [sp, #12]
 8001d38:	9b04      	ldr	r3, [sp, #16]
 8001d3a:	f8d3 3009 	ldr.w	r3, [r3, #9]
 8001d3e:	9a05      	ldr	r2, [sp, #20]
 8001d40:	4413      	add	r3, r2
 8001d42:	791a      	ldrb	r2, [r3, #4]
 8001d44:	9903      	ldr	r1, [sp, #12]
 8001d46:	428a      	cmp	r2, r1
 8001d48:	d93a      	bls.n	8001dc0 <build_config_descriptor+0x154>
					&cfg->interface[i].altsetting[j];
 8001d4a:	68de      	ldr	r6, [r3, #12]
 8001d4c:	9b03      	ldr	r3, [sp, #12]
 8001d4e:	eb03 0543 	add.w	r5, r3, r3, lsl #1
 8001d52:	ebc5 05c5 	rsb	r5, r5, r5, lsl #3
			const struct usb_interface_descriptor *iface =
 8001d56:	1973      	adds	r3, r6, r5
 8001d58:	461f      	mov	r7, r3
 8001d5a:	9302      	str	r3, [sp, #8]
			memcpy(buf, iface, count = MIN(len, iface->bLength));
 8001d5c:	5d74      	ldrb	r4, [r6, r5]
 8001d5e:	454c      	cmp	r4, r9
 8001d60:	bf28      	it	cs
 8001d62:	464c      	movcs	r4, r9
 8001d64:	4622      	mov	r2, r4
 8001d66:	4619      	mov	r1, r3
 8001d68:	4650      	mov	r0, sl
 8001d6a:	f000 fc22 	bl	80025b2 <memcpy>
			buf += count;
 8001d6e:	44a2      	add	sl, r4
			len -= count;
 8001d70:	eba9 0904 	sub.w	r9, r9, r4
 8001d74:	fa1f f989 	uxth.w	r9, r9
			total += count;
 8001d78:	44a3      	add	fp, r4
 8001d7a:	fa1f fb8b 	uxth.w	fp, fp
			totallen += iface->bLength;
 8001d7e:	5d73      	ldrb	r3, [r6, r5]
 8001d80:	9a01      	ldr	r2, [sp, #4]
 8001d82:	4413      	add	r3, r2
 8001d84:	b29e      	uxth	r6, r3
 8001d86:	9601      	str	r6, [sp, #4]
			if (iface->extra) {
 8001d88:	f8d7 100d 	ldr.w	r1, [r7, #13]
 8001d8c:	b1b1      	cbz	r1, 8001dbc <build_config_descriptor+0x150>
				       count = MIN(len, iface->extralen));
 8001d8e:	f8d7 4011 	ldr.w	r4, [r7, #17]
 8001d92:	454c      	cmp	r4, r9
 8001d94:	bfa8      	it	ge
 8001d96:	464c      	movge	r4, r9
 8001d98:	b2a4      	uxth	r4, r4
				memcpy(buf, iface->extra,
 8001d9a:	4622      	mov	r2, r4
 8001d9c:	4650      	mov	r0, sl
 8001d9e:	f000 fc08 	bl	80025b2 <memcpy>
				buf += count;
 8001da2:	44a2      	add	sl, r4
				len -= count;
 8001da4:	eba9 0904 	sub.w	r9, r9, r4
 8001da8:	fa1f f989 	uxth.w	r9, r9
				total += count;
 8001dac:	44a3      	add	fp, r4
 8001dae:	fa1f fb8b 	uxth.w	fp, fp
				totallen += iface->extralen;
 8001db2:	f8d7 3011 	ldr.w	r3, [r7, #17]
 8001db6:	4433      	add	r3, r6
 8001db8:	b29b      	uxth	r3, r3
 8001dba:	9301      	str	r3, [sp, #4]
{
 8001dbc:	2500      	movs	r5, #0
 8001dbe:	e778      	b.n	8001cb2 <build_config_descriptor+0x46>
	for (i = 0; i < cfg->bNumInterfaces; i++) {
 8001dc0:	9b06      	ldr	r3, [sp, #24]
 8001dc2:	3301      	adds	r3, #1
 8001dc4:	b29b      	uxth	r3, r3
 8001dc6:	9306      	str	r3, [sp, #24]
 8001dc8:	9b04      	ldr	r3, [sp, #16]
 8001dca:	791b      	ldrb	r3, [r3, #4]
 8001dcc:	9a06      	ldr	r2, [sp, #24]
 8001dce:	4293      	cmp	r3, r2
 8001dd0:	d921      	bls.n	8001e16 <build_config_descriptor+0x1aa>
		if (cfg->interface[i].iface_assoc) {
 8001dd2:	9b04      	ldr	r3, [sp, #16]
 8001dd4:	f8d3 3009 	ldr.w	r3, [r3, #9]
 8001dd8:	9a06      	ldr	r2, [sp, #24]
 8001dda:	0112      	lsls	r2, r2, #4
 8001ddc:	9205      	str	r2, [sp, #20]
 8001dde:	4413      	add	r3, r2
 8001de0:	689d      	ldr	r5, [r3, #8]
 8001de2:	b1ad      	cbz	r5, 8001e10 <build_config_descriptor+0x1a4>
			memcpy(buf, assoc, count = MIN(len, assoc->bLength));
 8001de4:	782c      	ldrb	r4, [r5, #0]
 8001de6:	454c      	cmp	r4, r9
 8001de8:	bf28      	it	cs
 8001dea:	464c      	movcs	r4, r9
 8001dec:	4622      	mov	r2, r4
 8001dee:	4629      	mov	r1, r5
 8001df0:	4650      	mov	r0, sl
 8001df2:	f000 fbde 	bl	80025b2 <memcpy>
			buf += count;
 8001df6:	44a2      	add	sl, r4
			len -= count;
 8001df8:	eba9 0904 	sub.w	r9, r9, r4
 8001dfc:	fa1f f989 	uxth.w	r9, r9
			total += count;
 8001e00:	445c      	add	r4, fp
 8001e02:	fa1f fb84 	uxth.w	fp, r4
			totallen += assoc->bLength;
 8001e06:	782b      	ldrb	r3, [r5, #0]
 8001e08:	9a01      	ldr	r2, [sp, #4]
 8001e0a:	4413      	add	r3, r2
 8001e0c:	b29b      	uxth	r3, r3
 8001e0e:	9301      	str	r3, [sp, #4]
{
 8001e10:	2300      	movs	r3, #0
 8001e12:	9303      	str	r3, [sp, #12]
 8001e14:	e790      	b.n	8001d38 <build_config_descriptor+0xcc>
	*(uint16_t *)(tmpbuf + 2) = totallen;
 8001e16:	9b07      	ldr	r3, [sp, #28]
 8001e18:	f8bd 2004 	ldrh.w	r2, [sp, #4]
 8001e1c:	805a      	strh	r2, [r3, #2]
}
 8001e1e:	4658      	mov	r0, fp
 8001e20:	b009      	add	sp, #36	; 0x24
 8001e22:	e8bd 8ff0 	ldmia.w	sp!, {r4, r5, r6, r7, r8, r9, sl, fp, pc}

08001e26 <usb_standard_get_descriptor>:
{
 8001e26:	e92d 43f8 	stmdb	sp!, {r3, r4, r5, r6, r7, r8, r9, lr}
 8001e2a:	4605      	mov	r5, r0
 8001e2c:	460f      	mov	r7, r1
 8001e2e:	4691      	mov	r9, r2
 8001e30:	461e      	mov	r6, r3
	descr_idx = usb_descriptor_index(req->wValue);
 8001e32:	884c      	ldrh	r4, [r1, #2]
 8001e34:	4620      	mov	r0, r4
 8001e36:	f7ff fe2e 	bl	8001a96 <usb_descriptor_index>
 8001e3a:	4680      	mov	r8, r0
	switch (usb_descriptor_type(req->wValue)) {
 8001e3c:	4620      	mov	r0, r4
 8001e3e:	f7ff fe28 	bl	8001a92 <usb_descriptor_type>
 8001e42:	2802      	cmp	r0, #2
 8001e44:	d011      	beq.n	8001e6a <usb_standard_get_descriptor+0x44>
 8001e46:	2803      	cmp	r0, #3
 8001e48:	d01b      	beq.n	8001e82 <usb_standard_get_descriptor+0x5c>
 8001e4a:	2801      	cmp	r0, #1
 8001e4c:	d001      	beq.n	8001e52 <usb_standard_get_descriptor+0x2c>
	return USBD_REQ_NOTSUPP;
 8001e4e:	2000      	movs	r0, #0
 8001e50:	e009      	b.n	8001e66 <usb_standard_get_descriptor+0x40>
		*buf = (uint8_t *) usbd_dev->desc;
 8001e52:	682b      	ldr	r3, [r5, #0]
 8001e54:	f8c9 3000 	str.w	r3, [r9]
		*len = MIN(*len, usbd_dev->desc->bLength);
 8001e58:	682b      	ldr	r3, [r5, #0]
 8001e5a:	781b      	ldrb	r3, [r3, #0]
 8001e5c:	8832      	ldrh	r2, [r6, #0]
 8001e5e:	4293      	cmp	r3, r2
 8001e60:	bf28      	it	cs
 8001e62:	4613      	movcs	r3, r2
 8001e64:	8033      	strh	r3, [r6, #0]
}
 8001e66:	e8bd 83f8 	ldmia.w	sp!, {r3, r4, r5, r6, r7, r8, r9, pc}
		*buf = usbd_dev->ctrl_buf;
 8001e6a:	692a      	ldr	r2, [r5, #16]
 8001e6c:	f8c9 2000 	str.w	r2, [r9]
		*len = build_config_descriptor(usbd_dev, descr_idx, *buf, *len);
 8001e70:	8833      	ldrh	r3, [r6, #0]
 8001e72:	fa5f f188 	uxtb.w	r1, r8
 8001e76:	4628      	mov	r0, r5
 8001e78:	f7ff fef8 	bl	8001c6c <build_config_descriptor>
 8001e7c:	8030      	strh	r0, [r6, #0]
		return USBD_REQ_HANDLED;
 8001e7e:	2001      	movs	r0, #1
 8001e80:	e7f1      	b.n	8001e66 <usb_standard_get_descriptor+0x40>
		sd = (struct usb_string_descriptor *)usbd_dev->ctrl_buf;
 8001e82:	692c      	ldr	r4, [r5, #16]
		if (descr_idx == 0) {
 8001e84:	f1b8 0f00 	cmp.w	r8, #0
 8001e88:	d10f      	bne.n	8001eaa <usb_standard_get_descriptor+0x84>
			sd->wData[0] = USB_LANGID_ENGLISH_US;
 8001e8a:	2309      	movs	r3, #9
 8001e8c:	70a3      	strb	r3, [r4, #2]
 8001e8e:	2304      	movs	r3, #4
 8001e90:	70e3      	strb	r3, [r4, #3]
			sd->bLength = sizeof(sd->bLength) +
 8001e92:	7023      	strb	r3, [r4, #0]
			*len = MIN(*len, sd->bLength);
 8001e94:	8833      	ldrh	r3, [r6, #0]
 8001e96:	2b04      	cmp	r3, #4
 8001e98:	bf28      	it	cs
 8001e9a:	2304      	movcs	r3, #4
 8001e9c:	8033      	strh	r3, [r6, #0]
		sd->bDescriptorType = USB_DT_STRING;
 8001e9e:	2303      	movs	r3, #3
 8001ea0:	7063      	strb	r3, [r4, #1]
		*buf = (uint8_t *)sd;
 8001ea2:	f8c9 4000 	str.w	r4, [r9]
		return USBD_REQ_HANDLED;
 8001ea6:	2001      	movs	r0, #1
 8001ea8:	e7dd      	b.n	8001e66 <usb_standard_get_descriptor+0x40>
			array_idx = descr_idx - 1;
 8001eaa:	f108 38ff 	add.w	r8, r8, #4294967295	; 0xffffffff
			if (!usbd_dev->strings) {
 8001eae:	68ab      	ldr	r3, [r5, #8]
 8001eb0:	b343      	cbz	r3, 8001f04 <usb_standard_get_descriptor+0xde>
			if (array_idx >= usbd_dev->num_strings) {
 8001eb2:	68ea      	ldr	r2, [r5, #12]
 8001eb4:	4542      	cmp	r2, r8
 8001eb6:	dd27      	ble.n	8001f08 <usb_standard_get_descriptor+0xe2>
			if (req->wIndex != USB_LANGID_ENGLISH_US) {
 8001eb8:	88b9      	ldrh	r1, [r7, #4]
 8001eba:	f240 4209 	movw	r2, #1033	; 0x409
 8001ebe:	4291      	cmp	r1, r2
 8001ec0:	d001      	beq.n	8001ec6 <usb_standard_get_descriptor+0xa0>
				return USBD_REQ_NOTSUPP;
 8001ec2:	2000      	movs	r0, #0
 8001ec4:	e7cf      	b.n	8001e66 <usb_standard_get_descriptor+0x40>
			sd->bLength = strlen(usbd_dev->strings[array_idx]) * 2 +
 8001ec6:	ea4f 0788 	mov.w	r7, r8, lsl #2
 8001eca:	f853 0028 	ldr.w	r0, [r3, r8, lsl #2]
 8001ece:	f000 fb88 	bl	80025e2 <strlen>
 8001ed2:	1c43      	adds	r3, r0, #1
 8001ed4:	005b      	lsls	r3, r3, #1
 8001ed6:	b2db      	uxtb	r3, r3
 8001ed8:	7023      	strb	r3, [r4, #0]
			*len = MIN(*len, sd->bLength);
 8001eda:	b29b      	uxth	r3, r3
 8001edc:	8832      	ldrh	r2, [r6, #0]
 8001ede:	4293      	cmp	r3, r2
 8001ee0:	bf28      	it	cs
 8001ee2:	4613      	movcs	r3, r2
 8001ee4:	8033      	strh	r3, [r6, #0]
			for (i = 0; i < (*len / 2) - 1; i++) {
 8001ee6:	2200      	movs	r2, #0
 8001ee8:	e006      	b.n	8001ef8 <usb_standard_get_descriptor+0xd2>
					usbd_dev->strings[array_idx][i];
 8001eea:	68ab      	ldr	r3, [r5, #8]
 8001eec:	59db      	ldr	r3, [r3, r7]
 8001eee:	5c99      	ldrb	r1, [r3, r2]
				sd->wData[i] =
 8001ef0:	eb04 0342 	add.w	r3, r4, r2, lsl #1
 8001ef4:	8059      	strh	r1, [r3, #2]
			for (i = 0; i < (*len / 2) - 1; i++) {
 8001ef6:	3201      	adds	r2, #1
 8001ef8:	8833      	ldrh	r3, [r6, #0]
 8001efa:	085b      	lsrs	r3, r3, #1
 8001efc:	3b01      	subs	r3, #1
 8001efe:	4293      	cmp	r3, r2
 8001f00:	dcf3      	bgt.n	8001eea <usb_standard_get_descriptor+0xc4>
 8001f02:	e7cc      	b.n	8001e9e <usb_standard_get_descriptor+0x78>
				return USBD_REQ_NOTSUPP;
 8001f04:	2000      	movs	r0, #0
 8001f06:	e7ae      	b.n	8001e66 <usb_standard_get_descriptor+0x40>
				return USBD_REQ_NOTSUPP;
 8001f08:	2000      	movs	r0, #0
 8001f0a:	e7ac      	b.n	8001e66 <usb_standard_get_descriptor+0x40>

08001f0c <usb_standard_endpoint_get_status>:
{
 8001f0c:	b510      	push	{r4, lr}
 8001f0e:	4614      	mov	r4, r2
	if (*len > 2) {
 8001f10:	881a      	ldrh	r2, [r3, #0]
 8001f12:	2a02      	cmp	r2, #2
 8001f14:	d901      	bls.n	8001f1a <usb_standard_endpoint_get_status+0xe>
		*len = 2;
 8001f16:	2202      	movs	r2, #2
 8001f18:	801a      	strh	r2, [r3, #0]
	(*buf)[0] = usbd_ep_stall_get(usbd_dev, req->wIndex) ? 1 : 0;
 8001f1a:	8889      	ldrh	r1, [r1, #4]
 8001f1c:	b2c9      	uxtb	r1, r1
 8001f1e:	f7ff fc53 	bl	80017c8 <usbd_ep_stall_get>
 8001f22:	6823      	ldr	r3, [r4, #0]
 8001f24:	3000      	adds	r0, #0
 8001f26:	bf18      	it	ne
 8001f28:	2001      	movne	r0, #1
 8001f2a:	7018      	strb	r0, [r3, #0]
	(*buf)[1] = 0;
 8001f2c:	6823      	ldr	r3, [r4, #0]
 8001f2e:	2200      	movs	r2, #0
 8001f30:	705a      	strb	r2, [r3, #1]
}
 8001f32:	2001      	movs	r0, #1
 8001f34:	bd10      	pop	{r4, pc}

08001f36 <usb_standard_endpoint_stall>:
{
 8001f36:	b508      	push	{r3, lr}
	usbd_ep_stall_set(usbd_dev, req->wIndex, 1);
 8001f38:	8889      	ldrh	r1, [r1, #4]
 8001f3a:	2201      	movs	r2, #1
 8001f3c:	b2c9      	uxtb	r1, r1
 8001f3e:	f7ff fc3d 	bl	80017bc <usbd_ep_stall_set>
}
 8001f42:	2001      	movs	r0, #1
 8001f44:	bd08      	pop	{r3, pc}

08001f46 <usb_standard_endpoint_unstall>:
{
 8001f46:	b508      	push	{r3, lr}
	usbd_ep_stall_set(usbd_dev, req->wIndex, 0);
 8001f48:	8889      	ldrh	r1, [r1, #4]
 8001f4a:	2200      	movs	r2, #0
 8001f4c:	b2c9      	uxtb	r1, r1
 8001f4e:	f7ff fc35 	bl	80017bc <usbd_ep_stall_set>
}
 8001f52:	2001      	movs	r0, #1
 8001f54:	bd08      	pop	{r3, pc}

08001f56 <usbd_register_set_config_callback>:
	for (i = 0; i < MAX_USER_SET_CONFIG_CALLBACK; i++) {
 8001f56:	2300      	movs	r3, #0
 8001f58:	2b03      	cmp	r3, #3
 8001f5a:	dc0d      	bgt.n	8001f78 <usbd_register_set_config_callback+0x22>
		if (usbd_dev->user_callback_set_config[i])
 8001f5c:	f103 0230 	add.w	r2, r3, #48	; 0x30
 8001f60:	eb00 0282 	add.w	r2, r0, r2, lsl #2
 8001f64:	6852      	ldr	r2, [r2, #4]
 8001f66:	b10a      	cbz	r2, 8001f6c <usbd_register_set_config_callback+0x16>
	for (i = 0; i < MAX_USER_SET_CONFIG_CALLBACK; i++) {
 8001f68:	3301      	adds	r3, #1
 8001f6a:	e7f5      	b.n	8001f58 <usbd_register_set_config_callback+0x2>
		usbd_dev->user_callback_set_config[i] = callback;
 8001f6c:	3330      	adds	r3, #48	; 0x30
 8001f6e:	eb00 0383 	add.w	r3, r0, r3, lsl #2
 8001f72:	6059      	str	r1, [r3, #4]
		return 0;
 8001f74:	2000      	movs	r0, #0
 8001f76:	4770      	bx	lr
	return -1;
 8001f78:	f04f 30ff 	mov.w	r0, #4294967295	; 0xffffffff
}
 8001f7c:	4770      	bx	lr

08001f7e <_usbd_standard_request>:

int _usbd_standard_request(usbd_device *usbd_dev, struct usb_setup_data *req,
			   uint8_t **buf, uint16_t *len)
{
 8001f7e:	b510      	push	{r4, lr}
	/* FIXME: Have class/vendor requests as well. */
	if ((req->bmRequestType & USB_REQ_TYPE_TYPE) != USB_REQ_TYPE_STANDARD) {
 8001f80:	780c      	ldrb	r4, [r1, #0]
 8001f82:	f014 0f60 	tst.w	r4, #96	; 0x60
 8001f86:	d111      	bne.n	8001fac <_usbd_standard_request+0x2e>
		return 0;
	}

	switch (req->bmRequestType & USB_REQ_TYPE_RECIPIENT) {
 8001f88:	f004 041f 	and.w	r4, r4, #31
 8001f8c:	2c01      	cmp	r4, #1
 8001f8e:	d007      	beq.n	8001fa0 <_usbd_standard_request+0x22>
 8001f90:	b11c      	cbz	r4, 8001f9a <_usbd_standard_request+0x1c>
 8001f92:	2c02      	cmp	r4, #2
 8001f94:	d007      	beq.n	8001fa6 <_usbd_standard_request+0x28>
		return _usbd_standard_request_interface(usbd_dev, req,
							buf, len);
	case USB_REQ_TYPE_ENDPOINT:
		return _usbd_standard_request_endpoint(usbd_dev, req, buf, len);
	default:
		return 0;
 8001f96:	2000      	movs	r0, #0
 8001f98:	e009      	b.n	8001fae <_usbd_standard_request+0x30>
		return _usbd_standard_request_device(usbd_dev, req, buf, len);
 8001f9a:	f7ff f8a1 	bl	80010e0 <_usbd_standard_request_device>
 8001f9e:	e006      	b.n	8001fae <_usbd_standard_request+0x30>
		return _usbd_standard_request_interface(usbd_dev, req,
 8001fa0:	f7ff f8c4 	bl	800112c <_usbd_standard_request_interface>
 8001fa4:	e003      	b.n	8001fae <_usbd_standard_request+0x30>
		return _usbd_standard_request_endpoint(usbd_dev, req, buf, len);
 8001fa6:	f7ff f8db 	bl	8001160 <_usbd_standard_request_endpoint>
 8001faa:	e000      	b.n	8001fae <_usbd_standard_request+0x30>
		return 0;
 8001fac:	2000      	movs	r0, #0
	}
}
 8001fae:	bd10      	pop	{r4, pc}

08001fb0 <st_usbfs_copy_to_pm>:

void st_usbfs_copy_to_pm(volatile void *vPM, const void *buf, uint16_t len)
{
	const uint16_t *lbuf = buf;
	volatile uint32_t *PM = vPM;
	for (len = (len + 1) >> 1; len; len--) {
 8001fb0:	3201      	adds	r2, #1
 8001fb2:	0852      	lsrs	r2, r2, #1
 8001fb4:	e005      	b.n	8001fc2 <st_usbfs_copy_to_pm+0x12>
		*PM++ = *lbuf++;
 8001fb6:	880b      	ldrh	r3, [r1, #0]
 8001fb8:	6003      	str	r3, [r0, #0]
	for (len = (len + 1) >> 1; len; len--) {
 8001fba:	3a01      	subs	r2, #1
 8001fbc:	b292      	uxth	r2, r2
		*PM++ = *lbuf++;
 8001fbe:	3004      	adds	r0, #4
 8001fc0:	3102      	adds	r1, #2
	for (len = (len + 1) >> 1; len; len--) {
 8001fc2:	2a00      	cmp	r2, #0
 8001fc4:	d1f7      	bne.n	8001fb6 <st_usbfs_copy_to_pm+0x6>
	}
}
 8001fc6:	4770      	bx	lr

08001fc8 <st_usbfs_copy_from_pm>:
 * @param buf Source pointer to data buffer.
 * @param vPM Destination pointer into packet memory.
 * @param len Number of bytes to copy.
 */
void st_usbfs_copy_from_pm(void *buf, const volatile void *vPM, uint16_t len)
{
 8001fc8:	b410      	push	{r4}
	uint16_t *lbuf = buf;
	const volatile uint16_t *PM = vPM;
	uint8_t odd = len & 1;
 8001fca:	f002 0401 	and.w	r4, r2, #1

	for (len >>= 1; len; PM += 2, lbuf++, len--) {
 8001fce:	0852      	lsrs	r2, r2, #1
 8001fd0:	e005      	b.n	8001fde <st_usbfs_copy_from_pm+0x16>
		*lbuf = *PM;
 8001fd2:	f831 3b04 	ldrh.w	r3, [r1], #4
 8001fd6:	f820 3b02 	strh.w	r3, [r0], #2
	for (len >>= 1; len; PM += 2, lbuf++, len--) {
 8001fda:	3a01      	subs	r2, #1
 8001fdc:	b292      	uxth	r2, r2
 8001fde:	2a00      	cmp	r2, #0
 8001fe0:	d1f7      	bne.n	8001fd2 <st_usbfs_copy_from_pm+0xa>
	}

	if (odd) {
 8001fe2:	b10c      	cbz	r4, 8001fe8 <st_usbfs_copy_from_pm+0x20>
		*(uint8_t *) lbuf = *(uint8_t *) PM;
 8001fe4:	780b      	ldrb	r3, [r1, #0]
 8001fe6:	7003      	strb	r3, [r0, #0]
	}
}
 8001fe8:	bc10      	pop	{r4}
 8001fea:	4770      	bx	lr

08001fec <nvic_enable_irq>:
 * @param[in] irqn Unsigned int8. Interrupt number @ref nvic_stm32f1_userint
 */

void nvic_enable_irq(uint8_t irqn)
{
	NVIC_ISER(irqn / 32) = (1 << (irqn % 32));
 8001fec:	f000 021f 	and.w	r2, r0, #31
 8001ff0:	0940      	lsrs	r0, r0, #5
 8001ff2:	0080      	lsls	r0, r0, #2
 8001ff4:	f100 4060 	add.w	r0, r0, #3758096384	; 0xe0000000
 8001ff8:	f500 4061 	add.w	r0, r0, #57600	; 0xe100
 8001ffc:	2301      	movs	r3, #1
 8001ffe:	4093      	lsls	r3, r2
 8002000:	6003      	str	r3, [r0, #0]
}
 8002002:	4770      	bx	lr

08002004 <st_usbfs_endpoints_reset>:
{
 8002004:	b410      	push	{r4}
	for (i = 1; i < 8; i++) {
 8002006:	2401      	movs	r4, #1
 8002008:	e01b      	b.n	8002042 <st_usbfs_endpoints_reset+0x3e>
		USB_SET_EP_TX_STAT(i, USB_EP_TX_STAT_DISABLED);
 800200a:	005b      	lsls	r3, r3, #1
 800200c:	b29b      	uxth	r3, r3
 800200e:	2b00      	cmp	r3, #0
 8002010:	d1fb      	bne.n	800200a <st_usbfs_endpoints_reset+0x6>
 8002012:	f442 4200 	orr.w	r2, r2, #32768	; 0x8000
 8002016:	f042 0280 	orr.w	r2, r2, #128	; 0x80
 800201a:	600a      	str	r2, [r1, #0]
		USB_SET_EP_RX_STAT(i, USB_EP_RX_STAT_DISABLED);
 800201c:	680b      	ldr	r3, [r1, #0]
 800201e:	b29b      	uxth	r3, r3
 8002020:	f423 4380 	bic.w	r3, r3, #16384	; 0x4000
 8002024:	f023 0370 	bic.w	r3, r3, #112	; 0x70
 8002028:	b29a      	uxth	r2, r3
 800202a:	2301      	movs	r3, #1
 800202c:	e001      	b.n	8002032 <st_usbfs_endpoints_reset+0x2e>
 800202e:	005b      	lsls	r3, r3, #1
 8002030:	b29b      	uxth	r3, r3
 8002032:	2b00      	cmp	r3, #0
 8002034:	d1fb      	bne.n	800202e <st_usbfs_endpoints_reset+0x2a>
 8002036:	f442 4200 	orr.w	r2, r2, #32768	; 0x8000
 800203a:	f042 0280 	orr.w	r2, r2, #128	; 0x80
 800203e:	600a      	str	r2, [r1, #0]
	for (i = 1; i < 8; i++) {
 8002040:	3401      	adds	r4, #1
 8002042:	2c07      	cmp	r4, #7
 8002044:	dc0d      	bgt.n	8002062 <st_usbfs_endpoints_reset+0x5e>
		USB_SET_EP_TX_STAT(i, USB_EP_TX_STAT_DISABLED);
 8002046:	00a1      	lsls	r1, r4, #2
 8002048:	f101 4180 	add.w	r1, r1, #1073741824	; 0x40000000
 800204c:	f501 41b8 	add.w	r1, r1, #23552	; 0x5c00
 8002050:	680b      	ldr	r3, [r1, #0]
 8002052:	b29b      	uxth	r3, r3
 8002054:	f423 43e0 	bic.w	r3, r3, #28672	; 0x7000
 8002058:	f023 0340 	bic.w	r3, r3, #64	; 0x40
 800205c:	b29a      	uxth	r2, r3
 800205e:	2301      	movs	r3, #1
 8002060:	e7d5      	b.n	800200e <st_usbfs_endpoints_reset+0xa>
	dev->pm_top = USBD_PM_TOP + (2 * dev->desc->bMaxPacketSize0);
 8002062:	6803      	ldr	r3, [r0, #0]
 8002064:	79db      	ldrb	r3, [r3, #7]
 8002066:	3320      	adds	r3, #32
 8002068:	005b      	lsls	r3, r3, #1
 800206a:	8303      	strh	r3, [r0, #24]
}
 800206c:	bc10      	pop	{r4}
 800206e:	4770      	bx	lr

08002070 <st_usbfs_ep_stall_set>:
{
 8002070:	b470      	push	{r4, r5, r6}
	if (addr == 0) {
 8002072:	460d      	mov	r5, r1
 8002074:	b9f9      	cbnz	r1, 80020b6 <st_usbfs_ep_stall_set+0x46>
		USB_SET_EP_TX_STAT(addr, stall ? USB_EP_TX_STAT_STALL :
 8002076:	008e      	lsls	r6, r1, #2
 8002078:	f106 4680 	add.w	r6, r6, #1073741824	; 0x40000000
 800207c:	f506 46b8 	add.w	r6, r6, #23552	; 0x5c00
 8002080:	6834      	ldr	r4, [r6, #0]
 8002082:	b2a4      	uxth	r4, r4
 8002084:	f424 44e0 	bic.w	r4, r4, #28672	; 0x7000
 8002088:	f024 0440 	bic.w	r4, r4, #64	; 0x40
 800208c:	b2a4      	uxth	r4, r4
 800208e:	2301      	movs	r3, #1
 8002090:	e003      	b.n	800209a <st_usbfs_ep_stall_set+0x2a>
 8002092:	2020      	movs	r0, #32
 8002094:	e006      	b.n	80020a4 <st_usbfs_ep_stall_set+0x34>
 8002096:	005b      	lsls	r3, r3, #1
 8002098:	b29b      	uxth	r3, r3
 800209a:	b13b      	cbz	r3, 80020ac <st_usbfs_ep_stall_set+0x3c>
 800209c:	4619      	mov	r1, r3
 800209e:	2a00      	cmp	r2, #0
 80020a0:	d0f7      	beq.n	8002092 <st_usbfs_ep_stall_set+0x22>
 80020a2:	2010      	movs	r0, #16
 80020a4:	4201      	tst	r1, r0
 80020a6:	d0f6      	beq.n	8002096 <st_usbfs_ep_stall_set+0x26>
 80020a8:	405c      	eors	r4, r3
 80020aa:	e7f4      	b.n	8002096 <st_usbfs_ep_stall_set+0x26>
 80020ac:	f444 4400 	orr.w	r4, r4, #32768	; 0x8000
 80020b0:	f044 0480 	orr.w	r4, r4, #128	; 0x80
 80020b4:	6034      	str	r4, [r6, #0]
	if (addr & 0x80) {
 80020b6:	f015 0f80 	tst.w	r5, #128	; 0x80
 80020ba:	d11b      	bne.n	80020f4 <st_usbfs_ep_stall_set+0x84>
		if (!stall) {
 80020bc:	b962      	cbnz	r2, 80020d8 <st_usbfs_ep_stall_set+0x68>
			USB_CLR_EP_RX_DTOG(addr);
 80020be:	00ab      	lsls	r3, r5, #2
 80020c0:	f103 4380 	add.w	r3, r3, #1073741824	; 0x40000000
 80020c4:	f503 43b8 	add.w	r3, r3, #23552	; 0x5c00
 80020c8:	6819      	ldr	r1, [r3, #0]
 80020ca:	f421 5141 	bic.w	r1, r1, #12352	; 0x3040
 80020ce:	f021 0130 	bic.w	r1, r1, #48	; 0x30
 80020d2:	0409      	lsls	r1, r1, #16
 80020d4:	0c09      	lsrs	r1, r1, #16
 80020d6:	6019      	str	r1, [r3, #0]
		USB_SET_EP_RX_STAT(addr, stall ? USB_EP_RX_STAT_STALL :
 80020d8:	00ad      	lsls	r5, r5, #2
 80020da:	f105 4580 	add.w	r5, r5, #1073741824	; 0x40000000
 80020de:	f505 45b8 	add.w	r5, r5, #23552	; 0x5c00
 80020e2:	682c      	ldr	r4, [r5, #0]
 80020e4:	b2a4      	uxth	r4, r4
 80020e6:	f424 4480 	bic.w	r4, r4, #16384	; 0x4000
 80020ea:	f024 0470 	bic.w	r4, r4, #112	; 0x70
 80020ee:	b2a4      	uxth	r4, r4
 80020f0:	2301      	movs	r3, #1
 80020f2:	e030      	b.n	8002156 <st_usbfs_ep_stall_set+0xe6>
		addr &= 0x7F;
 80020f4:	f005 057f 	and.w	r5, r5, #127	; 0x7f
		USB_SET_EP_TX_STAT(addr, stall ? USB_EP_TX_STAT_STALL :
 80020f8:	00ad      	lsls	r5, r5, #2
 80020fa:	f105 4580 	add.w	r5, r5, #1073741824	; 0x40000000
 80020fe:	f505 45b8 	add.w	r5, r5, #23552	; 0x5c00
 8002102:	682c      	ldr	r4, [r5, #0]
 8002104:	b2a4      	uxth	r4, r4
 8002106:	f424 44e0 	bic.w	r4, r4, #28672	; 0x7000
 800210a:	f024 0440 	bic.w	r4, r4, #64	; 0x40
 800210e:	b2a4      	uxth	r4, r4
 8002110:	2301      	movs	r3, #1
 8002112:	e003      	b.n	800211c <st_usbfs_ep_stall_set+0xac>
 8002114:	2020      	movs	r0, #32
 8002116:	e006      	b.n	8002126 <st_usbfs_ep_stall_set+0xb6>
 8002118:	005b      	lsls	r3, r3, #1
 800211a:	b29b      	uxth	r3, r3
 800211c:	b13b      	cbz	r3, 800212e <st_usbfs_ep_stall_set+0xbe>
 800211e:	4619      	mov	r1, r3
 8002120:	2a00      	cmp	r2, #0
 8002122:	d0f7      	beq.n	8002114 <st_usbfs_ep_stall_set+0xa4>
 8002124:	2010      	movs	r0, #16
 8002126:	4201      	tst	r1, r0
 8002128:	d0f6      	beq.n	8002118 <st_usbfs_ep_stall_set+0xa8>
 800212a:	405c      	eors	r4, r3
 800212c:	e7f4      	b.n	8002118 <st_usbfs_ep_stall_set+0xa8>
 800212e:	f444 4400 	orr.w	r4, r4, #32768	; 0x8000
 8002132:	f044 0480 	orr.w	r4, r4, #128	; 0x80
 8002136:	602c      	str	r4, [r5, #0]
		if (!stall) {
 8002138:	b9e2      	cbnz	r2, 8002174 <st_usbfs_ep_stall_set+0x104>
			USB_CLR_EP_TX_DTOG(addr);
 800213a:	682b      	ldr	r3, [r5, #0]
 800213c:	f423 43e0 	bic.w	r3, r3, #28672	; 0x7000
 8002140:	f023 0330 	bic.w	r3, r3, #48	; 0x30
 8002144:	041b      	lsls	r3, r3, #16
 8002146:	0c1b      	lsrs	r3, r3, #16
 8002148:	602b      	str	r3, [r5, #0]
 800214a:	e013      	b.n	8002174 <st_usbfs_ep_stall_set+0x104>
		USB_SET_EP_RX_STAT(addr, stall ? USB_EP_RX_STAT_STALL :
 800214c:	f44f 5040 	mov.w	r0, #12288	; 0x3000
 8002150:	e007      	b.n	8002162 <st_usbfs_ep_stall_set+0xf2>
 8002152:	005b      	lsls	r3, r3, #1
 8002154:	b29b      	uxth	r3, r3
 8002156:	b143      	cbz	r3, 800216a <st_usbfs_ep_stall_set+0xfa>
 8002158:	4619      	mov	r1, r3
 800215a:	2a00      	cmp	r2, #0
 800215c:	d0f6      	beq.n	800214c <st_usbfs_ep_stall_set+0xdc>
 800215e:	f44f 5080 	mov.w	r0, #4096	; 0x1000
 8002162:	4201      	tst	r1, r0
 8002164:	d0f5      	beq.n	8002152 <st_usbfs_ep_stall_set+0xe2>
 8002166:	405c      	eors	r4, r3
 8002168:	e7f3      	b.n	8002152 <st_usbfs_ep_stall_set+0xe2>
 800216a:	f444 4400 	orr.w	r4, r4, #32768	; 0x8000
 800216e:	f044 0480 	orr.w	r4, r4, #128	; 0x80
 8002172:	602c      	str	r4, [r5, #0]
}
 8002174:	bc70      	pop	{r4, r5, r6}
 8002176:	4770      	bx	lr

08002178 <st_usbfs_ep_stall_get>:
	if (addr & 0x80) {
 8002178:	f011 0f80 	tst.w	r1, #128	; 0x80
 800217c:	d10c      	bne.n	8002198 <st_usbfs_ep_stall_get+0x20>
		if ((*USB_EP_REG(addr) & USB_EP_RX_STAT) ==
 800217e:	0089      	lsls	r1, r1, #2
 8002180:	f101 4180 	add.w	r1, r1, #1073741824	; 0x40000000
 8002184:	f501 41b8 	add.w	r1, r1, #23552	; 0x5c00
 8002188:	680b      	ldr	r3, [r1, #0]
 800218a:	f403 5340 	and.w	r3, r3, #12288	; 0x3000
 800218e:	f5b3 5f80 	cmp.w	r3, #4096	; 0x1000
 8002192:	d011      	beq.n	80021b8 <st_usbfs_ep_stall_get+0x40>
	return 0;
 8002194:	2000      	movs	r0, #0
 8002196:	4770      	bx	lr
		if ((*USB_EP_REG(addr & 0x7F) & USB_EP_TX_STAT) ==
 8002198:	f001 017f 	and.w	r1, r1, #127	; 0x7f
 800219c:	0089      	lsls	r1, r1, #2
 800219e:	f101 4180 	add.w	r1, r1, #1073741824	; 0x40000000
 80021a2:	f501 41b8 	add.w	r1, r1, #23552	; 0x5c00
 80021a6:	680b      	ldr	r3, [r1, #0]
 80021a8:	f003 0330 	and.w	r3, r3, #48	; 0x30
 80021ac:	2b10      	cmp	r3, #16
 80021ae:	d001      	beq.n	80021b4 <st_usbfs_ep_stall_get+0x3c>
	return 0;
 80021b0:	2000      	movs	r0, #0
 80021b2:	4770      	bx	lr
			return 1;
 80021b4:	2001      	movs	r0, #1
 80021b6:	4770      	bx	lr
			return 1;
 80021b8:	2001      	movs	r0, #1
}
 80021ba:	4770      	bx	lr

080021bc <os_event_init>:
static Evt_t lastSignaledEvent = NO_EVENT;
#endif

void os_event_init(void) {
#if( N_TOTAL_EVENTS > 0 )
    nEvents = 0;
 80021bc:	4b01      	ldr	r3, [pc, #4]	; (80021c4 <os_event_init+0x8>)
 80021be:	2200      	movs	r2, #0
 80021c0:	701a      	strb	r2, [r3, #0]
#endif
}
 80021c2:	4770      	bx	lr
 80021c4:	20000226 	.word	0x20000226

080021c8 <os_signal_event>:
    }
#endif
}


void os_signal_event( Evt_t ev ) {
 80021c8:	b508      	push	{r3, lr}
	lastSignaledEvent = ev;
 80021ca:	4b02      	ldr	r3, [pc, #8]	; (80021d4 <os_signal_event+0xc>)
 80021cc:	7018      	strb	r0, [r3, #0]
    os_task_signal_event( ev );
 80021ce:	f000 f95d 	bl	800248c <os_task_signal_event>
}
 80021d2:	bd08      	pop	{r3, pc}
 80021d4:	20000014 	.word	0x20000014

080021d8 <os_event_set_signaling_tid>:


void os_event_set_signaling_tid( Evt_t ev, uint8_t tid ) {
#if( N_TOTAL_EVENTS > 0 )
	eventList[ ev ].signaledByTid = tid;
 80021d8:	4b02      	ldr	r3, [pc, #8]	; (80021e4 <os_event_set_signaling_tid+0xc>)
 80021da:	eb03 0040 	add.w	r0, r3, r0, lsl #1
 80021de:	7041      	strb	r1, [r0, #1]
#endif
}
 80021e0:	4770      	bx	lr
 80021e2:	bf00      	nop
 80021e4:	20000168 	.word	0x20000168

080021e8 <os_init>:
*   }
*   @endcode
*       
*		 */
/*********************************************************************************/
void os_init( void ) {
 80021e8:	b508      	push	{r3, lr}
	running_tid = NO_TID;
 80021ea:	23ff      	movs	r3, #255	; 0xff
 80021ec:	4a07      	ldr	r2, [pc, #28]	; (800220c <os_init+0x24>)
 80021ee:	7013      	strb	r3, [r2, #0]
    last_running_task = NO_TID;
 80021f0:	4a07      	ldr	r2, [pc, #28]	; (8002210 <os_init+0x28>)
 80021f2:	7013      	strb	r3, [r2, #0]
    running = 0;
 80021f4:	4b07      	ldr	r3, [pc, #28]	; (8002214 <os_init+0x2c>)
 80021f6:	2200      	movs	r2, #0
 80021f8:	701a      	strb	r2, [r3, #0]
    os_sem_init();
 80021fa:	f000 f869 	bl	80022d0 <os_sem_init>
    os_event_init();
 80021fe:	f7ff ffdd 	bl	80021bc <os_event_init>
    os_msgQ_init();
 8002202:	f000 f80f 	bl	8002224 <os_msgQ_init>
    os_task_init();
 8002206:	f000 f881 	bl	800230c <os_task_init>
}
 800220a:	bd08      	pop	{r3, pc}
 800220c:	20000838 	.word	0x20000838
 8002210:	2000083a 	.word	0x2000083a
 8002214:	20000839 	.word	0x20000839

08002218 <os_running>:
}


uint8_t os_running( void ) {
    return running;
}
 8002218:	4b01      	ldr	r3, [pc, #4]	; (8002220 <os_running+0x8>)
 800221a:	7818      	ldrb	r0, [r3, #0]
 800221c:	4770      	bx	lr
 800221e:	bf00      	nop
 8002220:	20000839 	.word	0x20000839

08002224 <os_msgQ_init>:

void os_msgQ_init() {
    
#if( N_QUEUES > 0 )
    uint8_t i;
    nQueues = 0;
 8002224:	2300      	movs	r3, #0
 8002226:	4a0b      	ldr	r2, [pc, #44]	; (8002254 <os_msgQ_init+0x30>)
 8002228:	7013      	strb	r3, [r2, #0]
    for ( i = 0; i < N_QUEUES; ++i  ) {
 800222a:	2b01      	cmp	r3, #1
 800222c:	d811      	bhi.n	8002252 <os_msgQ_init+0x2e>
void os_msgQ_init() {
 800222e:	b410      	push	{r4}
        msgQList[ i ].q.list = 0;
 8002230:	4c09      	ldr	r4, [pc, #36]	; (8002258 <os_msgQ_init+0x34>)
 8002232:	0118      	lsls	r0, r3, #4
 8002234:	1821      	adds	r1, r4, r0
 8002236:	2200      	movs	r2, #0
 8002238:	5022      	str	r2, [r4, r0]
        msgQList[ i ].q.head = 0;
 800223a:	718a      	strb	r2, [r1, #6]
        msgQList[ i ].q.tail = 0;
 800223c:	71ca      	strb	r2, [r1, #7]
        msgQList[ i ].q.size = 0;
 800223e:	720a      	strb	r2, [r1, #8]
        msgQList[ i ].q.messageSize = 0;
 8002240:	808a      	strh	r2, [r1, #4]
        msgQList[ i ].taskId = 0;
 8002242:	730a      	strb	r2, [r1, #12]
        msgQList[ i ].change = 0;
 8002244:	734a      	strb	r2, [r1, #13]
    for ( i = 0; i < N_QUEUES; ++i  ) {
 8002246:	3301      	adds	r3, #1
 8002248:	b2db      	uxtb	r3, r3
 800224a:	2b01      	cmp	r3, #1
 800224c:	d9f0      	bls.n	8002230 <os_msgQ_init+0xc>
    }
#endif
}
 800224e:	bc10      	pop	{r4}
 8002250:	4770      	bx	lr
 8002252:	4770      	bx	lr
 8002254:	20000227 	.word	0x20000227
 8002258:	20000178 	.word	0x20000178

0800225c <os_msgQ_tick>:
#else
    return 0;
#endif
}

void os_msgQ_tick( MsgQ_t queue ) {
 800225c:	e92d 41f0 	stmdb	sp!, {r4, r5, r6, r7, r8, lr}
 8002260:	4604      	mov	r4, r0
#if( N_QUEUES > 0 )
    uint8_t nextMessage;
    Msg_t *pMsg;
    OSQueue_t *q = &msgQList[ queue ].q;
    nextMessage = (q->tail+1) % q->size;
 8002262:	4a1a      	ldr	r2, [pc, #104]	; (80022cc <os_msgQ_tick+0x70>)
 8002264:	eb02 1200 	add.w	r2, r2, r0, lsl #4
 8002268:	79d3      	ldrb	r3, [r2, #7]
 800226a:	1c59      	adds	r1, r3, #1
 800226c:	7a10      	ldrb	r0, [r2, #8]
 800226e:	fb91 f3f0 	sdiv	r3, r1, r0
 8002272:	fb00 1313 	mls	r3, r0, r3, r1
 8002276:	b2db      	uxtb	r3, r3

    uint8_t head = q->head;
 8002278:	7995      	ldrb	r5, [r2, #6]
    uint16_t msgSz = q->messageSize;
 800227a:	8896      	ldrh	r6, [r2, #4]

    while ( nextMessage != head ) {
 800227c:	e009      	b.n	8002292 <os_msgQ_tick+0x36>
            --(pMsg->delay);
            if ( pMsg->delay == 0 ) {
                event_ISR_signal( msgQList[ queue ].change );
            }
        }
        nextMessage = (nextMessage + 1) % q->size;
 800227e:	1c7a      	adds	r2, r7, #1
 8002280:	4b12      	ldr	r3, [pc, #72]	; (80022cc <os_msgQ_tick+0x70>)
 8002282:	eb03 1304 	add.w	r3, r3, r4, lsl #4
 8002286:	7a19      	ldrb	r1, [r3, #8]
 8002288:	fb92 f3f1 	sdiv	r3, r2, r1
 800228c:	fb01 2313 	mls	r3, r1, r3, r2
 8002290:	b2db      	uxtb	r3, r3
    while ( nextMessage != head ) {
 8002292:	42ab      	cmp	r3, r5
 8002294:	d018      	beq.n	80022c8 <os_msgQ_tick+0x6c>
        pMsg = (Msg_t*)( (Mem_t)q->list + nextMessage * msgSz );
 8002296:	0122      	lsls	r2, r4, #4
 8002298:	490c      	ldr	r1, [pc, #48]	; (80022cc <os_msgQ_tick+0x70>)
 800229a:	588a      	ldr	r2, [r1, r2]
 800229c:	461f      	mov	r7, r3
 800229e:	fb03 2306 	mla	r3, r3, r6, r2
        if ( pMsg->delay > 0 ) {
 80022a2:	685a      	ldr	r2, [r3, #4]
 80022a4:	2a00      	cmp	r2, #0
 80022a6:	d0ea      	beq.n	800227e <os_msgQ_tick+0x22>
            --(pMsg->delay);
 80022a8:	3a01      	subs	r2, #1
 80022aa:	605a      	str	r2, [r3, #4]
            if ( pMsg->delay == 0 ) {
 80022ac:	2a00      	cmp	r2, #0
 80022ae:	d1e6      	bne.n	800227e <os_msgQ_tick+0x22>
                event_ISR_signal( msgQList[ queue ].change );
 80022b0:	eb01 1804 	add.w	r8, r1, r4, lsl #4
 80022b4:	f898 000d 	ldrb.w	r0, [r8, #13]
 80022b8:	f7ff ff86 	bl	80021c8 <os_signal_event>
 80022bc:	21fe      	movs	r1, #254	; 0xfe
 80022be:	f898 000d 	ldrb.w	r0, [r8, #13]
 80022c2:	f7ff ff89 	bl	80021d8 <os_event_set_signaling_tid>
 80022c6:	e7da      	b.n	800227e <os_msgQ_tick+0x22>

    }
#endif    
}
 80022c8:	e8bd 81f0 	ldmia.w	sp!, {r4, r5, r6, r7, r8, pc}
 80022cc:	20000178 	.word	0x20000178

080022d0 <os_sem_init>:
static Sem_t nSemaphores;
#endif							   

void os_sem_init(void) {
#if ( N_TOTAL_SEMAPHORES > 0 )
    nSemaphores = 0;
 80022d0:	4b01      	ldr	r3, [pc, #4]	; (80022d8 <os_sem_init+0x8>)
 80022d2:	2200      	movs	r2, #0
 80022d4:	701a      	strb	r2, [r3, #0]
#endif
}
 80022d6:	4770      	bx	lr
 80022d8:	20000228 	.word	0x20000228

080022dc <os_task_wait_queue_empty>:
    result = 1;
    event = EVENT_QUEUE_SIZE;

    do {
        --event;
        if ( task_list[ tid ].eventQueue.eventList[ event ] != 0 ) {
 80022dc:	ebc0 00c0 	rsb	r0, r0, r0, lsl #3
 80022e0:	0082      	lsls	r2, r0, #2
 80022e2:	4b04      	ldr	r3, [pc, #16]	; (80022f4 <os_task_wait_queue_empty+0x18>)
 80022e4:	4413      	add	r3, r2
 80022e6:	7d5b      	ldrb	r3, [r3, #21]
 80022e8:	b10b      	cbz	r3, 80022ee <os_task_wait_queue_empty+0x12>
            result = 0;
 80022ea:	2000      	movs	r0, #0
        }
    } while ( event != 0 );
        

    return result;
}
 80022ec:	4770      	bx	lr
        if ( task_list[ tid ].eventQueue.eventList[ event ] != 0 ) {
 80022ee:	2001      	movs	r0, #1
 80022f0:	4770      	bx	lr
 80022f2:	bf00      	nop
 80022f4:	20000198 	.word	0x20000198

080022f8 <task_ready_set>:
    task_list[ tid ].semaphore = sem;
}


static void task_ready_set( uint8_t tid ) {
    task_list[ tid ].state = READY;
 80022f8:	ebc0 00c0 	rsb	r0, r0, r0, lsl #3
 80022fc:	0082      	lsls	r2, r0, #2
 80022fe:	4b02      	ldr	r3, [pc, #8]	; (8002308 <task_ready_set+0x10>)
 8002300:	4413      	add	r3, r2
 8002302:	2205      	movs	r2, #5
 8002304:	711a      	strb	r2, [r3, #4]
}
 8002306:	4770      	bx	lr
 8002308:	20000198 	.word	0x20000198

0800230c <os_task_init>:
    nTasks = 0;
 800230c:	2100      	movs	r1, #0
 800230e:	4b1a      	ldr	r3, [pc, #104]	; (8002378 <os_task_init+0x6c>)
 8002310:	7019      	strb	r1, [r3, #0]
    for ( i = 0; i < N_TASKS; ++i ) {
 8002312:	2904      	cmp	r1, #4
 8002314:	d82f      	bhi.n	8002376 <os_task_init+0x6a>
void os_task_init( void ) {
 8002316:	b470      	push	{r4, r5, r6}
        task = &task_list[i];
 8002318:	4608      	mov	r0, r1
        task->clockId = 0xff;
 800231a:	4e18      	ldr	r6, [pc, #96]	; (800237c <os_task_init+0x70>)
 800231c:	00cb      	lsls	r3, r1, #3
 800231e:	1a5b      	subs	r3, r3, r1
 8002320:	009d      	lsls	r5, r3, #2
 8002322:	1972      	adds	r2, r6, r5
 8002324:	24ff      	movs	r4, #255	; 0xff
 8002326:	7514      	strb	r4, [r2, #20]
        task->internal_state = 0xff;
 8002328:	80d4      	strh	r4, [r2, #6]
        task->msgQ = 0;
 800232a:	2300      	movs	r3, #0
 800232c:	73d3      	strb	r3, [r2, #15]
        task->waitQ = 0;
 800232e:	7413      	strb	r3, [r2, #16]
        task->msgChangeEvent = 0;
 8002330:	7453      	strb	r3, [r2, #17]
        task->msgResult = 0;
 8002332:	7493      	strb	r3, [r2, #18]
        task->prio = 0;
 8002334:	7353      	strb	r3, [r2, #13]
        task->savedState = SUSPENDED;
 8002336:	7153      	strb	r3, [r2, #5]
        task->semaphore = NO_SEM;
 8002338:	7394      	strb	r4, [r2, #14]
        task->state = SUSPENDED;
 800233a:	7113      	strb	r3, [r2, #4]
        task->taskproc = 0;
 800233c:	5173      	str	r3, [r6, r5]
        task->tid = NO_TID;
 800233e:	7314      	strb	r4, [r2, #12]
        task->time = 0;
 8002340:	6093      	str	r3, [r2, #8]
        task->waitSingleEvent = 0;
 8002342:	74d3      	strb	r3, [r2, #19]
        for ( j = 0; j < sizeof( task->eventQueue.eventList); j++ ) {
 8002344:	b163      	cbz	r3, 8002360 <os_task_init+0x54>
        task->data = 0;
 8002346:	ebc0 00c0 	rsb	r0, r0, r0, lsl #3
 800234a:	0082      	lsls	r2, r0, #2
 800234c:	4b0b      	ldr	r3, [pc, #44]	; (800237c <os_task_init+0x70>)
 800234e:	4413      	add	r3, r2
 8002350:	2200      	movs	r2, #0
 8002352:	619a      	str	r2, [r3, #24]
    for ( i = 0; i < N_TASKS; ++i ) {
 8002354:	3101      	adds	r1, #1
 8002356:	b2c9      	uxtb	r1, r1
 8002358:	2904      	cmp	r1, #4
 800235a:	d9dd      	bls.n	8002318 <os_task_init+0xc>
}
 800235c:	bc70      	pop	{r4, r5, r6}
 800235e:	4770      	bx	lr
            task->eventQueue.eventList[j] = 0xff;
 8002360:	ebc0 02c0 	rsb	r2, r0, r0, lsl #3
 8002364:	0094      	lsls	r4, r2, #2
 8002366:	4a05      	ldr	r2, [pc, #20]	; (800237c <os_task_init+0x70>)
 8002368:	4422      	add	r2, r4
 800236a:	441a      	add	r2, r3
 800236c:	24ff      	movs	r4, #255	; 0xff
 800236e:	7554      	strb	r4, [r2, #21]
        for ( j = 0; j < sizeof( task->eventQueue.eventList); j++ ) {
 8002370:	3301      	adds	r3, #1
 8002372:	b2db      	uxtb	r3, r3
 8002374:	e7e6      	b.n	8002344 <os_task_init+0x38>
 8002376:	4770      	bx	lr
 8002378:	20000229 	.word	0x20000229
 800237c:	20000198 	.word	0x20000198

08002380 <os_task_highest_prio_ready_task>:
uint8_t os_task_highest_prio_ready_task( void ) {
 8002380:	b470      	push	{r4, r5, r6}
    uint8_t highest_prio = 255;
 8002382:	26ff      	movs	r6, #255	; 0xff
    uint8_t highest_prio_task = NO_TID;
 8002384:	4630      	mov	r0, r6
    for ( index = 0; index != nTasks; ++index ) {
 8002386:	2300      	movs	r3, #0
 8002388:	e001      	b.n	800238e <os_task_highest_prio_ready_task+0xe>
 800238a:	3301      	adds	r3, #1
 800238c:	b29b      	uxth	r3, r3
 800238e:	4a0b      	ldr	r2, [pc, #44]	; (80023bc <os_task_highest_prio_ready_task+0x3c>)
 8002390:	7812      	ldrb	r2, [r2, #0]
 8002392:	429a      	cmp	r2, r3
 8002394:	d010      	beq.n	80023b8 <os_task_highest_prio_ready_task+0x38>
        prio = task->prio;
 8002396:	490a      	ldr	r1, [pc, #40]	; (80023c0 <os_task_highest_prio_ready_task+0x40>)
 8002398:	00da      	lsls	r2, r3, #3
 800239a:	1ad5      	subs	r5, r2, r3
 800239c:	00ac      	lsls	r4, r5, #2
 800239e:	440c      	add	r4, r1
 80023a0:	7b65      	ldrb	r5, [r4, #13]
        state = task->state;
 80023a2:	1ad2      	subs	r2, r2, r3
 80023a4:	0094      	lsls	r4, r2, #2
 80023a6:	4421      	add	r1, r4
 80023a8:	790a      	ldrb	r2, [r1, #4]
        if ( READY == state ) {
 80023aa:	2a05      	cmp	r2, #5
 80023ac:	d1ed      	bne.n	800238a <os_task_highest_prio_ready_task+0xa>
            if ( prio < highest_prio ) {
 80023ae:	42ae      	cmp	r6, r5
 80023b0:	d9eb      	bls.n	800238a <os_task_highest_prio_ready_task+0xa>
                highest_prio_task = index;
 80023b2:	b2d8      	uxtb	r0, r3
                highest_prio = prio;
 80023b4:	462e      	mov	r6, r5
 80023b6:	e7e8      	b.n	800238a <os_task_highest_prio_ready_task+0xa>
}
 80023b8:	bc70      	pop	{r4, r5, r6}
 80023ba:	4770      	bx	lr
 80023bc:	20000229 	.word	0x20000229
 80023c0:	20000198 	.word	0x20000198

080023c4 <os_task_clear_wait_queue>:
void os_task_clear_wait_queue( uint8_t tid ) {
 80023c4:	b410      	push	{r4}
    task->waitSingleEvent = 0;
 80023c6:	4a05      	ldr	r2, [pc, #20]	; (80023dc <os_task_clear_wait_queue+0x18>)
 80023c8:	00c3      	lsls	r3, r0, #3
 80023ca:	1a1c      	subs	r4, r3, r0
 80023cc:	00a1      	lsls	r1, r4, #2
 80023ce:	4411      	add	r1, r2
 80023d0:	2400      	movs	r4, #0
 80023d2:	74cc      	strb	r4, [r1, #19]
        task->eventQueue.eventList[ event ] = 0;
 80023d4:	754c      	strb	r4, [r1, #21]
}
 80023d6:	bc10      	pop	{r4}
 80023d8:	4770      	bx	lr
 80023da:	bf00      	nop
 80023dc:	20000198 	.word	0x20000198

080023e0 <os_task_tick>:
void os_task_tick( uint8_t id, uint32_t tickSize ) {
 80023e0:	b5f8      	push	{r3, r4, r5, r6, r7, lr}
 80023e2:	4606      	mov	r6, r0
 80023e4:	460f      	mov	r7, r1
    for ( index = 0; index != nTasks; ++index ) {
 80023e6:	2400      	movs	r4, #0
 80023e8:	e012      	b.n	8002410 <os_task_tick+0x30>
        if ( task_list[ index ].clockId == id ) {
 80023ea:	ebc5 02c5 	rsb	r2, r5, r5, lsl #3
 80023ee:	0091      	lsls	r1, r2, #2
 80023f0:	4a24      	ldr	r2, [pc, #144]	; (8002484 <os_task_tick+0xa4>)
 80023f2:	440a      	add	r2, r1
 80023f4:	7d12      	ldrb	r2, [r2, #20]
 80023f6:	42b2      	cmp	r2, r6
 80023f8:	d024      	beq.n	8002444 <os_task_tick+0x64>
        if ( id == 0 ) {
 80023fa:	b93e      	cbnz	r6, 800240c <os_task_tick+0x2c>
            if ( task_list[ index ].msgQ != NO_QUEUE ) {
 80023fc:	ebc5 05c5 	rsb	r5, r5, r5, lsl #3
 8002400:	00aa      	lsls	r2, r5, #2
 8002402:	4b20      	ldr	r3, [pc, #128]	; (8002484 <os_task_tick+0xa4>)
 8002404:	4413      	add	r3, r2
 8002406:	7bd8      	ldrb	r0, [r3, #15]
 8002408:	28ff      	cmp	r0, #255	; 0xff
 800240a:	d136      	bne.n	800247a <os_task_tick+0x9a>
    for ( index = 0; index != nTasks; ++index ) {
 800240c:	3401      	adds	r4, #1
 800240e:	b2e4      	uxtb	r4, r4
 8002410:	4b1d      	ldr	r3, [pc, #116]	; (8002488 <os_task_tick+0xa8>)
 8002412:	781b      	ldrb	r3, [r3, #0]
 8002414:	42a3      	cmp	r3, r4
 8002416:	d033      	beq.n	8002480 <os_task_tick+0xa0>
		state = task_list[ index ].state;
 8002418:	4625      	mov	r5, r4
 800241a:	ebc4 03c4 	rsb	r3, r4, r4, lsl #3
 800241e:	009a      	lsls	r2, r3, #2
 8002420:	4b18      	ldr	r3, [pc, #96]	; (8002484 <os_task_tick+0xa4>)
 8002422:	4413      	add	r3, r2
 8002424:	791b      	ldrb	r3, [r3, #4]
    if (( state == WAITING_TIME ) || ( state == WAITING_EVENT_TIMEOUT )){
 8002426:	2b02      	cmp	r3, #2
 8002428:	d0df      	beq.n	80023ea <os_task_tick+0xa>
 800242a:	2b04      	cmp	r3, #4
 800242c:	d0dd      	beq.n	80023ea <os_task_tick+0xa>
		else if ( state ==  WAITING_SEM ) {
 800242e:	2b01      	cmp	r3, #1
 8002430:	d1e3      	bne.n	80023fa <os_task_tick+0x1a>
			task_list[ index ].time++;
 8002432:	00e2      	lsls	r2, r4, #3
 8002434:	1b12      	subs	r2, r2, r4
 8002436:	0091      	lsls	r1, r2, #2
 8002438:	4b12      	ldr	r3, [pc, #72]	; (8002484 <os_task_tick+0xa4>)
 800243a:	440b      	add	r3, r1
 800243c:	689a      	ldr	r2, [r3, #8]
 800243e:	3201      	adds	r2, #1
 8002440:	609a      	str	r2, [r3, #8]
 8002442:	e7da      	b.n	80023fa <os_task_tick+0x1a>
          if ( task_list[ index ].time <= tickSize ) {
 8002444:	4a0f      	ldr	r2, [pc, #60]	; (8002484 <os_task_tick+0xa4>)
 8002446:	440a      	add	r2, r1
 8002448:	6892      	ldr	r2, [r2, #8]
 800244a:	42ba      	cmp	r2, r7
 800244c:	d80d      	bhi.n	800246a <os_task_tick+0x8a>
            task_list[ index ].time = 0;
 800244e:	4a0d      	ldr	r2, [pc, #52]	; (8002484 <os_task_tick+0xa4>)
 8002450:	440a      	add	r2, r1
 8002452:	2100      	movs	r1, #0
 8002454:	6091      	str	r1, [r2, #8]
            if ( state == WAITING_EVENT_TIMEOUT ) {
 8002456:	2b04      	cmp	r3, #4
 8002458:	d003      	beq.n	8002462 <os_task_tick+0x82>
            task_ready_set( index );
 800245a:	4620      	mov	r0, r4
 800245c:	f7ff ff4c 	bl	80022f8 <task_ready_set>
 8002460:	e7cb      	b.n	80023fa <os_task_tick+0x1a>
              os_task_clear_wait_queue( index );
 8002462:	4620      	mov	r0, r4
 8002464:	f7ff ffae 	bl	80023c4 <os_task_clear_wait_queue>
 8002468:	e7f7      	b.n	800245a <os_task_tick+0x7a>
            task_list[ index ].time -= tickSize;
 800246a:	ebc5 03c5 	rsb	r3, r5, r5, lsl #3
 800246e:	0099      	lsls	r1, r3, #2
 8002470:	4b04      	ldr	r3, [pc, #16]	; (8002484 <os_task_tick+0xa4>)
 8002472:	440b      	add	r3, r1
 8002474:	1bd2      	subs	r2, r2, r7
 8002476:	609a      	str	r2, [r3, #8]
 8002478:	e7bf      	b.n	80023fa <os_task_tick+0x1a>
                os_msgQ_tick( task_list[ index ].msgQ );
 800247a:	f7ff feef 	bl	800225c <os_msgQ_tick>
 800247e:	e7c5      	b.n	800240c <os_task_tick+0x2c>
}
 8002480:	bdf8      	pop	{r3, r4, r5, r6, r7, pc}
 8002482:	bf00      	nop
 8002484:	20000198 	.word	0x20000198
 8002488:	20000229 	.word	0x20000229

0800248c <os_task_signal_event>:
void os_task_signal_event( Evt_t eventId ) {
 800248c:	b5f8      	push	{r3, r4, r5, r6, r7, lr}
    eventListIndex = eventId / 8;
 800248e:	08c6      	lsrs	r6, r0, #3
    shift = eventId & 0x07;
 8002490:	f000 0507 	and.w	r5, r0, #7
    for ( index = 0; index != nTasks; index++ ) {
 8002494:	2400      	movs	r4, #0
 8002496:	e009      	b.n	80024ac <os_task_signal_event+0x20>
		    taskWaitStateOK = 1;
 8002498:	2001      	movs	r0, #1
 800249a:	e017      	b.n	80024cc <os_task_signal_event+0x40>
                os_task_clear_wait_queue( index );
 800249c:	4620      	mov	r0, r4
 800249e:	f7ff ff91 	bl	80023c4 <os_task_clear_wait_queue>
                task_ready_set( index );
 80024a2:	4620      	mov	r0, r4
 80024a4:	f7ff ff28 	bl	80022f8 <task_ready_set>
    for ( index = 0; index != nTasks; index++ ) {
 80024a8:	3401      	adds	r4, #1
 80024aa:	b2e4      	uxtb	r4, r4
 80024ac:	4b1b      	ldr	r3, [pc, #108]	; (800251c <os_task_signal_event+0x90>)
 80024ae:	781b      	ldrb	r3, [r3, #0]
 80024b0:	42a3      	cmp	r3, r4
 80024b2:	d032      	beq.n	800251a <os_task_signal_event+0x8e>
		state = task_list[ index ].state;
 80024b4:	4622      	mov	r2, r4
 80024b6:	ebc4 03c4 	rsb	r3, r4, r4, lsl #3
 80024ba:	0099      	lsls	r1, r3, #2
 80024bc:	4b18      	ldr	r3, [pc, #96]	; (8002520 <os_task_signal_event+0x94>)
 80024be:	440b      	add	r3, r1
 80024c0:	791b      	ldrb	r3, [r3, #4]
		if (( state == WAITING_EVENT ) || ( state == WAITING_EVENT_TIMEOUT )) {
 80024c2:	3b03      	subs	r3, #3
 80024c4:	b2db      	uxtb	r3, r3
 80024c6:	2b01      	cmp	r3, #1
 80024c8:	d9e6      	bls.n	8002498 <os_task_signal_event+0xc>
		taskWaitStateOK = 0;
 80024ca:	2000      	movs	r0, #0
        taskWaitingForEvent = task_list[ index ].eventQueue.eventList[eventListIndex] & (1<<shift);
 80024cc:	ebc2 03c2 	rsb	r3, r2, r2, lsl #3
 80024d0:	0099      	lsls	r1, r3, #2
 80024d2:	4b13      	ldr	r3, [pc, #76]	; (8002520 <os_task_signal_event+0x94>)
 80024d4:	440b      	add	r3, r1
 80024d6:	4433      	add	r3, r6
 80024d8:	f993 1015 	ldrsb.w	r1, [r3, #21]
 80024dc:	2301      	movs	r3, #1
 80024de:	40ab      	lsls	r3, r5
 80024e0:	b25b      	sxtb	r3, r3
        if ( taskWaitingForEvent  &&  taskWaitStateOK ) {
 80024e2:	4219      	tst	r1, r3
 80024e4:	d0e0      	beq.n	80024a8 <os_task_signal_event+0x1c>
 80024e6:	2800      	cmp	r0, #0
 80024e8:	d0de      	beq.n	80024a8 <os_task_signal_event+0x1c>
            task_list[ index ].eventQueue.eventList[eventListIndex] &= ~(1<<shift);
 80024ea:	f8df c034 	ldr.w	ip, [pc, #52]	; 8002520 <os_task_signal_event+0x94>
 80024ee:	00d7      	lsls	r7, r2, #3
 80024f0:	eba7 0e02 	sub.w	lr, r7, r2
 80024f4:	ea4f 008e 	mov.w	r0, lr, lsl #2
 80024f8:	4686      	mov	lr, r0
 80024fa:	4460      	add	r0, ip
 80024fc:	4430      	add	r0, r6
 80024fe:	ea21 0303 	bic.w	r3, r1, r3
 8002502:	7543      	strb	r3, [r0, #21]
            if ( task_list[ index ].waitSingleEvent || os_task_wait_queue_empty( index ) ) {
 8002504:	44f4      	add	ip, lr
 8002506:	f89c 3013 	ldrb.w	r3, [ip, #19]
 800250a:	2b00      	cmp	r3, #0
 800250c:	d1c6      	bne.n	800249c <os_task_signal_event+0x10>
 800250e:	4620      	mov	r0, r4
 8002510:	f7ff fee4 	bl	80022dc <os_task_wait_queue_empty>
 8002514:	2800      	cmp	r0, #0
 8002516:	d0c7      	beq.n	80024a8 <os_task_signal_event+0x1c>
 8002518:	e7c0      	b.n	800249c <os_task_signal_event+0x10>
}
 800251a:	bdf8      	pop	{r3, r4, r5, r6, r7, pc}
 800251c:	20000229 	.word	0x20000229
 8002520:	20000198 	.word	0x20000198

08002524 <os_task_run>:
void os_task_run( void ) {
 8002524:	b508      	push	{r3, lr}
    os_assert( running_tid < nTasks );
 8002526:	4b0a      	ldr	r3, [pc, #40]	; (8002550 <os_task_run+0x2c>)
 8002528:	781a      	ldrb	r2, [r3, #0]
 800252a:	4b0a      	ldr	r3, [pc, #40]	; (8002554 <os_task_run+0x30>)
 800252c:	781b      	ldrb	r3, [r3, #0]
 800252e:	429a      	cmp	r2, r3
 8002530:	d208      	bcs.n	8002544 <os_task_run+0x20>
    task_list[ running_tid ].taskproc();
 8002532:	4b07      	ldr	r3, [pc, #28]	; (8002550 <os_task_run+0x2c>)
 8002534:	781b      	ldrb	r3, [r3, #0]
 8002536:	ebc3 03c3 	rsb	r3, r3, r3, lsl #3
 800253a:	009a      	lsls	r2, r3, #2
 800253c:	4b06      	ldr	r3, [pc, #24]	; (8002558 <os_task_run+0x34>)
 800253e:	589b      	ldr	r3, [r3, r2]
 8002540:	4798      	blx	r3
}
 8002542:	bd08      	pop	{r3, pc}
    os_assert( running_tid < nTasks );
 8002544:	f44f 701c 	mov.w	r0, #624	; 0x270
 8002548:	f000 f808 	bl	800255c <os_on_assert>
 800254c:	e7f1      	b.n	8002532 <os_task_run+0xe>
 800254e:	bf00      	nop
 8002550:	20000838 	.word	0x20000838
 8002554:	20000229 	.word	0x20000229
 8002558:	20000198 	.word	0x20000198

0800255c <os_on_assert>:


#include "cocoos.h"
#include <logger.h> ////

void os_on_assert( uint16_t line ) {
 800255c:	b508      	push	{r3, lr}
 800255e:	4604      	mov	r4, r0
    debug_print("*** cocoos assert failed "); debug_print_unsigned(line); debug_flush();
 8002560:	4806      	ldr	r0, [pc, #24]	; (800257c <os_on_assert+0x20>)
 8002562:	f000 f9b1 	bl	80028c8 <debug_print>
 8002566:	4620      	mov	r0, r4
 8002568:	f000 f9be 	bl	80028e8 <debug_print_unsigned>
 800256c:	f000 f9a7 	bl	80028be <debug_flush>
    static volatile uint16_t l;
    os_disable_interrupts();
    l = line;
 8002570:	4b03      	ldr	r3, [pc, #12]	; (8002580 <os_on_assert+0x24>)
 8002572:	801c      	strh	r4, [r3, #0]
    l = l;
 8002574:	881a      	ldrh	r2, [r3, #0]
 8002576:	b292      	uxth	r2, r2
 8002578:	801a      	strh	r2, [r3, #0]
 800257a:	e7fe      	b.n	800257a <os_on_assert+0x1e>
 800257c:	08004674 	.word	0x08004674
 8002580:	20000224 	.word	0x20000224

08002584 <os_cbkSleep>:
*       
*/
/*********************************************************************************/
void os_cbkSleep( void ) {
    /* Enter low power mode here */
}
 8002584:	4770      	bx	lr

08002586 <os_tick>:
void os_tick( void ) {
 8002586:	b508      	push	{r3, lr}
    os_task_tick( 0, 1 );
 8002588:	2101      	movs	r1, #1
 800258a:	2000      	movs	r0, #0
 800258c:	f7ff ff28 	bl	80023e0 <os_task_tick>
}
 8002590:	bd08      	pop	{r3, pc}

08002592 <memcmp>:

int
memcmp (const void *m1,
	const void *m2,
	size_t n)
{
 8002592:	b410      	push	{r4}
#if defined(PREFER_SIZE_OVER_SPEED) || defined(__OPTIMIZE_SIZE__)
  unsigned char *s1 = (unsigned char *) m1;
  unsigned char *s2 = (unsigned char *) m2;

  while (n--)
 8002594:	1e54      	subs	r4, r2, #1
 8002596:	b14a      	cbz	r2, 80025ac <memcmp+0x1a>
    {
      if (*s1 != *s2)
 8002598:	7803      	ldrb	r3, [r0, #0]
 800259a:	780a      	ldrb	r2, [r1, #0]
 800259c:	4293      	cmp	r3, r2
 800259e:	d103      	bne.n	80025a8 <memcmp+0x16>
	{
	  return *s1 - *s2;
	}
      s1++;
 80025a0:	3001      	adds	r0, #1
      s2++;
 80025a2:	3101      	adds	r1, #1
  while (n--)
 80025a4:	4622      	mov	r2, r4
 80025a6:	e7f5      	b.n	8002594 <memcmp+0x2>
	  return *s1 - *s2;
 80025a8:	1a98      	subs	r0, r3, r2
 80025aa:	e000      	b.n	80025ae <memcmp+0x1c>
    }
  return 0;
 80025ac:	2000      	movs	r0, #0
      s2++;
    }

  return 0;
#endif /* not PREFER_SIZE_OVER_SPEED */
}
 80025ae:	bc10      	pop	{r4}
 80025b0:	4770      	bx	lr

080025b2 <memcpy>:
void *
__inhibit_loop_to_libcall
memcpy (void *__restrict dst0,
	const void *__restrict src0,
	size_t len0)
{
 80025b2:	b410      	push	{r4}
#if defined(PREFER_SIZE_OVER_SPEED) || defined(__OPTIMIZE_SIZE__)
  char *dst = (char *) dst0;
 80025b4:	4603      	mov	r3, r0
  char *src = (char *) src0;

  void *save = dst0;

  while (len0--)
 80025b6:	e004      	b.n	80025c2 <memcpy+0x10>
    {
      *dst++ = *src++;
 80025b8:	780a      	ldrb	r2, [r1, #0]
 80025ba:	701a      	strb	r2, [r3, #0]
 80025bc:	3101      	adds	r1, #1
 80025be:	3301      	adds	r3, #1
  while (len0--)
 80025c0:	4622      	mov	r2, r4
 80025c2:	1e54      	subs	r4, r2, #1
 80025c4:	2a00      	cmp	r2, #0
 80025c6:	d1f7      	bne.n	80025b8 <memcpy+0x6>
  while (len0--)
    *dst++ = *src++;

  return dst0;
#endif /* not PREFER_SIZE_OVER_SPEED */
}
 80025c8:	bc10      	pop	{r4}
 80025ca:	4770      	bx	lr

080025cc <memset>:
void *
__inhibit_loop_to_libcall
memset (void *m,
	int c,
	size_t n)
{
 80025cc:	b410      	push	{r4}
  char *s = (char *) m;
 80025ce:	4603      	mov	r3, r0
      s = (char*)aligned_addr;
    }

#endif /* not PREFER_SIZE_OVER_SPEED */

  while (n--)
 80025d0:	e002      	b.n	80025d8 <memset+0xc>
    *s++ = (char) c;
 80025d2:	7019      	strb	r1, [r3, #0]
 80025d4:	3301      	adds	r3, #1
  while (n--)
 80025d6:	4622      	mov	r2, r4
 80025d8:	1e54      	subs	r4, r2, #1
 80025da:	2a00      	cmp	r2, #0
 80025dc:	d1f9      	bne.n	80025d2 <memset+0x6>

  return m;
}
 80025de:	bc10      	pop	{r4}
 80025e0:	4770      	bx	lr

080025e2 <strlen>:
     precise position of the null.  */
  str = (char *) aligned_addr;

#endif /* not PREFER_SIZE_OVER_SPEED */

  while (*str)
 80025e2:	4603      	mov	r3, r0
 80025e4:	e000      	b.n	80025e8 <strlen+0x6>
    str++;
 80025e6:	3301      	adds	r3, #1
  while (*str)
 80025e8:	781a      	ldrb	r2, [r3, #0]
 80025ea:	2a00      	cmp	r2, #0
 80025ec:	d1fb      	bne.n	80025e6 <strlen+0x4>
  return str - start;
}
 80025ee:	1a18      	subs	r0, r3, r0
 80025f0:	4770      	bx	lr

080025f2 <strncpy>:
{
#if defined(PREFER_SIZE_OVER_SPEED) || defined(__OPTIMIZE_SIZE__)
  char *dscan;
  const char *sscan;

  dscan = dst0;
 80025f2:	4603      	mov	r3, r0
  sscan = src0;
  while (count > 0)
 80025f4:	b1ca      	cbz	r2, 800262a <strncpy+0x38>
{
 80025f6:	b430      	push	{r4, r5}
    {
      --count;
 80025f8:	3a01      	subs	r2, #1
      if ((*dscan++ = *sscan++) == '\0')
 80025fa:	1c4d      	adds	r5, r1, #1
 80025fc:	1c5c      	adds	r4, r3, #1
 80025fe:	7809      	ldrb	r1, [r1, #0]
 8002600:	7019      	strb	r1, [r3, #0]
 8002602:	b121      	cbz	r1, 800260e <strncpy+0x1c>
 8002604:	4629      	mov	r1, r5
 8002606:	4623      	mov	r3, r4
  while (count > 0)
 8002608:	2a00      	cmp	r2, #0
 800260a:	d1f5      	bne.n	80025f8 <strncpy+0x6>
 800260c:	e000      	b.n	8002610 <strncpy+0x1e>
      if ((*dscan++ = *sscan++) == '\0')
 800260e:	4623      	mov	r3, r4
	break;
    }
  while (count-- > 0)
 8002610:	1e51      	subs	r1, r2, #1
 8002612:	b122      	cbz	r2, 800261e <strncpy+0x2c>
    *dscan++ = '\0';
 8002614:	2200      	movs	r2, #0
 8002616:	701a      	strb	r2, [r3, #0]
 8002618:	3301      	adds	r3, #1
  while (count-- > 0)
 800261a:	460a      	mov	r2, r1
 800261c:	e7f8      	b.n	8002610 <strncpy+0x1e>
  while (count-- > 0)
    *dst++ = '\0';

  return dst0;
#endif /* not PREFER_SIZE_OVER_SPEED */
}
 800261e:	bc30      	pop	{r4, r5}
 8002620:	4770      	bx	lr
    *dscan++ = '\0';
 8002622:	2200      	movs	r2, #0
 8002624:	701a      	strb	r2, [r3, #0]
 8002626:	3301      	adds	r3, #1
  while (count-- > 0)
 8002628:	460a      	mov	r2, r1
 800262a:	1e51      	subs	r1, r2, #1
 800262c:	2a00      	cmp	r2, #0
 800262e:	d1f8      	bne.n	8002622 <strncpy+0x30>
 8002630:	4770      	bx	lr
	...

08002634 <_ZL10__semihostiPv>:
	//    openocd -f interface/stlink-v2.cfg -f target/stm32f1x.cfg -f scripts/connect.ocd

	//  Warning: This code will trigger a breakpoint and hang unless a debugger is connected.
	//  That's how ARM Semihosting sends a command to the debugger to print a message.
	//  This code MUST be disabled on production devices.
    if (!logEnabled) return -1;
 8002634:	4b07      	ldr	r3, [pc, #28]	; (8002654 <_ZL10__semihostiPv+0x20>)
 8002636:	781b      	ldrb	r3, [r3, #0]
 8002638:	b143      	cbz	r3, 800264c <_ZL10__semihostiPv+0x18>
static int __semihost(int command, void* message) {
 800263a:	b410      	push	{r4}
 800263c:	4602      	mov	r2, r0
 800263e:	460c      	mov	r4, r1
	:  //  Input operand list:
		[cmd] "r" (command), 
		[msg] "r" (message)
	:  //  Clobbered register list:
		"r0", "r1", "memory"
	);
 8002640:	4610      	mov	r0, r2
 8002642:	4621      	mov	r1, r4
 8002644:	beab      	bkpt	0x00ab
	return 0;  //  TODO
 8002646:	2000      	movs	r0, #0
}
 8002648:	bc10      	pop	{r4}
 800264a:	4770      	bx	lr
    if (!logEnabled) return -1;
 800264c:	f04f 30ff 	mov.w	r0, #4294967295	; 0xffffffff
}
 8002650:	4770      	bx	lr
 8002652:	bf00      	nop
 8002654:	20000442 	.word	0x20000442

08002658 <_ZL16write_all_outputPKhtb>:
#define MAX_OUTPUT_LENGTH 60  //  Output at most 60 bytes at a time.

static uint16_t write_all_output(
    const uint8_t *buf,
	uint16_t len,
    bool forced) {
 8002658:	b570      	push	{r4, r5, r6, lr}
 800265a:	4606      	mov	r6, r0
    //  Write the buffer to all outputs: Arm Semihosting, USB Serial, HF2, ...
    //  We must flush as quickly as possible and USB Serial can only handle 64 bytes, so we just flush the next 60 bytes.
    //  Return the number of bytes flushed.
    ////if (!forced && target_in_isr()) { return 0; }      //  Can't write when called by interrupt routine, unless it's forced.
    //  if (target_in_isr()) { return 0; }      //  Can't write when called by interrupt routine
    uint16_t outlen = (len > MAX_OUTPUT_LENGTH) ? MAX_OUTPUT_LENGTH : len;
 800265c:	293c      	cmp	r1, #60	; 0x3c
 800265e:	bf28      	it	cs
 8002660:	213c      	movcs	r1, #60	; 0x3c
 8002662:	460d      	mov	r5, r1
#define ENABLE_SEMIHOSTING 
#endif  //  PLATFORMIO

#ifdef ENABLE_SEMIHOSTING
    #warning Semihosting ENABLED
    semihost_write(SEMIHOST_HANDLE, (const unsigned char *) buf, outlen);
 8002664:	460a      	mov	r2, r1
 8002666:	4601      	mov	r1, r0
 8002668:	2002      	movs	r0, #2
 800266a:	f000 f919 	bl	80028a0 <_ZL14semihost_writemPKhj>
#else
    #warning Semihosting DISABLED
#endif  //  ENABLE_SEMIHOSTING
    for (int i = 0; i < MAX_OUTPUT_FUNCS; i++) {
 800266e:	2400      	movs	r4, #0
 8002670:	e000      	b.n	8002674 <_ZL16write_all_outputPKhtb+0x1c>
 8002672:	3401      	adds	r4, #1
 8002674:	2c03      	cmp	r4, #3
 8002676:	dc08      	bgt.n	800268a <_ZL16write_all_outputPKhtb+0x32>
        if (output_funcs[i]) {
 8002678:	4b05      	ldr	r3, [pc, #20]	; (8002690 <_ZL16write_all_outputPKhtb+0x38>)
 800267a:	f853 3024 	ldr.w	r3, [r3, r4, lsl #2]
 800267e:	2b00      	cmp	r3, #0
 8002680:	d0f7      	beq.n	8002672 <_ZL16write_all_outputPKhtb+0x1a>
            logger_output_func *func = output_funcs[i];
            func(buf, outlen);
 8002682:	4629      	mov	r1, r5
 8002684:	4630      	mov	r0, r6
 8002686:	4798      	blx	r3
 8002688:	e7f3      	b.n	8002672 <_ZL16write_all_outputPKhtb+0x1a>
        }
    }
    return outlen;
}
 800268a:	4628      	mov	r0, r5
 800268c:	bd70      	pop	{r4, r5, r6, pc}
 800268e:	bf00      	nop
 8002690:	20000430 	.word	0x20000430

08002694 <_ZL12debug_appendPKcj>:
    }
}

static void debug_append(const char *buffer, unsigned int length) {
    //  Append "length" number of bytes from "buffer" to the debug buffer.
    if (length >= DEBUG_BUFFER_SIZE) { return; }  //  Don't allow logging of very long messages.
 8002694:	f5b1 7f00 	cmp.w	r1, #512	; 0x200
 8002698:	d223      	bcs.n	80026e2 <_ZL12debug_appendPKcj+0x4e>
static void debug_append(const char *buffer, unsigned int length) {
 800269a:	b538      	push	{r3, r4, r5, lr}
 800269c:	4605      	mov	r5, r0
 800269e:	460b      	mov	r3, r1
    if (debugBufferLength + length >= DEBUG_BUFFER_SIZE) {
 80026a0:	4a10      	ldr	r2, [pc, #64]	; (80026e4 <_ZL12debug_appendPKcj+0x50>)
 80026a2:	8812      	ldrh	r2, [r2, #0]
 80026a4:	440a      	add	r2, r1
 80026a6:	f5b2 7f00 	cmp.w	r2, #512	; 0x200
 80026aa:	d30c      	bcc.n	80026c6 <_ZL12debug_appendPKcj+0x32>
        //  Erase the entire buffer.  Latest log is more important than old log.
        strcpy(debugBuffer, "[DROPPED]");
 80026ac:	4a0e      	ldr	r2, [pc, #56]	; (80026e8 <_ZL12debug_appendPKcj+0x54>)
 80026ae:	4c0f      	ldr	r4, [pc, #60]	; (80026ec <_ZL12debug_appendPKcj+0x58>)
 80026b0:	ca07      	ldmia	r2, {r0, r1, r2}
 80026b2:	c403      	stmia	r4!, {r0, r1}
 80026b4:	8022      	strh	r2, [r4, #0]
        debugBufferLength = 9;
 80026b6:	4a0b      	ldr	r2, [pc, #44]	; (80026e4 <_ZL12debug_appendPKcj+0x50>)
 80026b8:	2109      	movs	r1, #9
 80026ba:	8011      	strh	r1, [r2, #0]
        //  Still can't fit after clearing.  Quit.
        if (debugBufferLength + length >= DEBUG_BUFFER_SIZE) { return; }
 80026bc:	8812      	ldrh	r2, [r2, #0]
 80026be:	441a      	add	r2, r3
 80026c0:	f5b2 7f00 	cmp.w	r2, #512	; 0x200
 80026c4:	d20c      	bcs.n	80026e0 <_ZL12debug_appendPKcj+0x4c>
 80026c6:	461c      	mov	r4, r3
 80026c8:	4629      	mov	r1, r5
    }
    //  Else append to the buffer.
    memcpy(&debugBuffer[debugBufferLength], buffer, length);
 80026ca:	4d06      	ldr	r5, [pc, #24]	; (80026e4 <_ZL12debug_appendPKcj+0x50>)
 80026cc:	882b      	ldrh	r3, [r5, #0]
 80026ce:	4622      	mov	r2, r4
 80026d0:	4806      	ldr	r0, [pc, #24]	; (80026ec <_ZL12debug_appendPKcj+0x58>)
 80026d2:	4418      	add	r0, r3
 80026d4:	f7ff ff6d 	bl	80025b2 <memcpy>
    debugBufferLength += length;
 80026d8:	882b      	ldrh	r3, [r5, #0]
 80026da:	4423      	add	r3, r4
 80026dc:	b29b      	uxth	r3, r3
 80026de:	802b      	strh	r3, [r5, #0]
}
 80026e0:	bd38      	pop	{r3, r4, r5, pc}
 80026e2:	4770      	bx	lr
 80026e4:	20000440 	.word	0x20000440
 80026e8:	080046a4 	.word	0x080046a4
 80026ec:	2000022c 	.word	0x2000022c

080026f0 <enable_log>:
void enable_log(void) { logEnabled = true; }
 80026f0:	4b01      	ldr	r3, [pc, #4]	; (80026f8 <enable_log+0x8>)
 80026f2:	2201      	movs	r2, #1
 80026f4:	701a      	strb	r2, [r3, #0]
 80026f6:	4770      	bx	lr
 80026f8:	20000442 	.word	0x20000442

080026fc <logger_add_output>:
    if (!func) { return -1; }
 80026fc:	4601      	mov	r1, r0
 80026fe:	b1b8      	cbz	r0, 8002730 <logger_add_output+0x34>
    for (int i = 0; i < MAX_OUTPUT_FUNCS; i++) {
 8002700:	2300      	movs	r3, #0
 8002702:	2b03      	cmp	r3, #3
 8002704:	dc06      	bgt.n	8002714 <logger_add_output+0x18>
        if (output_funcs[i] == func) {
 8002706:	4a0e      	ldr	r2, [pc, #56]	; (8002740 <logger_add_output+0x44>)
 8002708:	f852 2023 	ldr.w	r2, [r2, r3, lsl #2]
 800270c:	428a      	cmp	r2, r1
 800270e:	d012      	beq.n	8002736 <logger_add_output+0x3a>
    for (int i = 0; i < MAX_OUTPUT_FUNCS; i++) {
 8002710:	3301      	adds	r3, #1
 8002712:	e7f6      	b.n	8002702 <logger_add_output+0x6>
    for (int i = 0; i < MAX_OUTPUT_FUNCS; i++) {
 8002714:	2300      	movs	r3, #0
 8002716:	2b03      	cmp	r3, #3
 8002718:	dc0f      	bgt.n	800273a <logger_add_output+0x3e>
        if (!output_funcs[i]) {
 800271a:	4a09      	ldr	r2, [pc, #36]	; (8002740 <logger_add_output+0x44>)
 800271c:	f852 2023 	ldr.w	r2, [r2, r3, lsl #2]
 8002720:	b10a      	cbz	r2, 8002726 <logger_add_output+0x2a>
    for (int i = 0; i < MAX_OUTPUT_FUNCS; i++) {
 8002722:	3301      	adds	r3, #1
 8002724:	e7f7      	b.n	8002716 <logger_add_output+0x1a>
            output_funcs[i] = func;
 8002726:	4a06      	ldr	r2, [pc, #24]	; (8002740 <logger_add_output+0x44>)
 8002728:	f842 1023 	str.w	r1, [r2, r3, lsl #2]
            return 0;
 800272c:	2000      	movs	r0, #0
 800272e:	4770      	bx	lr
    if (!func) { return -1; }
 8002730:	f04f 30ff 	mov.w	r0, #4294967295	; 0xffffffff
 8002734:	4770      	bx	lr
            return 0;  //  Already added.
 8002736:	2000      	movs	r0, #0
 8002738:	4770      	bx	lr
    return -1;  //  Too many outputs.
 800273a:	f04f 30ff 	mov.w	r0, #4294967295	; 0xffffffff
}
 800273e:	4770      	bx	lr
 8002740:	20000430 	.word	0x20000430

08002744 <_Z20debug_flush_internalb>:
void debug_flush_internal(bool forced) {
 8002744:	b538      	push	{r3, r4, r5, lr}
    if (debugBufferLength == 0) { return; }  //  Debug buffer is empty, nothing to write.
 8002746:	4b11      	ldr	r3, [pc, #68]	; (800278c <_Z20debug_flush_internalb+0x48>)
 8002748:	881b      	ldrh	r3, [r3, #0]
 800274a:	b29b      	uxth	r3, r3
 800274c:	b903      	cbnz	r3, 8002750 <_Z20debug_flush_internalb+0xc>
}
 800274e:	bd38      	pop	{r3, r4, r5, pc}
 8002750:	4602      	mov	r2, r0
	uint16_t outlen = write_all_output((const uint8_t *) debugBuffer, debugBufferLength, forced);
 8002752:	4b0e      	ldr	r3, [pc, #56]	; (800278c <_Z20debug_flush_internalb+0x48>)
 8002754:	8819      	ldrh	r1, [r3, #0]
 8002756:	480e      	ldr	r0, [pc, #56]	; (8002790 <_Z20debug_flush_internalb+0x4c>)
 8002758:	f7ff ff7e 	bl	8002658 <_ZL16write_all_outputPKhtb>
    if (outlen == 0) {
 800275c:	4604      	mov	r4, r0
 800275e:	2800      	cmp	r0, #0
 8002760:	d0f5      	beq.n	800274e <_Z20debug_flush_internalb+0xa>
    } else if (outlen >= debugBufferLength) {
 8002762:	4b0a      	ldr	r3, [pc, #40]	; (800278c <_Z20debug_flush_internalb+0x48>)
 8002764:	881b      	ldrh	r3, [r3, #0]
 8002766:	b29b      	uxth	r3, r3
 8002768:	4283      	cmp	r3, r0
 800276a:	d803      	bhi.n	8002774 <_Z20debug_flush_internalb+0x30>
        debugBufferLength = 0;
 800276c:	4b07      	ldr	r3, [pc, #28]	; (800278c <_Z20debug_flush_internalb+0x48>)
 800276e:	2200      	movs	r2, #0
 8002770:	801a      	strh	r2, [r3, #0]
        return;
 8002772:	e7ec      	b.n	800274e <_Z20debug_flush_internalb+0xa>
    memcpy(debugBuffer, &debugBuffer[outlen], debugBufferLength - outlen);
 8002774:	4806      	ldr	r0, [pc, #24]	; (8002790 <_Z20debug_flush_internalb+0x4c>)
 8002776:	4d05      	ldr	r5, [pc, #20]	; (800278c <_Z20debug_flush_internalb+0x48>)
 8002778:	882a      	ldrh	r2, [r5, #0]
 800277a:	1b12      	subs	r2, r2, r4
 800277c:	1901      	adds	r1, r0, r4
 800277e:	f7ff ff18 	bl	80025b2 <memcpy>
    debugBufferLength -= outlen;
 8002782:	882b      	ldrh	r3, [r5, #0]
 8002784:	1b1c      	subs	r4, r3, r4
 8002786:	b2a4      	uxth	r4, r4
 8002788:	802c      	strh	r4, [r5, #0]
 800278a:	e7e0      	b.n	800274e <_Z20debug_flush_internalb+0xa>
 800278c:	20000440 	.word	0x20000440
 8002790:	2000022c 	.word	0x2000022c

08002794 <debug_force_flush>:
void debug_force_flush(void) {
 8002794:	b510      	push	{r4, lr}
    for (int i = 0; i < 100; i++) {  //  Assume 100 or fewer chunks.
 8002796:	2400      	movs	r4, #0
 8002798:	2c63      	cmp	r4, #99	; 0x63
 800279a:	dc08      	bgt.n	80027ae <debug_force_flush+0x1a>
        if (debugBufferLength == 0) { return; }  //  No more chunks.
 800279c:	4b04      	ldr	r3, [pc, #16]	; (80027b0 <debug_force_flush+0x1c>)
 800279e:	881b      	ldrh	r3, [r3, #0]
 80027a0:	b29b      	uxth	r3, r3
 80027a2:	b123      	cbz	r3, 80027ae <debug_force_flush+0x1a>
        debug_flush_internal(true);
 80027a4:	2001      	movs	r0, #1
 80027a6:	f7ff ffcd 	bl	8002744 <_Z20debug_flush_internalb>
    for (int i = 0; i < 100; i++) {  //  Assume 100 or fewer chunks.
 80027aa:	3401      	adds	r4, #1
 80027ac:	e7f4      	b.n	8002798 <debug_force_flush+0x4>
}
 80027ae:	bd10      	pop	{r4, pc}
 80027b0:	20000440 	.word	0x20000440

080027b4 <_Z11debug_printj>:

void debug_print(size_t l) {
 80027b4:	b510      	push	{r4, lr}
 80027b6:	b084      	sub	sp, #16
    #define MAX_INT_LENGTH 10
    char buffer[MAX_INT_LENGTH + 1];
    int size = MAX_INT_LENGTH + 1;
    bool prefixByZero = false;
    int length = 0;
    for(size_t divisor = 1000000000ul; divisor >= 1; divisor = divisor / 10) {
 80027b8:	4b1d      	ldr	r3, [pc, #116]	; (8002830 <_Z11debug_printj+0x7c>)
    int length = 0;
 80027ba:	2100      	movs	r1, #0
 80027bc:	e012      	b.n	80027e4 <_Z11debug_printj+0x30>
        char digit = '0' + (char)(l / divisor);
        if (digit > '9') {
            debug_print("(Overflow)");
 80027be:	481d      	ldr	r0, [pc, #116]	; (8002834 <_Z11debug_printj+0x80>)
 80027c0:	f000 f882 	bl	80028c8 <debug_print>
 80027c4:	e032      	b.n	800282c <_Z11debug_printj+0x78>
            return;
        }
        if (digit > '0' || length > 0 || prefixByZero) {
            if (length < size) {
 80027c6:	290a      	cmp	r1, #10
 80027c8:	dc04      	bgt.n	80027d4 <_Z11debug_printj+0x20>
                buffer[length++] = digit;
 80027ca:	ac04      	add	r4, sp, #16
 80027cc:	440c      	add	r4, r1
 80027ce:	f804 2c0c 	strb.w	r2, [r4, #-12]
 80027d2:	3101      	adds	r1, #1
            }
        }
        l = l % divisor;
 80027d4:	fbb0 f2f3 	udiv	r2, r0, r3
 80027d8:	fb03 0012 	mls	r0, r3, r2, r0
    for(size_t divisor = 1000000000ul; divisor >= 1; divisor = divisor / 10) {
 80027dc:	4a16      	ldr	r2, [pc, #88]	; (8002838 <_Z11debug_printj+0x84>)
 80027de:	fba2 2303 	umull	r2, r3, r2, r3
 80027e2:	08db      	lsrs	r3, r3, #3
 80027e4:	b153      	cbz	r3, 80027fc <_Z11debug_printj+0x48>
        char digit = '0' + (char)(l / divisor);
 80027e6:	fbb0 f2f3 	udiv	r2, r0, r3
 80027ea:	3230      	adds	r2, #48	; 0x30
 80027ec:	b2d2      	uxtb	r2, r2
        if (digit > '9') {
 80027ee:	2a39      	cmp	r2, #57	; 0x39
 80027f0:	d8e5      	bhi.n	80027be <_Z11debug_printj+0xa>
        if (digit > '0' || length > 0 || prefixByZero) {
 80027f2:	2a30      	cmp	r2, #48	; 0x30
 80027f4:	d8e7      	bhi.n	80027c6 <_Z11debug_printj+0x12>
 80027f6:	2900      	cmp	r1, #0
 80027f8:	dce5      	bgt.n	80027c6 <_Z11debug_printj+0x12>
 80027fa:	e7eb      	b.n	80027d4 <_Z11debug_printj+0x20>
    }
    if (length == 0) { buffer[length++] = '0'; };
 80027fc:	b929      	cbnz	r1, 800280a <_Z11debug_printj+0x56>
 80027fe:	ab04      	add	r3, sp, #16
 8002800:	440b      	add	r3, r1
 8002802:	2230      	movs	r2, #48	; 0x30
 8002804:	f803 2c0c 	strb.w	r2, [r3, #-12]
 8002808:	3101      	adds	r1, #1
    if (length < size) buffer[length] = 0;
 800280a:	290a      	cmp	r1, #10
 800280c:	dc04      	bgt.n	8002818 <_Z11debug_printj+0x64>
 800280e:	ab04      	add	r3, sp, #16
 8002810:	4419      	add	r1, r3
 8002812:	2300      	movs	r3, #0
 8002814:	f801 3c0c 	strb.w	r3, [r1, #-12]
    buffer[size - 1] = 0;  //  Terminate in case of overflow.
 8002818:	2300      	movs	r3, #0
 800281a:	f88d 300e 	strb.w	r3, [sp, #14]

    debug_append(buffer, strlen(buffer));
 800281e:	a801      	add	r0, sp, #4
 8002820:	f7ff fedf 	bl	80025e2 <strlen>
 8002824:	4601      	mov	r1, r0
 8002826:	a801      	add	r0, sp, #4
 8002828:	f7ff ff34 	bl	8002694 <_ZL12debug_appendPKcj>
}
 800282c:	b004      	add	sp, #16
 800282e:	bd10      	pop	{r4, pc}
 8002830:	3b9aca00 	.word	0x3b9aca00
 8002834:	08004698 	.word	0x08004698
 8002838:	cccccccd 	.word	0xcccccccd

0800283c <_Z11debug_printi>:

void debug_print(int i) {
 800283c:	b510      	push	{r4, lr}
    if (i == 0) { debug_append("0", 1); } 
 800283e:	b128      	cbz	r0, 800284c <_Z11debug_printi+0x10>
 8002840:	4604      	mov	r4, r0
    else if (i >= 0) { debug_print((size_t) i); }
 8002842:	2800      	cmp	r0, #0
 8002844:	db07      	blt.n	8002856 <_Z11debug_printi+0x1a>
 8002846:	f7ff ffb5 	bl	80027b4 <_Z11debug_printj>
    else {  // i < 0.
        debug_append("-", 1);
        debug_print((size_t) -i);
    }
}
 800284a:	bd10      	pop	{r4, pc}
    if (i == 0) { debug_append("0", 1); } 
 800284c:	2101      	movs	r1, #1
 800284e:	4806      	ldr	r0, [pc, #24]	; (8002868 <_Z11debug_printi+0x2c>)
 8002850:	f7ff ff20 	bl	8002694 <_ZL12debug_appendPKcj>
 8002854:	e7f9      	b.n	800284a <_Z11debug_printi+0xe>
        debug_append("-", 1);
 8002856:	2101      	movs	r1, #1
 8002858:	4804      	ldr	r0, [pc, #16]	; (800286c <_Z11debug_printi+0x30>)
 800285a:	f7ff ff1b 	bl	8002694 <_ZL12debug_appendPKcj>
        debug_print((size_t) -i);
 800285e:	4260      	negs	r0, r4
 8002860:	f7ff ffa8 	bl	80027b4 <_Z11debug_printj>
}
 8002864:	e7f1      	b.n	800284a <_Z11debug_printi+0xe>
 8002866:	bf00      	nop
 8002868:	08004690 	.word	0x08004690
 800286c:	08004694 	.word	0x08004694

08002870 <debug_println>:
void debug_print(const char *s) {
    if (s[0] == 0) return;
	debug_append(s, strlen(s));
}

void debug_println(const char *s) {
 8002870:	b508      	push	{r3, lr}
    if (s[0] != 0) { debug_print(s); }
 8002872:	7803      	ldrb	r3, [r0, #0]
 8002874:	b923      	cbnz	r3, 8002880 <debug_println+0x10>
    debug_append("\r\n", 2);
 8002876:	2102      	movs	r1, #2
 8002878:	4803      	ldr	r0, [pc, #12]	; (8002888 <debug_println+0x18>)
 800287a:	f7ff ff0b 	bl	8002694 <_ZL12debug_appendPKcj>
}
 800287e:	bd08      	pop	{r3, pc}
    if (s[0] != 0) { debug_print(s); }
 8002880:	f000 f822 	bl	80028c8 <debug_print>
 8002884:	e7f7      	b.n	8002876 <debug_println+0x6>
 8002886:	bf00      	nop
 8002888:	080046b0 	.word	0x080046b0

0800288c <_Z13debug_printlni>:

void debug_print(char ch) {
	debug_append(&ch, 1);
}

void debug_println(int i) {
 800288c:	b508      	push	{r3, lr}
    debug_print(i);
 800288e:	f7ff ffd5 	bl	800283c <_Z11debug_printi>
    debug_append("\r\n", 2);
 8002892:	2102      	movs	r1, #2
 8002894:	4801      	ldr	r0, [pc, #4]	; (800289c <_Z13debug_printlni+0x10>)
 8002896:	f7ff fefd 	bl	8002694 <_ZL12debug_appendPKcj>
}
 800289a:	bd08      	pop	{r3, pc}
 800289c:	080046b0 	.word	0x080046b0

080028a0 <_ZL14semihost_writemPKhj>:
    if (length == 0) { return 0; }
 80028a0:	b90a      	cbnz	r2, 80028a6 <_ZL14semihost_writemPKhj+0x6>
 80028a2:	2000      	movs	r0, #0
}
 80028a4:	4770      	bx	lr
static int semihost_write(uint32_t fh, const unsigned char *buffer, unsigned int length) {
 80028a6:	b500      	push	{lr}
 80028a8:	b085      	sub	sp, #20
    args[0] = (uint32_t)fh;
 80028aa:	9001      	str	r0, [sp, #4]
    args[1] = (uint32_t)buffer;
 80028ac:	9102      	str	r1, [sp, #8]
    args[2] = (uint32_t)length;
 80028ae:	9203      	str	r2, [sp, #12]
    return __semihost(SYS_WRITE, args);
 80028b0:	a901      	add	r1, sp, #4
 80028b2:	2005      	movs	r0, #5
 80028b4:	f7ff febe 	bl	8002634 <_ZL10__semihostiPv>
}
 80028b8:	b005      	add	sp, #20
 80028ba:	f85d fb04 	ldr.w	pc, [sp], #4

080028be <debug_flush>:
void debug_flush(void) {
 80028be:	b508      	push	{r3, lr}
    return debug_flush_internal(false);
 80028c0:	2000      	movs	r0, #0
 80028c2:	f7ff ff3f 	bl	8002744 <_Z20debug_flush_internalb>
}
 80028c6:	bd08      	pop	{r3, pc}

080028c8 <debug_print>:
    if (s[0] == 0) return;
 80028c8:	7803      	ldrb	r3, [r0, #0]
 80028ca:	b903      	cbnz	r3, 80028ce <debug_print+0x6>
 80028cc:	4770      	bx	lr
void debug_print(const char *s) {
 80028ce:	b510      	push	{r4, lr}
 80028d0:	4604      	mov	r4, r0
	debug_append(s, strlen(s));
 80028d2:	f7ff fe86 	bl	80025e2 <strlen>
 80028d6:	4601      	mov	r1, r0
 80028d8:	4620      	mov	r0, r4
 80028da:	f7ff fedb 	bl	8002694 <_ZL12debug_appendPKcj>
}
 80028de:	bd10      	pop	{r4, pc}

080028e0 <debug_print_int>:
void debug_println(float f) {
    debug_print(f);
    debug_append("\r\n", 2);
}

void debug_print_int(int i) { debug_print(i); }
 80028e0:	b508      	push	{r3, lr}
 80028e2:	f7ff ffab 	bl	800283c <_Z11debug_printi>
 80028e6:	bd08      	pop	{r3, pc}

080028e8 <debug_print_unsigned>:
void debug_print_unsigned(size_t l) { debug_print(l); }
 80028e8:	b508      	push	{r3, lr}
 80028ea:	f7ff ff63 	bl	80027b4 <_Z11debug_printj>
 80028ee:	bd08      	pop	{r3, pc}

080028f0 <debug_printhex>:
void debug_print_char(char ch) { debug_print(ch); }
void debug_print_float(float f) { debug_print(f); }

void debug_printhex(uint8_t v) {
 80028f0:	b510      	push	{r4, lr}
 80028f2:	b082      	sub	sp, #8
    #define MAX_BYTE_LENGTH 2
    char buffer[MAX_BYTE_LENGTH + 1];
    int size = MAX_BYTE_LENGTH + 1;
    bool prefixByZero = true;
    int length = 0;
    for(uint8_t divisor = 16; divisor >= 1; divisor = divisor / 16) {
 80028f4:	2310      	movs	r3, #16
    int length = 0;
 80028f6:	2200      	movs	r2, #0
 80028f8:	e005      	b.n	8002906 <debug_printhex+0x16>
        if (digit > '0' || length > 0 || prefixByZero) {
            if (length < size) {
                buffer[length++] = digit;
            }
        }
        v = v % divisor;
 80028fa:	fbb0 f1f3 	udiv	r1, r0, r3
 80028fe:	fb03 0011 	mls	r0, r3, r1, r0
 8002902:	b2c0      	uxtb	r0, r0
    for(uint8_t divisor = 16; divisor >= 1; divisor = divisor / 16) {
 8002904:	091b      	lsrs	r3, r3, #4
 8002906:	b18b      	cbz	r3, 800292c <debug_printhex+0x3c>
        char digit = '0' + (char)(v / divisor);
 8002908:	fbb0 f1f3 	udiv	r1, r0, r3
 800290c:	b249      	sxtb	r1, r1
 800290e:	f101 0430 	add.w	r4, r1, #48	; 0x30
 8002912:	b2e4      	uxtb	r4, r4
        if (digit > '9') { digit = digit - 10 - '0' + 'a'; }
 8002914:	2c39      	cmp	r4, #57	; 0x39
 8002916:	d901      	bls.n	800291c <debug_printhex+0x2c>
 8002918:	3157      	adds	r1, #87	; 0x57
 800291a:	b2cc      	uxtb	r4, r1
            if (length < size) {
 800291c:	2a02      	cmp	r2, #2
 800291e:	dcec      	bgt.n	80028fa <debug_printhex+0xa>
                buffer[length++] = digit;
 8002920:	a902      	add	r1, sp, #8
 8002922:	4411      	add	r1, r2
 8002924:	f801 4c04 	strb.w	r4, [r1, #-4]
 8002928:	3201      	adds	r2, #1
 800292a:	e7e6      	b.n	80028fa <debug_printhex+0xa>
    }
    if (length == 0) { buffer[length++] = '0'; };
 800292c:	b92a      	cbnz	r2, 800293a <debug_printhex+0x4a>
 800292e:	ab02      	add	r3, sp, #8
 8002930:	4413      	add	r3, r2
 8002932:	2130      	movs	r1, #48	; 0x30
 8002934:	f803 1c04 	strb.w	r1, [r3, #-4]
 8002938:	3201      	adds	r2, #1
    if (length < size) buffer[length] = 0;
 800293a:	2a02      	cmp	r2, #2
 800293c:	dc04      	bgt.n	8002948 <debug_printhex+0x58>
 800293e:	ab02      	add	r3, sp, #8
 8002940:	441a      	add	r2, r3
 8002942:	2300      	movs	r3, #0
 8002944:	f802 3c04 	strb.w	r3, [r2, #-4]
    buffer[size - 1] = 0;  //  Terminate in case of overflow.
 8002948:	2300      	movs	r3, #0
 800294a:	f88d 3006 	strb.w	r3, [sp, #6]

    debug_append(buffer, strlen(buffer));
 800294e:	a801      	add	r0, sp, #4
 8002950:	f7ff fe47 	bl	80025e2 <strlen>
 8002954:	4601      	mov	r1, r0
 8002956:	a801      	add	r0, sp, #4
 8002958:	f7ff fe9c 	bl	8002694 <_ZL12debug_appendPKcj>
}
 800295c:	b002      	add	sp, #8
 800295e:	bd10      	pop	{r4, pc}

08002960 <debug_printhex_unsigned>:

void debug_printhex_unsigned(size_t l) {
 8002960:	b538      	push	{r3, r4, r5, lr}
 8002962:	4605      	mov	r5, r0
    //  Write an unsigned int in hexadecimal to the buffered debug log.
    for (int i = sizeof(l) - 1; i >= 0; i--) {
 8002964:	2403      	movs	r4, #3
 8002966:	2c00      	cmp	r4, #0
 8002968:	db07      	blt.n	800297a <debug_printhex_unsigned+0x1a>
        uint8_t b = 0xff & (l >> (8 * i));
 800296a:	00e0      	lsls	r0, r4, #3
 800296c:	fa25 f000 	lsr.w	r0, r5, r0
        debug_printhex(b);
 8002970:	b2c0      	uxtb	r0, r0
 8002972:	f7ff ffbd 	bl	80028f0 <debug_printhex>
    for (int i = sizeof(l) - 1; i >= 0; i--) {
 8002976:	3c01      	subs	r4, #1
 8002978:	e7f5      	b.n	8002966 <debug_printhex_unsigned+0x6>
    }
}
 800297a:	bd38      	pop	{r3, r4, r5, pc}

0800297c <platform_setup>:
extern "C" void target_panic(int statusCode); ////

//  Debugging is off by default.  Developer must switch it on with enable_debug().
static bool debugEnabled = false;

void platform_setup(void) {
 800297c:	b508      	push	{r3, lr}
    //  Initialise the STM32 platform. At startup, the onboard LED will blink on-off-on-off-on and stays on.
	//  If LED blinks on-off-on-off and stays off, then debug mode is enabled and no debugger is connected.
	rcc_clock_setup_in_hse_8mhz_out_72mhz();
 800297e:	f7fe fa19 	bl	8000db4 <rcc_clock_setup_in_hse_8mhz_out_72mhz>
	led_setup();
 8002982:	f000 f82b 	bl	80029dc <led_setup>
	if (debugEnabled) {
 8002986:	4b0e      	ldr	r3, [pc, #56]	; (80029c0 <platform_setup+0x44>)
 8002988:	781b      	ldrb	r3, [r3, #0]
 800298a:	b913      	cbnz	r3, 8002992 <platform_setup+0x16>
  		debug_println("----platform_setup");
		led_on();
	}

	////TODO
	test_codal();
 800298c:	f7fd ffc4 	bl	8000918 <test_codal>
}
 8002990:	bd08      	pop	{r3, pc}
		led_on(); led_wait();
 8002992:	f000 f833 	bl	80029fc <led_on>
 8002996:	f000 f845 	bl	8002a24 <led_wait>
		led_off(); led_wait();
 800299a:	f000 f839 	bl	8002a10 <led_off>
 800299e:	f000 f841 	bl	8002a24 <led_wait>
		led_on(); led_wait();
 80029a2:	f000 f82b 	bl	80029fc <led_on>
 80029a6:	f000 f83d 	bl	8002a24 <led_wait>
		led_off(); led_wait();
 80029aa:	f000 f831 	bl	8002a10 <led_off>
 80029ae:	f000 f839 	bl	8002a24 <led_wait>
  		debug_println("----platform_setup");
 80029b2:	4804      	ldr	r0, [pc, #16]	; (80029c4 <platform_setup+0x48>)
 80029b4:	f7ff ff5c 	bl	8002870 <debug_println>
		led_on();
 80029b8:	f000 f820 	bl	80029fc <led_on>
 80029bc:	e7e6      	b.n	800298c <platform_setup+0x10>
 80029be:	bf00      	nop
 80029c0:	20000454 	.word	0x20000454
 80029c4:	080046b4 	.word	0x080046b4

080029c8 <enable_debug>:

void enable_debug(void) {
 80029c8:	b508      	push	{r3, lr}
	//  Enable ARM Semihosting for displaying debug messages.
	debugEnabled = true;
 80029ca:	4b03      	ldr	r3, [pc, #12]	; (80029d8 <enable_debug+0x10>)
 80029cc:	2201      	movs	r2, #1
 80029ce:	701a      	strb	r2, [r3, #0]
	enable_log();
 80029d0:	f7ff fe8e 	bl	80026f0 <enable_log>
}
 80029d4:	bd08      	pop	{r3, pc}
 80029d6:	bf00      	nop
 80029d8:	20000454 	.word	0x20000454

080029dc <led_setup>:
//  Blink code from https://github.com/Apress/Beg-STM32-Devel-FreeRTOS-libopencm3-GCC
#include <libopencm3/stm32/rcc.h>
#include <libopencm3/stm32/gpio.h>
#include "bluepill.h"

void led_setup(void) {
 80029dc:	b508      	push	{r3, lr}
	//  Set up Blue Pill LED GPIO.
	//  Enable GPIOC clock.
	rcc_periph_clock_enable(RCC_GPIOC);
 80029de:	f44f 7041 	mov.w	r0, #772	; 0x304
 80029e2:	f7fe fe96 	bl	8001712 <rcc_periph_clock_enable>
	//  Set GPIO13 (in GPIO port C) to 'output push-pull'.
	gpio_set_mode(GPIOC, GPIO_MODE_OUTPUT_2_MHZ, GPIO_CNF_OUTPUT_PUSHPULL, GPIO13);
 80029e6:	f44f 5300 	mov.w	r3, #8192	; 0x2000
 80029ea:	2200      	movs	r2, #0
 80029ec:	2102      	movs	r1, #2
 80029ee:	4802      	ldr	r0, [pc, #8]	; (80029f8 <led_setup+0x1c>)
 80029f0:	f7fe fe50 	bl	8001694 <gpio_set_mode>
}
 80029f4:	bd08      	pop	{r3, pc}
 80029f6:	bf00      	nop
 80029f8:	40011000 	.word	0x40011000

080029fc <led_on>:

void led_on(void) {
 80029fc:	b508      	push	{r3, lr}
	//  Switch Blue Pill LED on.
	gpio_clear(GPIOC, GPIO13);
 80029fe:	f44f 5100 	mov.w	r1, #8192	; 0x2000
 8002a02:	4802      	ldr	r0, [pc, #8]	; (8002a0c <led_on+0x10>)
 8002a04:	f7fe fe7e 	bl	8001704 <gpio_clear>
}
 8002a08:	bd08      	pop	{r3, pc}
 8002a0a:	bf00      	nop
 8002a0c:	40011000 	.word	0x40011000

08002a10 <led_off>:

void led_off(void) {
 8002a10:	b508      	push	{r3, lr}
	//  Switch Blue Pill LED off.
	gpio_set(GPIOC, GPIO13);
 8002a12:	f44f 5100 	mov.w	r1, #8192	; 0x2000
 8002a16:	4802      	ldr	r0, [pc, #8]	; (8002a20 <led_off+0x10>)
 8002a18:	f7fe fe72 	bl	8001700 <gpio_set>
}
 8002a1c:	bd08      	pop	{r3, pc}
 8002a1e:	bf00      	nop
 8002a20:	40011000 	.word	0x40011000

08002a24 <led_wait>:
	//  Toggle Blue Pill LED.
	gpio_toggle(GPIOC, GPIO13);
}

void led_wait(void) {
	for (int i = 0; i < 1500000; i++)	/* Wait a bit. */
 8002a24:	2300      	movs	r3, #0
 8002a26:	4a03      	ldr	r2, [pc, #12]	; (8002a34 <led_wait+0x10>)
 8002a28:	4293      	cmp	r3, r2
 8002a2a:	dc02      	bgt.n	8002a32 <led_wait+0xe>
		__asm__("nop");
 8002a2c:	bf00      	nop
	for (int i = 0; i < 1500000; i++)	/* Wait a bit. */
 8002a2e:	3301      	adds	r3, #1
 8002a30:	e7f9      	b.n	8002a26 <led_wait+0x2>
}
 8002a32:	4770      	bx	lr
 8002a34:	0016e35f 	.word	0x0016e35f

08002a38 <_ZL25custom_rtc_awake_from_off7rcc_osc>:
select the clock source, clear the RTC registers and enable the RTC.
@param[in] clock_source ::rcc_osc. RTC clock source. Only the values HSE, LSE
    and LSI are permitted.
*/
static void custom_rtc_awake_from_off(enum rcc_osc clock_source)
{
 8002a38:	b538      	push	{r3, r4, r5, lr}
 8002a3a:	4604      	mov	r4, r0
	uint32_t reg32;

	/* Enable power and backup interface clocks. */
	rcc_periph_clock_enable(RCC_PWR);
 8002a3c:	f44f 7067 	mov.w	r0, #924	; 0x39c
 8002a40:	f7fe fe67 	bl	8001712 <rcc_periph_clock_enable>
	rcc_periph_clock_enable(RCC_BKP);
 8002a44:	f240 309b 	movw	r0, #923	; 0x39b
 8002a48:	f7fe fe63 	bl	8001712 <rcc_periph_clock_enable>

	/* Enable access to the backup registers and the RTC. */
	pwr_disable_backup_domain_write_protect();
 8002a4c:	f7fe faca 	bl	8000fe4 <pwr_disable_backup_domain_write_protect>

	/* Set the clock source */
	rcc_set_rtc_clock_source(clock_source);
 8002a50:	4620      	mov	r0, r4
 8002a52:	f7fe f937 	bl	8000cc4 <rcc_set_rtc_clock_source>

	/* Clear the RTC Control Register */
	RTC_CRH = 0;
 8002a56:	2400      	movs	r4, #0
 8002a58:	4b10      	ldr	r3, [pc, #64]	; (8002a9c <_ZL25custom_rtc_awake_from_off7rcc_osc+0x64>)
 8002a5a:	601c      	str	r4, [r3, #0]
	RTC_CRL = 0;
 8002a5c:	4d10      	ldr	r5, [pc, #64]	; (8002aa0 <_ZL25custom_rtc_awake_from_off7rcc_osc+0x68>)
 8002a5e:	602c      	str	r4, [r5, #0]

	/* Enable the RTC. */
	rcc_enable_rtc_clock();
 8002a60:	f7fe f928 	bl	8000cb4 <rcc_enable_rtc_clock>

	/* Clear the Registers */
	rtc_enter_config_mode();
 8002a64:	f7fe f9ee 	bl	8000e44 <rtc_enter_config_mode>
	RTC_PRLH = 0;
 8002a68:	4b0e      	ldr	r3, [pc, #56]	; (8002aa4 <_ZL25custom_rtc_awake_from_off7rcc_osc+0x6c>)
 8002a6a:	601c      	str	r4, [r3, #0]
	RTC_PRLL = 0;
 8002a6c:	3304      	adds	r3, #4
 8002a6e:	601c      	str	r4, [r3, #0]
	RTC_CNTH = 0;
 8002a70:	330c      	adds	r3, #12
 8002a72:	601c      	str	r4, [r3, #0]
	RTC_CNTL = 0;
 8002a74:	3304      	adds	r3, #4
 8002a76:	601c      	str	r4, [r3, #0]
	RTC_ALRH = 0xFFFF;
 8002a78:	f64f 73ff 	movw	r3, #65535	; 0xffff
 8002a7c:	4a0a      	ldr	r2, [pc, #40]	; (8002aa8 <_ZL25custom_rtc_awake_from_off7rcc_osc+0x70>)
 8002a7e:	6013      	str	r3, [r2, #0]
	RTC_ALRL = 0xFFFF;
 8002a80:	3204      	adds	r2, #4
 8002a82:	6013      	str	r3, [r2, #0]
	rtc_exit_config_mode();
 8002a84:	f7fe f9f0 	bl	8000e68 <rtc_exit_config_mode>

	/* Wait for the RSF bit in RTC_CRL to be set by hardware. */
	RTC_CRL &= ~RTC_CRL_RSF;
 8002a88:	682b      	ldr	r3, [r5, #0]
 8002a8a:	f023 0308 	bic.w	r3, r3, #8
 8002a8e:	602b      	str	r3, [r5, #0]
	while ((reg32 = (RTC_CRL & RTC_CRL_RSF)) == 0);
 8002a90:	4b03      	ldr	r3, [pc, #12]	; (8002aa0 <_ZL25custom_rtc_awake_from_off7rcc_osc+0x68>)
 8002a92:	681b      	ldr	r3, [r3, #0]
 8002a94:	f013 0f08 	tst.w	r3, #8
 8002a98:	d0fa      	beq.n	8002a90 <_ZL25custom_rtc_awake_from_off7rcc_osc+0x58>
}
 8002a9a:	bd38      	pop	{r3, r4, r5, pc}
 8002a9c:	40002800 	.word	0x40002800
 8002aa0:	40002804 	.word	0x40002804
 8002aa4:	40002808 	.word	0x40002808
 8002aa8:	40002820 	.word	0x40002820

08002aac <_ZL9rtc_setupv>:
static void rtc_setup(void) {
 8002aac:	b508      	push	{r3, lr}
	rcc_enable_rtc_clock();
 8002aae:	f7fe f901 	bl	8000cb4 <rcc_enable_rtc_clock>
	rtc_interrupt_disable(RTC_SEC);
 8002ab2:	2000      	movs	r0, #0
 8002ab4:	f7fe fa44 	bl	8000f40 <rtc_interrupt_disable>
	rtc_interrupt_disable(RTC_ALR);
 8002ab8:	2001      	movs	r0, #1
 8002aba:	f7fe fa41 	bl	8000f40 <rtc_interrupt_disable>
	rtc_interrupt_disable(RTC_OW);
 8002abe:	2002      	movs	r0, #2
 8002ac0:	f7fe fa3e 	bl	8000f40 <rtc_interrupt_disable>
	debug_println("rtc awake..."); debug_flush(); //  rtc_awake_from_off() fails on qemu.
 8002ac4:	481b      	ldr	r0, [pc, #108]	; (8002b34 <_ZL9rtc_setupv+0x88>)
 8002ac6:	f7ff fed3 	bl	8002870 <debug_println>
 8002aca:	f7ff fef8 	bl	80028be <debug_flush>
	custom_rtc_awake_from_off(clock_source);  //  This will enable RTC.
 8002ace:	2005      	movs	r0, #5
 8002ad0:	f7ff ffb2 	bl	8002a38 <_ZL25custom_rtc_awake_from_off7rcc_osc>
	rtc_set_prescale_val(prescale);
 8002ad4:	2020      	movs	r0, #32
 8002ad6:	f7fe f9e9 	bl	8000eac <rtc_set_prescale_val>
	debug_println("rtc awake ok"); debug_flush(); //  rtc_awake_from_off() fails on qemu.
 8002ada:	4817      	ldr	r0, [pc, #92]	; (8002b38 <_ZL9rtc_setupv+0x8c>)
 8002adc:	f7ff fec8 	bl	8002870 <debug_println>
 8002ae0:	f7ff feed 	bl	80028be <debug_flush>
	rtc_set_counter_val(0);              //  Start counting millisecond ticks from 0.
 8002ae4:	2000      	movs	r0, #0
 8002ae6:	f7fe f9fb 	bl	8000ee0 <rtc_set_counter_val>
	rtc_set_alarm_time((uint32_t) -1);   //  Reset alarm to -1 or 0xffffffff so we don't trigger now.
 8002aea:	f04f 30ff 	mov.w	r0, #4294967295	; 0xffffffff
 8002aee:	f7fe f9cd 	bl	8000e8c <rtc_set_alarm_time>
	exti_set_trigger(EXTI17, EXTI_TRIGGER_RISING);  //  Enable alarm wakeup via the interrupt.
 8002af2:	2100      	movs	r1, #0
 8002af4:	f44f 3000 	mov.w	r0, #131072	; 0x20000
 8002af8:	f7fe fa84 	bl	8001004 <exti_set_trigger>
	exti_enable_request(EXTI17);
 8002afc:	f44f 3000 	mov.w	r0, #131072	; 0x20000
 8002b00:	f7fe faa6 	bl	8001050 <exti_enable_request>
	nvic_enable_irq(NVIC_RTC_IRQ);        //  Enable RTC tick interrupt processing.
 8002b04:	2003      	movs	r0, #3
 8002b06:	f7ff fa71 	bl	8001fec <nvic_enable_irq>
	nvic_enable_irq(NVIC_RTC_ALARM_IRQ);  //  Enable RTC alarm wakeup interrupt processing.
 8002b0a:	2029      	movs	r0, #41	; 0x29
 8002b0c:	f7ff fa6e 	bl	8001fec <nvic_enable_irq>
 8002b10:	b672      	cpsid	i
	rtc_clear_flag(RTC_SEC);
 8002b12:	2000      	movs	r0, #0
 8002b14:	f7fe fa34 	bl	8000f80 <rtc_clear_flag>
	rtc_clear_flag(RTC_ALR);
 8002b18:	2001      	movs	r0, #1
 8002b1a:	f7fe fa31 	bl	8000f80 <rtc_clear_flag>
	rtc_clear_flag(RTC_OW);
 8002b1e:	2002      	movs	r0, #2
 8002b20:	f7fe fa2e 	bl	8000f80 <rtc_clear_flag>
	rtc_interrupt_enable(RTC_SEC);  //  Allow RTC to generate tick interrupts.
 8002b24:	2000      	movs	r0, #0
 8002b26:	f7fe f9eb 	bl	8000f00 <rtc_interrupt_enable>
	rtc_interrupt_enable(RTC_ALR);  //  Allow RTC to generate alarm interrupts.
 8002b2a:	2001      	movs	r0, #1
 8002b2c:	f7fe f9e8 	bl	8000f00 <rtc_interrupt_enable>
	__asm__("CPSIE I\n");
 8002b30:	b662      	cpsie	i
}
 8002b32:	bd08      	pop	{r3, pc}
 8002b34:	080046c8 	.word	0x080046c8
 8002b38:	080046d8 	.word	0x080046d8

08002b3c <platform_start_timer>:
void platform_start_timer(void (*tickFunc0)(void), void (*alarmFunc0)(void)) {
 8002b3c:	b508      	push	{r3, lr}
  	tickFunc = tickFunc0;    //  Allow tickFunc to be modified at every call to platform_start_timer().
 8002b3e:	4b08      	ldr	r3, [pc, #32]	; (8002b60 <platform_start_timer+0x24>)
 8002b40:	6018      	str	r0, [r3, #0]
  	alarmFunc = alarmFunc0;  //  Allow alarmFunc to be modified at every call to platform_start_timer().
 8002b42:	4b08      	ldr	r3, [pc, #32]	; (8002b64 <platform_start_timer+0x28>)
 8002b44:	6019      	str	r1, [r3, #0]
	if (timerStarted) { return; }
 8002b46:	4b08      	ldr	r3, [pc, #32]	; (8002b68 <platform_start_timer+0x2c>)
 8002b48:	781b      	ldrb	r3, [r3, #0]
 8002b4a:	b103      	cbz	r3, 8002b4e <platform_start_timer+0x12>
}
 8002b4c:	bd08      	pop	{r3, pc}
	timerStarted = true;
 8002b4e:	4b06      	ldr	r3, [pc, #24]	; (8002b68 <platform_start_timer+0x2c>)
 8002b50:	2201      	movs	r2, #1
 8002b52:	701a      	strb	r2, [r3, #0]
	debug_println("platform_start_timer"); ////
 8002b54:	4805      	ldr	r0, [pc, #20]	; (8002b6c <platform_start_timer+0x30>)
 8002b56:	f7ff fe8b 	bl	8002870 <debug_println>
	rtc_setup();
 8002b5a:	f7ff ffa7 	bl	8002aac <_ZL9rtc_setupv>
 8002b5e:	e7f5      	b.n	8002b4c <platform_start_timer+0x10>
 8002b60:	20000448 	.word	0x20000448
 8002b64:	2000044c 	.word	0x2000044c
 8002b68:	20000455 	.word	0x20000455
 8002b6c:	080046f0 	.word	0x080046f0

08002b70 <platform_set_alarm>:
void platform_set_alarm(uint32_t millisec) {
 8002b70:	b510      	push	{r4, lr}
 8002b72:	b082      	sub	sp, #8
 8002b74:	4604      	mov	r4, r0
	if (!alarmFunc) { debug_print("alm? "); } ////
 8002b76:	4b09      	ldr	r3, [pc, #36]	; (8002b9c <platform_set_alarm+0x2c>)
 8002b78:	681b      	ldr	r3, [r3, #0]
 8002b7a:	b153      	cbz	r3, 8002b92 <platform_set_alarm+0x22>
	volatile uint32_t now = rtc_get_counter_val();
 8002b7c:	f7fe f9a6 	bl	8000ecc <rtc_get_counter_val>
 8002b80:	9001      	str	r0, [sp, #4]
	pwr_disable_backup_domain_write_protect();
 8002b82:	f7fe fa2f 	bl	8000fe4 <pwr_disable_backup_domain_write_protect>
	rtc_set_alarm_time(now + millisec);
 8002b86:	9801      	ldr	r0, [sp, #4]
 8002b88:	4420      	add	r0, r4
 8002b8a:	f7fe f97f 	bl	8000e8c <rtc_set_alarm_time>
}
 8002b8e:	b002      	add	sp, #8
 8002b90:	bd10      	pop	{r4, pc}
	if (!alarmFunc) { debug_print("alm? "); } ////
 8002b92:	4803      	ldr	r0, [pc, #12]	; (8002ba0 <platform_set_alarm+0x30>)
 8002b94:	f7ff fe98 	bl	80028c8 <debug_print>
 8002b98:	e7f0      	b.n	8002b7c <platform_set_alarm+0xc>
 8002b9a:	bf00      	nop
 8002b9c:	2000044c 	.word	0x2000044c
 8002ba0:	080046e8 	.word	0x080046e8

08002ba4 <platform_alarm_count>:
	return alarmCount;  //  For testing whether alarm ISR was called.
 8002ba4:	4b01      	ldr	r3, [pc, #4]	; (8002bac <platform_alarm_count+0x8>)
 8002ba6:	6818      	ldr	r0, [r3, #0]
}
 8002ba8:	4770      	bx	lr
 8002baa:	bf00      	nop
 8002bac:	20000444 	.word	0x20000444

08002bb0 <__cxa_pure_virtual>:
}

//  These functions must be located here or the compiler will pull in the standard C library versions.
//  From https://github.com/lancaster-university/codal-arduino-uno/blob/master/source/codal_target_hal.cpp

extern "C" void __cxa_pure_virtual() {
 8002bb0:	b508      	push	{r3, lr}
	//  Disable exceptions for abstract classes. See https://arobenko.gitbooks.io/bare_metal_cpp/content/compiler_output/abstract_classes.html
    target_panic(1000);
 8002bb2:	f44f 707a 	mov.w	r0, #1000	; 0x3e8
 8002bb6:	f7fd fe9b 	bl	80008f0 <target_panic>
}
 8002bba:	bd08      	pop	{r3, pc}

08002bbc <_Znwj>:

// define new and delete.
extern "C" void *operator new(size_t objsize) {
 8002bbc:	b508      	push	{r3, lr}
    return malloc(objsize);
 8002bbe:	f004 fdb3 	bl	8007728 <device_malloc>
}
 8002bc2:	bd08      	pop	{r3, pc}

08002bc4 <_ZdlPv>:

extern "C" void operator delete(void* obj) {
 8002bc4:	b508      	push	{r3, lr}
    free(obj);
 8002bc6:	f004 fdd9 	bl	800777c <device_free>
}
 8002bca:	bd08      	pop	{r3, pc}

08002bcc <millis>:
volatile uint32_t millis(void) {
 8002bcc:	b508      	push	{r3, lr}
	return rtc_get_counter_val();  //  More accurate, uses hardware counters.
 8002bce:	f7fe f97d 	bl	8000ecc <rtc_get_counter_val>
}
 8002bd2:	bd08      	pop	{r3, pc}

08002bd4 <get_serial_number>:
        debug_println("boot_target_manifest_app");  debug_flush();
        boot_target_manifest_app();
    }
#endif // NOTUSED

static void get_serial_number(void) {
 8002bd4:	b510      	push	{r4, lr}
 8002bd6:	b088      	sub	sp, #32
    char serial[USB_SERIAL_NUM_LENGTH+1];
    serial[0] = '\0';
 8002bd8:	ac08      	add	r4, sp, #32
 8002bda:	2300      	movs	r3, #0
 8002bdc:	f804 3d1c 	strb.w	r3, [r4, #-28]!
    debug_println("boot_target_get_serial_number");  // debug_flush();
 8002be0:	4807      	ldr	r0, [pc, #28]	; (8002c00 <get_serial_number+0x2c>)
 8002be2:	f7ff fe45 	bl	8002870 <debug_println>
    boot_target_get_serial_number(serial, USB_SERIAL_NUM_LENGTH);
 8002be6:	2118      	movs	r1, #24
 8002be8:	4620      	mov	r0, r4
 8002bea:	f001 fc74 	bl	80044d6 <boot_target_get_serial_number>

    debug_println("usb_set_serial_number");  // debug_flush();
 8002bee:	4805      	ldr	r0, [pc, #20]	; (8002c04 <get_serial_number+0x30>)
 8002bf0:	f7ff fe3e 	bl	8002870 <debug_println>
    usb_set_serial_number(serial);
 8002bf4:	4620      	mov	r0, r4
 8002bf6:	f000 fb81 	bl	80032fc <usb_set_serial_number>
}
 8002bfa:	b008      	add	sp, #32
 8002bfc:	bd10      	pop	{r4, pc}
 8002bfe:	bf00      	nop
 8002c00:	0800476c 	.word	0x0800476c
 8002c04:	0800478c 	.word	0x0800478c

08002c08 <poll_restart_callback>:
int poll_restart_callback(void) {
 8002c08:	b508      	push	{r3, lr}
    debug_println("restart callback");  debug_flush(); 
 8002c0a:	4805      	ldr	r0, [pc, #20]	; (8002c20 <poll_restart_callback+0x18>)
 8002c0c:	f7ff fe30 	bl	8002870 <debug_println>
 8002c10:	f7ff fe55 	bl	80028be <debug_flush>
    poll_restart_requested = true;
 8002c14:	4b03      	ldr	r3, [pc, #12]	; (8002c24 <poll_restart_callback+0x1c>)
 8002c16:	2201      	movs	r2, #1
 8002c18:	701a      	strb	r2, [r3, #0]
}
 8002c1a:	2000      	movs	r0, #0
 8002c1c:	bd08      	pop	{r3, pc}
 8002c1e:	bf00      	nop
 8002c20:	080047cc 	.word	0x080047cc
 8002c24:	20000728 	.word	0x20000728

08002c28 <poll_loop>:
static void poll_loop(void) {
 8002c28:	b510      	push	{r4, lr}
    debug_println("usbd polling...");  debug_flush();  debug_flush();  // test_hf2(); test_backup();          //  Test backup.
 8002c2a:	4828      	ldr	r0, [pc, #160]	; (8002ccc <poll_loop+0xa4>)
 8002c2c:	f7ff fe20 	bl	8002870 <debug_println>
 8002c30:	f7ff fe45 	bl	80028be <debug_flush>
 8002c34:	f7ff fe43 	bl	80028be <debug_flush>
    boot_target_set_restart_callback(poll_restart_callback);
 8002c38:	4825      	ldr	r0, [pc, #148]	; (8002cd0 <poll_loop+0xa8>)
 8002c3a:	f000 f9fd 	bl	8003038 <boot_target_set_restart_callback>
        usbd_poll(usbd_dev);
 8002c3e:	4b25      	ldr	r3, [pc, #148]	; (8002cd4 <poll_loop+0xac>)
 8002c40:	6818      	ldr	r0, [r3, #0]
 8002c42:	f7fe fd87 	bl	8001754 <usbd_poll>
        cycleCount++;
 8002c46:	4a24      	ldr	r2, [pc, #144]	; (8002cd8 <poll_loop+0xb0>)
 8002c48:	6813      	ldr	r3, [r2, #0]
 8002c4a:	3301      	adds	r3, #1
 8002c4c:	6013      	str	r3, [r2, #0]
        if (cycleCount >= 700) {
 8002c4e:	f5b3 7f2f 	cmp.w	r3, #700	; 0x2bc
 8002c52:	d3f4      	bcc.n	8002c3e <poll_loop+0x16>
            cycleCount = 0;
 8002c54:	4613      	mov	r3, r2
 8002c56:	2200      	movs	r2, #0
 8002c58:	601a      	str	r2, [r3, #0]
            boot_target_set_led((msTimer++ % 500) < 50);
 8002c5a:	4a20      	ldr	r2, [pc, #128]	; (8002cdc <poll_loop+0xb4>)
 8002c5c:	6813      	ldr	r3, [r2, #0]
 8002c5e:	1c59      	adds	r1, r3, #1
 8002c60:	6011      	str	r1, [r2, #0]
 8002c62:	f44f 72fa 	mov.w	r2, #500	; 0x1f4
 8002c66:	fbb3 f0f2 	udiv	r0, r3, r2
 8002c6a:	fb02 3010 	mls	r0, r2, r0, r3
 8002c6e:	2831      	cmp	r0, #49	; 0x31
 8002c70:	bf8c      	ite	hi
 8002c72:	2000      	movhi	r0, #0
 8002c74:	2001      	movls	r0, #1
 8002c76:	f000 f97f 	bl	8002f78 <boot_target_set_led>
            if (flushCount++ % 1000 == 0 && get_usb_status() == 0) {  //  If USB is not busy...
 8002c7a:	4b19      	ldr	r3, [pc, #100]	; (8002ce0 <poll_loop+0xb8>)
 8002c7c:	681a      	ldr	r2, [r3, #0]
 8002c7e:	1c51      	adds	r1, r2, #1
 8002c80:	6019      	str	r1, [r3, #0]
 8002c82:	f44f 717a 	mov.w	r1, #1000	; 0x3e8
 8002c86:	fbb2 f3f1 	udiv	r3, r2, r1
 8002c8a:	fb01 2313 	mls	r3, r1, r3, r2
 8002c8e:	2b00      	cmp	r3, #0
 8002c90:	d1d5      	bne.n	8002c3e <poll_loop+0x16>
 8002c92:	f000 fac7 	bl	8003224 <get_usb_status>
 8002c96:	4604      	mov	r4, r0
 8002c98:	2800      	cmp	r0, #0
 8002c9a:	d1d0      	bne.n	8002c3e <poll_loop+0x16>
                debug_flush(); 
 8002c9c:	f7ff fe0f 	bl	80028be <debug_flush>
                if (poll_restart_requested) {  //  Flush the log and restart.
 8002ca0:	4b10      	ldr	r3, [pc, #64]	; (8002ce4 <poll_loop+0xbc>)
 8002ca2:	781b      	ldrb	r3, [r3, #0]
 8002ca4:	2b00      	cmp	r3, #0
 8002ca6:	d0ca      	beq.n	8002c3e <poll_loop+0x16>
                    debug_println("restarting...");
 8002ca8:	480f      	ldr	r0, [pc, #60]	; (8002ce8 <poll_loop+0xc0>)
 8002caa:	f7ff fde1 	bl	8002870 <debug_println>
                    debug_force_flush();
 8002cae:	f7ff fd71 	bl	8002794 <debug_force_flush>
                    for (int i = 0; i < us*10; i++) { __asm__("nop"); }
 8002cb2:	4b0e      	ldr	r3, [pc, #56]	; (8002cec <poll_loop+0xc4>)
 8002cb4:	429c      	cmp	r4, r3
 8002cb6:	dd06      	ble.n	8002cc6 <poll_loop+0x9e>
                    debug_println("done");
 8002cb8:	480d      	ldr	r0, [pc, #52]	; (8002cf0 <poll_loop+0xc8>)
 8002cba:	f7ff fdd9 	bl	8002870 <debug_println>
                    debug_force_flush();
 8002cbe:	f7ff fd69 	bl	8002794 <debug_force_flush>
                    scb_reset_system();
 8002cc2:	f7fe fa87 	bl	80011d4 <scb_reset_system>
                    for (int i = 0; i < us*10; i++) { __asm__("nop"); }
 8002cc6:	bf00      	nop
 8002cc8:	3401      	adds	r4, #1
 8002cca:	e7f2      	b.n	8002cb2 <poll_loop+0x8a>
 8002ccc:	080047a4 	.word	0x080047a4
 8002cd0:	08002c09 	.word	0x08002c09
 8002cd4:	2000047c 	.word	0x2000047c
 8002cd8:	20000464 	.word	0x20000464
 8002cdc:	20000470 	.word	0x20000470
 8002ce0:	20000018 	.word	0x20000018
 8002ce4:	20000728 	.word	0x20000728
 8002ce8:	080047b4 	.word	0x080047b4
 8002cec:	0098967f 	.word	0x0098967f
 8002cf0:	080047c4 	.word	0x080047c4

08002cf4 <bootloader_poll>:
int bootloader_poll(void) {
 8002cf4:	b508      	push	{r3, lr}
    last_poll = millis();
 8002cf6:	f7ff ff69 	bl	8002bcc <millis>
    if (!usbd_dev) { return -1; }
 8002cfa:	4b08      	ldr	r3, [pc, #32]	; (8002d1c <bootloader_poll+0x28>)
 8002cfc:	6818      	ldr	r0, [r3, #0]
 8002cfe:	b150      	cbz	r0, 8002d16 <bootloader_poll+0x22>
	usbd_poll(usbd_dev);
 8002d00:	f7fe fd28 	bl	8001754 <usbd_poll>
    status = get_usb_status();  //  if (status != last_status) { debug_print("@"); debug_print_unsigned(status); debug_print(" "); } ////
 8002d04:	f000 fa8e 	bl	8003224 <get_usb_status>
 8002d08:	4b05      	ldr	r3, [pc, #20]	; (8002d20 <bootloader_poll+0x2c>)
 8002d0a:	6018      	str	r0, [r3, #0]
    last_status = status;
 8002d0c:	6819      	ldr	r1, [r3, #0]
 8002d0e:	4a05      	ldr	r2, [pc, #20]	; (8002d24 <bootloader_poll+0x30>)
 8002d10:	6011      	str	r1, [r2, #0]
    return status;  // if (delay > 0) { debug_print("p"); debug_print_unsigned(delay); debug_print(" / "); }
 8002d12:	6818      	ldr	r0, [r3, #0]
}
 8002d14:	bd08      	pop	{r3, pc}
    if (!usbd_dev) { return -1; }
 8002d16:	f04f 30ff 	mov.w	r0, #4294967295	; 0xffffffff
 8002d1a:	e7fb      	b.n	8002d14 <bootloader_poll+0x20>
 8002d1c:	2000047c 	.word	0x2000047c
 8002d20:	20000478 	.word	0x20000478
 8002d24:	2000046c 	.word	0x2000046c

08002d28 <bootloader_start>:
    if (usbd_dev) { return 1; }  // Already started, quit.
 8002d28:	4b3d      	ldr	r3, [pc, #244]	; (8002e20 <bootloader_start+0xf8>)
 8002d2a:	681b      	ldr	r3, [r3, #0]
 8002d2c:	b10b      	cbz	r3, 8002d32 <bootloader_start+0xa>
 8002d2e:	2001      	movs	r0, #1
}
 8002d30:	4770      	bx	lr
int bootloader_start(void) {
 8002d32:	b510      	push	{r4, lr}
    debug_println("----bootloader");  // debug_flush();    
 8002d34:	483b      	ldr	r0, [pc, #236]	; (8002e24 <bootloader_start+0xfc>)
 8002d36:	f7ff fd9b 	bl	8002870 <debug_println>
    boot_target_gpio_setup();  //  Initialize GPIO/LEDs if needed
 8002d3a:	f000 f92d 	bl	8002f98 <boot_target_gpio_setup>
    get_serial_number();  //  Get the unique Blue Pill serial number.
 8002d3e:	f7ff ff49 	bl	8002bd4 <get_serial_number>
    if (boot_target_get_startup_mode() == BOOTLOADER_MODE) { 
 8002d42:	f000 f8bd 	bl	8002ec0 <boot_target_get_startup_mode>
 8002d46:	2802      	cmp	r0, #2
 8002d48:	d00f      	beq.n	8002d6a <bootloader_start+0x42>
    debug_println("usb_setup");  // debug_flush();
 8002d4a:	4837      	ldr	r0, [pc, #220]	; (8002e28 <bootloader_start+0x100>)
 8002d4c:	f7ff fd90 	bl	8002870 <debug_println>
    usbd_dev = usb_setup();
 8002d50:	f000 fa04 	bl	800315c <usb_setup>
 8002d54:	4b32      	ldr	r3, [pc, #200]	; (8002e20 <bootloader_start+0xf8>)
 8002d56:	6018      	str	r0, [r3, #0]
    if (boot_target_get_startup_mode() == APPLICATION_MODE) { 
 8002d58:	f000 f8b2 	bl	8002ec0 <boot_target_get_startup_mode>
 8002d5c:	2801      	cmp	r0, #1
 8002d5e:	d108      	bne.n	8002d72 <bootloader_start+0x4a>
        target_set_bootloader_callback(bootloader_poll);
 8002d60:	4832      	ldr	r0, [pc, #200]	; (8002e2c <bootloader_start+0x104>)
 8002d62:	f7fd fe1f 	bl	80009a4 <target_set_bootloader_callback>
        return 0; 
 8002d66:	2000      	movs	r0, #0
}
 8002d68:	bd10      	pop	{r4, pc}
        __set_MSP((uint32_t) &_boot_stack);
 8002d6a:	4b31      	ldr	r3, [pc, #196]	; (8002e30 <bootloader_start+0x108>)
    asm("msr msp, %0" : : "r" (topOfMainStack));
 8002d6c:	f383 8808 	msr	MSP, r3
 8002d70:	e7eb      	b.n	8002d4a <bootloader_start+0x22>
	baseloader_addr = NULL;
 8002d72:	4830      	ldr	r0, [pc, #192]	; (8002e34 <bootloader_start+0x10c>)
 8002d74:	2300      	movs	r3, #0
 8002d76:	6003      	str	r3, [r0, #0]
	baseloader_status = baseloader_fetch(&baseloader_addr, &dest, &src, &byte_count);  //  Fetch the baseloader address, which will be at a temporary location.
 8002d78:	4b2f      	ldr	r3, [pc, #188]	; (8002e38 <bootloader_start+0x110>)
 8002d7a:	4a30      	ldr	r2, [pc, #192]	; (8002e3c <bootloader_start+0x114>)
 8002d7c:	4930      	ldr	r1, [pc, #192]	; (8002e40 <bootloader_start+0x118>)
 8002d7e:	f7fd fba7 	bl	80004d0 <baseloader_fetch>
 8002d82:	4c30      	ldr	r4, [pc, #192]	; (8002e44 <bootloader_start+0x11c>)
 8002d84:	6020      	str	r0, [r4, #0]
	debug_print("----baseloader "); if (baseloader_status == 0) { 
 8002d86:	4830      	ldr	r0, [pc, #192]	; (8002e48 <bootloader_start+0x120>)
 8002d88:	f7ff fd9e 	bl	80028c8 <debug_print>
 8002d8c:	6820      	ldr	r0, [r4, #0]
 8002d8e:	2800      	cmp	r0, #0
 8002d90:	d142      	bne.n	8002e18 <bootloader_start+0xf0>
		debug_printhex_unsigned((uint32_t) baseloader_addr); 
 8002d92:	4c28      	ldr	r4, [pc, #160]	; (8002e34 <bootloader_start+0x10c>)
 8002d94:	6820      	ldr	r0, [r4, #0]
 8002d96:	f7ff fde3 	bl	8002960 <debug_printhex_unsigned>
		debug_print(", dest "); debug_printhex_unsigned((uint32_t) dest);
 8002d9a:	482c      	ldr	r0, [pc, #176]	; (8002e4c <bootloader_start+0x124>)
 8002d9c:	f7ff fd94 	bl	80028c8 <debug_print>
 8002da0:	4b27      	ldr	r3, [pc, #156]	; (8002e40 <bootloader_start+0x118>)
 8002da2:	6818      	ldr	r0, [r3, #0]
 8002da4:	f7ff fddc 	bl	8002960 <debug_printhex_unsigned>
		debug_print(", src "); debug_printhex_unsigned((uint32_t) src);
 8002da8:	4829      	ldr	r0, [pc, #164]	; (8002e50 <bootloader_start+0x128>)
 8002daa:	f7ff fd8d 	bl	80028c8 <debug_print>
 8002dae:	4b23      	ldr	r3, [pc, #140]	; (8002e3c <bootloader_start+0x114>)
 8002db0:	6818      	ldr	r0, [r3, #0]
 8002db2:	f7ff fdd5 	bl	8002960 <debug_printhex_unsigned>
		debug_print(", len "); debug_printhex_unsigned(byte_count); debug_force_flush();  
 8002db6:	4827      	ldr	r0, [pc, #156]	; (8002e54 <bootloader_start+0x12c>)
 8002db8:	f7ff fd86 	bl	80028c8 <debug_print>
 8002dbc:	4b1e      	ldr	r3, [pc, #120]	; (8002e38 <bootloader_start+0x110>)
 8002dbe:	6818      	ldr	r0, [r3, #0]
 8002dc0:	f7ff fdce 	bl	8002960 <debug_printhex_unsigned>
 8002dc4:	f7ff fce6 	bl	8002794 <debug_force_flush>
		debug_print(", *func "); debug_printhex_unsigned(*(uint32_t *) baseloader_addr); debug_force_flush();  
 8002dc8:	4823      	ldr	r0, [pc, #140]	; (8002e58 <bootloader_start+0x130>)
 8002dca:	f7ff fd7d 	bl	80028c8 <debug_print>
 8002dce:	6823      	ldr	r3, [r4, #0]
 8002dd0:	6818      	ldr	r0, [r3, #0]
 8002dd2:	f7ff fdc5 	bl	8002960 <debug_printhex_unsigned>
 8002dd6:	f7ff fcdd 	bl	8002794 <debug_force_flush>
	} else { debug_print_int(baseloader_status); }; debug_println(""); debug_force_flush();
 8002dda:	4820      	ldr	r0, [pc, #128]	; (8002e5c <bootloader_start+0x134>)
 8002ddc:	f7ff fd48 	bl	8002870 <debug_println>
 8002de0:	f7ff fcd8 	bl	8002794 <debug_force_flush>
	if (baseloader_status == 0 && baseloader_addr) {
 8002de4:	4b17      	ldr	r3, [pc, #92]	; (8002e44 <bootloader_start+0x11c>)
 8002de6:	681b      	ldr	r3, [r3, #0]
 8002de8:	b9a3      	cbnz	r3, 8002e14 <bootloader_start+0xec>
 8002dea:	4b12      	ldr	r3, [pc, #72]	; (8002e34 <bootloader_start+0x10c>)
 8002dec:	681b      	ldr	r3, [r3, #0]
 8002dee:	b18b      	cbz	r3, 8002e14 <bootloader_start+0xec>
		baseloader_status = baseloader_addr(dest, src, byte_count);  //  Call the baseloader.
 8002df0:	4a11      	ldr	r2, [pc, #68]	; (8002e38 <bootloader_start+0x110>)
 8002df2:	6812      	ldr	r2, [r2, #0]
 8002df4:	4911      	ldr	r1, [pc, #68]	; (8002e3c <bootloader_start+0x114>)
 8002df6:	6809      	ldr	r1, [r1, #0]
 8002df8:	4811      	ldr	r0, [pc, #68]	; (8002e40 <bootloader_start+0x118>)
 8002dfa:	6800      	ldr	r0, [r0, #0]
 8002dfc:	4798      	blx	r3
 8002dfe:	4c11      	ldr	r4, [pc, #68]	; (8002e44 <bootloader_start+0x11c>)
 8002e00:	6020      	str	r0, [r4, #0]
		debug_print("baseloader failed "); debug_print_int(baseloader_status); debug_println("");  //  If it returned, it must have failed.
 8002e02:	4817      	ldr	r0, [pc, #92]	; (8002e60 <bootloader_start+0x138>)
 8002e04:	f7ff fd60 	bl	80028c8 <debug_print>
 8002e08:	6820      	ldr	r0, [r4, #0]
 8002e0a:	f7ff fd69 	bl	80028e0 <debug_print_int>
 8002e0e:	4813      	ldr	r0, [pc, #76]	; (8002e5c <bootloader_start+0x134>)
 8002e10:	f7ff fd2e 	bl	8002870 <debug_println>
    poll_loop();
 8002e14:	f7ff ff08 	bl	8002c28 <poll_loop>
	} else { debug_print_int(baseloader_status); }; debug_println(""); debug_force_flush();
 8002e18:	f7ff fd62 	bl	80028e0 <debug_print_int>
 8002e1c:	e7dd      	b.n	8002dda <bootloader_start+0xb2>
 8002e1e:	bf00      	nop
 8002e20:	2000047c 	.word	0x2000047c
 8002e24:	08004708 	.word	0x08004708
 8002e28:	08004718 	.word	0x08004718
 8002e2c:	08002cf5 	.word	0x08002cf5
 8002e30:	200047bc 	.word	0x200047bc
 8002e34:	20000458 	.word	0x20000458
 8002e38:	20000460 	.word	0x20000460
 8002e3c:	20000474 	.word	0x20000474
 8002e40:	20000468 	.word	0x20000468
 8002e44:	2000045c 	.word	0x2000045c
 8002e48:	08004724 	.word	0x08004724
 8002e4c:	08004734 	.word	0x08004734
 8002e50:	0800473c 	.word	0x0800473c
 8002e54:	08004744 	.word	0x08004744
 8002e58:	0800474c 	.word	0x0800474c
 8002e5c:	08004608 	.word	0x08004608
 8002e60:	08004758 	.word	0x08004758

08002e64 <validate_application>:
static const uint32_t CMD_BOOT = 0x544F4F42UL;  //  Forced startup into Bootloader Mode.
static const uint32_t CMD_APP  = 0x3f82722aUL;  //  Forced startup into Application Mode.
static enum StartupMode startup_mode        = UNKNOWN_MODE;  //  Current startup mode.
static enum StartupMode forced_startup_mode = UNKNOWN_MODE;  //  Forced startup mode, if we were forced into this mode before restarting. If we were not forced, set to UNKNOWN_MODE.

static bool validate_application(void) {
 8002e64:	b510      	push	{r4, lr}
    //  Return true if there is a valid application in firmware.  The second or fourth byte should be 0xb5, the "push" instruction.
    uint32_t first_word = *(volatile uint32_t *)APP_BASE_ADDRESS;
 8002e66:	4b11      	ldr	r3, [pc, #68]	; (8002eac <validate_application+0x48>)
 8002e68:	681c      	ldr	r4, [r3, #0]
    if ((first_word & 0xff00) == 0xb500 || (first_word & 0xff000000) == 0xb5000000) {
 8002e6a:	f404 437f 	and.w	r3, r4, #65280	; 0xff00
 8002e6e:	f5b3 4f35 	cmp.w	r3, #46336	; 0xb500
 8002e72:	d015      	beq.n	8002ea0 <validate_application+0x3c>
 8002e74:	f004 437f 	and.w	r3, r4, #4278190080	; 0xff000000
 8002e78:	f1b3 4f35 	cmp.w	r3, #3036676096	; 0xb5000000
 8002e7c:	d010      	beq.n	8002ea0 <validate_application+0x3c>
        debug_println("app exists");
        return true;
    }
    debug_print("app missing "); debug_printhex_unsigned((size_t) APP_BASE_ADDRESS);
 8002e7e:	480c      	ldr	r0, [pc, #48]	; (8002eb0 <validate_application+0x4c>)
 8002e80:	f7ff fd22 	bl	80028c8 <debug_print>
 8002e84:	4809      	ldr	r0, [pc, #36]	; (8002eac <validate_application+0x48>)
 8002e86:	f7ff fd6b 	bl	8002960 <debug_printhex_unsigned>
    debug_print(" = "); debug_printhex_unsigned(first_word); debug_println("");
 8002e8a:	480a      	ldr	r0, [pc, #40]	; (8002eb4 <validate_application+0x50>)
 8002e8c:	f7ff fd1c 	bl	80028c8 <debug_print>
 8002e90:	4620      	mov	r0, r4
 8002e92:	f7ff fd65 	bl	8002960 <debug_printhex_unsigned>
 8002e96:	4808      	ldr	r0, [pc, #32]	; (8002eb8 <validate_application+0x54>)
 8002e98:	f7ff fcea 	bl	8002870 <debug_println>
    return false;
 8002e9c:	2000      	movs	r0, #0
 8002e9e:	e003      	b.n	8002ea8 <validate_application+0x44>
        debug_println("app exists");
 8002ea0:	4806      	ldr	r0, [pc, #24]	; (8002ebc <validate_application+0x58>)
 8002ea2:	f7ff fce5 	bl	8002870 <debug_println>
        return true;
 8002ea6:	2001      	movs	r0, #1
}
 8002ea8:	bd10      	pop	{r4, pc}
 8002eaa:	bf00      	nop
 8002eac:	08006c00 	.word	0x08006c00
 8002eb0:	08004884 	.word	0x08004884
 8002eb4:	08004894 	.word	0x08004894
 8002eb8:	08004608 	.word	0x08004608
 8002ebc:	08004878 	.word	0x08004878

08002ec0 <boot_target_get_startup_mode>:

enum StartupMode boot_target_get_startup_mode(void) {
 8002ec0:	b538      	push	{r3, r4, r5, lr}
    //  Get the startup mode: Bootloader or Application.
    //  return BOOTLOADER_MODE; ////
    
    if (startup_mode != UNKNOWN_MODE) { return startup_mode; }
 8002ec2:	4b24      	ldr	r3, [pc, #144]	; (8002f54 <boot_target_get_startup_mode+0x94>)
 8002ec4:	7818      	ldrb	r0, [r3, #0]
 8002ec6:	b100      	cbz	r0, 8002eca <boot_target_get_startup_mode+0xa>
        //  Else go to Application Mode.
        debug_print("----application mode"); debug_println((forced_startup_mode == APPLICATION_MODE) ? " (forced)" : "");
        startup_mode = APPLICATION_MODE;
    }
    return startup_mode;
}
 8002ec8:	bd38      	pop	{r3, r4, r5, pc}
    bool appValid = validate_application();
 8002eca:	f7ff ffcb 	bl	8002e64 <validate_application>
 8002ece:	4605      	mov	r5, r0
    uint32_t cmd = backup_read(BKP0);  //  Returns 0, CMD_BOOT, CMD_APP.
 8002ed0:	2000      	movs	r0, #0
 8002ed2:	f001 f9d5 	bl	8004280 <backup_read>
 8002ed6:	4604      	mov	r4, r0
    backup_write(BKP0, 0);  //  Clear the backup register so it will boot back into Application Mode next time.
 8002ed8:	2100      	movs	r1, #0
 8002eda:	4608      	mov	r0, r1
 8002edc:	f001 f9b6 	bl	800424c <backup_write>
    switch(cmd) {
 8002ee0:	4b1d      	ldr	r3, [pc, #116]	; (8002f58 <boot_target_get_startup_mode+0x98>)
 8002ee2:	429c      	cmp	r4, r3
 8002ee4:	d017      	beq.n	8002f16 <boot_target_get_startup_mode+0x56>
 8002ee6:	f103 53a6 	add.w	r3, r3, #348127232	; 0x14c00000
 8002eea:	f503 234d 	add.w	r3, r3, #839680	; 0xcd000
 8002eee:	f603 5318 	addw	r3, r3, #3352	; 0xd18
 8002ef2:	429c      	cmp	r4, r3
 8002ef4:	d113      	bne.n	8002f1e <boot_target_get_startup_mode+0x5e>
        case (int) CMD_BOOT: forced_startup_mode = BOOTLOADER_MODE; break;
 8002ef6:	4b19      	ldr	r3, [pc, #100]	; (8002f5c <boot_target_get_startup_mode+0x9c>)
 8002ef8:	2202      	movs	r2, #2
 8002efa:	701a      	strb	r2, [r3, #0]
    if (cmd == CMD_BOOT) {
 8002efc:	4b18      	ldr	r3, [pc, #96]	; (8002f60 <boot_target_get_startup_mode+0xa0>)
 8002efe:	429c      	cmp	r4, r3
 8002f00:	d011      	beq.n	8002f26 <boot_target_get_startup_mode+0x66>
    } else if (!appValid) {
 8002f02:	b9bd      	cbnz	r5, 8002f34 <boot_target_get_startup_mode+0x74>
        debug_println("----bootloader mode (no app)");
 8002f04:	4817      	ldr	r0, [pc, #92]	; (8002f64 <boot_target_get_startup_mode+0xa4>)
 8002f06:	f7ff fcb3 	bl	8002870 <debug_println>
        startup_mode = BOOTLOADER_MODE;
 8002f0a:	4b12      	ldr	r3, [pc, #72]	; (8002f54 <boot_target_get_startup_mode+0x94>)
 8002f0c:	2202      	movs	r2, #2
 8002f0e:	701a      	strb	r2, [r3, #0]
    return startup_mode;
 8002f10:	4b10      	ldr	r3, [pc, #64]	; (8002f54 <boot_target_get_startup_mode+0x94>)
 8002f12:	7818      	ldrb	r0, [r3, #0]
 8002f14:	e7d8      	b.n	8002ec8 <boot_target_get_startup_mode+0x8>
        case (int) CMD_APP:  forced_startup_mode = APPLICATION_MODE; break;
 8002f16:	4b11      	ldr	r3, [pc, #68]	; (8002f5c <boot_target_get_startup_mode+0x9c>)
 8002f18:	2201      	movs	r2, #1
 8002f1a:	701a      	strb	r2, [r3, #0]
 8002f1c:	e7ee      	b.n	8002efc <boot_target_get_startup_mode+0x3c>
        default:             forced_startup_mode = UNKNOWN_MODE; break;
 8002f1e:	4b0f      	ldr	r3, [pc, #60]	; (8002f5c <boot_target_get_startup_mode+0x9c>)
 8002f20:	2200      	movs	r2, #0
 8002f22:	701a      	strb	r2, [r3, #0]
 8002f24:	e7ea      	b.n	8002efc <boot_target_get_startup_mode+0x3c>
        debug_println("----bootloader mode (forced)");
 8002f26:	4810      	ldr	r0, [pc, #64]	; (8002f68 <boot_target_get_startup_mode+0xa8>)
 8002f28:	f7ff fca2 	bl	8002870 <debug_println>
        startup_mode = BOOTLOADER_MODE;
 8002f2c:	4b09      	ldr	r3, [pc, #36]	; (8002f54 <boot_target_get_startup_mode+0x94>)
 8002f2e:	2202      	movs	r2, #2
 8002f30:	701a      	strb	r2, [r3, #0]
 8002f32:	e7ed      	b.n	8002f10 <boot_target_get_startup_mode+0x50>
        debug_print("----application mode"); debug_println((forced_startup_mode == APPLICATION_MODE) ? " (forced)" : "");
 8002f34:	480d      	ldr	r0, [pc, #52]	; (8002f6c <boot_target_get_startup_mode+0xac>)
 8002f36:	f7ff fcc7 	bl	80028c8 <debug_print>
 8002f3a:	4b08      	ldr	r3, [pc, #32]	; (8002f5c <boot_target_get_startup_mode+0x9c>)
 8002f3c:	781b      	ldrb	r3, [r3, #0]
 8002f3e:	2b01      	cmp	r3, #1
 8002f40:	d006      	beq.n	8002f50 <boot_target_get_startup_mode+0x90>
 8002f42:	480b      	ldr	r0, [pc, #44]	; (8002f70 <boot_target_get_startup_mode+0xb0>)
 8002f44:	f7ff fc94 	bl	8002870 <debug_println>
        startup_mode = APPLICATION_MODE;
 8002f48:	4b02      	ldr	r3, [pc, #8]	; (8002f54 <boot_target_get_startup_mode+0x94>)
 8002f4a:	2201      	movs	r2, #1
 8002f4c:	701a      	strb	r2, [r3, #0]
 8002f4e:	e7df      	b.n	8002f10 <boot_target_get_startup_mode+0x50>
        debug_print("----application mode"); debug_println((forced_startup_mode == APPLICATION_MODE) ? " (forced)" : "");
 8002f50:	4808      	ldr	r0, [pc, #32]	; (8002f74 <boot_target_get_startup_mode+0xb4>)
 8002f52:	e7f7      	b.n	8002f44 <boot_target_get_startup_mode+0x84>
 8002f54:	2000072a 	.word	0x2000072a
 8002f58:	3f82722a 	.word	0x3f82722a
 8002f5c:	20000729 	.word	0x20000729
 8002f60:	544f4f42 	.word	0x544f4f42
 8002f64:	0800480c 	.word	0x0800480c
 8002f68:	080047ec 	.word	0x080047ec
 8002f6c:	0800482c 	.word	0x0800482c
 8002f70:	08004608 	.word	0x08004608
 8002f74:	080047e0 	.word	0x080047e0

08002f78 <boot_target_set_led>:
    //  Return the forced startup mode, if we were forced into this mode before restarting.  If we were not forced, return UNKNOWN_MODE.
    boot_target_get_startup_mode();
    return forced_startup_mode;
}

void boot_target_set_led(int on) {
 8002f78:	b508      	push	{r3, lr}
#if HAVE_LED
        if ((on && LED_OPEN_DRAIN) || (!on && !LED_OPEN_DRAIN)) {
 8002f7a:	b928      	cbnz	r0, 8002f88 <boot_target_set_led+0x10>
            gpio_clear(LED_GPIO_PORT, LED_GPIO_PIN);
        } else {
            gpio_set(LED_GPIO_PORT, LED_GPIO_PIN);
 8002f7c:	f44f 5100 	mov.w	r1, #8192	; 0x2000
 8002f80:	4804      	ldr	r0, [pc, #16]	; (8002f94 <boot_target_set_led+0x1c>)
 8002f82:	f7fe fbbd 	bl	8001700 <gpio_set>
        }
#else
    (void)on;
#endif
}
 8002f86:	bd08      	pop	{r3, pc}
            gpio_clear(LED_GPIO_PORT, LED_GPIO_PIN);
 8002f88:	f44f 5100 	mov.w	r1, #8192	; 0x2000
 8002f8c:	4801      	ldr	r0, [pc, #4]	; (8002f94 <boot_target_set_led+0x1c>)
 8002f8e:	f7fe fbb9 	bl	8001704 <gpio_clear>
 8002f92:	e7f8      	b.n	8002f86 <boot_target_set_led+0xe>
 8002f94:	40011000 	.word	0x40011000

08002f98 <boot_target_gpio_setup>:
    for (int i = 0; i < us*10; i++) {
        __asm__("nop");
    }
}

void boot_target_gpio_setup(void) {
 8002f98:	b510      	push	{r4, lr}
    /* Enable GPIO and USB clocks */
    rcc_periph_clock_enable(RCC_GPIOA);  //  USB on PA11, PA12.
 8002f9a:	f240 3002 	movw	r0, #770	; 0x302
 8002f9e:	f7fe fbb8 	bl	8001712 <rcc_periph_clock_enable>
    rcc_periph_clock_enable(RCC_GPIOB);
 8002fa2:	f240 3003 	movw	r0, #771	; 0x303
 8002fa6:	f7fe fbb4 	bl	8001712 <rcc_periph_clock_enable>
    rcc_periph_clock_enable(RCC_GPIOC);  //  LED on PC13.
 8002faa:	f44f 7041 	mov.w	r0, #772	; 0x304
 8002fae:	f7fe fbb0 	bl	8001712 <rcc_periph_clock_enable>
    rcc_periph_clock_enable(RCC_USB);
 8002fb2:	f240 3097 	movw	r0, #919	; 0x397
 8002fb6:	f7fe fbac 	bl	8001712 <rcc_periph_clock_enable>
    {
        const uint8_t mode = GPIO_MODE_OUTPUT_10_MHZ;
        const uint8_t conf = (LED_OPEN_DRAIN ? GPIO_CNF_OUTPUT_OPENDRAIN
                                             : GPIO_CNF_OUTPUT_PUSHPULL);
        if (LED_OPEN_DRAIN) {
            gpio_set(LED_GPIO_PORT, LED_GPIO_PIN);
 8002fba:	4c10      	ldr	r4, [pc, #64]	; (8002ffc <boot_target_gpio_setup+0x64>)
 8002fbc:	f44f 5100 	mov.w	r1, #8192	; 0x2000
 8002fc0:	4620      	mov	r0, r4
 8002fc2:	f7fe fb9d 	bl	8001700 <gpio_set>
        } else {
            gpio_clear(LED_GPIO_PORT, LED_GPIO_PIN);
        }
        gpio_set_mode(LED_GPIO_PORT, mode, conf, LED_GPIO_PIN);
 8002fc6:	f44f 5300 	mov.w	r3, #8192	; 0x2000
 8002fca:	2201      	movs	r2, #1
 8002fcc:	4611      	mov	r1, r2
 8002fce:	4620      	mov	r0, r4
 8002fd0:	f7fe fb60 	bl	8001694 <gpio_set_mode>
        gpio_set_mode(USB_PULLUP_GPIO_PORT, mode, conf, USB_PULLUP_GPIO_PIN);
    }
#else
    {
        /* Drive the USB DP pin to override the pull-up */
        gpio_set_mode(GPIOA, GPIO_MODE_OUTPUT_10_MHZ,
 8002fd4:	f44f 5380 	mov.w	r3, #4096	; 0x1000
 8002fd8:	2200      	movs	r2, #0
 8002fda:	2101      	movs	r1, #1
 8002fdc:	4808      	ldr	r0, [pc, #32]	; (8003000 <boot_target_gpio_setup+0x68>)
 8002fde:	f7fe fb59 	bl	8001694 <gpio_set_mode>
    }
#endif

    // TFT
    // RST
    gpio_clear(GPIOC, (1 << 4));
 8002fe2:	2110      	movs	r1, #16
 8002fe4:	4620      	mov	r0, r4
 8002fe6:	f7fe fb8d 	bl	8001704 <gpio_clear>
    sleep_us(20000);
 8002fea:	f644 6020 	movw	r0, #20000	; 0x4e20
 8002fee:	f001 fa68 	bl	80044c2 <sleep_us>
    //gpio_set(GPIOC, (1 << 4));
    sleep_us(20000);
 8002ff2:	f644 6020 	movw	r0, #20000	; 0x4e20
 8002ff6:	f001 fa64 	bl	80044c2 <sleep_us>
}
 8002ffa:	bd10      	pop	{r4, pc}
 8002ffc:	40011000 	.word	0x40011000
 8003000:	40010800 	.word	0x40010800

08003004 <boot_target_usb_init>:

const usbd_driver* boot_target_usb_init(void) {
 8003004:	b508      	push	{r3, lr}
    rcc_periph_reset_pulse(RST_USB);
 8003006:	f240 2017 	movw	r0, #535	; 0x217
 800300a:	f7fe fb90 	bl	800172e <rcc_periph_reset_pulse>
    } else {
        gpio_clear(USB_PULLUP_GPIO_PORT, USB_PULLUP_GPIO_PIN);
    }
#else
    /* Override hard-wired USB pullup to disconnect and reconnect */
    gpio_clear(GPIOA, GPIO12);
 800300e:	f44f 5180 	mov.w	r1, #4096	; 0x1000
 8003012:	4806      	ldr	r0, [pc, #24]	; (800302c <boot_target_usb_init+0x28>)
 8003014:	f7fe fb76 	bl	8001704 <gpio_clear>
    int i;
    for (i = 0; i < 800000; i++) {
 8003018:	2300      	movs	r3, #0
 800301a:	e001      	b.n	8003020 <boot_target_usb_init+0x1c>
        __asm__("nop");
 800301c:	bf00      	nop
    for (i = 0; i < 800000; i++) {
 800301e:	3301      	adds	r3, #1
 8003020:	4a03      	ldr	r2, [pc, #12]	; (8003030 <boot_target_usb_init+0x2c>)
 8003022:	4293      	cmp	r3, r2
 8003024:	ddfa      	ble.n	800301c <boot_target_usb_init+0x18>
    }
#endif

    return &st_usbfs_v1_usb_driver;
}
 8003026:	4803      	ldr	r0, [pc, #12]	; (8003034 <boot_target_usb_init+0x30>)
 8003028:	bd08      	pop	{r3, pc}
 800302a:	bf00      	nop
 800302c:	40010800 	.word	0x40010800
 8003030:	000c34ff 	.word	0x000c34ff
 8003034:	08004638 	.word	0x08004638

08003038 <boot_target_set_restart_callback>:

static restart_callback_type *restart_callback_func = NULL;

void boot_target_set_restart_callback(restart_callback_type *func) {
 8003038:	b510      	push	{r4, lr}
 800303a:	4604      	mov	r4, r0
    //  Call this function when we need to restart.  Used in Application Mode only.
    debug_print("set restart callback "); debug_printhex_unsigned((size_t) func); debug_println("");
 800303c:	4804      	ldr	r0, [pc, #16]	; (8003050 <boot_target_set_restart_callback+0x18>)
 800303e:	f7ff fc43 	bl	80028c8 <debug_print>
 8003042:	4620      	mov	r0, r4
 8003044:	f7ff fc8c 	bl	8002960 <debug_printhex_unsigned>
 8003048:	4802      	ldr	r0, [pc, #8]	; (8003054 <boot_target_set_restart_callback+0x1c>)
 800304a:	f7ff fc11 	bl	8002870 <debug_println>
    restart_callback_func = func;
}
 800304e:	bd10      	pop	{r4, pc}
 8003050:	08004860 	.word	0x08004860
 8003054:	08004608 	.word	0x08004608

08003058 <boot_target_manifest_app>:

void boot_target_manifest_app(void) {
 8003058:	b508      	push	{r3, lr}
    //  Restart into Application Mode to run the application.
    debug_println("boot app");
 800305a:	4805      	ldr	r0, [pc, #20]	; (8003070 <boot_target_manifest_app+0x18>)
 800305c:	f7ff fc08 	bl	8002870 <debug_println>
    debug_force_flush(); ////
 8003060:	f7ff fb98 	bl	8002794 <debug_force_flush>
    backup_write(BKP0, CMD_APP);
 8003064:	4903      	ldr	r1, [pc, #12]	; (8003074 <boot_target_manifest_app+0x1c>)
 8003066:	2000      	movs	r0, #0
 8003068:	f001 f8f0 	bl	800424c <backup_write>
        if (restart_callback_func) { 
            restart_callback_func(); 
            return;
        }
    #endif  //  NOTUSED
    scb_reset_system();  //  Otherwise restart now.
 800306c:	f7fe f8b2 	bl	80011d4 <scb_reset_system>
 8003070:	08004844 	.word	0x08004844
 8003074:	3f82722a 	.word	0x3f82722a

08003078 <boot_target_manifest_bootloader>:
}

void boot_target_manifest_bootloader(void) {
 8003078:	b508      	push	{r3, lr}
    //  Restart into Bootloader Mode to run the bootloader.
    debug_println("boot bootloader"); 
 800307a:	4805      	ldr	r0, [pc, #20]	; (8003090 <boot_target_manifest_bootloader+0x18>)
 800307c:	f7ff fbf8 	bl	8002870 <debug_println>
    debug_force_flush(); ////
 8003080:	f7ff fb88 	bl	8002794 <debug_force_flush>
    backup_write(BKP0, CMD_BOOT);
 8003084:	4903      	ldr	r1, [pc, #12]	; (8003094 <boot_target_manifest_bootloader+0x1c>)
 8003086:	2000      	movs	r0, #0
 8003088:	f001 f8e0 	bl	800424c <backup_write>
    scb_reset_system();  //  Otherwise restart now.
 800308c:	f7fe f8a2 	bl	80011d4 <scb_reset_system>
 8003090:	08004850 	.word	0x08004850
 8003094:	544f4f42 	.word	0x544f4f42

08003098 <hf2_connected>:
    return hf2_transmit(usbd_dev, buf, len);
}

static void hf2_connected(void) {
    //  Called when HF2 is connected.  We set the HF2 port as a logger output.
    if (hf2_is_connected) { return; }
 8003098:	4b03      	ldr	r3, [pc, #12]	; (80030a8 <hf2_connected+0x10>)
 800309a:	781b      	ldrb	r3, [r3, #0]
 800309c:	b913      	cbnz	r3, 80030a4 <hf2_connected+0xc>
    hf2_is_connected = 1;
 800309e:	4b02      	ldr	r3, [pc, #8]	; (80030a8 <hf2_connected+0x10>)
 80030a0:	2201      	movs	r2, #1
 80030a2:	701a      	strb	r2, [r3, #0]
    ////logger_add_output(usb_hf2_transmit);
}
 80030a4:	4770      	bx	lr
 80030a6:	bf00      	nop
 80030a8:	2000072c 	.word	0x2000072c

080030ac <cdc_connected>:
static void cdc_connected(void) {
 80030ac:	b508      	push	{r3, lr}
    if (cdc_is_connected) { return; }
 80030ae:	4b05      	ldr	r3, [pc, #20]	; (80030c4 <cdc_connected+0x18>)
 80030b0:	781b      	ldrb	r3, [r3, #0]
 80030b2:	b103      	cbz	r3, 80030b6 <cdc_connected+0xa>
}
 80030b4:	bd08      	pop	{r3, pc}
    cdc_is_connected = 1;
 80030b6:	4b03      	ldr	r3, [pc, #12]	; (80030c4 <cdc_connected+0x18>)
 80030b8:	2201      	movs	r2, #1
 80030ba:	701a      	strb	r2, [r3, #0]
    logger_add_output(usb_cdc_transmit);
 80030bc:	4802      	ldr	r0, [pc, #8]	; (80030c8 <cdc_connected+0x1c>)
 80030be:	f7ff fb1d 	bl	80026fc <logger_add_output>
 80030c2:	e7f7      	b.n	80030b4 <cdc_connected+0x8>
 80030c4:	2000072b 	.word	0x2000072b
 80030c8:	080030cd 	.word	0x080030cd

080030cc <usb_cdc_transmit>:
	uint16_t len) {
 80030cc:	b508      	push	{r3, lr}
    if (!usbd_dev || !cdc_is_connected) { return -1; }
 80030ce:	4b09      	ldr	r3, [pc, #36]	; (80030f4 <usb_cdc_transmit+0x28>)
 80030d0:	681b      	ldr	r3, [r3, #0]
 80030d2:	b143      	cbz	r3, 80030e6 <usb_cdc_transmit+0x1a>
 80030d4:	4a08      	ldr	r2, [pc, #32]	; (80030f8 <usb_cdc_transmit+0x2c>)
 80030d6:	7812      	ldrb	r2, [r2, #0]
 80030d8:	b142      	cbz	r2, 80030ec <usb_cdc_transmit+0x20>
 80030da:	460a      	mov	r2, r1
 80030dc:	4601      	mov	r1, r0
    return cdcadm_transmit(usbd_dev, buf, len);
 80030de:	4618      	mov	r0, r3
 80030e0:	f000 fc5a 	bl	8003998 <cdcadm_transmit>
}
 80030e4:	bd08      	pop	{r3, pc}
    if (!usbd_dev || !cdc_is_connected) { return -1; }
 80030e6:	f04f 30ff 	mov.w	r0, #4294967295	; 0xffffffff
 80030ea:	e7fb      	b.n	80030e4 <usb_cdc_transmit+0x18>
 80030ec:	f04f 30ff 	mov.w	r0, #4294967295	; 0xffffffff
 80030f0:	e7f8      	b.n	80030e4 <usb_cdc_transmit+0x18>
 80030f2:	bf00      	nop
 80030f4:	2000051c 	.word	0x2000051c
 80030f8:	2000072b 	.word	0x2000072b

080030fc <sof_callback>:
static void sof_callback(void) {
 80030fc:	b508      	push	{r3, lr}
    last_frame_time = millis();
 80030fe:	f7ff fd65 	bl	8002bcc <millis>
 8003102:	4b01      	ldr	r3, [pc, #4]	; (8003108 <sof_callback+0xc>)
 8003104:	6018      	str	r0, [r3, #0]
}
 8003106:	bd08      	pop	{r3, pc}
 8003108:	200004fc 	.word	0x200004fc

0800310c <set_aggregate_callback>:
	return USBD_REQ_NEXT_CALLBACK;
}

static void set_aggregate_callback(
  usbd_device *usbd_dev,
  uint16_t wValue) {
 800310c:	b570      	push	{r4, r5, r6, lr}
 800310e:	4605      	mov	r5, r0
    //  This callback is called when the device is updated.  We set our control callback.
    if (wValue != (uint16_t) -1) {  //  If this is an actual callback, not a call by usb_setup()...
 8003110:	f64f 73ff 	movw	r3, #65535	; 0xffff
 8003114:	4299      	cmp	r1, r3
 8003116:	d00c      	beq.n	8003132 <set_aggregate_callback+0x26>
 8003118:	460e      	mov	r6, r1
        //  Call the config functions before setting our callback.
        //  debug_println("set_aggregate_callback"); ////
        int i;
        for (i = 0; i < MAX_CONTROL_CALLBACK; i++) {
 800311a:	2400      	movs	r4, #0
 800311c:	2c09      	cmp	r4, #9
 800311e:	dc08      	bgt.n	8003132 <set_aggregate_callback+0x26>
            if (!config_callback[i]) { break; }
 8003120:	4b0b      	ldr	r3, [pc, #44]	; (8003150 <set_aggregate_callback+0x44>)
 8003122:	f853 3024 	ldr.w	r3, [r3, r4, lsl #2]
 8003126:	b123      	cbz	r3, 8003132 <set_aggregate_callback+0x26>
            (config_callback[i])(usbd_dev, wValue);
 8003128:	4631      	mov	r1, r6
 800312a:	4628      	mov	r0, r5
 800312c:	4798      	blx	r3
        for (i = 0; i < MAX_CONTROL_CALLBACK; i++) {
 800312e:	3401      	adds	r4, #1
 8003130:	e7f4      	b.n	800311c <set_aggregate_callback+0x10>
        }
    }
    //  Set our callback.
	int status;
        status = usbd_register_control_callback(
 8003132:	4b08      	ldr	r3, [pc, #32]	; (8003154 <set_aggregate_callback+0x48>)
 8003134:	2200      	movs	r2, #0
 8003136:	4611      	mov	r1, r2
 8003138:	4628      	mov	r0, r5
 800313a:	f7fe fbfd 	bl	8001938 <usbd_register_control_callback>
		usbd_dev,
        0,  //  Register for all notifications.
        0,
		aggregate_callback);
	if (status < 0) { debug_println("*** ERROR: set_aggregate_callback failed"); debug_flush(); }  
 800313e:	2800      	cmp	r0, #0
 8003140:	db00      	blt.n	8003144 <set_aggregate_callback+0x38>
}
 8003142:	bd70      	pop	{r4, r5, r6, pc}
	if (status < 0) { debug_println("*** ERROR: set_aggregate_callback failed"); debug_flush(); }  
 8003144:	4804      	ldr	r0, [pc, #16]	; (8003158 <set_aggregate_callback+0x4c>)
 8003146:	f7ff fb93 	bl	8002870 <debug_println>
 800314a:	f7ff fbb8 	bl	80028be <debug_flush>
}
 800314e:	e7f8      	b.n	8003142 <set_aggregate_callback+0x36>
 8003150:	20000480 	.word	0x20000480
 8003154:	0800350d 	.word	0x0800350d
 8003158:	08004a94 	.word	0x08004a94

0800315c <usb_setup>:
usbd_device* usb_setup(void) {
 800315c:	b510      	push	{r4, lr}
 800315e:	b084      	sub	sp, #16
    const usbd_driver* driver = boot_target_usb_init();
 8003160:	f7ff ff50 	bl	8003004 <boot_target_usb_init>
    usbd_dev = usbd_init(driver, &dev, &config, 
 8003164:	f44f 7380 	mov.w	r3, #256	; 0x100
 8003168:	9302      	str	r3, [sp, #8]
 800316a:	4b1b      	ldr	r3, [pc, #108]	; (80031d8 <usb_setup+0x7c>)
 800316c:	9301      	str	r3, [sp, #4]
 800316e:	2309      	movs	r3, #9
 8003170:	9300      	str	r3, [sp, #0]
 8003172:	4b1a      	ldr	r3, [pc, #104]	; (80031dc <usb_setup+0x80>)
 8003174:	4a1a      	ldr	r2, [pc, #104]	; (80031e0 <usb_setup+0x84>)
 8003176:	491b      	ldr	r1, [pc, #108]	; (80031e4 <usb_setup+0x88>)
 8003178:	f7fd ff86 	bl	8001088 <usbd_init>
 800317c:	4c1a      	ldr	r4, [pc, #104]	; (80031e8 <usb_setup+0x8c>)
 800317e:	6020      	str	r0, [r4, #0]
    usbd_register_sof_callback(usbd_dev, sof_callback);
 8003180:	491a      	ldr	r1, [pc, #104]	; (80031ec <usb_setup+0x90>)
 8003182:	f7fe fae5 	bl	8001750 <usbd_register_sof_callback>
    cdc_setup(usbd_dev, cdc_connected);
 8003186:	491a      	ldr	r1, [pc, #104]	; (80031f0 <usb_setup+0x94>)
 8003188:	6820      	ldr	r0, [r4, #0]
 800318a:	f000 fc5f 	bl	8003a4c <cdc_setup>
    hf2_setup(usbd_dev, hf2_connected);
 800318e:	4919      	ldr	r1, [pc, #100]	; (80031f4 <usb_setup+0x98>)
 8003190:	6820      	ldr	r0, [r4, #0]
 8003192:	f001 f81b 	bl	80041cc <hf2_setup>
	usb21_setup(usbd_dev, &bos_descriptor);
 8003196:	4918      	ldr	r1, [pc, #96]	; (80031f8 <usb_setup+0x9c>)
 8003198:	6820      	ldr	r0, [r4, #0]
 800319a:	f001 f8bf 	bl	800431c <usb21_setup>
	webusb_setup(usbd_dev, origin_url);
 800319e:	4917      	ldr	r1, [pc, #92]	; (80031fc <usb_setup+0xa0>)
 80031a0:	6820      	ldr	r0, [r4, #0]
 80031a2:	f000 fa83 	bl	80036ac <webusb_setup>
	winusb_setup(usbd_dev, INTF_HF2);
 80031a6:	2100      	movs	r1, #0
 80031a8:	6820      	ldr	r0, [r4, #0]
 80031aa:	f000 fb49 	bl	8003840 <winusb_setup>
	int status = usbd_register_set_config_callback(usbd_dev, set_aggregate_callback);
 80031ae:	4914      	ldr	r1, [pc, #80]	; (8003200 <usb_setup+0xa4>)
 80031b0:	6820      	ldr	r0, [r4, #0]
 80031b2:	f7fe fed0 	bl	8001f56 <usbd_register_set_config_callback>
    if (status < 0) { debug_println("*** usb_setup failed"); debug_flush(); }
 80031b6:	2800      	cmp	r0, #0
 80031b8:	db08      	blt.n	80031cc <usb_setup+0x70>
    set_aggregate_callback(usbd_dev, (uint16_t) -1);
 80031ba:	4c0b      	ldr	r4, [pc, #44]	; (80031e8 <usb_setup+0x8c>)
 80031bc:	f64f 71ff 	movw	r1, #65535	; 0xffff
 80031c0:	6820      	ldr	r0, [r4, #0]
 80031c2:	f7ff ffa3 	bl	800310c <set_aggregate_callback>
}
 80031c6:	6820      	ldr	r0, [r4, #0]
 80031c8:	b004      	add	sp, #16
 80031ca:	bd10      	pop	{r4, pc}
    if (status < 0) { debug_println("*** usb_setup failed"); debug_flush(); }
 80031cc:	480d      	ldr	r0, [pc, #52]	; (8003204 <usb_setup+0xa8>)
 80031ce:	f7ff fb4f 	bl	8002870 <debug_println>
 80031d2:	f7ff fb74 	bl	80028be <debug_flush>
 80031d6:	e7f0      	b.n	80031ba <usb_setup+0x5e>
 80031d8:	20000628 	.word	0x20000628
 80031dc:	20000024 	.word	0x20000024
 80031e0:	08004944 	.word	0x08004944
 80031e4:	0800498c 	.word	0x0800498c
 80031e8:	2000051c 	.word	0x2000051c
 80031ec:	080030fd 	.word	0x080030fd
 80031f0:	080030ad 	.word	0x080030ad
 80031f4:	08003099 	.word	0x08003099
 80031f8:	080048f4 	.word	0x080048f4
 80031fc:	08004b48 	.word	0x08004b48
 8003200:	0800310d 	.word	0x0800310d
 8003204:	08004b64 	.word	0x08004b64

08003208 <set_usb_busy>:
void set_usb_busy(void) {
 8003208:	b508      	push	{r3, lr}
    last_busy_time = millis();
 800320a:	f7ff fcdf 	bl	8002bcc <millis>
 800320e:	4b03      	ldr	r3, [pc, #12]	; (800321c <set_usb_busy+0x14>)
 8003210:	6018      	str	r0, [r3, #0]
    debug_print(".");
 8003212:	4803      	ldr	r0, [pc, #12]	; (8003220 <set_usb_busy+0x18>)
 8003214:	f7ff fb58 	bl	80028c8 <debug_print>
}
 8003218:	bd08      	pop	{r3, pc}
 800321a:	bf00      	nop
 800321c:	200004f8 	.word	0x200004f8
 8003220:	080047c0 	.word	0x080047c0

08003224 <get_usb_status>:
    if (last_busy_time == 0) { return 0; }
 8003224:	4b0c      	ldr	r3, [pc, #48]	; (8003258 <get_usb_status+0x34>)
 8003226:	681b      	ldr	r3, [r3, #0]
 8003228:	b90b      	cbnz	r3, 800322e <get_usb_status+0xa>
 800322a:	2000      	movs	r0, #0
}
 800322c:	4770      	bx	lr
volatile int get_usb_status(void) { 
 800322e:	b500      	push	{lr}
 8003230:	b083      	sub	sp, #12
    volatile uint32_t now = millis();
 8003232:	f7ff fccb 	bl	8002bcc <millis>
 8003236:	9001      	str	r0, [sp, #4]
    if (now < (last_busy_time + BUSY_DURATION)) { 
 8003238:	4b07      	ldr	r3, [pc, #28]	; (8003258 <get_usb_status+0x34>)
 800323a:	681b      	ldr	r3, [r3, #0]
 800323c:	f503 539c 	add.w	r3, r3, #4992	; 0x1380
 8003240:	3308      	adds	r3, #8
 8003242:	9a01      	ldr	r2, [sp, #4]
 8003244:	4293      	cmp	r3, r2
 8003246:	d805      	bhi.n	8003254 <get_usb_status+0x30>
    last_busy_time = 0;
 8003248:	2000      	movs	r0, #0
 800324a:	4b03      	ldr	r3, [pc, #12]	; (8003258 <get_usb_status+0x34>)
 800324c:	6018      	str	r0, [r3, #0]
}
 800324e:	b003      	add	sp, #12
 8003250:	f85d fb04 	ldr.w	pc, [sp], #4
        return 1; 
 8003254:	2001      	movs	r0, #1
 8003256:	e7fa      	b.n	800324e <get_usb_status+0x2a>
 8003258:	200004f8 	.word	0x200004f8

0800325c <aggregate_register_config_callback>:
	usbd_set_config_callback callback) {
 800325c:	b508      	push	{r3, lr}
	for (i = 0; i < MAX_CONTROL_CALLBACK; i++) {
 800325e:	2300      	movs	r3, #0
 8003260:	2b09      	cmp	r3, #9
 8003262:	dc0c      	bgt.n	800327e <aggregate_register_config_callback+0x22>
		if (config_callback[i]) {
 8003264:	4a0b      	ldr	r2, [pc, #44]	; (8003294 <aggregate_register_config_callback+0x38>)
 8003266:	f852 2023 	ldr.w	r2, [r2, r3, lsl #2]
 800326a:	b11a      	cbz	r2, 8003274 <aggregate_register_config_callback+0x18>
            if (config_callback[i] == callback) { return 0; }  //  Skip duplicate.
 800326c:	428a      	cmp	r2, r1
 800326e:	d00e      	beq.n	800328e <aggregate_register_config_callback+0x32>
	for (i = 0; i < MAX_CONTROL_CALLBACK; i++) {
 8003270:	3301      	adds	r3, #1
 8003272:	e7f5      	b.n	8003260 <aggregate_register_config_callback+0x4>
		config_callback[i] = callback;
 8003274:	4a07      	ldr	r2, [pc, #28]	; (8003294 <aggregate_register_config_callback+0x38>)
 8003276:	f842 1023 	str.w	r1, [r2, r3, lsl #2]
		return 0;
 800327a:	2000      	movs	r0, #0
 800327c:	e008      	b.n	8003290 <aggregate_register_config_callback+0x34>
    debug_println("*** ERROR: Too many config callbacks"); debug_flush();
 800327e:	4806      	ldr	r0, [pc, #24]	; (8003298 <aggregate_register_config_callback+0x3c>)
 8003280:	f7ff faf6 	bl	8002870 <debug_println>
 8003284:	f7ff fb1b 	bl	80028be <debug_flush>
	return -1;
 8003288:	f04f 30ff 	mov.w	r0, #4294967295	; 0xffffffff
 800328c:	e000      	b.n	8003290 <aggregate_register_config_callback+0x34>
            if (config_callback[i] == callback) { return 0; }  //  Skip duplicate.
 800328e:	2000      	movs	r0, #0
}
 8003290:	bd08      	pop	{r3, pc}
 8003292:	bf00      	nop
 8003294:	20000480 	.word	0x20000480
 8003298:	080048cc 	.word	0x080048cc

0800329c <aggregate_register_callback>:
    usbd_control_callback callback) {
 800329c:	b538      	push	{r3, r4, r5, lr}
	for (i = 0; i < MAX_CONTROL_CALLBACK; i++) {
 800329e:	2000      	movs	r0, #0
 80032a0:	e000      	b.n	80032a4 <aggregate_register_callback+0x8>
 80032a2:	3001      	adds	r0, #1
 80032a4:	2809      	cmp	r0, #9
 80032a6:	dc1c      	bgt.n	80032e2 <aggregate_register_callback+0x46>
		if (control_callback[i].cb) { 
 80032a8:	4c12      	ldr	r4, [pc, #72]	; (80032f4 <aggregate_register_callback+0x58>)
 80032aa:	eb04 04c0 	add.w	r4, r4, r0, lsl #3
 80032ae:	6864      	ldr	r4, [r4, #4]
 80032b0:	b174      	cbz	r4, 80032d0 <aggregate_register_callback+0x34>
            if (control_callback[i].type == type &&
 80032b2:	4d10      	ldr	r5, [pc, #64]	; (80032f4 <aggregate_register_callback+0x58>)
 80032b4:	f815 5030 	ldrb.w	r5, [r5, r0, lsl #3]
 80032b8:	428d      	cmp	r5, r1
 80032ba:	d1f2      	bne.n	80032a2 <aggregate_register_callback+0x6>
                control_callback[i].type_mask == type_mask &&
 80032bc:	4d0d      	ldr	r5, [pc, #52]	; (80032f4 <aggregate_register_callback+0x58>)
 80032be:	eb05 05c0 	add.w	r5, r5, r0, lsl #3
 80032c2:	786d      	ldrb	r5, [r5, #1]
            if (control_callback[i].type == type &&
 80032c4:	4295      	cmp	r5, r2
 80032c6:	d1ec      	bne.n	80032a2 <aggregate_register_callback+0x6>
                control_callback[i].type_mask == type_mask &&
 80032c8:	429c      	cmp	r4, r3
 80032ca:	d1ea      	bne.n	80032a2 <aggregate_register_callback+0x6>
                    return 0;
 80032cc:	2000      	movs	r0, #0
}
 80032ce:	bd38      	pop	{r3, r4, r5, pc}
		control_callback[i].type = type;
 80032d0:	4c08      	ldr	r4, [pc, #32]	; (80032f4 <aggregate_register_callback+0x58>)
 80032d2:	f804 1030 	strb.w	r1, [r4, r0, lsl #3]
		control_callback[i].type_mask = type_mask;
 80032d6:	eb04 00c0 	add.w	r0, r4, r0, lsl #3
 80032da:	7042      	strb	r2, [r0, #1]
		control_callback[i].cb = callback;
 80032dc:	6043      	str	r3, [r0, #4]
		return 0;
 80032de:	2000      	movs	r0, #0
 80032e0:	e7f5      	b.n	80032ce <aggregate_register_callback+0x32>
    debug_println("*** ERROR: Too many control callbacks"); debug_flush();
 80032e2:	4805      	ldr	r0, [pc, #20]	; (80032f8 <aggregate_register_callback+0x5c>)
 80032e4:	f7ff fac4 	bl	8002870 <debug_println>
 80032e8:	f7ff fae9 	bl	80028be <debug_flush>
	return -1;
 80032ec:	f04f 30ff 	mov.w	r0, #4294967295	; 0xffffffff
 80032f0:	e7ed      	b.n	80032ce <aggregate_register_callback+0x32>
 80032f2:	bf00      	nop
 80032f4:	200004a8 	.word	0x200004a8
 80032f8:	080048a4 	.word	0x080048a4

080032fc <usb_set_serial_number>:

void usb_set_serial_number(const char* serial) {
    serial_number[0] = '\0';
 80032fc:	4b07      	ldr	r3, [pc, #28]	; (800331c <usb_set_serial_number+0x20>)
 80032fe:	2200      	movs	r2, #0
 8003300:	701a      	strb	r2, [r3, #0]
    if (serial) {
 8003302:	b148      	cbz	r0, 8003318 <usb_set_serial_number+0x1c>
void usb_set_serial_number(const char* serial) {
 8003304:	b510      	push	{r4, lr}
 8003306:	4601      	mov	r1, r0
        strncpy(serial_number, serial, USB_SERIAL_NUM_LENGTH);
 8003308:	461c      	mov	r4, r3
 800330a:	2218      	movs	r2, #24
 800330c:	4618      	mov	r0, r3
 800330e:	f7ff f970 	bl	80025f2 <strncpy>
        serial_number[USB_SERIAL_NUM_LENGTH] = '\0';
 8003312:	2300      	movs	r3, #0
 8003314:	7623      	strb	r3, [r4, #24]
    }
}
 8003316:	bd10      	pop	{r4, pc}
 8003318:	4770      	bx	lr
 800331a:	bf00      	nop
 800331c:	20000500 	.word	0x20000500

08003320 <dump_buffer>:

void dump_buffer(const char *msg, const uint8_t *buf, int len) {
 8003320:	b570      	push	{r4, r5, r6, lr}
 8003322:	460e      	mov	r6, r1
 8003324:	4615      	mov	r5, r2
    debug_print(msg); debug_print(" ");
 8003326:	f7ff facf 	bl	80028c8 <debug_print>
 800332a:	480c      	ldr	r0, [pc, #48]	; (800335c <dump_buffer+0x3c>)
 800332c:	f7ff facc 	bl	80028c8 <debug_print>
    debug_print_unsigned(len); debug_print(" / ");
 8003330:	4628      	mov	r0, r5
 8003332:	f7ff fad9 	bl	80028e8 <debug_print_unsigned>
 8003336:	480a      	ldr	r0, [pc, #40]	; (8003360 <dump_buffer+0x40>)
 8003338:	f7ff fac6 	bl	80028c8 <debug_print>
    int i;
    for (i = 0; i < len; i++) { 
 800333c:	2400      	movs	r4, #0
 800333e:	e006      	b.n	800334e <dump_buffer+0x2e>
        debug_printhex(buf[i]); debug_print(" "); 
 8003340:	5d30      	ldrb	r0, [r6, r4]
 8003342:	f7ff fad5 	bl	80028f0 <debug_printhex>
 8003346:	4805      	ldr	r0, [pc, #20]	; (800335c <dump_buffer+0x3c>)
 8003348:	f7ff fabe 	bl	80028c8 <debug_print>
    for (i = 0; i < len; i++) { 
 800334c:	3401      	adds	r4, #1
 800334e:	42ac      	cmp	r4, r5
 8003350:	dbf6      	blt.n	8003340 <dump_buffer+0x20>
    }
    debug_println("");
 8003352:	4804      	ldr	r0, [pc, #16]	; (8003364 <dump_buffer+0x44>)
 8003354:	f7ff fa8c 	bl	8002870 <debug_println>
}
 8003358:	bd70      	pop	{r4, r5, r6, pc}
 800335a:	bf00      	nop
 800335c:	08004a1c 	.word	0x08004a1c
 8003360:	080049a0 	.word	0x080049a0
 8003364:	08004608 	.word	0x08004608

08003368 <dump_usb_request>:

void dump_usb_request(const char *msg, struct usb_setup_data *req) {
 8003368:	b570      	push	{r4, r5, r6, lr}
 800336a:	460c      	mov	r4, r1
    debug_print(msg);
 800336c:	f7ff faac 	bl	80028c8 <debug_print>
    ////debug_println(""); return; ////

    uint8_t desc_type = usb_descriptor_type(req->wValue);
 8003370:	8865      	ldrh	r5, [r4, #2]
 8003372:	4628      	mov	r0, r5
 8003374:	f001 f8b4 	bl	80044e0 <usb_descriptor_type>
 8003378:	4606      	mov	r6, r0
    uint8_t desc_index = usb_descriptor_index(req->wValue);
 800337a:	4628      	mov	r0, r5
 800337c:	f001 f8b2 	bl	80044e4 <usb_descriptor_index>
 8003380:	4605      	mov	r5, r0
    debug_print(" typ "); debug_printhex(req->bmRequestType);
 8003382:	4850      	ldr	r0, [pc, #320]	; (80034c4 <dump_usb_request+0x15c>)
 8003384:	f7ff faa0 	bl	80028c8 <debug_print>
 8003388:	7820      	ldrb	r0, [r4, #0]
 800338a:	f7ff fab1 	bl	80028f0 <debug_printhex>
    debug_print(", req "); debug_printhex(req->bRequest);
 800338e:	484e      	ldr	r0, [pc, #312]	; (80034c8 <dump_usb_request+0x160>)
 8003390:	f7ff fa9a 	bl	80028c8 <debug_print>
 8003394:	7860      	ldrb	r0, [r4, #1]
 8003396:	f7ff faab 	bl	80028f0 <debug_printhex>
    debug_print(", val "); debug_printhex(req->wValue >> 8); debug_printhex(req->wValue & 0xff);
 800339a:	484c      	ldr	r0, [pc, #304]	; (80034cc <dump_usb_request+0x164>)
 800339c:	f7ff fa94 	bl	80028c8 <debug_print>
 80033a0:	8860      	ldrh	r0, [r4, #2]
 80033a2:	0a00      	lsrs	r0, r0, #8
 80033a4:	f7ff faa4 	bl	80028f0 <debug_printhex>
 80033a8:	8860      	ldrh	r0, [r4, #2]
 80033aa:	b2c0      	uxtb	r0, r0
 80033ac:	f7ff faa0 	bl	80028f0 <debug_printhex>
    debug_print(", idx "); debug_printhex(req->wIndex >> 8); debug_printhex(req->wIndex & 0xff);
 80033b0:	4847      	ldr	r0, [pc, #284]	; (80034d0 <dump_usb_request+0x168>)
 80033b2:	f7ff fa89 	bl	80028c8 <debug_print>
 80033b6:	88a0      	ldrh	r0, [r4, #4]
 80033b8:	0a00      	lsrs	r0, r0, #8
 80033ba:	f7ff fa99 	bl	80028f0 <debug_printhex>
 80033be:	88a0      	ldrh	r0, [r4, #4]
 80033c0:	b2c0      	uxtb	r0, r0
 80033c2:	f7ff fa95 	bl	80028f0 <debug_printhex>
    debug_print(", len "); debug_printhex(req->wLength >> 8); debug_printhex(req->wLength & 0xff);
 80033c6:	4843      	ldr	r0, [pc, #268]	; (80034d4 <dump_usb_request+0x16c>)
 80033c8:	f7ff fa7e 	bl	80028c8 <debug_print>
 80033cc:	88e0      	ldrh	r0, [r4, #6]
 80033ce:	0a00      	lsrs	r0, r0, #8
 80033d0:	f7ff fa8e 	bl	80028f0 <debug_printhex>
 80033d4:	88e0      	ldrh	r0, [r4, #6]
 80033d6:	b2c0      	uxtb	r0, r0
 80033d8:	f7ff fa8a 	bl	80028f0 <debug_printhex>
    ////debug_println(""); return; ////

    if (req->bmRequestType == 0x00 || req->bmRequestType == 0x80) {
 80033dc:	7823      	ldrb	r3, [r4, #0]
 80033de:	b10b      	cbz	r3, 80033e4 <dump_usb_request+0x7c>
 80033e0:	2b80      	cmp	r3, #128	; 0x80
 80033e2:	d11d      	bne.n	8003420 <dump_usb_request+0xb8>
        //  Dump USB standard requests.
        if (req->bmRequestType == 0x80 && req->bRequest == 0x06) {
 80033e4:	2b80      	cmp	r3, #128	; 0x80
 80033e6:	d01f      	beq.n	8003428 <dump_usb_request+0xc0>
                case 3: debug_print("_STR"); break;
                case 4: debug_print("_INF"); break;
                case 5: debug_print("_ENP"); break;
                case 15: debug_print("_BOS"); break;
            }
        } else if (req->bmRequestType == 0x00 && req->bRequest == 0x05) {
 80033e8:	b913      	cbnz	r3, 80033f0 <dump_usb_request+0x88>
 80033ea:	7862      	ldrb	r2, [r4, #1]
 80033ec:	2a05      	cmp	r2, #5
 80033ee:	d05d      	beq.n	80034ac <dump_usb_request+0x144>
            //  Note: We should see SET_ADDRESS only once per session.  If we see this again, it means
            //  we have previously returned invalid data to the host and the host is attempting to reset our connection.
            debug_print(", SET_ADR    ");
        } else if (req->bmRequestType == 0x00 && req->bRequest == 0x09) {
 80033f0:	b913      	cbnz	r3, 80033f8 <dump_usb_request+0x90>
 80033f2:	7862      	ldrb	r2, [r4, #1]
 80033f4:	2a09      	cmp	r2, #9
 80033f6:	d05d      	beq.n	80034b4 <dump_usb_request+0x14c>
            debug_print(", SET_CFG    ");
        } else if (req->bmRequestType == 0x80 && req->bRequest == 0x09) {
 80033f8:	2b80      	cmp	r3, #128	; 0x80
 80033fa:	d102      	bne.n	8003402 <dump_usb_request+0x9a>
 80033fc:	7863      	ldrb	r3, [r4, #1]
 80033fe:	2b09      	cmp	r3, #9
 8003400:	d05c      	beq.n	80034bc <dump_usb_request+0x154>
            debug_print(", SET_CFG    ");
        } else {
            debug_print(",");
 8003402:	4835      	ldr	r0, [pc, #212]	; (80034d8 <dump_usb_request+0x170>)
 8003404:	f7ff fa60 	bl	80028c8 <debug_print>
        }
        debug_print(" t "); debug_printhex(desc_type); 	
 8003408:	4834      	ldr	r0, [pc, #208]	; (80034dc <dump_usb_request+0x174>)
 800340a:	f7ff fa5d 	bl	80028c8 <debug_print>
 800340e:	4630      	mov	r0, r6
 8003410:	f7ff fa6e 	bl	80028f0 <debug_printhex>
        debug_print(" i "); debug_printhex(desc_index); 	
 8003414:	4832      	ldr	r0, [pc, #200]	; (80034e0 <dump_usb_request+0x178>)
 8003416:	f7ff fa57 	bl	80028c8 <debug_print>
 800341a:	4628      	mov	r0, r5
 800341c:	f7ff fa68 	bl	80028f0 <debug_printhex>
    }
    debug_println("");
 8003420:	4830      	ldr	r0, [pc, #192]	; (80034e4 <dump_usb_request+0x17c>)
 8003422:	f7ff fa25 	bl	8002870 <debug_println>
}
 8003426:	bd70      	pop	{r4, r5, r6, pc}
        if (req->bmRequestType == 0x80 && req->bRequest == 0x06) {
 8003428:	7862      	ldrb	r2, [r4, #1]
 800342a:	2a06      	cmp	r2, #6
 800342c:	d1dc      	bne.n	80033e8 <dump_usb_request+0x80>
            debug_print(", GET_DES");
 800342e:	482e      	ldr	r0, [pc, #184]	; (80034e8 <dump_usb_request+0x180>)
 8003430:	f7ff fa4a 	bl	80028c8 <debug_print>
            switch(desc_type) {
 8003434:	1e73      	subs	r3, r6, #1
 8003436:	2b0e      	cmp	r3, #14
 8003438:	d8e6      	bhi.n	8003408 <dump_usb_request+0xa0>
 800343a:	a201      	add	r2, pc, #4	; (adr r2, 8003440 <dump_usb_request+0xd8>)
 800343c:	f852 f023 	ldr.w	pc, [r2, r3, lsl #2]
 8003440:	0800347d 	.word	0x0800347d
 8003444:	08003485 	.word	0x08003485
 8003448:	0800348d 	.word	0x0800348d
 800344c:	08003495 	.word	0x08003495
 8003450:	0800349d 	.word	0x0800349d
 8003454:	08003409 	.word	0x08003409
 8003458:	08003409 	.word	0x08003409
 800345c:	08003409 	.word	0x08003409
 8003460:	08003409 	.word	0x08003409
 8003464:	08003409 	.word	0x08003409
 8003468:	08003409 	.word	0x08003409
 800346c:	08003409 	.word	0x08003409
 8003470:	08003409 	.word	0x08003409
 8003474:	08003409 	.word	0x08003409
 8003478:	080034a5 	.word	0x080034a5
                case 1: debug_print("_DEV"); break;
 800347c:	481b      	ldr	r0, [pc, #108]	; (80034ec <dump_usb_request+0x184>)
 800347e:	f7ff fa23 	bl	80028c8 <debug_print>
 8003482:	e7c1      	b.n	8003408 <dump_usb_request+0xa0>
                case 2: debug_print("_CFG"); break;
 8003484:	481a      	ldr	r0, [pc, #104]	; (80034f0 <dump_usb_request+0x188>)
 8003486:	f7ff fa1f 	bl	80028c8 <debug_print>
 800348a:	e7bd      	b.n	8003408 <dump_usb_request+0xa0>
                case 3: debug_print("_STR"); break;
 800348c:	4819      	ldr	r0, [pc, #100]	; (80034f4 <dump_usb_request+0x18c>)
 800348e:	f7ff fa1b 	bl	80028c8 <debug_print>
 8003492:	e7b9      	b.n	8003408 <dump_usb_request+0xa0>
                case 4: debug_print("_INF"); break;
 8003494:	4818      	ldr	r0, [pc, #96]	; (80034f8 <dump_usb_request+0x190>)
 8003496:	f7ff fa17 	bl	80028c8 <debug_print>
 800349a:	e7b5      	b.n	8003408 <dump_usb_request+0xa0>
                case 5: debug_print("_ENP"); break;
 800349c:	4817      	ldr	r0, [pc, #92]	; (80034fc <dump_usb_request+0x194>)
 800349e:	f7ff fa13 	bl	80028c8 <debug_print>
 80034a2:	e7b1      	b.n	8003408 <dump_usb_request+0xa0>
                case 15: debug_print("_BOS"); break;
 80034a4:	4816      	ldr	r0, [pc, #88]	; (8003500 <dump_usb_request+0x198>)
 80034a6:	f7ff fa0f 	bl	80028c8 <debug_print>
 80034aa:	e7ad      	b.n	8003408 <dump_usb_request+0xa0>
            debug_print(", SET_ADR    ");
 80034ac:	4815      	ldr	r0, [pc, #84]	; (8003504 <dump_usb_request+0x19c>)
 80034ae:	f7ff fa0b 	bl	80028c8 <debug_print>
 80034b2:	e7a9      	b.n	8003408 <dump_usb_request+0xa0>
            debug_print(", SET_CFG    ");
 80034b4:	4814      	ldr	r0, [pc, #80]	; (8003508 <dump_usb_request+0x1a0>)
 80034b6:	f7ff fa07 	bl	80028c8 <debug_print>
 80034ba:	e7a5      	b.n	8003408 <dump_usb_request+0xa0>
            debug_print(", SET_CFG    ");
 80034bc:	4812      	ldr	r0, [pc, #72]	; (8003508 <dump_usb_request+0x1a0>)
 80034be:	f7ff fa03 	bl	80028c8 <debug_print>
 80034c2:	e7a1      	b.n	8003408 <dump_usb_request+0xa0>
 80034c4:	080049a4 	.word	0x080049a4
 80034c8:	080049ac 	.word	0x080049ac
 80034cc:	080049b4 	.word	0x080049b4
 80034d0:	080049bc 	.word	0x080049bc
 80034d4:	08004744 	.word	0x08004744
 80034d8:	08004a20 	.word	0x08004a20
 80034dc:	08004a24 	.word	0x08004a24
 80034e0:	08004a28 	.word	0x08004a28
 80034e4:	08004608 	.word	0x08004608
 80034e8:	080049c4 	.word	0x080049c4
 80034ec:	080049d0 	.word	0x080049d0
 80034f0:	080049d8 	.word	0x080049d8
 80034f4:	080049e0 	.word	0x080049e0
 80034f8:	080049e8 	.word	0x080049e8
 80034fc:	080049f0 	.word	0x080049f0
 8003500:	080049f8 	.word	0x080049f8
 8003504:	08004a00 	.word	0x08004a00
 8003508:	08004a10 	.word	0x08004a10

0800350c <aggregate_callback>:
	usbd_control_complete_callback *complete) {
 800350c:	e92d 47f0 	stmdb	sp!, {r4, r5, r6, r7, r8, r9, sl, lr}
 8003510:	b082      	sub	sp, #8
 8003512:	4681      	mov	r9, r0
 8003514:	460d      	mov	r5, r1
 8003516:	4690      	mov	r8, r2
 8003518:	469a      	mov	sl, r3
 800351a:	9f0a      	ldr	r7, [sp, #40]	; 0x28
    if (req->bmRequestType == 0 && req->bRequest == 5) {
 800351c:	780b      	ldrb	r3, [r1, #0]
 800351e:	bb73      	cbnz	r3, 800357e <aggregate_callback+0x72>
 8003520:	784b      	ldrb	r3, [r1, #1]
 8003522:	2b05      	cmp	r3, #5
 8003524:	d001      	beq.n	800352a <aggregate_callback+0x1e>
 8003526:	2400      	movs	r4, #0
 8003528:	e00f      	b.n	800354a <aggregate_callback+0x3e>
        set_usb_busy();
 800352a:	f7ff fe6d 	bl	8003208 <set_usb_busy>
        debug_println("SET_ADR");
 800352e:	481e      	ldr	r0, [pc, #120]	; (80035a8 <aggregate_callback+0x9c>)
 8003530:	f7ff f99e 	bl	8002870 <debug_println>
        *len = 0;          //  Return an empty message.
 8003534:	2300      	movs	r3, #0
 8003536:	f8aa 3000 	strh.w	r3, [sl]
        return _usbd_standard_request_device(usbd_dev, req, buf, len);
 800353a:	4653      	mov	r3, sl
 800353c:	4642      	mov	r2, r8
 800353e:	4629      	mov	r1, r5
 8003540:	4648      	mov	r0, r9
 8003542:	f7fd fdcd 	bl	80010e0 <_usbd_standard_request_device>
 8003546:	e029      	b.n	800359c <aggregate_callback+0x90>
    for (i = 0; i < MAX_CONTROL_CALLBACK; i++) {
 8003548:	3401      	adds	r4, #1
 800354a:	2c09      	cmp	r4, #9
 800354c:	dc19      	bgt.n	8003582 <aggregate_callback+0x76>
        if (control_callback[i].cb == NULL) { break; }
 800354e:	4b17      	ldr	r3, [pc, #92]	; (80035ac <aggregate_callback+0xa0>)
 8003550:	eb03 03c4 	add.w	r3, r3, r4, lsl #3
 8003554:	685e      	ldr	r6, [r3, #4]
 8003556:	b1a6      	cbz	r6, 8003582 <aggregate_callback+0x76>
        if ((req->bmRequestType & control_callback[i].type_mask) == control_callback[i].type) {
 8003558:	782b      	ldrb	r3, [r5, #0]
 800355a:	4a14      	ldr	r2, [pc, #80]	; (80035ac <aggregate_callback+0xa0>)
 800355c:	eb02 01c4 	add.w	r1, r2, r4, lsl #3
 8003560:	7849      	ldrb	r1, [r1, #1]
 8003562:	400b      	ands	r3, r1
 8003564:	f812 2034 	ldrb.w	r2, [r2, r4, lsl #3]
 8003568:	4293      	cmp	r3, r2
 800356a:	d1ed      	bne.n	8003548 <aggregate_callback+0x3c>
            result = control_callback[i].cb(
 800356c:	9700      	str	r7, [sp, #0]
 800356e:	4653      	mov	r3, sl
 8003570:	4642      	mov	r2, r8
 8003572:	4629      	mov	r1, r5
 8003574:	4648      	mov	r0, r9
 8003576:	47b0      	blx	r6
            if (result == USBD_REQ_HANDLED ||
 8003578:	2801      	cmp	r0, #1
 800357a:	d8e5      	bhi.n	8003548 <aggregate_callback+0x3c>
 800357c:	e00e      	b.n	800359c <aggregate_callback+0x90>
 800357e:	2400      	movs	r4, #0
 8003580:	e7e3      	b.n	800354a <aggregate_callback+0x3e>
    set_usb_busy();
 8003582:	f7ff fe41 	bl	8003208 <set_usb_busy>
    if (!(req->bmRequestType == 0x80 && req->bRequest == 0x06)) {
 8003586:	782b      	ldrb	r3, [r5, #0]
 8003588:	2b80      	cmp	r3, #128	; 0x80
 800358a:	d102      	bne.n	8003592 <aggregate_callback+0x86>
 800358c:	786b      	ldrb	r3, [r5, #1]
 800358e:	2b06      	cmp	r3, #6
 8003590:	d007      	beq.n	80035a2 <aggregate_callback+0x96>
	    dump_usb_request(">> ", req);
 8003592:	4629      	mov	r1, r5
 8003594:	4806      	ldr	r0, [pc, #24]	; (80035b0 <aggregate_callback+0xa4>)
 8003596:	f7ff fee7 	bl	8003368 <dump_usb_request>
	return USBD_REQ_NEXT_CALLBACK;
 800359a:	2002      	movs	r0, #2
}
 800359c:	b002      	add	sp, #8
 800359e:	e8bd 87f0 	ldmia.w	sp!, {r4, r5, r6, r7, r8, r9, sl, pc}
	return USBD_REQ_NEXT_CALLBACK;
 80035a2:	2002      	movs	r0, #2
 80035a4:	e7fa      	b.n	800359c <aggregate_callback+0x90>
 80035a6:	bf00      	nop
 80035a8:	08004898 	.word	0x08004898
 80035ac:	200004a8 	.word	0x200004a8
 80035b0:	080048a0 	.word	0x080048a0

080035b4 <webusb_set_config>:
	}

	return status;
}

static void webusb_set_config(usbd_device* usbd_dev, uint16_t wValue) {
 80035b4:	b508      	push	{r3, lr}
    //  debug_println("webusb_set_config"); // debug_flush(); ////
	(void)wValue;
	int status = aggregate_register_callback(
 80035b6:	4b07      	ldr	r3, [pc, #28]	; (80035d4 <webusb_set_config+0x20>)
 80035b8:	227f      	movs	r2, #127	; 0x7f
 80035ba:	2140      	movs	r1, #64	; 0x40
 80035bc:	f7ff fe6e 	bl	800329c <aggregate_register_callback>
		usbd_dev,
		CONTROL_CALLBACK_TYPE,
		CONTROL_CALLBACK_MASK,
		webusb_control_vendor_request);
	if (status < 0) { debug_println("*** webusb_set_config failed"); debug_flush(); }
 80035c0:	2800      	cmp	r0, #0
 80035c2:	db00      	blt.n	80035c6 <webusb_set_config+0x12>
}
 80035c4:	bd08      	pop	{r3, pc}
	if (status < 0) { debug_println("*** webusb_set_config failed"); debug_flush(); }
 80035c6:	4804      	ldr	r0, [pc, #16]	; (80035d8 <webusb_set_config+0x24>)
 80035c8:	f7ff f952 	bl	8002870 <debug_println>
 80035cc:	f7ff f977 	bl	80028be <debug_flush>
}
 80035d0:	e7f8      	b.n	80035c4 <webusb_set_config+0x10>
 80035d2:	bf00      	nop
 80035d4:	080035dd 	.word	0x080035dd
 80035d8:	08004bd4 	.word	0x08004bd4

080035dc <webusb_control_vendor_request>:
	if (req->bmRequestType != 0xc0 && req->bmRequestType != 0xc1) { return USBD_REQ_NEXT_CALLBACK; }
 80035dc:	7808      	ldrb	r0, [r1, #0]
 80035de:	3040      	adds	r0, #64	; 0x40
 80035e0:	b2c0      	uxtb	r0, r0
 80035e2:	2801      	cmp	r0, #1
 80035e4:	d853      	bhi.n	800368e <webusb_control_vendor_request+0xb2>
	if (req->bRequest != WEBUSB_VENDOR_CODE) { return USBD_REQ_NEXT_CALLBACK; }
 80035e6:	7848      	ldrb	r0, [r1, #1]
 80035e8:	2822      	cmp	r0, #34	; 0x22
 80035ea:	d152      	bne.n	8003692 <webusb_control_vendor_request+0xb6>
									 usbd_control_complete_callback* complete) {
 80035ec:	e92d 41f0 	stmdb	sp!, {r4, r5, r6, r7, r8, lr}
 80035f0:	461d      	mov	r5, r3
 80035f2:	460c      	mov	r4, r1
	switch (req->wIndex) {
 80035f4:	888b      	ldrh	r3, [r1, #4]
 80035f6:	2b02      	cmp	r3, #2
 80035f8:	d13b      	bne.n	8003672 <webusb_control_vendor_request+0x96>
			struct webusb_url_descriptor* url = (struct webusb_url_descriptor*)(*buf);
 80035fa:	6817      	ldr	r7, [r2, #0]
			uint16_t index = req->wValue;
 80035fc:	884e      	ldrh	r6, [r1, #2]
			if (index == 0) {
 80035fe:	b176      	cbz	r6, 800361e <webusb_control_vendor_request+0x42>
			if (index == 1) {
 8003600:	2e01      	cmp	r6, #1
 8003602:	d019      	beq.n	8003638 <webusb_control_vendor_request+0x5c>
    			debug_print("*** webusb notsupp index "); debug_print_unsigned(index); debug_println(""); debug_flush(); ////
 8003604:	4824      	ldr	r0, [pc, #144]	; (8003698 <webusb_control_vendor_request+0xbc>)
 8003606:	f7ff f95f 	bl	80028c8 <debug_print>
 800360a:	4630      	mov	r0, r6
 800360c:	f7ff f96c 	bl	80028e8 <debug_print_unsigned>
 8003610:	4822      	ldr	r0, [pc, #136]	; (800369c <webusb_control_vendor_request+0xc0>)
 8003612:	f7ff f92d 	bl	8002870 <debug_println>
 8003616:	f7ff f952 	bl	80028be <debug_flush>
				status = USBD_REQ_NOTSUPP;
 800361a:	2000      	movs	r0, #0
 800361c:	e035      	b.n	800368a <webusb_control_vendor_request+0xae>
    			debug_print("*** webusb notsupp index "); debug_print_unsigned(index); debug_println(""); debug_flush(); ////
 800361e:	481e      	ldr	r0, [pc, #120]	; (8003698 <webusb_control_vendor_request+0xbc>)
 8003620:	f7ff f952 	bl	80028c8 <debug_print>
 8003624:	4630      	mov	r0, r6
 8003626:	f7ff f95f 	bl	80028e8 <debug_print_unsigned>
 800362a:	481c      	ldr	r0, [pc, #112]	; (800369c <webusb_control_vendor_request+0xc0>)
 800362c:	f7ff f920 	bl	8002870 <debug_println>
 8003630:	f7ff f945 	bl	80028be <debug_flush>
				return USBD_REQ_NOTSUPP;
 8003634:	2000      	movs	r0, #0
 8003636:	e028      	b.n	800368a <webusb_control_vendor_request+0xae>
				dump_usb_request("weburl", req); // debug_flush(); ////
 8003638:	4819      	ldr	r0, [pc, #100]	; (80036a0 <webusb_control_vendor_request+0xc4>)
 800363a:	f7ff fe95 	bl	8003368 <dump_usb_request>
				size_t url_len = strlen(webusb_https_url);
 800363e:	4b19      	ldr	r3, [pc, #100]	; (80036a4 <webusb_control_vendor_request+0xc8>)
 8003640:	f8d3 8000 	ldr.w	r8, [r3]
 8003644:	4640      	mov	r0, r8
 8003646:	f7fe ffcc 	bl	80025e2 <strlen>
 800364a:	4602      	mov	r2, r0
				url->bLength = WEBUSB_DT_URL_DESCRIPTOR_SIZE + url_len;
 800364c:	1cc6      	adds	r6, r0, #3
 800364e:	b2f6      	uxtb	r6, r6
 8003650:	703e      	strb	r6, [r7, #0]
				url->bDescriptorType = WEBUSB_DT_URL;
 8003652:	2303      	movs	r3, #3
 8003654:	707b      	strb	r3, [r7, #1]
				url->bScheme = WEBUSB_URL_SCHEME_HTTPS;
 8003656:	2401      	movs	r4, #1
 8003658:	70bc      	strb	r4, [r7, #2]
				memcpy(&url->URL, webusb_https_url, url_len);
 800365a:	4641      	mov	r1, r8
 800365c:	18f8      	adds	r0, r7, r3
 800365e:	f7fe ffa8 	bl	80025b2 <memcpy>
				*len = MIN(*len, url->bLength);
 8003662:	882b      	ldrh	r3, [r5, #0]
 8003664:	b2b6      	uxth	r6, r6
 8003666:	429e      	cmp	r6, r3
 8003668:	bf28      	it	cs
 800366a:	461e      	movcs	r6, r3
 800366c:	802e      	strh	r6, [r5, #0]
				status = USBD_REQ_HANDLED;
 800366e:	4620      	mov	r0, r4
 8003670:	e00b      	b.n	800368a <webusb_control_vendor_request+0xae>
    		debug_print("*** webusb notsupp wIndex "); debug_print_unsigned(req->wIndex); debug_println(""); debug_flush(); ////
 8003672:	480d      	ldr	r0, [pc, #52]	; (80036a8 <webusb_control_vendor_request+0xcc>)
 8003674:	f7ff f928 	bl	80028c8 <debug_print>
 8003678:	88a0      	ldrh	r0, [r4, #4]
 800367a:	f7ff f935 	bl	80028e8 <debug_print_unsigned>
 800367e:	4807      	ldr	r0, [pc, #28]	; (800369c <webusb_control_vendor_request+0xc0>)
 8003680:	f7ff f8f6 	bl	8002870 <debug_println>
 8003684:	f7ff f91b 	bl	80028be <debug_flush>
			status = USBD_REQ_NOTSUPP;
 8003688:	2000      	movs	r0, #0
}
 800368a:	e8bd 81f0 	ldmia.w	sp!, {r4, r5, r6, r7, r8, pc}
	if (req->bmRequestType != 0xc0 && req->bmRequestType != 0xc1) { return USBD_REQ_NEXT_CALLBACK; }
 800368e:	2002      	movs	r0, #2
 8003690:	4770      	bx	lr
	if (req->bRequest != WEBUSB_VENDOR_CODE) { return USBD_REQ_NEXT_CALLBACK; }
 8003692:	2002      	movs	r0, #2
}
 8003694:	4770      	bx	lr
 8003696:	bf00      	nop
 8003698:	08004b7c 	.word	0x08004b7c
 800369c:	08004608 	.word	0x08004608
 80036a0:	08004b98 	.word	0x08004b98
 80036a4:	20000520 	.word	0x20000520
 80036a8:	08004ba0 	.word	0x08004ba0

080036ac <webusb_setup>:

void webusb_setup(usbd_device* usbd_dev, const char* https_url) {
 80036ac:	b510      	push	{r4, lr}
 80036ae:	4604      	mov	r4, r0
    // debug_println("webusb_setup"); // debug_flush(); ////
	webusb_https_url = https_url;
 80036b0:	4b0d      	ldr	r3, [pc, #52]	; (80036e8 <webusb_setup+0x3c>)
 80036b2:	6019      	str	r1, [r3, #0]

	//  Register the callback now because WebUSB requests come earlier.
	int status = aggregate_register_callback(
 80036b4:	4b0d      	ldr	r3, [pc, #52]	; (80036ec <webusb_setup+0x40>)
 80036b6:	227f      	movs	r2, #127	; 0x7f
 80036b8:	2140      	movs	r1, #64	; 0x40
 80036ba:	f7ff fdef 	bl	800329c <aggregate_register_callback>
		usbd_dev,
		CONTROL_CALLBACK_TYPE,
		CONTROL_CALLBACK_MASK,
		webusb_control_vendor_request);
	if (status < 0) { debug_println("*** webusb_setup failed"); debug_flush(); }
 80036be:	2800      	cmp	r0, #0
 80036c0:	db06      	blt.n	80036d0 <webusb_setup+0x24>

    //  Re-register the callback in case the USB restarts.
	status = aggregate_register_config_callback(usbd_dev, webusb_set_config);
 80036c2:	490b      	ldr	r1, [pc, #44]	; (80036f0 <webusb_setup+0x44>)
 80036c4:	4620      	mov	r0, r4
 80036c6:	f7ff fdc9 	bl	800325c <aggregate_register_config_callback>
	if (status < 0) { debug_println("*** webusb_setup failed"); debug_flush(); }
 80036ca:	2800      	cmp	r0, #0
 80036cc:	db06      	blt.n	80036dc <webusb_setup+0x30>
}
 80036ce:	bd10      	pop	{r4, pc}
	if (status < 0) { debug_println("*** webusb_setup failed"); debug_flush(); }
 80036d0:	4808      	ldr	r0, [pc, #32]	; (80036f4 <webusb_setup+0x48>)
 80036d2:	f7ff f8cd 	bl	8002870 <debug_println>
 80036d6:	f7ff f8f2 	bl	80028be <debug_flush>
 80036da:	e7f2      	b.n	80036c2 <webusb_setup+0x16>
	if (status < 0) { debug_println("*** webusb_setup failed"); debug_flush(); }
 80036dc:	4805      	ldr	r0, [pc, #20]	; (80036f4 <webusb_setup+0x48>)
 80036de:	f7ff f8c7 	bl	8002870 <debug_println>
 80036e2:	f7ff f8ec 	bl	80028be <debug_flush>
}
 80036e6:	e7f2      	b.n	80036ce <webusb_setup+0x22>
 80036e8:	20000520 	.word	0x20000520
 80036ec:	080035dd 	.word	0x080035dd
 80036f0:	080035b5 	.word	0x080035b5
 80036f4:	08004bf4 	.word	0x08004bf4

080036f8 <winusb_set_config>:
		status = USBD_REQ_NEXT_CALLBACK;  //  Previously USBD_REQ_NOTSUPP
	}
	return status;
}

static void winusb_set_config(usbd_device* usbd_dev, uint16_t wValue) {
 80036f8:	b508      	push	{r3, lr}
	//  debug_println("winusb_set_config"); // debug_flush(); ////
	(void)wValue;
	int status = aggregate_register_callback(
 80036fa:	4b07      	ldr	r3, [pc, #28]	; (8003718 <winusb_set_config+0x20>)
 80036fc:	2260      	movs	r2, #96	; 0x60
 80036fe:	2140      	movs	r1, #64	; 0x40
 8003700:	f7ff fdcc 	bl	800329c <aggregate_register_callback>
		usbd_dev,
		CONTROL_CALLBACK_TYPE,
		CONTROL_CALLBACK_MASK,
		winusb_control_vendor_request);
	if (status < 0) {
 8003704:	2800      	cmp	r0, #0
 8003706:	db00      	blt.n	800370a <winusb_set_config+0x12>
    	debug_println("*** winusb_set_config failed"); debug_flush(); ////
	}
}
 8003708:	bd08      	pop	{r3, pc}
    	debug_println("*** winusb_set_config failed"); debug_flush(); ////
 800370a:	4804      	ldr	r0, [pc, #16]	; (800371c <winusb_set_config+0x24>)
 800370c:	f7ff f8b0 	bl	8002870 <debug_println>
 8003710:	f7ff f8d5 	bl	80028be <debug_flush>
}
 8003714:	e7f8      	b.n	8003708 <winusb_set_config+0x10>
 8003716:	bf00      	nop
 8003718:	08003781 	.word	0x08003781
 800371c:	08004cdc 	.word	0x08004cdc

08003720 <winusb_descriptor_request>:
	if ((req->bmRequestType & USB_REQ_TYPE_TYPE) != USB_REQ_TYPE_STANDARD) { return USBD_REQ_NEXT_CALLBACK; }
 8003720:	7808      	ldrb	r0, [r1, #0]
 8003722:	f010 0f60 	tst.w	r0, #96	; 0x60
 8003726:	d120      	bne.n	800376a <winusb_descriptor_request+0x4a>
	if (req->bRequest == USB_REQ_GET_DESCRIPTOR && usb_descriptor_type(req->wValue) == USB_DT_STRING) {
 8003728:	7848      	ldrb	r0, [r1, #1]
 800372a:	2806      	cmp	r0, #6
 800372c:	d11f      	bne.n	800376e <winusb_descriptor_request+0x4e>
	usbd_control_complete_callback* complete) { (void)complete; (void)usbd_dev;
 800372e:	b5f8      	push	{r3, r4, r5, r6, r7, lr}
 8003730:	461e      	mov	r6, r3
 8003732:	4615      	mov	r5, r2
 8003734:	460c      	mov	r4, r1
	if (req->bRequest == USB_REQ_GET_DESCRIPTOR && usb_descriptor_type(req->wValue) == USB_DT_STRING) {
 8003736:	884f      	ldrh	r7, [r1, #2]
 8003738:	4638      	mov	r0, r7
 800373a:	f000 fed5 	bl	80044e8 <usb_descriptor_type>
 800373e:	2803      	cmp	r0, #3
 8003740:	d117      	bne.n	8003772 <winusb_descriptor_request+0x52>
		if (usb_descriptor_index(req->wValue) == WINUSB_EXTRA_STRING_INDEX) {
 8003742:	4638      	mov	r0, r7
 8003744:	f000 fed2 	bl	80044ec <usb_descriptor_index>
 8003748:	28ee      	cmp	r0, #238	; 0xee
 800374a:	d001      	beq.n	8003750 <winusb_descriptor_request+0x30>
	return USBD_REQ_NEXT_CALLBACK;
 800374c:	2002      	movs	r0, #2
 800374e:	e011      	b.n	8003774 <winusb_descriptor_request+0x54>
			dump_usb_request("winee", req); // debug_flush(); ////
 8003750:	4621      	mov	r1, r4
 8003752:	4809      	ldr	r0, [pc, #36]	; (8003778 <winusb_descriptor_request+0x58>)
 8003754:	f7ff fe08 	bl	8003368 <dump_usb_request>
			*buf = (uint8_t*) &winusb_string_descriptor;
 8003758:	4b08      	ldr	r3, [pc, #32]	; (800377c <winusb_descriptor_request+0x5c>)
 800375a:	602b      	str	r3, [r5, #0]
			*len = MIN(*len, winusb_string_descriptor.bLength);
 800375c:	8833      	ldrh	r3, [r6, #0]
 800375e:	2b12      	cmp	r3, #18
 8003760:	bf28      	it	cs
 8003762:	2312      	movcs	r3, #18
 8003764:	8033      	strh	r3, [r6, #0]
			return USBD_REQ_HANDLED;
 8003766:	2001      	movs	r0, #1
 8003768:	e004      	b.n	8003774 <winusb_descriptor_request+0x54>
	if ((req->bmRequestType & USB_REQ_TYPE_TYPE) != USB_REQ_TYPE_STANDARD) { return USBD_REQ_NEXT_CALLBACK; }
 800376a:	2002      	movs	r0, #2
 800376c:	4770      	bx	lr
	return USBD_REQ_NEXT_CALLBACK;
 800376e:	2002      	movs	r0, #2
}
 8003770:	4770      	bx	lr
	return USBD_REQ_NEXT_CALLBACK;
 8003772:	2002      	movs	r0, #2
}
 8003774:	bdf8      	pop	{r3, r4, r5, r6, r7, pc}
 8003776:	bf00      	nop
 8003778:	08004cd4 	.word	0x08004cd4
 800377c:	08004d14 	.word	0x08004d14

08003780 <winusb_control_vendor_request>:
					usbd_control_complete_callback* complete) {  (void)complete; (void)usbd_dev;
 8003780:	b5f8      	push	{r3, r4, r5, r6, r7, lr}
	if (req->bmRequestType != 0xc0 && req->bmRequestType != 0xc1) { return USBD_REQ_NEXT_CALLBACK; }
 8003782:	780c      	ldrb	r4, [r1, #0]
 8003784:	f104 0040 	add.w	r0, r4, #64	; 0x40
 8003788:	b2c0      	uxtb	r0, r0
 800378a:	2801      	cmp	r0, #1
 800378c:	d844      	bhi.n	8003818 <winusb_control_vendor_request+0x98>
	if (req->bRequest != WINUSB_MS_VENDOR_CODE) { return USBD_REQ_NEXT_CALLBACK; }
 800378e:	7848      	ldrb	r0, [r1, #1]
 8003790:	2821      	cmp	r0, #33	; 0x21
 8003792:	d143      	bne.n	800381c <winusb_control_vendor_request+0x9c>
 8003794:	461f      	mov	r7, r3
 8003796:	4616      	mov	r6, r2
 8003798:	460d      	mov	r5, r1
	if (((req->bmRequestType & USB_REQ_TYPE_RECIPIENT) == USB_REQ_TYPE_DEVICE) &&
 800379a:	f014 041f 	ands.w	r4, r4, #31
 800379e:	d102      	bne.n	80037a6 <winusb_control_vendor_request+0x26>
		(req->wIndex == MSOS20_REQ_GET_DESCRIPTOR)) {
 80037a0:	888b      	ldrh	r3, [r1, #4]
	if (((req->bmRequestType & USB_REQ_TYPE_RECIPIENT) == USB_REQ_TYPE_DEVICE) &&
 80037a2:	2b07      	cmp	r3, #7
 80037a4:	d011      	beq.n	80037ca <winusb_control_vendor_request+0x4a>
	} else if (((req->bmRequestType & USB_REQ_TYPE_RECIPIENT) == USB_REQ_TYPE_DEVICE) &&
 80037a6:	b914      	cbnz	r4, 80037ae <winusb_control_vendor_request+0x2e>
		(req->wIndex == WINUSB_REQ_GET_COMPATIBLE_ID_FEATURE_DESCRIPTOR)) {
 80037a8:	88ab      	ldrh	r3, [r5, #4]
	} else if (((req->bmRequestType & USB_REQ_TYPE_RECIPIENT) == USB_REQ_TYPE_DEVICE) &&
 80037aa:	2b04      	cmp	r3, #4
 80037ac:	d019      	beq.n	80037e2 <winusb_control_vendor_request+0x62>
	} else if (((req->bmRequestType & USB_REQ_TYPE_RECIPIENT) == USB_REQ_TYPE_INTERFACE) &&
 80037ae:	2c01      	cmp	r4, #1
 80037b0:	d136      	bne.n	8003820 <winusb_control_vendor_request+0xa0>
		(req->wIndex == WINUSB_REQ_GET_EXTENDED_PROPERTIES_OS_FEATURE_DESCRIPTOR) &&
 80037b2:	88ab      	ldrh	r3, [r5, #4]
	} else if (((req->bmRequestType & USB_REQ_TYPE_RECIPIENT) == USB_REQ_TYPE_INTERFACE) &&
 80037b4:	2b05      	cmp	r3, #5
 80037b6:	d135      	bne.n	8003824 <winusb_control_vendor_request+0xa4>
		(usb_descriptor_index(req->wValue) == winusb_wcid.functions[0].bInterfaceNumber)) {
 80037b8:	8868      	ldrh	r0, [r5, #2]
 80037ba:	f000 fe97 	bl	80044ec <usb_descriptor_index>
 80037be:	4b1a      	ldr	r3, [pc, #104]	; (8003828 <winusb_control_vendor_request+0xa8>)
 80037c0:	7c1b      	ldrb	r3, [r3, #16]
		(req->wIndex == WINUSB_REQ_GET_EXTENDED_PROPERTIES_OS_FEATURE_DESCRIPTOR) &&
 80037c2:	4298      	cmp	r0, r3
 80037c4:	d01b      	beq.n	80037fe <winusb_control_vendor_request+0x7e>
		status = USBD_REQ_NEXT_CALLBACK;  //  Previously USBD_REQ_NOTSUPP
 80037c6:	2002      	movs	r0, #2
 80037c8:	e027      	b.n	800381a <winusb_control_vendor_request+0x9a>
		dump_usb_request("windes", req); // debug_flush(); ////
 80037ca:	4818      	ldr	r0, [pc, #96]	; (800382c <winusb_control_vendor_request+0xac>)
 80037cc:	f7ff fdcc 	bl	8003368 <dump_usb_request>
		*buf = (uint8_t*) &msos20_descriptor_set;
 80037d0:	4b17      	ldr	r3, [pc, #92]	; (8003830 <winusb_control_vendor_request+0xb0>)
 80037d2:	6033      	str	r3, [r6, #0]
		*len = MIN(*len, MSOS20_DESCRIPTOR_SET_SIZE);
 80037d4:	883b      	ldrh	r3, [r7, #0]
 80037d6:	2bb2      	cmp	r3, #178	; 0xb2
 80037d8:	bf28      	it	cs
 80037da:	23b2      	movcs	r3, #178	; 0xb2
 80037dc:	803b      	strh	r3, [r7, #0]
		status = USBD_REQ_HANDLED;
 80037de:	2001      	movs	r0, #1
 80037e0:	e01b      	b.n	800381a <winusb_control_vendor_request+0x9a>
		dump_usb_request("winid", req); // debug_flush(); ////
 80037e2:	4629      	mov	r1, r5
 80037e4:	4813      	ldr	r0, [pc, #76]	; (8003834 <winusb_control_vendor_request+0xb4>)
 80037e6:	f7ff fdbf 	bl	8003368 <dump_usb_request>
		*buf = (uint8_t*)(&winusb_wcid);
 80037ea:	4a0f      	ldr	r2, [pc, #60]	; (8003828 <winusb_control_vendor_request+0xa8>)
 80037ec:	6032      	str	r2, [r6, #0]
		*len = MIN(*len, winusb_wcid.header.dwLength);
 80037ee:	883b      	ldrh	r3, [r7, #0]
 80037f0:	6812      	ldr	r2, [r2, #0]
 80037f2:	4293      	cmp	r3, r2
 80037f4:	bf28      	it	cs
 80037f6:	4613      	movcs	r3, r2
 80037f8:	803b      	strh	r3, [r7, #0]
		status = USBD_REQ_HANDLED;
 80037fa:	2001      	movs	r0, #1
 80037fc:	e00d      	b.n	800381a <winusb_control_vendor_request+0x9a>
		dump_usb_request("winprp", req); // debug_flush(); ////
 80037fe:	4629      	mov	r1, r5
 8003800:	480d      	ldr	r0, [pc, #52]	; (8003838 <winusb_control_vendor_request+0xb8>)
 8003802:	f7ff fdb1 	bl	8003368 <dump_usb_request>
		*buf = (uint8_t*)(&guid);
 8003806:	4b0d      	ldr	r3, [pc, #52]	; (800383c <winusb_control_vendor_request+0xbc>)
 8003808:	6033      	str	r3, [r6, #0]
		*len = MIN(*len, guid.header.dwLength);
 800380a:	883b      	ldrh	r3, [r7, #0]
 800380c:	2b92      	cmp	r3, #146	; 0x92
 800380e:	bf28      	it	cs
 8003810:	2392      	movcs	r3, #146	; 0x92
 8003812:	803b      	strh	r3, [r7, #0]
		status = USBD_REQ_HANDLED;
 8003814:	2001      	movs	r0, #1
 8003816:	e000      	b.n	800381a <winusb_control_vendor_request+0x9a>
	if (req->bmRequestType != 0xc0 && req->bmRequestType != 0xc1) { return USBD_REQ_NEXT_CALLBACK; }
 8003818:	2002      	movs	r0, #2
}
 800381a:	bdf8      	pop	{r3, r4, r5, r6, r7, pc}
	if (req->bRequest != WINUSB_MS_VENDOR_CODE) { return USBD_REQ_NEXT_CALLBACK; }
 800381c:	2002      	movs	r0, #2
 800381e:	e7fc      	b.n	800381a <winusb_control_vendor_request+0x9a>
		status = USBD_REQ_NEXT_CALLBACK;  //  Previously USBD_REQ_NOTSUPP
 8003820:	2002      	movs	r0, #2
 8003822:	e7fa      	b.n	800381a <winusb_control_vendor_request+0x9a>
 8003824:	2002      	movs	r0, #2
 8003826:	e7f8      	b.n	800381a <winusb_control_vendor_request+0x9a>
 8003828:	200000fc 	.word	0x200000fc
 800382c:	08004cbc 	.word	0x08004cbc
 8003830:	20000048 	.word	0x20000048
 8003834:	08004cc4 	.word	0x08004cc4
 8003838:	08004ccc 	.word	0x08004ccc
 800383c:	08004c0c 	.word	0x08004c0c

08003840 <winusb_setup>:

void winusb_setup(usbd_device* usbd_dev, uint8_t interface) {
 8003840:	b570      	push	{r4, r5, r6, lr}
 8003842:	4604      	mov	r4, r0
	//  debug_println("winusb_setup"); // debug_flush(); ////
	//  Send to host the USB Interface ID for the DFU Interface, which will support WinUSB.
	winusb_wcid.functions[0].bInterfaceNumber = interface;
 8003844:	4b0f      	ldr	r3, [pc, #60]	; (8003884 <winusb_setup+0x44>)
 8003846:	7419      	strb	r1, [r3, #16]
	int status = aggregate_register_config_callback(usbd_dev, winusb_set_config);
 8003848:	490f      	ldr	r1, [pc, #60]	; (8003888 <winusb_setup+0x48>)
 800384a:	f7ff fd07 	bl	800325c <aggregate_register_config_callback>
 800384e:	4605      	mov	r5, r0

	//  Windows probes the compatible ID before setting the configuration, so also register the callback now.
	int status1 = aggregate_register_callback(
 8003850:	4b0e      	ldr	r3, [pc, #56]	; (800388c <winusb_setup+0x4c>)
 8003852:	2260      	movs	r2, #96	; 0x60
 8003854:	2140      	movs	r1, #64	; 0x40
 8003856:	4620      	mov	r0, r4
 8003858:	f7ff fd20 	bl	800329c <aggregate_register_callback>
 800385c:	4606      	mov	r6, r0
		usbd_dev,
		CONTROL_CALLBACK_TYPE,
		CONTROL_CALLBACK_MASK,
		winusb_control_vendor_request);
	int status2 = aggregate_register_callback(
 800385e:	4b0c      	ldr	r3, [pc, #48]	; (8003890 <winusb_setup+0x50>)
 8003860:	221f      	movs	r2, #31
 8003862:	2100      	movs	r1, #0
 8003864:	4620      	mov	r0, r4
 8003866:	f7ff fd19 	bl	800329c <aggregate_register_callback>
		usbd_dev,
		DESCRIPTOR_CALLBACK_TYPE,
		DESCRIPTOR_CALLBACK_MASK,
		winusb_descriptor_request);
	if (status < 0 || status1 < 0 || status2 < 0) { debug_println("*** winusb_setup failed"); debug_flush(); }
 800386a:	2d00      	cmp	r5, #0
 800386c:	db03      	blt.n	8003876 <winusb_setup+0x36>
 800386e:	2e00      	cmp	r6, #0
 8003870:	db01      	blt.n	8003876 <winusb_setup+0x36>
 8003872:	2800      	cmp	r0, #0
 8003874:	da04      	bge.n	8003880 <winusb_setup+0x40>
 8003876:	4807      	ldr	r0, [pc, #28]	; (8003894 <winusb_setup+0x54>)
 8003878:	f7fe fffa 	bl	8002870 <debug_println>
 800387c:	f7ff f81f 	bl	80028be <debug_flush>
}
 8003880:	bd70      	pop	{r4, r5, r6, pc}
 8003882:	bf00      	nop
 8003884:	200000fc 	.word	0x200000fc
 8003888:	080036f9 	.word	0x080036f9
 800388c:	08003781 	.word	0x08003781
 8003890:	08003721 	.word	0x08003721
 8003894:	08004cfc 	.word	0x08004cfc

08003898 <cdcacm_comm_cb>:
}

static void cdcacm_comm_cb(
  usbd_device *usbd_dev,
  uint8_t ep __attribute__((unused))
) {
 8003898:	b508      	push	{r3, lr}
	//  Callback for the comm channel.
	debug_println("comm");
 800389a:	4802      	ldr	r0, [pc, #8]	; (80038a4 <cdcacm_comm_cb+0xc>)
 800389c:	f7fe ffe8 	bl	8002870 <debug_println>
}
 80038a0:	bd08      	pop	{r3, pc}
 80038a2:	bf00      	nop
 80038a4:	08004d40 	.word	0x08004d40

080038a8 <cdcacm_set_config>:

static void cdcacm_set_config(
  usbd_device *usbd_dev,
  uint16_t wValue __attribute__((unused))
) {
 80038a8:	b510      	push	{r4, lr}
 80038aa:	b082      	sub	sp, #8
 80038ac:	4604      	mov	r4, r0
	//  Callback for setting the USB configuration.
	//  From https://github.com/libopencm3/libopencm3-examples/blob/master/examples/stm32/f3/stm32f3-discovery/usb_cdcacm/cdcacm.c
    //  debug_println("*** cdcacm_set_config"); ////
	usbd_ep_setup(usbd_dev, DATA_OUT, USB_ENDPOINT_ATTR_BULK, MAX_USB_PACKET_SIZE, cdcacm_data_rx_cb);
 80038ae:	4b13      	ldr	r3, [pc, #76]	; (80038fc <cdcacm_set_config+0x54>)
 80038b0:	9300      	str	r3, [sp, #0]
 80038b2:	2340      	movs	r3, #64	; 0x40
 80038b4:	2202      	movs	r2, #2
 80038b6:	2103      	movs	r1, #3
 80038b8:	f7fd ff52 	bl	8001760 <usbd_ep_setup>
	usbd_ep_setup(usbd_dev, DATA_IN, USB_ENDPOINT_ATTR_BULK, MAX_USB_PACKET_SIZE, NULL);
 80038bc:	2300      	movs	r3, #0
 80038be:	9300      	str	r3, [sp, #0]
 80038c0:	2340      	movs	r3, #64	; 0x40
 80038c2:	2202      	movs	r2, #2
 80038c4:	2183      	movs	r1, #131	; 0x83
 80038c6:	4620      	mov	r0, r4
 80038c8:	f7fd ff4a 	bl	8001760 <usbd_ep_setup>
	usbd_ep_setup(usbd_dev, COMM_IN, USB_ENDPOINT_ATTR_INTERRUPT, COMM_PACKET_SIZE, cdcacm_comm_cb);
 80038cc:	4b0c      	ldr	r3, [pc, #48]	; (8003900 <cdcacm_set_config+0x58>)
 80038ce:	9300      	str	r3, [sp, #0]
 80038d0:	2310      	movs	r3, #16
 80038d2:	2203      	movs	r2, #3
 80038d4:	2184      	movs	r1, #132	; 0x84
 80038d6:	4620      	mov	r0, r4
 80038d8:	f7fd ff42 	bl	8001760 <usbd_ep_setup>
	int status = aggregate_register_callback(
 80038dc:	4b09      	ldr	r3, [pc, #36]	; (8003904 <cdcacm_set_config+0x5c>)
 80038de:	227f      	movs	r2, #127	; 0x7f
 80038e0:	2121      	movs	r1, #33	; 0x21
 80038e2:	4620      	mov	r0, r4
 80038e4:	f7ff fcda 	bl	800329c <aggregate_register_callback>
		usbd_dev,
		CONTROL_CALLBACK_TYPE,
		CONTROL_CALLBACK_MASK,
		(usbd_control_callback) cdcacm_control_request);
	if (status < 0) { debug_println("*** cdcacm_set_config failed"); debug_flush(); }
 80038e8:	2800      	cmp	r0, #0
 80038ea:	db01      	blt.n	80038f0 <cdcacm_set_config+0x48>
}
 80038ec:	b002      	add	sp, #8
 80038ee:	bd10      	pop	{r4, pc}
	if (status < 0) { debug_println("*** cdcacm_set_config failed"); debug_flush(); }
 80038f0:	4805      	ldr	r0, [pc, #20]	; (8003908 <cdcacm_set_config+0x60>)
 80038f2:	f7fe ffbd 	bl	8002870 <debug_println>
 80038f6:	f7fe ffe2 	bl	80028be <debug_flush>
}
 80038fa:	e7f7      	b.n	80038ec <cdcacm_set_config+0x44>
 80038fc:	08003a01 	.word	0x08003a01
 8003900:	08003899 	.word	0x08003899
 8003904:	0800390d 	.word	0x0800390d
 8003908:	08004d70 	.word	0x08004d70

0800390c <cdcacm_control_request>:
) {
 800390c:	b510      	push	{r4, lr}
 800390e:	461c      	mov	r4, r3
	switch (req->bRequest) {
 8003910:	784b      	ldrb	r3, [r1, #1]
 8003912:	2b21      	cmp	r3, #33	; 0x21
 8003914:	d007      	beq.n	8003926 <cdcacm_control_request+0x1a>
 8003916:	2b22      	cmp	r3, #34	; 0x22
 8003918:	d003      	beq.n	8003922 <cdcacm_control_request+0x16>
 800391a:	2b20      	cmp	r3, #32
 800391c:	d01d      	beq.n	800395a <cdcacm_control_request+0x4e>
	return USBD_REQ_NEXT_CALLBACK;  //  Hand over to next callback.
 800391e:	2002      	movs	r0, #2
 8003920:	e000      	b.n	8003924 <cdcacm_control_request+0x18>
			return USBD_REQ_HANDLED;
 8003922:	2001      	movs	r0, #1
}
 8003924:	bd10      	pop	{r4, pc}
			if ( *len < sizeof(struct usb_cdc_line_coding) ) {
 8003926:	8823      	ldrh	r3, [r4, #0]
 8003928:	2b06      	cmp	r3, #6
 800392a:	d905      	bls.n	8003938 <cdcacm_control_request+0x2c>
			*buf = (uint8_t *) &line_coding;
 800392c:	4b16      	ldr	r3, [pc, #88]	; (8003988 <cdcacm_control_request+0x7c>)
 800392e:	6013      	str	r3, [r2, #0]
			*len = sizeof(struct usb_cdc_line_coding);
 8003930:	2307      	movs	r3, #7
 8003932:	8023      	strh	r3, [r4, #0]
			return USBD_REQ_HANDLED;
 8003934:	2001      	movs	r0, #1
 8003936:	e7f5      	b.n	8003924 <cdcacm_control_request+0x18>
				debug_print("*** cdcacm_control notsupp line_coding "); debug_print_unsigned(sizeof(struct usb_cdc_line_coding)); 
 8003938:	4814      	ldr	r0, [pc, #80]	; (800398c <cdcacm_control_request+0x80>)
 800393a:	f7fe ffc5 	bl	80028c8 <debug_print>
 800393e:	2007      	movs	r0, #7
 8003940:	f7fe ffd2 	bl	80028e8 <debug_print_unsigned>
				debug_print(", len "); debug_print_unsigned(*len);
 8003944:	4812      	ldr	r0, [pc, #72]	; (8003990 <cdcacm_control_request+0x84>)
 8003946:	f7fe ffbf 	bl	80028c8 <debug_print>
 800394a:	8820      	ldrh	r0, [r4, #0]
 800394c:	f7fe ffcc 	bl	80028e8 <debug_print_unsigned>
				debug_println("");
 8003950:	4810      	ldr	r0, [pc, #64]	; (8003994 <cdcacm_control_request+0x88>)
 8003952:	f7fe ff8d 	bl	8002870 <debug_println>
				return USBD_REQ_NOTSUPP;
 8003956:	2000      	movs	r0, #0
 8003958:	e7e4      	b.n	8003924 <cdcacm_control_request+0x18>
			if ( *len < sizeof(struct usb_cdc_line_coding) ) {
 800395a:	8823      	ldrh	r3, [r4, #0]
 800395c:	2b06      	cmp	r3, #6
 800395e:	d901      	bls.n	8003964 <cdcacm_control_request+0x58>
			return USBD_REQ_HANDLED;
 8003960:	2001      	movs	r0, #1
 8003962:	e7df      	b.n	8003924 <cdcacm_control_request+0x18>
				debug_print("*** cdcacm_control notsupp line_coding "); debug_print_unsigned(sizeof(struct usb_cdc_line_coding)); 
 8003964:	4809      	ldr	r0, [pc, #36]	; (800398c <cdcacm_control_request+0x80>)
 8003966:	f7fe ffaf 	bl	80028c8 <debug_print>
 800396a:	2007      	movs	r0, #7
 800396c:	f7fe ffbc 	bl	80028e8 <debug_print_unsigned>
				debug_print(", len "); debug_print_unsigned(*len);
 8003970:	4807      	ldr	r0, [pc, #28]	; (8003990 <cdcacm_control_request+0x84>)
 8003972:	f7fe ffa9 	bl	80028c8 <debug_print>
 8003976:	8820      	ldrh	r0, [r4, #0]
 8003978:	f7fe ffb6 	bl	80028e8 <debug_print_unsigned>
				debug_println("");
 800397c:	4805      	ldr	r0, [pc, #20]	; (8003994 <cdcacm_control_request+0x88>)
 800397e:	f7fe ff77 	bl	8002870 <debug_println>
				return USBD_REQ_NOTSUPP;
 8003982:	2000      	movs	r0, #0
 8003984:	e7ce      	b.n	8003924 <cdcacm_control_request+0x18>
 8003986:	bf00      	nop
 8003988:	08004d90 	.word	0x08004d90
 800398c:	08004d48 	.word	0x08004d48
 8003990:	08004744 	.word	0x08004744
 8003994:	08004608 	.word	0x08004608

08003998 <cdcadm_transmit>:
) {
 8003998:	b5f8      	push	{r3, r4, r5, r6, r7, lr}
	if (!connected || !usbd_dev || !buf) { return -1; }
 800399a:	4b18      	ldr	r3, [pc, #96]	; (80039fc <cdcadm_transmit+0x64>)
 800399c:	781b      	ldrb	r3, [r3, #0]
 800399e:	b303      	cbz	r3, 80039e2 <cdcadm_transmit+0x4a>
 80039a0:	4607      	mov	r7, r0
 80039a2:	460e      	mov	r6, r1
 80039a4:	4614      	mov	r4, r2
 80039a6:	b1f8      	cbz	r0, 80039e8 <cdcadm_transmit+0x50>
 80039a8:	b309      	cbz	r1, 80039ee <cdcadm_transmit+0x56>
	if (len == 0) { return 0; }
 80039aa:	b31a      	cbz	r2, 80039f4 <cdcadm_transmit+0x5c>
	if (len <= MAX_USB_PACKET_SIZE) {
 80039ac:	2a40      	cmp	r2, #64	; 0x40
 80039ae:	d910      	bls.n	80039d2 <cdcadm_transmit+0x3a>
	while (len > 0) {
 80039b0:	b1ac      	cbz	r4, 80039de <cdcadm_transmit+0x46>
		uint16_t tx_len = (len > MAX_USB_PACKET_SIZE) ? MAX_USB_PACKET_SIZE : len;
 80039b2:	4625      	mov	r5, r4
 80039b4:	2c40      	cmp	r4, #64	; 0x40
 80039b6:	bf28      	it	cs
 80039b8:	2540      	movcs	r5, #64	; 0x40
		len = len - tx_len;
 80039ba:	1b64      	subs	r4, r4, r5
 80039bc:	b2a4      	uxth	r4, r4
		uint16_t status = usbd_ep_write_packet(usbd_dev, DATA_IN, buf, tx_len);  //  Returns the bytes sent.
 80039be:	462b      	mov	r3, r5
 80039c0:	4632      	mov	r2, r6
 80039c2:	2183      	movs	r1, #131	; 0x83
 80039c4:	4638      	mov	r0, r7
 80039c6:	f7fd feed 	bl	80017a4 <usbd_ep_write_packet>
		if (status != tx_len) { return 0; }  //  Stop if error.
 80039ca:	4285      	cmp	r5, r0
 80039cc:	d114      	bne.n	80039f8 <cdcadm_transmit+0x60>
		buf = &buf[tx_len];
 80039ce:	442e      	add	r6, r5
 80039d0:	e7ee      	b.n	80039b0 <cdcadm_transmit+0x18>
		return usbd_ep_write_packet(usbd_dev, DATA_IN, buf, len);  //  Returns the bytes sent.
 80039d2:	4613      	mov	r3, r2
 80039d4:	460a      	mov	r2, r1
 80039d6:	2183      	movs	r1, #131	; 0x83
 80039d8:	f7fd fee4 	bl	80017a4 <usbd_ep_write_packet>
 80039dc:	e00b      	b.n	80039f6 <cdcadm_transmit+0x5e>
	return len;
 80039de:	4620      	mov	r0, r4
 80039e0:	e009      	b.n	80039f6 <cdcadm_transmit+0x5e>
	if (!connected || !usbd_dev || !buf) { return -1; }
 80039e2:	f04f 30ff 	mov.w	r0, #4294967295	; 0xffffffff
 80039e6:	e006      	b.n	80039f6 <cdcadm_transmit+0x5e>
 80039e8:	f04f 30ff 	mov.w	r0, #4294967295	; 0xffffffff
 80039ec:	e003      	b.n	80039f6 <cdcadm_transmit+0x5e>
 80039ee:	f04f 30ff 	mov.w	r0, #4294967295	; 0xffffffff
 80039f2:	e000      	b.n	80039f6 <cdcadm_transmit+0x5e>
	if (len == 0) { return 0; }
 80039f4:	2000      	movs	r0, #0
}
 80039f6:	bdf8      	pop	{r3, r4, r5, r6, r7, pc}
		if (status != tx_len) { return 0; }  //  Stop if error.
 80039f8:	2000      	movs	r0, #0
 80039fa:	e7fc      	b.n	80039f6 <cdcadm_transmit+0x5e>
 80039fc:	2000072d 	.word	0x2000072d

08003a00 <cdcacm_data_rx_cb>:
) {
 8003a00:	b538      	push	{r3, r4, r5, lr}
 8003a02:	4605      	mov	r5, r0
	uint16_t len = usbd_ep_read_packet(usbd_dev, DATA_OUT, rx_buf, MAX_USB_PACKET_SIZE);
 8003a04:	2340      	movs	r3, #64	; 0x40
 8003a06:	4a0e      	ldr	r2, [pc, #56]	; (8003a40 <cdcacm_data_rx_cb+0x40>)
 8003a08:	2103      	movs	r1, #3
 8003a0a:	f7fd fed1 	bl	80017b0 <usbd_ep_read_packet>
    if (len == 0) { return; }
 8003a0e:	b1b0      	cbz	r0, 8003a3e <cdcacm_data_rx_cb+0x3e>
 8003a10:	4604      	mov	r4, r0
    uint16_t pos = (len < MAX_USB_PACKET_SIZE) ? len : MAX_USB_PACKET_SIZE;
 8003a12:	2840      	cmp	r0, #64	; 0x40
 8003a14:	bf28      	it	cs
 8003a16:	2440      	movcs	r4, #64	; 0x40
 8003a18:	b2a4      	uxth	r4, r4
    rx_buf[pos] = 0;
 8003a1a:	4b09      	ldr	r3, [pc, #36]	; (8003a40 <cdcacm_data_rx_cb+0x40>)
 8003a1c:	2200      	movs	r2, #0
 8003a1e:	551a      	strb	r2, [r3, r4]
	if (!connected) {
 8003a20:	4b08      	ldr	r3, [pc, #32]	; (8003a44 <cdcacm_data_rx_cb+0x44>)
 8003a22:	781b      	ldrb	r3, [r3, #0]
 8003a24:	b933      	cbnz	r3, 8003a34 <cdcacm_data_rx_cb+0x34>
		connected = 1;
 8003a26:	4b07      	ldr	r3, [pc, #28]	; (8003a44 <cdcacm_data_rx_cb+0x44>)
 8003a28:	2201      	movs	r2, #1
 8003a2a:	701a      	strb	r2, [r3, #0]
		if (connected_func) { connected_func(); }
 8003a2c:	4b06      	ldr	r3, [pc, #24]	; (8003a48 <cdcacm_data_rx_cb+0x48>)
 8003a2e:	681b      	ldr	r3, [r3, #0]
 8003a30:	b103      	cbz	r3, 8003a34 <cdcacm_data_rx_cb+0x34>
 8003a32:	4798      	blx	r3
	cdcadm_transmit(usbd_dev, rx_buf, pos);  //  Echo the packet.	
 8003a34:	4622      	mov	r2, r4
 8003a36:	4902      	ldr	r1, [pc, #8]	; (8003a40 <cdcacm_data_rx_cb+0x40>)
 8003a38:	4628      	mov	r0, r5
 8003a3a:	f7ff ffad 	bl	8003998 <cdcadm_transmit>
}
 8003a3e:	bd38      	pop	{r3, r4, r5, pc}
 8003a40:	20000528 	.word	0x20000528
 8003a44:	2000072d 	.word	0x2000072d
 8003a48:	20000524 	.word	0x20000524

08003a4c <cdc_setup>:

void cdc_setup(usbd_device* usbd_dev, connected_callback *connected_func0) {
 8003a4c:	b508      	push	{r3, lr}
	//  Setup the USB interface.
    //  debug_println("*** cdc_setup"); ////
	connected_func = connected_func0;
 8003a4e:	4b07      	ldr	r3, [pc, #28]	; (8003a6c <cdc_setup+0x20>)
 8003a50:	6019      	str	r1, [r3, #0]
	int status = aggregate_register_config_callback(usbd_dev, cdcacm_set_config);
 8003a52:	4907      	ldr	r1, [pc, #28]	; (8003a70 <cdc_setup+0x24>)
 8003a54:	f7ff fc02 	bl	800325c <aggregate_register_config_callback>
	if (status < 0) { debug_println("*** cdc_setup failed"); debug_flush(); }
 8003a58:	2800      	cmp	r0, #0
 8003a5a:	db00      	blt.n	8003a5e <cdc_setup+0x12>
}
 8003a5c:	bd08      	pop	{r3, pc}
	if (status < 0) { debug_println("*** cdc_setup failed"); debug_flush(); }
 8003a5e:	4805      	ldr	r0, [pc, #20]	; (8003a74 <cdc_setup+0x28>)
 8003a60:	f7fe ff06 	bl	8002870 <debug_println>
 8003a64:	f7fe ff2b 	bl	80028be <debug_flush>
}
 8003a68:	e7f8      	b.n	8003a5c <cdc_setup+0x10>
 8003a6a:	bf00      	nop
 8003a6c:	20000524 	.word	0x20000524
 8003a70:	080038a9 	.word	0x080038a9
 8003a74:	08004d28 	.word	0x08004d28

08003a78 <assert>:
    int status = aggregate_register_config_callback(usbd_dev, hf2_set_config);
    if (status < 0) { debug_println("*** hf2_setup failed"); }
}

static void assert(bool assertion, const char *msg) {
    if (assertion) { return; }
 8003a78:	b100      	cbz	r0, 8003a7c <assert+0x4>
 8003a7a:	4770      	bx	lr
static void assert(bool assertion, const char *msg) {
 8003a7c:	b510      	push	{r4, lr}
 8003a7e:	460c      	mov	r4, r1
    debug_print("*** ERROR: "); debug_println(msg); debug_force_flush();
 8003a80:	4804      	ldr	r0, [pc, #16]	; (8003a94 <assert+0x1c>)
 8003a82:	f7fe ff21 	bl	80028c8 <debug_print>
 8003a86:	4620      	mov	r0, r4
 8003a88:	f7fe fef2 	bl	8002870 <debug_println>
 8003a8c:	f7fe fe82 	bl	8002794 <debug_force_flush>
}
 8003a90:	bd10      	pop	{r4, pc}
 8003a92:	bf00      	nop
 8003a94:	08004d98 	.word	0x08004d98

08003a98 <hf2_set_config>:
static void hf2_set_config(usbd_device *usbd_dev, uint16_t wValue) {  (void)wValue;
 8003a98:	b510      	push	{r4, lr}
 8003a9a:	b082      	sub	sp, #8
 8003a9c:	4604      	mov	r4, r0
    LOG("hf2 set config");
 8003a9e:	480b      	ldr	r0, [pc, #44]	; (8003acc <hf2_set_config+0x34>)
 8003aa0:	f7fe fee6 	bl	8002870 <debug_println>
    debug_force_flush(); ////
 8003aa4:	f7fe fe76 	bl	8002794 <debug_force_flush>
    usbd_ep_setup(usbd_dev, HF2_IN, USB_ENDPOINT_ATTR_BULK, MAX_USB_PACKET_SIZE, hf2_data_tx_cb);
 8003aa8:	4b09      	ldr	r3, [pc, #36]	; (8003ad0 <hf2_set_config+0x38>)
 8003aaa:	9300      	str	r3, [sp, #0]
 8003aac:	2340      	movs	r3, #64	; 0x40
 8003aae:	2202      	movs	r2, #2
 8003ab0:	2182      	movs	r1, #130	; 0x82
 8003ab2:	4620      	mov	r0, r4
 8003ab4:	f7fd fe54 	bl	8001760 <usbd_ep_setup>
    usbd_ep_setup(usbd_dev, HF2_OUT, USB_ENDPOINT_ATTR_BULK, MAX_USB_PACKET_SIZE, hf2_data_rx_cb);
 8003ab8:	4b06      	ldr	r3, [pc, #24]	; (8003ad4 <hf2_set_config+0x3c>)
 8003aba:	9300      	str	r3, [sp, #0]
 8003abc:	2340      	movs	r3, #64	; 0x40
 8003abe:	2202      	movs	r2, #2
 8003ac0:	4611      	mov	r1, r2
 8003ac2:	4620      	mov	r0, r4
 8003ac4:	f7fd fe4c 	bl	8001760 <usbd_ep_setup>
}
 8003ac8:	b002      	add	sp, #8
 8003aca:	bd10      	pop	{r4, pc}
 8003acc:	08004f68 	.word	0x08004f68
 8003ad0:	08004175 	.word	0x08004175
 8003ad4:	080040b1 	.word	0x080040b1

08003ad8 <pokeSend>:
    uint8_t dataToSendFlag) {
 8003ad8:	b570      	push	{r4, r5, r6, lr}
 8003ada:	b082      	sub	sp, #8
 8003adc:	4605      	mov	r5, r0
 8003ade:	9101      	str	r1, [sp, #4]
 8003ae0:	4616      	mov	r6, r2
    memset(tx_buf, 0, sizeof(tx_buf));
 8003ae2:	2240      	movs	r2, #64	; 0x40
 8003ae4:	2100      	movs	r1, #0
 8003ae6:	4826      	ldr	r0, [pc, #152]	; (8003b80 <pokeSend+0xa8>)
 8003ae8:	f7fe fd70 	bl	80025cc <memset>
	__asm__("CPSID I\n");
 8003aec:	b672      	cpsid	i
    if (dataToSendLength) {
 8003aee:	9b01      	ldr	r3, [sp, #4]
 8003af0:	b1e3      	cbz	r3, 8003b2c <pokeSend+0x54>
        int flag = dataToSendFlag;
 8003af2:	4633      	mov	r3, r6
        if ((int) dataToSendLength < s) {
 8003af4:	9a01      	ldr	r2, [sp, #4]
 8003af6:	2a3e      	cmp	r2, #62	; 0x3e
 8003af8:	dc11      	bgt.n	8003b1e <pokeSend+0x46>
            s = dataToSendLength;
 8003afa:	9c01      	ldr	r4, [sp, #4]
        tx_buf[0] = flag | s;
 8003afc:	4323      	orrs	r3, r4
 8003afe:	4820      	ldr	r0, [pc, #128]	; (8003b80 <pokeSend+0xa8>)
 8003b00:	f800 3b01 	strb.w	r3, [r0], #1
        memcpy(tx_buf + 1, dataToSend, s);
 8003b04:	4622      	mov	r2, r4
 8003b06:	4629      	mov	r1, r5
 8003b08:	f7fe fd53 	bl	80025b2 <memcpy>
        dataToSend += s;
 8003b0c:	4425      	add	r5, r4
        dataToSendLength -= s;
 8003b0e:	9b01      	ldr	r3, [sp, #4]
 8003b10:	1b1b      	subs	r3, r3, r4
 8003b12:	9301      	str	r3, [sp, #4]
        sendIt = true;
 8003b14:	2301      	movs	r3, #1
	__asm__("CPSIE I\n");
 8003b16:	b662      	cpsie	i
    if (sendIt) {
 8003b18:	b95b      	cbnz	r3, 8003b32 <pokeSend+0x5a>
}
 8003b1a:	b002      	add	sp, #8
 8003b1c:	bd70      	pop	{r4, r5, r6, pc}
            if (flag == HF2_FLAG_CMDPKT_LAST)
 8003b1e:	2e40      	cmp	r6, #64	; 0x40
 8003b20:	d001      	beq.n	8003b26 <pokeSend+0x4e>
    int s = sizeof(tx_buf) - 1;  //  63
 8003b22:	243f      	movs	r4, #63	; 0x3f
 8003b24:	e7ea      	b.n	8003afc <pokeSend+0x24>
                flag = HF2_FLAG_CMDPKT_BODY;
 8003b26:	2300      	movs	r3, #0
    int s = sizeof(tx_buf) - 1;  //  63
 8003b28:	243f      	movs	r4, #63	; 0x3f
 8003b2a:	e7e7      	b.n	8003afc <pokeSend+0x24>
 8003b2c:	243f      	movs	r4, #63	; 0x3f
    bool sendIt = false;
 8003b2e:	2300      	movs	r3, #0
 8003b30:	e7f1      	b.n	8003b16 <pokeSend+0x3e>
        usbd_ep_write_packet(_usbd_dev, HF2_IN, tx_buf, len);
 8003b32:	2340      	movs	r3, #64	; 0x40
 8003b34:	4a12      	ldr	r2, [pc, #72]	; (8003b80 <pokeSend+0xa8>)
 8003b36:	2182      	movs	r1, #130	; 0x82
 8003b38:	4812      	ldr	r0, [pc, #72]	; (8003b84 <pokeSend+0xac>)
 8003b3a:	6800      	ldr	r0, [r0, #0]
 8003b3c:	f7fd fe32 	bl	80017a4 <usbd_ep_write_packet>
        if (dataToSendLength > 0) {
 8003b40:	9b01      	ldr	r3, [sp, #4]
 8003b42:	b19b      	cbz	r3, 8003b6c <pokeSend+0x94>
            remDataToSend = dataToSend;
 8003b44:	4b10      	ldr	r3, [pc, #64]	; (8003b88 <pokeSend+0xb0>)
 8003b46:	601d      	str	r5, [r3, #0]
            remDataToSendLength = dataToSendLength;
 8003b48:	9a01      	ldr	r2, [sp, #4]
 8003b4a:	4b10      	ldr	r3, [pc, #64]	; (8003b8c <pokeSend+0xb4>)
 8003b4c:	601a      	str	r2, [r3, #0]
            remDataToSendFlag = dataToSendFlag;
 8003b4e:	4b10      	ldr	r3, [pc, #64]	; (8003b90 <pokeSend+0xb8>)
 8003b50:	701e      	strb	r6, [r3, #0]
        if (s < 3) { dump_buffer("hf2 <<", tx_buf, s + 1); }
 8003b52:	2c02      	cmp	r4, #2
 8003b54:	dd0e      	ble.n	8003b74 <pokeSend+0x9c>
        else { debug_print("hf2 << "); debug_printhex(s + 1); debug_println(""); }
 8003b56:	480f      	ldr	r0, [pc, #60]	; (8003b94 <pokeSend+0xbc>)
 8003b58:	f7fe feb6 	bl	80028c8 <debug_print>
 8003b5c:	1c60      	adds	r0, r4, #1
 8003b5e:	b2c0      	uxtb	r0, r0
 8003b60:	f7fe fec6 	bl	80028f0 <debug_printhex>
 8003b64:	480c      	ldr	r0, [pc, #48]	; (8003b98 <pokeSend+0xc0>)
 8003b66:	f7fe fe83 	bl	8002870 <debug_println>
}
 8003b6a:	e7d6      	b.n	8003b1a <pokeSend+0x42>
            remDataToSendLength = 0;  //  No more data to send.
 8003b6c:	4b07      	ldr	r3, [pc, #28]	; (8003b8c <pokeSend+0xb4>)
 8003b6e:	2200      	movs	r2, #0
 8003b70:	601a      	str	r2, [r3, #0]
 8003b72:	e7ee      	b.n	8003b52 <pokeSend+0x7a>
        if (s < 3) { dump_buffer("hf2 <<", tx_buf, s + 1); }
 8003b74:	1c62      	adds	r2, r4, #1
 8003b76:	4902      	ldr	r1, [pc, #8]	; (8003b80 <pokeSend+0xa8>)
 8003b78:	4808      	ldr	r0, [pc, #32]	; (8003b9c <pokeSend+0xc4>)
 8003b7a:	f7ff fbd1 	bl	8003320 <dump_buffer>
 8003b7e:	e7cc      	b.n	8003b1a <pokeSend+0x42>
 8003b80:	200005dc 	.word	0x200005dc
 8003b84:	2000056c 	.word	0x2000056c
 8003b88:	20000590 	.word	0x20000590
 8003b8c:	20000594 	.word	0x20000594
 8003b90:	20000730 	.word	0x20000730
 8003b94:	08004fb0 	.word	0x08004fb0
 8003b98:	08004608 	.word	0x08004608
 8003b9c:	08004fa8 	.word	0x08004fa8

08003ba0 <handle_flash_write>:
static void handle_flash_write(HF2_Buffer *pkt) {
 8003ba0:	e92d 4ff8 	stmdb	sp!, {r3, r4, r5, r6, r7, r8, r9, sl, fp, lr}
 8003ba4:	4605      	mov	r5, r0
    int sz = pkt->size;
 8003ba6:	8806      	ldrh	r6, [r0, #0]
    uint32_t target_addr = cmd->write_flash_page.target_addr;
 8003ba8:	f8d0 400a 	ldr.w	r4, [r0, #10]
    const uint8_t *data = (const uint8_t *) cmd->write_flash_page.data;
 8003bac:	f100 070e 	add.w	r7, r0, #14
    const char *valid = VALID_FLASH_ADDR(target_addr, HF2_PAGE_SIZE) ? " " : " !!! ";
 8003bb0:	f1b4 6f00 	cmp.w	r4, #134217728	; 0x8000000
 8003bb4:	d307      	bcc.n	8003bc6 <handle_flash_write+0x26>
 8003bb6:	f504 7280 	add.w	r2, r4, #256	; 0x100
 8003bba:	4b9b      	ldr	r3, [pc, #620]	; (8003e28 <handle_flash_write+0x288>)
 8003bbc:	429a      	cmp	r2, r3
 8003bbe:	d979      	bls.n	8003cb4 <handle_flash_write+0x114>
 8003bc0:	f8df 82d0 	ldr.w	r8, [pc, #720]	; 8003e94 <handle_flash_write+0x2f4>
 8003bc4:	e001      	b.n	8003bca <handle_flash_write+0x2a>
 8003bc6:	f8df 82cc 	ldr.w	r8, [pc, #716]	; 8003e94 <handle_flash_write+0x2f4>
    cmdId = cmd->command_id;
 8003bca:	f8d5 3002 	ldr.w	r3, [r5, #2]
 8003bce:	4a97      	ldr	r2, [pc, #604]	; (8003e2c <handle_flash_write+0x28c>)
 8003bd0:	6013      	str	r3, [r2, #0]
    if (cmdId != prevCmdId) { debug_print("hf2 >> flash "); debug_printhex_unsigned((size_t) target_addr); debug_print(valid); }  ////
 8003bd2:	4a97      	ldr	r2, [pc, #604]	; (8003e30 <handle_flash_write+0x290>)
 8003bd4:	6812      	ldr	r2, [r2, #0]
 8003bd6:	4293      	cmp	r3, r2
 8003bd8:	d06f      	beq.n	8003cba <handle_flash_write+0x11a>
 8003bda:	4896      	ldr	r0, [pc, #600]	; (8003e34 <handle_flash_write+0x294>)
 8003bdc:	f7fe fe74 	bl	80028c8 <debug_print>
 8003be0:	4620      	mov	r0, r4
 8003be2:	f7fe febd 	bl	8002960 <debug_printhex_unsigned>
 8003be6:	4640      	mov	r0, r8
 8003be8:	f7fe fe6e 	bl	80028c8 <debug_print>
    if (flush_count++) { debug_flush(); }
 8003bec:	4a92      	ldr	r2, [pc, #584]	; (8003e38 <handle_flash_write+0x298>)
 8003bee:	7813      	ldrb	r3, [r2, #0]
 8003bf0:	1c59      	adds	r1, r3, #1
 8003bf2:	7011      	strb	r1, [r2, #0]
 8003bf4:	2b00      	cmp	r3, #0
 8003bf6:	d16a      	bne.n	8003cce <handle_flash_write+0x12e>
    prevCmdId = cmdId; 
 8003bf8:	4b8c      	ldr	r3, [pc, #560]	; (8003e2c <handle_flash_write+0x28c>)
 8003bfa:	681a      	ldr	r2, [r3, #0]
 8003bfc:	4b8c      	ldr	r3, [pc, #560]	; (8003e30 <handle_flash_write+0x290>)
 8003bfe:	601a      	str	r2, [r3, #0]
    send_hf2_response(pkt, 0);
 8003c00:	2100      	movs	r1, #0
 8003c02:	4628      	mov	r0, r5
 8003c04:	f000 fc74 	bl	80044f0 <send_hf2_response>
    const uint32_t old_app_start = (uint32_t) FLASH_ADDRESS(base_vector_table.application);  //  Bootloader will be staged here for Baseloader.
 8003c08:	4b8c      	ldr	r3, [pc, #560]	; (8003e3c <handle_flash_write+0x29c>)
 8003c0a:	691d      	ldr	r5, [r3, #16]
 8003c0c:	f425 757f 	bic.w	r5, r5, #1020	; 0x3fc
 8003c10:	f025 0503 	bic.w	r5, r5, #3
    const uint32_t old_app_start_offset = old_app_start - FLASH_BASE;  //  When writing Bootloader, shift by this offset so we don't overwrite the existing Bootloader.
 8003c14:	f105 4878 	add.w	r8, r5, #4160749568	; 0xf8000000
    if (new_app_start == 0 || target_addr == FLASH_BASE) {
 8003c18:	4b89      	ldr	r3, [pc, #548]	; (8003e40 <handle_flash_write+0x2a0>)
 8003c1a:	681b      	ldr	r3, [r3, #0]
 8003c1c:	b113      	cbz	r3, 8003c24 <handle_flash_write+0x84>
 8003c1e:	f1b4 6f00 	cmp.w	r4, #134217728	; 0x8000000
 8003c22:	d118      	bne.n	8003c56 <handle_flash_write+0xb6>
        debug_println("find vector..."); debug_force_flush();
 8003c24:	4887      	ldr	r0, [pc, #540]	; (8003e44 <handle_flash_write+0x2a4>)
 8003c26:	f7fe fe23 	bl	8002870 <debug_println>
 8003c2a:	f7fe fdb3 	bl	8002794 <debug_force_flush>
        new_base_vector = NULL;
 8003c2e:	4b86      	ldr	r3, [pc, #536]	; (8003e48 <handle_flash_write+0x2a8>)
 8003c30:	2200      	movs	r2, #0
 8003c32:	601a      	str	r2, [r3, #0]
        new_app_start = (uint32_t) FLASH_ADDRESS(base_vector_table.application);
 8003c34:	4981      	ldr	r1, [pc, #516]	; (8003e3c <handle_flash_write+0x29c>)
 8003c36:	690b      	ldr	r3, [r1, #16]
 8003c38:	f423 727f 	bic.w	r2, r3, #1020	; 0x3fc
 8003c3c:	f022 0203 	bic.w	r2, r2, #3
 8003c40:	487f      	ldr	r0, [pc, #508]	; (8003e40 <handle_flash_write+0x2a0>)
 8003c42:	6002      	str	r2, [r0, #0]
        new_bootloader_size = (uint32_t) base_vector_table.application - FLASH_BASE;
 8003c44:	f103 4378 	add.w	r3, r3, #4160749568	; 0xf8000000
 8003c48:	4a80      	ldr	r2, [pc, #512]	; (8003e4c <handle_flash_write+0x2ac>)
 8003c4a:	6013      	str	r3, [r2, #0]
        new_baseloader_size = (uint32_t) base_vector_table.baseloader_end - FLASH_BASE;
 8003c4c:	68cb      	ldr	r3, [r1, #12]
 8003c4e:	f103 4378 	add.w	r3, r3, #4160749568	; 0xf8000000
 8003c52:	4a7f      	ldr	r2, [pc, #508]	; (8003e50 <handle_flash_write+0x2b0>)
 8003c54:	6013      	str	r3, [r2, #0]
    if (!new_base_vector && IS_VALID_BASE_VECTOR_TABLE(old_app_start)) {
 8003c56:	4b7c      	ldr	r3, [pc, #496]	; (8003e48 <handle_flash_write+0x2a8>)
 8003c58:	681b      	ldr	r3, [r3, #0]
 8003c5a:	2b00      	cmp	r3, #0
 8003c5c:	d03a      	beq.n	8003cd4 <handle_flash_write+0x134>
    if (target_addr < new_app_start) {  //  If writing Bootloader Page...
 8003c5e:	4b78      	ldr	r3, [pc, #480]	; (8003e40 <handle_flash_write+0x2a0>)
 8003c60:	681b      	ldr	r3, [r3, #0]
 8003c62:	42a3      	cmp	r3, r4
 8003c64:	d975      	bls.n	8003d52 <handle_flash_write+0x1b2>
        target_addr += old_app_start_offset;
 8003c66:	4444      	add	r4, r8
        if (!VALID_FLASH_ADDR(target_addr, HF2_PAGE_SIZE)) { debug_print("*** ERROR: Invalid addr "); debug_printhex_unsigned(target_addr); debug_println(""); debug_force_flush(); }
 8003c68:	f1b4 6f00 	cmp.w	r4, #134217728	; 0x8000000
 8003c6c:	d304      	bcc.n	8003c78 <handle_flash_write+0xd8>
 8003c6e:	f504 7280 	add.w	r2, r4, #256	; 0x100
 8003c72:	4b6d      	ldr	r3, [pc, #436]	; (8003e28 <handle_flash_write+0x288>)
 8003c74:	429a      	cmp	r2, r3
 8003c76:	d90a      	bls.n	8003c8e <handle_flash_write+0xee>
 8003c78:	4876      	ldr	r0, [pc, #472]	; (8003e54 <handle_flash_write+0x2b4>)
 8003c7a:	f7fe fe25 	bl	80028c8 <debug_print>
 8003c7e:	4620      	mov	r0, r4
 8003c80:	f7fe fe6e 	bl	8002960 <debug_printhex_unsigned>
 8003c84:	4874      	ldr	r0, [pc, #464]	; (8003e58 <handle_flash_write+0x2b8>)
 8003c86:	f7fe fdf3 	bl	8002870 <debug_println>
 8003c8a:	f7fe fd83 	bl	8002794 <debug_force_flush>
    checkDataSize(write_flash_page, HF2_PAGE_SIZE);
 8003c8e:	4973      	ldr	r1, [pc, #460]	; (8003e5c <handle_flash_write+0x2bc>)
 8003c90:	f5b6 7f86 	cmp.w	r6, #268	; 0x10c
 8003c94:	bf14      	ite	ne
 8003c96:	2000      	movne	r0, #0
 8003c98:	2001      	moveq	r0, #1
 8003c9a:	f7ff feed 	bl	8003a78 <assert>
    if (VALID_FLASH_ADDR(target_addr, HF2_PAGE_SIZE)) {
 8003c9e:	f1b4 6f00 	cmp.w	r4, #134217728	; 0x8000000
 8003ca2:	d305      	bcc.n	8003cb0 <handle_flash_write+0x110>
 8003ca4:	f504 7280 	add.w	r2, r4, #256	; 0x100
 8003ca8:	4b5f      	ldr	r3, [pc, #380]	; (8003e28 <handle_flash_write+0x288>)
 8003caa:	429a      	cmp	r2, r3
 8003cac:	f240 80b4 	bls.w	8003e18 <handle_flash_write+0x278>
}
 8003cb0:	e8bd 8ff8 	ldmia.w	sp!, {r3, r4, r5, r6, r7, r8, r9, sl, fp, pc}
    const char *valid = VALID_FLASH_ADDR(target_addr, HF2_PAGE_SIZE) ? " " : " !!! ";
 8003cb4:	f8df 81e0 	ldr.w	r8, [pc, #480]	; 8003e98 <handle_flash_write+0x2f8>
 8003cb8:	e787      	b.n	8003bca <handle_flash_write+0x2a>
    else { debug_print(">> "); debug_printhex_unsigned((size_t) target_addr); debug_print(valid); }
 8003cba:	4869      	ldr	r0, [pc, #420]	; (8003e60 <handle_flash_write+0x2c0>)
 8003cbc:	f7fe fe04 	bl	80028c8 <debug_print>
 8003cc0:	4620      	mov	r0, r4
 8003cc2:	f7fe fe4d 	bl	8002960 <debug_printhex_unsigned>
 8003cc6:	4640      	mov	r0, r8
 8003cc8:	f7fe fdfe 	bl	80028c8 <debug_print>
 8003ccc:	e78e      	b.n	8003bec <handle_flash_write+0x4c>
    if (flush_count++) { debug_flush(); }
 8003cce:	f7fe fdf6 	bl	80028be <debug_flush>
 8003cd2:	e791      	b.n	8003bf8 <handle_flash_write+0x58>
    if (!new_base_vector && IS_VALID_BASE_VECTOR_TABLE(old_app_start)) {
 8003cd4:	4b59      	ldr	r3, [pc, #356]	; (8003e3c <handle_flash_write+0x29c>)
 8003cd6:	f3c3 0309 	ubfx	r3, r3, #0, #10
 8003cda:	432b      	orrs	r3, r5
 8003cdc:	6819      	ldr	r1, [r3, #0]
 8003cde:	4a61      	ldr	r2, [pc, #388]	; (8003e64 <handle_flash_write+0x2c4>)
 8003ce0:	4291      	cmp	r1, r2
 8003ce2:	d1bc      	bne.n	8003c5e <handle_flash_write+0xbe>
 8003ce4:	6959      	ldr	r1, [r3, #20]
 8003ce6:	4a60      	ldr	r2, [pc, #384]	; (8003e68 <handle_flash_write+0x2c8>)
 8003ce8:	4291      	cmp	r1, r2
 8003cea:	d1b8      	bne.n	8003c5e <handle_flash_write+0xbe>
        new_base_vector = BASE_VECTOR_TABLE(old_app_start);
 8003cec:	4a56      	ldr	r2, [pc, #344]	; (8003e48 <handle_flash_write+0x2a8>)
 8003cee:	6013      	str	r3, [r2, #0]
        new_app_start = (uint32_t) FLASH_ADDRESS(new_base_vector->application);
 8003cf0:	691a      	ldr	r2, [r3, #16]
 8003cf2:	f422 727f 	bic.w	r2, r2, #1020	; 0x3fc
 8003cf6:	f022 0203 	bic.w	r2, r2, #3
 8003cfa:	f8df 9144 	ldr.w	r9, [pc, #324]	; 8003e40 <handle_flash_write+0x2a0>
 8003cfe:	f8c9 2000 	str.w	r2, [r9]
        new_bootloader_size = new_app_start - FLASH_BASE;
 8003d02:	f102 4278 	add.w	r2, r2, #4160749568	; 0xf8000000
 8003d06:	f8df a144 	ldr.w	sl, [pc, #324]	; 8003e4c <handle_flash_write+0x2ac>
 8003d0a:	f8ca 2000 	str.w	r2, [sl]
        new_baseloader_size = (uint32_t) (new_base_vector->baseloader_end) - FLASH_BASE;
 8003d0e:	68db      	ldr	r3, [r3, #12]
 8003d10:	f103 4378 	add.w	r3, r3, #4160749568	; 0xf8000000
 8003d14:	f8df b138 	ldr.w	fp, [pc, #312]	; 8003e50 <handle_flash_write+0x2b0>
 8003d18:	f8cb 3000 	str.w	r3, [fp]
        debug_print("found vector, app "); debug_printhex_unsigned(new_app_start);
 8003d1c:	4853      	ldr	r0, [pc, #332]	; (8003e6c <handle_flash_write+0x2cc>)
 8003d1e:	f7fe fdd3 	bl	80028c8 <debug_print>
 8003d22:	f8d9 0000 	ldr.w	r0, [r9]
 8003d26:	f7fe fe1b 	bl	8002960 <debug_printhex_unsigned>
        debug_print(", boot size "); debug_printhex_unsigned(new_bootloader_size);
 8003d2a:	4851      	ldr	r0, [pc, #324]	; (8003e70 <handle_flash_write+0x2d0>)
 8003d2c:	f7fe fdcc 	bl	80028c8 <debug_print>
 8003d30:	f8da 0000 	ldr.w	r0, [sl]
 8003d34:	f7fe fe14 	bl	8002960 <debug_printhex_unsigned>
        debug_print(", base size "); debug_printhex_unsigned(new_baseloader_size);
 8003d38:	484e      	ldr	r0, [pc, #312]	; (8003e74 <handle_flash_write+0x2d4>)
 8003d3a:	f7fe fdc5 	bl	80028c8 <debug_print>
 8003d3e:	f8db 0000 	ldr.w	r0, [fp]
 8003d42:	f7fe fe0d 	bl	8002960 <debug_printhex_unsigned>
        debug_println(""); debug_force_flush();
 8003d46:	4844      	ldr	r0, [pc, #272]	; (8003e58 <handle_flash_write+0x2b8>)
 8003d48:	f7fe fd92 	bl	8002870 <debug_println>
 8003d4c:	f7fe fd22 	bl	8002794 <debug_force_flush>
 8003d50:	e785      	b.n	8003c5e <handle_flash_write+0xbe>
    }  else if (new_base_vector && (target_addr == new_app_start)) {  //  When we are finished writing the Bootloader and now writing first Application Page...
 8003d52:	4a3d      	ldr	r2, [pc, #244]	; (8003e48 <handle_flash_write+0x2a8>)
 8003d54:	6812      	ldr	r2, [r2, #0]
 8003d56:	2a00      	cmp	r2, #0
 8003d58:	d099      	beq.n	8003c8e <handle_flash_write+0xee>
 8003d5a:	42a3      	cmp	r3, r4
 8003d5c:	d197      	bne.n	8003c8e <handle_flash_write+0xee>
        debug_println("wrote bootloader"); debug_force_flush();
 8003d5e:	4846      	ldr	r0, [pc, #280]	; (8003e78 <handle_flash_write+0x2d8>)
 8003d60:	f7fe fd86 	bl	8002870 <debug_println>
 8003d64:	f7fe fd16 	bl	8002794 <debug_force_flush>
        flash_flush();  //  Flush the last Bootloader page.
 8003d68:	f000 faf2 	bl	8004350 <flash_flush>
        debug_println("compare bootloader..."); debug_force_flush();
 8003d6c:	4843      	ldr	r0, [pc, #268]	; (8003e7c <handle_flash_write+0x2dc>)
 8003d6e:	f7fe fd7f 	bl	8002870 <debug_println>
 8003d72:	f7fe fd0f 	bl	8002794 <debug_force_flush>
        int bootloader_changed = memcmp((void *) old_app_start, (void *) FLASH_BASE, new_bootloader_size);
 8003d76:	4b35      	ldr	r3, [pc, #212]	; (8003e4c <handle_flash_write+0x2ac>)
 8003d78:	681a      	ldr	r2, [r3, #0]
 8003d7a:	f04f 6100 	mov.w	r1, #134217728	; 0x8000000
 8003d7e:	4628      	mov	r0, r5
 8003d80:	f7fe fc07 	bl	8002592 <memcmp>
        if (bootloader_changed) {
 8003d84:	b990      	cbnz	r0, 8003dac <handle_flash_write+0x20c>
        debug_print("bootloader identical "); debug_printhex_unsigned(old_app_start);
 8003d86:	483e      	ldr	r0, [pc, #248]	; (8003e80 <handle_flash_write+0x2e0>)
 8003d88:	f7fe fd9e 	bl	80028c8 <debug_print>
 8003d8c:	4628      	mov	r0, r5
 8003d8e:	f7fe fde7 	bl	8002960 <debug_printhex_unsigned>
        debug_print(", size "); debug_printhex_unsigned(new_bootloader_size);
 8003d92:	483c      	ldr	r0, [pc, #240]	; (8003e84 <handle_flash_write+0x2e4>)
 8003d94:	f7fe fd98 	bl	80028c8 <debug_print>
 8003d98:	4b2c      	ldr	r3, [pc, #176]	; (8003e4c <handle_flash_write+0x2ac>)
 8003d9a:	6818      	ldr	r0, [r3, #0]
 8003d9c:	f7fe fde0 	bl	8002960 <debug_printhex_unsigned>
        debug_println(""); debug_force_flush();
 8003da0:	482d      	ldr	r0, [pc, #180]	; (8003e58 <handle_flash_write+0x2b8>)
 8003da2:	f7fe fd65 	bl	8002870 <debug_println>
 8003da6:	f7fe fcf5 	bl	8002794 <debug_force_flush>
 8003daa:	e770      	b.n	8003c8e <handle_flash_write+0xee>
            debug_println("bootloader changed"); debug_force_flush();
 8003dac:	4836      	ldr	r0, [pc, #216]	; (8003e88 <handle_flash_write+0x2e8>)
 8003dae:	f7fe fd5f 	bl	8002870 <debug_println>
 8003db2:	f7fe fcef 	bl	8002794 <debug_force_flush>
            uint32_t new_baseloader_addr = target_addr + old_app_start_offset;
 8003db6:	4444      	add	r4, r8
            debug_print("copy baseloader to "); debug_printhex_unsigned(new_baseloader_addr); 
 8003db8:	4834      	ldr	r0, [pc, #208]	; (8003e8c <handle_flash_write+0x2ec>)
 8003dba:	f7fe fd85 	bl	80028c8 <debug_print>
 8003dbe:	4620      	mov	r0, r4
 8003dc0:	f7fe fdce 	bl	8002960 <debug_printhex_unsigned>
            debug_print(", size "); debug_printhex_unsigned(new_baseloader_size);
 8003dc4:	f8df 80bc 	ldr.w	r8, [pc, #188]	; 8003e84 <handle_flash_write+0x2e4>
 8003dc8:	4640      	mov	r0, r8
 8003dca:	f7fe fd7d 	bl	80028c8 <debug_print>
 8003dce:	4e20      	ldr	r6, [pc, #128]	; (8003e50 <handle_flash_write+0x2b0>)
 8003dd0:	6830      	ldr	r0, [r6, #0]
 8003dd2:	f7fe fdc5 	bl	8002960 <debug_printhex_unsigned>
            debug_println(""); debug_force_flush();
 8003dd6:	4f20      	ldr	r7, [pc, #128]	; (8003e58 <handle_flash_write+0x2b8>)
 8003dd8:	4638      	mov	r0, r7
 8003dda:	f7fe fd49 	bl	8002870 <debug_println>
 8003dde:	f7fe fcd9 	bl	8002794 <debug_force_flush>
            flash_write(new_baseloader_addr, (const uint8_t *) old_app_start, new_baseloader_size);
 8003de2:	6832      	ldr	r2, [r6, #0]
 8003de4:	4629      	mov	r1, r5
 8003de6:	4620      	mov	r0, r4
 8003de8:	f000 fb00 	bl	80043ec <flash_write>
            flash_flush();
 8003dec:	f000 fab0 	bl	8004350 <flash_flush>
            debug_print("restart to baseloader "); debug_printhex_unsigned(new_baseloader_addr);
 8003df0:	4827      	ldr	r0, [pc, #156]	; (8003e90 <handle_flash_write+0x2f0>)
 8003df2:	f7fe fd69 	bl	80028c8 <debug_print>
 8003df6:	4620      	mov	r0, r4
 8003df8:	f7fe fdb2 	bl	8002960 <debug_printhex_unsigned>
            debug_print(", size "); debug_printhex_unsigned(new_baseloader_size);
 8003dfc:	4640      	mov	r0, r8
 8003dfe:	f7fe fd63 	bl	80028c8 <debug_print>
 8003e02:	6830      	ldr	r0, [r6, #0]
 8003e04:	f7fe fdac 	bl	8002960 <debug_printhex_unsigned>
            debug_println(""); debug_force_flush();
 8003e08:	4638      	mov	r0, r7
 8003e0a:	f7fe fd31 	bl	8002870 <debug_println>
 8003e0e:	f7fe fcc1 	bl	8002794 <debug_force_flush>
            boot_target_manifest_bootloader();  //  Never returns.
 8003e12:	f7ff f931 	bl	8003078 <boot_target_manifest_bootloader>
            return;
 8003e16:	e74b      	b.n	8003cb0 <handle_flash_write+0x110>
        flash_write(target_addr, data, HF2_PAGE_SIZE);
 8003e18:	f44f 7280 	mov.w	r2, #256	; 0x100
 8003e1c:	4639      	mov	r1, r7
 8003e1e:	4620      	mov	r0, r4
 8003e20:	f000 fae4 	bl	80043ec <flash_write>
 8003e24:	e744      	b.n	8003cb0 <handle_flash_write+0x110>
 8003e26:	bf00      	nop
 8003e28:	08010000 	.word	0x08010000
 8003e2c:	20000570 	.word	0x20000570
 8003e30:	2000058c 	.word	0x2000058c
 8003e34:	08004e4c 	.word	0x08004e4c
 8003e38:	2000072f 	.word	0x2000072f
 8003e3c:	08000150 	.word	0x08000150
 8003e40:	20000578 	.word	0x20000578
 8003e44:	08004e5c 	.word	0x08004e5c
 8003e48:	2000057c 	.word	0x2000057c
 8003e4c:	20000584 	.word	0x20000584
 8003e50:	20000580 	.word	0x20000580
 8003e54:	08004ea0 	.word	0x08004ea0
 8003e58:	08004608 	.word	0x08004608
 8003e5c:	08004f48 	.word	0x08004f48
 8003e60:	080048a0 	.word	0x080048a0
 8003e64:	22051969 	.word	0x22051969
 8003e68:	19690522 	.word	0x19690522
 8003e6c:	08004e6c 	.word	0x08004e6c
 8003e70:	08004e80 	.word	0x08004e80
 8003e74:	08004e90 	.word	0x08004e90
 8003e78:	08004ebc 	.word	0x08004ebc
 8003e7c:	08004ed0 	.word	0x08004ed0
 8003e80:	08004f30 	.word	0x08004f30
 8003e84:	08004f10 	.word	0x08004f10
 8003e88:	08004ee8 	.word	0x08004ee8
 8003e8c:	08004efc 	.word	0x08004efc
 8003e90:	08004f18 	.word	0x08004f18
 8003e94:	08004e44 	.word	0x08004e44
 8003e98:	08004a1c 	.word	0x08004a1c

08003e9c <handle_command>:
static void handle_command(HF2_Buffer *pkt) {
 8003e9c:	b570      	push	{r4, r5, r6, lr}
 8003e9e:	4604      	mov	r4, r0
	if (!connected) {
 8003ea0:	4b73      	ldr	r3, [pc, #460]	; (8004070 <handle_command+0x1d4>)
 8003ea2:	781b      	ldrb	r3, [r3, #0]
 8003ea4:	b933      	cbnz	r3, 8003eb4 <handle_command+0x18>
		connected = 1;
 8003ea6:	4b72      	ldr	r3, [pc, #456]	; (8004070 <handle_command+0x1d4>)
 8003ea8:	2201      	movs	r2, #1
 8003eaa:	701a      	strb	r2, [r3, #0]
		if (connected_func) { connected_func(); }
 8003eac:	4b71      	ldr	r3, [pc, #452]	; (8004074 <handle_command+0x1d8>)
 8003eae:	681b      	ldr	r3, [r3, #0]
 8003eb0:	b103      	cbz	r3, 8003eb4 <handle_command+0x18>
 8003eb2:	4798      	blx	r3
    uint32_t cmdId = cmd->command_id;
 8003eb4:	f8d4 5002 	ldr.w	r5, [r4, #2]
    int sz = pkt->size;
 8003eb8:	8826      	ldrh	r6, [r4, #0]
    resp->tag = cmd->tag;
 8003eba:	88e3      	ldrh	r3, [r4, #6]
 8003ebc:	8063      	strh	r3, [r4, #2]
    resp->status16 = HF2_STATUS_OK;  //  Default status is OK.
 8003ebe:	2300      	movs	r3, #0
 8003ec0:	7123      	strb	r3, [r4, #4]
 8003ec2:	7163      	strb	r3, [r4, #5]
    switch (cmdId) {
 8003ec4:	1e6b      	subs	r3, r5, #1
 8003ec6:	2b07      	cmp	r3, #7
 8003ec8:	f200 80be 	bhi.w	8004048 <handle_command+0x1ac>
 8003ecc:	e8df f003 	tbb	[pc, r3]
 8003ed0:	897a3204 	.word	0x897a3204
 8003ed4:	96bc6555 	.word	0x96bc6555
        case HF2_CMD_BININFO: {  debug_println("hf2 >> bininfo");
 8003ed8:	4867      	ldr	r0, [pc, #412]	; (8004078 <handle_command+0x1dc>)
 8003eda:	f7fe fcc9 	bl	8002870 <debug_println>
            assert(sizeof(resp->bininfo) < HF2_MINI_BUF_SIZE, "hf2 buf too small");
 8003ede:	4967      	ldr	r1, [pc, #412]	; (800407c <handle_command+0x1e0>)
 8003ee0:	2001      	movs	r0, #1
 8003ee2:	f7ff fdc9 	bl	8003a78 <assert>
            resp->bininfo.mode = (boot_target_get_startup_mode() == BOOTLOADER_MODE) ?                        
 8003ee6:	f7fe ffeb 	bl	8002ec0 <boot_target_get_startup_mode>
                HF2_MODE_BOOTLOADER :
 8003eea:	2802      	cmp	r0, #2
 8003eec:	d000      	beq.n	8003ef0 <handle_command+0x54>
 8003eee:	2502      	movs	r5, #2
            resp->bininfo.mode = (boot_target_get_startup_mode() == BOOTLOADER_MODE) ?                        
 8003ef0:	f8c4 5006 	str.w	r5, [r4, #6]
            resp->bininfo.flash_page_size = HF2_PAGE_SIZE;  //  Previously 128 * 1024
 8003ef4:	2300      	movs	r3, #0
 8003ef6:	72a3      	strb	r3, [r4, #10]
 8003ef8:	2201      	movs	r2, #1
 8003efa:	72e2      	strb	r2, [r4, #11]
 8003efc:	7323      	strb	r3, [r4, #12]
 8003efe:	7363      	strb	r3, [r4, #13]
            resp->bininfo.flash_num_pages = FLASH_SIZE_OVERRIDE / HF2_PAGE_SIZE;
 8003f00:	73a3      	strb	r3, [r4, #14]
 8003f02:	73e2      	strb	r2, [r4, #15]
 8003f04:	7423      	strb	r3, [r4, #16]
 8003f06:	7463      	strb	r3, [r4, #17]
            resp->bininfo.max_message_size = HF2_BUF_SIZE;  //  Previously sizeof(pkt->buf);
 8003f08:	2240      	movs	r2, #64	; 0x40
 8003f0a:	74a2      	strb	r2, [r4, #18]
 8003f0c:	2204      	movs	r2, #4
 8003f0e:	74e2      	strb	r2, [r4, #19]
 8003f10:	7523      	strb	r3, [r4, #20]
 8003f12:	7563      	strb	r3, [r4, #21]
            resp->bininfo.uf2_family = UF2_FAMILY;
 8003f14:	2372      	movs	r3, #114	; 0x72
 8003f16:	75a3      	strb	r3, [r4, #22]
 8003f18:	2310      	movs	r3, #16
 8003f1a:	75e3      	strb	r3, [r4, #23]
 8003f1c:	f06f 031d 	mvn.w	r3, #29
 8003f20:	7623      	strb	r3, [r4, #24]
 8003f22:	235e      	movs	r3, #94	; 0x5e
 8003f24:	7663      	strb	r3, [r4, #25]
            send_hf2_response(pkt, sizeof(resp->bininfo)); debug_force_flush(); ////
 8003f26:	2114      	movs	r1, #20
 8003f28:	4620      	mov	r0, r4
 8003f2a:	f000 fae1 	bl	80044f0 <send_hf2_response>
 8003f2e:	f7fe fc31 	bl	8002794 <debug_force_flush>
}
 8003f32:	bd70      	pop	{r4, r5, r6, pc}
        case HF2_CMD_INFO: { debug_println("hf2 >> info");
 8003f34:	4852      	ldr	r0, [pc, #328]	; (8004080 <handle_command+0x1e4>)
 8003f36:	f7fe fc9b 	bl	8002870 <debug_println>
            int info_size = strlen(infoUf2File);
 8003f3a:	4e52      	ldr	r6, [pc, #328]	; (8004084 <handle_command+0x1e8>)
 8003f3c:	4630      	mov	r0, r6
 8003f3e:	f7fe fb50 	bl	80025e2 <strlen>
            assert(info_size > 0, "empty hf2 info");
 8003f42:	4605      	mov	r5, r0
 8003f44:	4950      	ldr	r1, [pc, #320]	; (8004088 <handle_command+0x1ec>)
 8003f46:	2800      	cmp	r0, #0
 8003f48:	bfd4      	ite	le
 8003f4a:	2000      	movle	r0, #0
 8003f4c:	2001      	movgt	r0, #1
 8003f4e:	f7ff fd93 	bl	8003a78 <assert>
            assert((info_size + 4) < (int) HF2_MINI_BUF_SIZE, "hf2 buf too small");
 8003f52:	1d28      	adds	r0, r5, #4
 8003f54:	4949      	ldr	r1, [pc, #292]	; (800407c <handle_command+0x1e0>)
 8003f56:	2858      	cmp	r0, #88	; 0x58
 8003f58:	bfcc      	ite	gt
 8003f5a:	2000      	movgt	r0, #0
 8003f5c:	2001      	movle	r0, #1
 8003f5e:	f7ff fd8b 	bl	8003a78 <assert>
            memcpy(pkt->resp.data8, infoUf2File, info_size);
 8003f62:	462a      	mov	r2, r5
 8003f64:	4631      	mov	r1, r6
 8003f66:	1da0      	adds	r0, r4, #6
 8003f68:	f7fe fb23 	bl	80025b2 <memcpy>
            send_hf2_response(pkt, info_size); debug_force_flush(); ////
 8003f6c:	4629      	mov	r1, r5
 8003f6e:	4620      	mov	r0, r4
 8003f70:	f000 fabe 	bl	80044f0 <send_hf2_response>
 8003f74:	f7fe fc0e 	bl	8002794 <debug_force_flush>
            return;
 8003f78:	e7db      	b.n	8003f32 <handle_command+0x96>
        case HF2_CMD_START_FLASH: { debug_println("hf2 >> start");
 8003f7a:	4844      	ldr	r0, [pc, #272]	; (800408c <handle_command+0x1f0>)
 8003f7c:	f7fe fc78 	bl	8002870 <debug_println>
            send_hf2_response(pkt, 0); debug_force_flush(); ////            
 8003f80:	2100      	movs	r1, #0
 8003f82:	4620      	mov	r0, r4
 8003f84:	f000 fab4 	bl	80044f0 <send_hf2_response>
 8003f88:	f7fe fc04 	bl	8002794 <debug_force_flush>
            if (boot_target_get_startup_mode() == APPLICATION_MODE) { 
 8003f8c:	f7fe ff98 	bl	8002ec0 <boot_target_get_startup_mode>
 8003f90:	2801      	cmp	r0, #1
 8003f92:	d1ce      	bne.n	8003f32 <handle_command+0x96>
                boot_target_manifest_bootloader();  //  Never returns.
 8003f94:	f7ff f870 	bl	8003078 <boot_target_manifest_bootloader>
 8003f98:	e7cb      	b.n	8003f32 <handle_command+0x96>
            if (boot_target_get_startup_mode() == APPLICATION_MODE) { debug_println("hf2 >> flash");  debug_force_flush(); ////
 8003f9a:	f7fe ff91 	bl	8002ec0 <boot_target_get_startup_mode>
 8003f9e:	2801      	cmp	r0, #1
 8003fa0:	d003      	beq.n	8003faa <handle_command+0x10e>
            handle_flash_write(pkt);
 8003fa2:	4620      	mov	r0, r4
 8003fa4:	f7ff fdfc 	bl	8003ba0 <handle_flash_write>
            return;
 8003fa8:	e7c3      	b.n	8003f32 <handle_command+0x96>
            if (boot_target_get_startup_mode() == APPLICATION_MODE) { debug_println("hf2 >> flash");  debug_force_flush(); ////
 8003faa:	4839      	ldr	r0, [pc, #228]	; (8004090 <handle_command+0x1f4>)
 8003fac:	f7fe fc60 	bl	8002870 <debug_println>
 8003fb0:	f7fe fbf0 	bl	8002794 <debug_force_flush>
                restart_request = BOOTLOADER_MODE; 
 8003fb4:	4b37      	ldr	r3, [pc, #220]	; (8004094 <handle_command+0x1f8>)
 8003fb6:	2202      	movs	r2, #2
 8003fb8:	701a      	strb	r2, [r3, #0]
                send_hf2_response(pkt, 0);
 8003fba:	2100      	movs	r1, #0
 8003fbc:	4620      	mov	r0, r4
 8003fbe:	f000 fa97 	bl	80044f0 <send_hf2_response>
                return;
 8003fc2:	e7b6      	b.n	8003f32 <handle_command+0x96>
        case HF2_CMD_RESET_INTO_APP: { debug_println("hf2 >> app");
 8003fc4:	4834      	ldr	r0, [pc, #208]	; (8004098 <handle_command+0x1fc>)
 8003fc6:	f7fe fc53 	bl	8002870 <debug_println>
            flash_flush();  //  Flush any pending flash writes.
 8003fca:	f000 f9c1 	bl	8004350 <flash_flush>
            restart_request = APPLICATION_MODE;
 8003fce:	4b31      	ldr	r3, [pc, #196]	; (8004094 <handle_command+0x1f8>)
 8003fd0:	2201      	movs	r2, #1
 8003fd2:	701a      	strb	r2, [r3, #0]
            send_hf2_response(pkt, 0); debug_force_flush(); ////
 8003fd4:	2100      	movs	r1, #0
 8003fd6:	4620      	mov	r0, r4
 8003fd8:	f000 fa8a 	bl	80044f0 <send_hf2_response>
 8003fdc:	f7fe fbda 	bl	8002794 <debug_force_flush>
            return;
 8003fe0:	e7a7      	b.n	8003f32 <handle_command+0x96>
            debug_println("hf2 >> boot");
 8003fe2:	482e      	ldr	r0, [pc, #184]	; (800409c <handle_command+0x200>)
 8003fe4:	f7fe fc44 	bl	8002870 <debug_println>
            restart_request = BOOTLOADER_MODE;
 8003fe8:	4b2a      	ldr	r3, [pc, #168]	; (8004094 <handle_command+0x1f8>)
 8003fea:	2202      	movs	r2, #2
 8003fec:	701a      	strb	r2, [r3, #0]
            send_hf2_response(pkt, 0);
 8003fee:	2100      	movs	r1, #0
 8003ff0:	4620      	mov	r0, r4
 8003ff2:	f000 fa7d 	bl	80044f0 <send_hf2_response>
            debug_force_flush(); ////
 8003ff6:	f7fe fbcd 	bl	8002794 <debug_force_flush>
            return;
 8003ffa:	e79a      	b.n	8003f32 <handle_command+0x96>
        case HF2_CMD_READ_WORDS: { debug_println("hf2 >> read"); debug_force_flush(); ////
 8003ffc:	4828      	ldr	r0, [pc, #160]	; (80040a0 <handle_command+0x204>)
 8003ffe:	f7fe fc37 	bl	8002870 <debug_println>
 8004002:	f7fe fbc7 	bl	8002794 <debug_force_flush>
            if (boot_target_get_startup_mode() == APPLICATION_MODE) { 
 8004006:	f7fe ff5b 	bl	8002ec0 <boot_target_get_startup_mode>
 800400a:	2801      	cmp	r0, #1
 800400c:	d014      	beq.n	8004038 <handle_command+0x19c>
            checkDataSize(read_words, 0);
 800400e:	4925      	ldr	r1, [pc, #148]	; (80040a4 <handle_command+0x208>)
 8004010:	2e10      	cmp	r6, #16
 8004012:	bf14      	ite	ne
 8004014:	2000      	movne	r0, #0
 8004016:	2001      	moveq	r0, #1
 8004018:	f7ff fd2e 	bl	8003a78 <assert>
            int num_words = cmd->read_words.num_words;
 800401c:	f8d4 500e 	ldr.w	r5, [r4, #14]
            memcpy(resp->data32, (void *)cmd->read_words.target_addr, num_words << 2);
 8004020:	00ad      	lsls	r5, r5, #2
 8004022:	462a      	mov	r2, r5
 8004024:	f8d4 100a 	ldr.w	r1, [r4, #10]
 8004028:	1da0      	adds	r0, r4, #6
 800402a:	f7fe fac2 	bl	80025b2 <memcpy>
            send_hf2_response(pkt, num_words << 2);
 800402e:	4629      	mov	r1, r5
 8004030:	4620      	mov	r0, r4
 8004032:	f000 fa5d 	bl	80044f0 <send_hf2_response>
            return;
 8004036:	e77c      	b.n	8003f32 <handle_command+0x96>
                restart_request = BOOTLOADER_MODE; 
 8004038:	4b16      	ldr	r3, [pc, #88]	; (8004094 <handle_command+0x1f8>)
 800403a:	2202      	movs	r2, #2
 800403c:	701a      	strb	r2, [r3, #0]
                send_hf2_response(pkt, 0);
 800403e:	2100      	movs	r1, #0
 8004040:	4620      	mov	r0, r4
 8004042:	f000 fa55 	bl	80044f0 <send_hf2_response>
                return;
 8004046:	e774      	b.n	8003f32 <handle_command+0x96>
        default: { debug_print("hf2 >> unknown "); debug_print_unsigned(cmdId); debug_println(""); debug_force_flush(); ////
 8004048:	4817      	ldr	r0, [pc, #92]	; (80040a8 <handle_command+0x20c>)
 800404a:	f7fe fc3d 	bl	80028c8 <debug_print>
 800404e:	4628      	mov	r0, r5
 8004050:	f7fe fc4a 	bl	80028e8 <debug_print_unsigned>
 8004054:	4815      	ldr	r0, [pc, #84]	; (80040ac <handle_command+0x210>)
 8004056:	f7fe fc0b 	bl	8002870 <debug_println>
 800405a:	f7fe fb9b 	bl	8002794 <debug_force_flush>
            resp->status16 = HF2_STATUS_INVALID_CMD;
 800405e:	2100      	movs	r1, #0
 8004060:	2301      	movs	r3, #1
 8004062:	7123      	strb	r3, [r4, #4]
 8004064:	7161      	strb	r1, [r4, #5]
    send_hf2_response(pkt, 0);
 8004066:	4620      	mov	r0, r4
 8004068:	f000 fa42 	bl	80044f0 <send_hf2_response>
 800406c:	e761      	b.n	8003f32 <handle_command+0x96>
 800406e:	bf00      	nop
 8004070:	2000072e 	.word	0x2000072e
 8004074:	20000574 	.word	0x20000574
 8004078:	08004db0 	.word	0x08004db0
 800407c:	08004dc0 	.word	0x08004dc0
 8004080:	08004dd4 	.word	0x08004dd4
 8004084:	08005058 	.word	0x08005058
 8004088:	08004de0 	.word	0x08004de0
 800408c:	08004df0 	.word	0x08004df0
 8004090:	08004e00 	.word	0x08004e00
 8004094:	20000731 	.word	0x20000731
 8004098:	08004e10 	.word	0x08004e10
 800409c:	08004e1c 	.word	0x08004e1c
 80040a0:	08004e28 	.word	0x08004e28
 80040a4:	08004f48 	.word	0x08004f48
 80040a8:	08004e34 	.word	0x08004e34
 80040ac:	08004608 	.word	0x08004608

080040b0 <hf2_data_rx_cb>:
static void hf2_data_rx_cb(usbd_device *usbd_dev, uint8_t ep) {
 80040b0:	b5f8      	push	{r3, r4, r5, r6, r7, lr}
    int len = usbd_ep_read_packet(usbd_dev, ep, rx_buf, sizeof(rx_buf));    
 80040b2:	2340      	movs	r3, #64	; 0x40
 80040b4:	4a28      	ldr	r2, [pc, #160]	; (8004158 <hf2_data_rx_cb+0xa8>)
 80040b6:	f7fd fb7b 	bl	80017b0 <usbd_ep_read_packet>
 80040ba:	4604      	mov	r4, r0
    rx_time = millis();
 80040bc:	f7fe fd86 	bl	8002bcc <millis>
 80040c0:	4b26      	ldr	r3, [pc, #152]	; (800415c <hf2_data_rx_cb+0xac>)
 80040c2:	6018      	str	r0, [r3, #0]
    if (len <= 0) return;
 80040c4:	2c00      	cmp	r4, #0
 80040c6:	d03f      	beq.n	8004148 <hf2_data_rx_cb+0x98>
    uint8_t tag = rx_buf[0];
 80040c8:	4b23      	ldr	r3, [pc, #140]	; (8004158 <hf2_data_rx_cb+0xa8>)
 80040ca:	781c      	ldrb	r4, [r3, #0]
    if (!pkt) {
 80040cc:	4b24      	ldr	r3, [pc, #144]	; (8004160 <hf2_data_rx_cb+0xb0>)
 80040ce:	681b      	ldr	r3, [r3, #0]
 80040d0:	b143      	cbz	r3, 80040e4 <hf2_data_rx_cb+0x34>
    usb_assert(pkt->size == 0 || !(tag & HF2_FLAG_SERIAL_OUT), bad_packet_message);
 80040d2:	4b23      	ldr	r3, [pc, #140]	; (8004160 <hf2_data_rx_cb+0xb0>)
 80040d4:	681b      	ldr	r3, [r3, #0]
 80040d6:	881b      	ldrh	r3, [r3, #0]
 80040d8:	b173      	cbz	r3, 80040f8 <hf2_data_rx_cb+0x48>
 80040da:	f014 0f80 	tst.w	r4, #128	; 0x80
 80040de:	d134      	bne.n	800414a <hf2_data_rx_cb+0x9a>
 80040e0:	2001      	movs	r0, #1
 80040e2:	e00a      	b.n	80040fa <hf2_data_rx_cb+0x4a>
        pkt = (boot_target_get_startup_mode() == BOOTLOADER_MODE) ?
 80040e4:	f7fe feec 	bl	8002ec0 <boot_target_get_startup_mode>
            &hf2_buffer :
 80040e8:	2802      	cmp	r0, #2
 80040ea:	d003      	beq.n	80040f4 <hf2_data_rx_cb+0x44>
 80040ec:	4a1d      	ldr	r2, [pc, #116]	; (8004164 <hf2_data_rx_cb+0xb4>)
        pkt = (boot_target_get_startup_mode() == BOOTLOADER_MODE) ?
 80040ee:	4b1c      	ldr	r3, [pc, #112]	; (8004160 <hf2_data_rx_cb+0xb0>)
 80040f0:	601a      	str	r2, [r3, #0]
 80040f2:	e7ee      	b.n	80040d2 <hf2_data_rx_cb+0x22>
            &hf2_buffer :
 80040f4:	4a1c      	ldr	r2, [pc, #112]	; (8004168 <hf2_data_rx_cb+0xb8>)
 80040f6:	e7fa      	b.n	80040ee <hf2_data_rx_cb+0x3e>
    usb_assert(pkt->size == 0 || !(tag & HF2_FLAG_SERIAL_OUT), bad_packet_message);
 80040f8:	2001      	movs	r0, #1
 80040fa:	4f1c      	ldr	r7, [pc, #112]	; (800416c <hf2_data_rx_cb+0xbc>)
 80040fc:	4639      	mov	r1, r7
 80040fe:	f7ff fcbb 	bl	8003a78 <assert>
 8004102:	f004 063f 	and.w	r6, r4, #63	; 0x3f
    usb_assert(pkt->size + size <= (int) HF2_BUF_SIZE /* Was sizeof(pkt->buf) */, bad_packet_message);
 8004106:	4d16      	ldr	r5, [pc, #88]	; (8004160 <hf2_data_rx_cb+0xb0>)
 8004108:	682b      	ldr	r3, [r5, #0]
 800410a:	8818      	ldrh	r0, [r3, #0]
 800410c:	4430      	add	r0, r6
 800410e:	4639      	mov	r1, r7
 8004110:	f5b0 6f88 	cmp.w	r0, #1088	; 0x440
 8004114:	bfcc      	ite	gt
 8004116:	2000      	movgt	r0, #0
 8004118:	2001      	movle	r0, #1
 800411a:	f7ff fcad 	bl	8003a78 <assert>
    memcpy(pkt->buf + pkt->size, rx_buf + 1, size);
 800411e:	682d      	ldr	r5, [r5, #0]
 8004120:	1ca8      	adds	r0, r5, #2
 8004122:	882b      	ldrh	r3, [r5, #0]
 8004124:	4632      	mov	r2, r6
 8004126:	4912      	ldr	r1, [pc, #72]	; (8004170 <hf2_data_rx_cb+0xc0>)
 8004128:	4418      	add	r0, r3
 800412a:	f7fe fa42 	bl	80025b2 <memcpy>
    pkt->size += size;
 800412e:	882a      	ldrh	r2, [r5, #0]
 8004130:	4432      	add	r2, r6
 8004132:	802a      	strh	r2, [r5, #0]
    if (tag != HF2_FLAG_CMDPKT_BODY) {
 8004134:	f014 04c0 	ands.w	r4, r4, #192	; 0xc0
 8004138:	d006      	beq.n	8004148 <hf2_data_rx_cb+0x98>
        if (tag == HF2_FLAG_CMDPKT_LAST) {
 800413a:	2c40      	cmp	r4, #64	; 0x40
 800413c:	d007      	beq.n	800414e <hf2_data_rx_cb+0x9e>
        pkt->size = 0;
 800413e:	4b08      	ldr	r3, [pc, #32]	; (8004160 <hf2_data_rx_cb+0xb0>)
 8004140:	681b      	ldr	r3, [r3, #0]
 8004142:	2200      	movs	r2, #0
 8004144:	701a      	strb	r2, [r3, #0]
 8004146:	705a      	strb	r2, [r3, #1]
}
 8004148:	bdf8      	pop	{r3, r4, r5, r6, r7, pc}
    usb_assert(pkt->size == 0 || !(tag & HF2_FLAG_SERIAL_OUT), bad_packet_message);
 800414a:	2000      	movs	r0, #0
 800414c:	e7d5      	b.n	80040fa <hf2_data_rx_cb+0x4a>
            handle_command(pkt);
 800414e:	4628      	mov	r0, r5
 8004150:	f7ff fea4 	bl	8003e9c <handle_command>
 8004154:	e7f3      	b.n	800413e <hf2_data_rx_cb+0x8e>
 8004156:	bf00      	nop
 8004158:	20000598 	.word	0x20000598
 800415c:	200005d8 	.word	0x200005d8
 8004160:	20000588 	.word	0x20000588
 8004164:	2000083c 	.word	0x2000083c
 8004168:	200047bc 	.word	0x200047bc
 800416c:	08004da4 	.word	0x08004da4
 8004170:	20000599 	.word	0x20000599

08004174 <hf2_data_tx_cb>:
static void hf2_data_tx_cb(usbd_device *usbd_dev, uint8_t ep) { (void)usbd_dev; (void)ep;
 8004174:	b508      	push	{r3, lr}
    if (remDataToSendLength > 0) {  //  If there is remaining data to be sent...
 8004176:	4b11      	ldr	r3, [pc, #68]	; (80041bc <hf2_data_tx_cb+0x48>)
 8004178:	681b      	ldr	r3, [r3, #0]
 800417a:	b94b      	cbnz	r3, 8004190 <hf2_data_tx_cb+0x1c>
    if (remDataToSendLength == 0) {  //  If there is no more data to be sent...
 800417c:	4b0f      	ldr	r3, [pc, #60]	; (80041bc <hf2_data_tx_cb+0x48>)
 800417e:	681b      	ldr	r3, [r3, #0]
 8004180:	b92b      	cbnz	r3, 800418e <hf2_data_tx_cb+0x1a>
        if (restart_request == BOOTLOADER_MODE) {  //  Restart to Bootloader Mode if requested.
 8004182:	4b0f      	ldr	r3, [pc, #60]	; (80041c0 <hf2_data_tx_cb+0x4c>)
 8004184:	781b      	ldrb	r3, [r3, #0]
 8004186:	2b02      	cmp	r3, #2
 8004188:	d00b      	beq.n	80041a2 <hf2_data_tx_cb+0x2e>
        } else if (restart_request == APPLICATION_MODE) {  //  Restart to Application Mode if requested.
 800418a:	2b01      	cmp	r3, #1
 800418c:	d00f      	beq.n	80041ae <hf2_data_tx_cb+0x3a>
}
 800418e:	bd08      	pop	{r3, pc}
        pokeSend(remDataToSend, remDataToSendLength, remDataToSendFlag);  //  Send it.
 8004190:	4b0a      	ldr	r3, [pc, #40]	; (80041bc <hf2_data_tx_cb+0x48>)
 8004192:	6819      	ldr	r1, [r3, #0]
 8004194:	4b0b      	ldr	r3, [pc, #44]	; (80041c4 <hf2_data_tx_cb+0x50>)
 8004196:	781a      	ldrb	r2, [r3, #0]
 8004198:	4b0b      	ldr	r3, [pc, #44]	; (80041c8 <hf2_data_tx_cb+0x54>)
 800419a:	6818      	ldr	r0, [r3, #0]
 800419c:	f7ff fc9c 	bl	8003ad8 <pokeSend>
 80041a0:	e7ec      	b.n	800417c <hf2_data_tx_cb+0x8>
            restart_request = UNKNOWN_MODE;
 80041a2:	4b07      	ldr	r3, [pc, #28]	; (80041c0 <hf2_data_tx_cb+0x4c>)
 80041a4:	2200      	movs	r2, #0
 80041a6:	701a      	strb	r2, [r3, #0]
            boot_target_manifest_bootloader();  //  Never returns.
 80041a8:	f7fe ff66 	bl	8003078 <boot_target_manifest_bootloader>
 80041ac:	e7ef      	b.n	800418e <hf2_data_tx_cb+0x1a>
            restart_request = UNKNOWN_MODE;
 80041ae:	4b04      	ldr	r3, [pc, #16]	; (80041c0 <hf2_data_tx_cb+0x4c>)
 80041b0:	2200      	movs	r2, #0
 80041b2:	701a      	strb	r2, [r3, #0]
            boot_target_manifest_app();  //  Never returns.
 80041b4:	f7fe ff50 	bl	8003058 <boot_target_manifest_app>
}
 80041b8:	e7e9      	b.n	800418e <hf2_data_tx_cb+0x1a>
 80041ba:	bf00      	nop
 80041bc:	20000594 	.word	0x20000594
 80041c0:	20000731 	.word	0x20000731
 80041c4:	20000730 	.word	0x20000730
 80041c8:	20000590 	.word	0x20000590

080041cc <hf2_setup>:
void hf2_setup(usbd_device *usbd_dev, connected_callback *connected_func0) {
 80041cc:	b538      	push	{r3, r4, r5, lr}
 80041ce:	4604      	mov	r4, r0
 80041d0:	460d      	mov	r5, r1
    debug_print("flash allow "); debug_printhex_unsigned(USER_FLASH_START); debug_print(" to "); debug_printhex_unsigned(USER_FLASH_END); debug_println("");  //  Show the addresses that flashing is allowed.
 80041d2:	4814      	ldr	r0, [pc, #80]	; (8004224 <hf2_setup+0x58>)
 80041d4:	f7fe fb78 	bl	80028c8 <debug_print>
 80041d8:	4813      	ldr	r0, [pc, #76]	; (8004228 <hf2_setup+0x5c>)
 80041da:	f7fe fbc1 	bl	8002960 <debug_printhex_unsigned>
 80041de:	4813      	ldr	r0, [pc, #76]	; (800422c <hf2_setup+0x60>)
 80041e0:	f7fe fb72 	bl	80028c8 <debug_print>
 80041e4:	4812      	ldr	r0, [pc, #72]	; (8004230 <hf2_setup+0x64>)
 80041e6:	f7fe fbbb 	bl	8002960 <debug_printhex_unsigned>
 80041ea:	4812      	ldr	r0, [pc, #72]	; (8004234 <hf2_setup+0x68>)
 80041ec:	f7fe fb40 	bl	8002870 <debug_println>
    _usbd_dev = usbd_dev;
 80041f0:	4b11      	ldr	r3, [pc, #68]	; (8004238 <hf2_setup+0x6c>)
 80041f2:	601c      	str	r4, [r3, #0]
    connected_func = connected_func0;  //  test_hf2(); ////
 80041f4:	4b11      	ldr	r3, [pc, #68]	; (800423c <hf2_setup+0x70>)
 80041f6:	601d      	str	r5, [r3, #0]
    if (boot_target_get_startup_mode() == BOOTLOADER_MODE) {
 80041f8:	f7fe fe62 	bl	8002ec0 <boot_target_get_startup_mode>
 80041fc:	2802      	cmp	r0, #2
 80041fe:	d006      	beq.n	800420e <hf2_setup+0x42>
    int status = aggregate_register_config_callback(usbd_dev, hf2_set_config);
 8004200:	490f      	ldr	r1, [pc, #60]	; (8004240 <hf2_setup+0x74>)
 8004202:	4620      	mov	r0, r4
 8004204:	f7ff f82a 	bl	800325c <aggregate_register_config_callback>
    if (status < 0) { debug_println("*** hf2_setup failed"); }
 8004208:	2800      	cmp	r0, #0
 800420a:	db07      	blt.n	800421c <hf2_setup+0x50>
}
 800420c:	bd38      	pop	{r3, r4, r5, pc}
        memset(&hf2_buffer, 0, sizeof(hf2_buffer));
 800420e:	f240 4242 	movw	r2, #1090	; 0x442
 8004212:	2100      	movs	r1, #0
 8004214:	480b      	ldr	r0, [pc, #44]	; (8004244 <hf2_setup+0x78>)
 8004216:	f7fe f9d9 	bl	80025cc <memset>
 800421a:	e7f1      	b.n	8004200 <hf2_setup+0x34>
    if (status < 0) { debug_println("*** hf2_setup failed"); }
 800421c:	480a      	ldr	r0, [pc, #40]	; (8004248 <hf2_setup+0x7c>)
 800421e:	f7fe fb27 	bl	8002870 <debug_println>
}
 8004222:	e7f3      	b.n	800420c <hf2_setup+0x40>
 8004224:	08004f78 	.word	0x08004f78
 8004228:	08006c00 	.word	0x08006c00
 800422c:	08004f88 	.word	0x08004f88
 8004230:	08010000 	.word	0x08010000
 8004234:	08004608 	.word	0x08004608
 8004238:	2000056c 	.word	0x2000056c
 800423c:	20000574 	.word	0x20000574
 8004240:	08003a99 	.word	0x08003a99
 8004244:	200047bc 	.word	0x200047bc
 8004248:	08004f90 	.word	0x08004f90

0800424c <backup_write>:

#include "backup.h"

#define RTC_BKP_DR(reg)  MMIO16(BACKUP_REGS_BASE + 4 + (4 * (reg)))

void backup_write(enum BackupRegister reg, uint32_t value) {
 800424c:	b538      	push	{r3, r4, r5, lr}
 800424e:	4605      	mov	r5, r0
 8004250:	460c      	mov	r4, r1
    rcc_periph_clock_enable(RCC_PWR);
 8004252:	f44f 7067 	mov.w	r0, #924	; 0x39c
 8004256:	f7fd fa5c 	bl	8001712 <rcc_periph_clock_enable>
    rcc_periph_clock_enable(RCC_BKP);
 800425a:	f240 309b 	movw	r0, #923	; 0x39b
 800425e:	f7fd fa58 	bl	8001712 <rcc_periph_clock_enable>

    pwr_disable_backup_domain_write_protect();
 8004262:	f7fc febf 	bl	8000fe4 <pwr_disable_backup_domain_write_protect>
    RTC_BKP_DR((int)reg*2) = value & 0xFFFFUL;
 8004266:	b2a2      	uxth	r2, r4
 8004268:	4b04      	ldr	r3, [pc, #16]	; (800427c <backup_write+0x30>)
 800426a:	f823 2035 	strh.w	r2, [r3, r5, lsl #3]
    RTC_BKP_DR((int)reg*2+1) = (value & 0xFFFF0000UL) >> 16;
 800426e:	0c24      	lsrs	r4, r4, #16
 8004270:	3304      	adds	r3, #4
 8004272:	f823 4035 	strh.w	r4, [r3, r5, lsl #3]
    pwr_enable_backup_domain_write_protect();
 8004276:	f7fc febd 	bl	8000ff4 <pwr_enable_backup_domain_write_protect>
    //  Previously: (void)reg; *(volatile uint32_t*)0x2000f000 = value;
}
 800427a:	bd38      	pop	{r3, r4, r5, pc}
 800427c:	40006c04 	.word	0x40006c04

08004280 <backup_read>:

uint32_t backup_read(enum BackupRegister reg) {
    //  Previously: (void)reg; return *(volatile uint32_t*)0x2000f000;
    uint32_t value = ((uint32_t)RTC_BKP_DR((int)reg*2+1) << 16)
 8004280:	4b04      	ldr	r3, [pc, #16]	; (8004294 <backup_read+0x14>)
 8004282:	f833 2030 	ldrh.w	r2, [r3, r0, lsl #3]
                   | ((uint32_t)RTC_BKP_DR((int)reg*2) << 0);
 8004286:	3b04      	subs	r3, #4
 8004288:	f833 0030 	ldrh.w	r0, [r3, r0, lsl #3]
    return value;
}
 800428c:	ea40 4002 	orr.w	r0, r0, r2, lsl #16
 8004290:	4770      	bx	lr
 8004292:	bf00      	nop
 8004294:	40006c08 	.word	0x40006c08

08004298 <usb21_set_config>:
		return USBD_REQ_HANDLED;
	}
	return USBD_REQ_NEXT_CALLBACK;
}

static void usb21_set_config(usbd_device* usbd_dev, uint16_t wValue) {
 8004298:	b508      	push	{r3, lr}
    //  debug_println("usb21_set_config"); // debug_flush(); ////
	(void)wValue;
	int status = aggregate_register_callback(
 800429a:	4b07      	ldr	r3, [pc, #28]	; (80042b8 <usb21_set_config+0x20>)
 800429c:	22ff      	movs	r2, #255	; 0xff
 800429e:	2180      	movs	r1, #128	; 0x80
 80042a0:	f7fe fffc 	bl	800329c <aggregate_register_callback>
		usbd_dev,
		DESCRIPTOR_CALLBACK_TYPE,
		DESCRIPTOR_CALLBACK_MASK,
		&usb21_standard_get_descriptor);
	if (status < 0) { debug_println("*** usb21_set_config failed"); debug_flush(); }
 80042a4:	2800      	cmp	r0, #0
 80042a6:	db00      	blt.n	80042aa <usb21_set_config+0x12>
}
 80042a8:	bd08      	pop	{r3, pc}
	if (status < 0) { debug_println("*** usb21_set_config failed"); debug_flush(); }
 80042aa:	4804      	ldr	r0, [pc, #16]	; (80042bc <usb21_set_config+0x24>)
 80042ac:	f7fe fae0 	bl	8002870 <debug_println>
 80042b0:	f7fe fb05 	bl	80028be <debug_flush>
}
 80042b4:	e7f8      	b.n	80042a8 <usb21_set_config+0x10>
 80042b6:	bf00      	nop
 80042b8:	080042c1 	.word	0x080042c1
 80042bc:	08004fb8 	.word	0x08004fb8

080042c0 <usb21_standard_get_descriptor>:
	int descr_type = req->wValue >> 8;
 80042c0:	8848      	ldrh	r0, [r1, #2]
 80042c2:	0a00      	lsrs	r0, r0, #8
    if (descr_type != USB_DT_BOS) { return USBD_REQ_NEXT_CALLBACK; }
 80042c4:	280f      	cmp	r0, #15
 80042c6:	d121      	bne.n	800430c <usb21_standard_get_descriptor+0x4c>
											usbd_control_complete_callback* complete) {
 80042c8:	b570      	push	{r4, r5, r6, lr}
 80042ca:	461d      	mov	r5, r3
 80042cc:	4614      	mov	r4, r2
	if (!usb21_bos) {
 80042ce:	4b10      	ldr	r3, [pc, #64]	; (8004310 <usb21_standard_get_descriptor+0x50>)
 80042d0:	681b      	ldr	r3, [r3, #0]
 80042d2:	b123      	cbz	r3, 80042de <usb21_standard_get_descriptor+0x1e>
	if (req->bRequest == USB_REQ_GET_DESCRIPTOR) {
 80042d4:	784b      	ldrb	r3, [r1, #1]
 80042d6:	2b06      	cmp	r3, #6
 80042d8:	d008      	beq.n	80042ec <usb21_standard_get_descriptor+0x2c>
	return USBD_REQ_NEXT_CALLBACK;
 80042da:	2002      	movs	r0, #2
}
 80042dc:	bd70      	pop	{r4, r5, r6, pc}
		debug_println("*** usb21_descriptor no bos "); debug_flush(); ////
 80042de:	480d      	ldr	r0, [pc, #52]	; (8004314 <usb21_standard_get_descriptor+0x54>)
 80042e0:	f7fe fac6 	bl	8002870 <debug_println>
 80042e4:	f7fe faeb 	bl	80028be <debug_flush>
		return USBD_REQ_NOTSUPP;
 80042e8:	2000      	movs	r0, #0
 80042ea:	e7f7      	b.n	80042dc <usb21_standard_get_descriptor+0x1c>
		dump_usb_request("bos", req); // debug_flush(); ////
 80042ec:	480a      	ldr	r0, [pc, #40]	; (8004318 <usb21_standard_get_descriptor+0x58>)
 80042ee:	f7ff f83b 	bl	8003368 <dump_usb_request>
		*len = MIN(*len, build_bos_descriptor(usb21_bos, *buf, *len));
 80042f2:	882e      	ldrh	r6, [r5, #0]
 80042f4:	4632      	mov	r2, r6
 80042f6:	6821      	ldr	r1, [r4, #0]
 80042f8:	4b05      	ldr	r3, [pc, #20]	; (8004310 <usb21_standard_get_descriptor+0x50>)
 80042fa:	6818      	ldr	r0, [r3, #0]
 80042fc:	f000 f904 	bl	8004508 <build_bos_descriptor>
 8004300:	4286      	cmp	r6, r0
 8004302:	d200      	bcs.n	8004306 <usb21_standard_get_descriptor+0x46>
 8004304:	4630      	mov	r0, r6
 8004306:	8028      	strh	r0, [r5, #0]
		return USBD_REQ_HANDLED;
 8004308:	2001      	movs	r0, #1
 800430a:	e7e7      	b.n	80042dc <usb21_standard_get_descriptor+0x1c>
    if (descr_type != USB_DT_BOS) { return USBD_REQ_NEXT_CALLBACK; }
 800430c:	2002      	movs	r0, #2
}
 800430e:	4770      	bx	lr
 8004310:	2000061c 	.word	0x2000061c
 8004314:	08004fec 	.word	0x08004fec
 8004318:	0800500c 	.word	0x0800500c

0800431c <usb21_setup>:

void usb21_setup(usbd_device* usbd_dev, const struct usb_bos_descriptor* binary_object_store) {
 800431c:	b510      	push	{r4, lr}
 800431e:	4604      	mov	r4, r0
    // debug_println("usb21_setup"); // debug_flush(); ////
	usb21_bos = binary_object_store;
 8004320:	4b08      	ldr	r3, [pc, #32]	; (8004344 <usb21_setup+0x28>)
 8004322:	6019      	str	r1, [r3, #0]

	/* Register the control request handler _before_ the config is set */
	usb21_set_config(usbd_dev, 0x0000);
 8004324:	2100      	movs	r1, #0
 8004326:	f7ff ffb7 	bl	8004298 <usb21_set_config>
	int status = aggregate_register_config_callback(usbd_dev, usb21_set_config);
 800432a:	4907      	ldr	r1, [pc, #28]	; (8004348 <usb21_setup+0x2c>)
 800432c:	4620      	mov	r0, r4
 800432e:	f7fe ff95 	bl	800325c <aggregate_register_config_callback>
	if (status < 0) { debug_println("*** usb21_setup failed"); debug_flush(); }
 8004332:	2800      	cmp	r0, #0
 8004334:	db00      	blt.n	8004338 <usb21_setup+0x1c>
}
 8004336:	bd10      	pop	{r4, pc}
	if (status < 0) { debug_println("*** usb21_setup failed"); debug_flush(); }
 8004338:	4804      	ldr	r0, [pc, #16]	; (800434c <usb21_setup+0x30>)
 800433a:	f7fe fa99 	bl	8002870 <debug_println>
 800433e:	f7fe fabe 	bl	80028be <debug_flush>
}
 8004342:	e7f8      	b.n	8004336 <usb21_setup+0x1a>
 8004344:	2000061c 	.word	0x2000061c
 8004348:	08004299 	.word	0x08004299
 800434c:	08004fd4 	.word	0x08004fd4

08004350 <flash_flush>:
static uint32_t resetTime;
static uint32_t lastFlush;

void flash_flush(void) {
    //  Flush the page of cached flashing data to ROM.
    lastFlush = ms;
 8004350:	4b1d      	ldr	r3, [pc, #116]	; (80043c8 <flash_flush+0x78>)
 8004352:	681a      	ldr	r2, [r3, #0]
 8004354:	4b1d      	ldr	r3, [pc, #116]	; (80043cc <flash_flush+0x7c>)
 8004356:	601a      	str	r2, [r3, #0]
    if (flashAddr == NO_CACHE) { return; }
 8004358:	4b1d      	ldr	r3, [pc, #116]	; (80043d0 <flash_flush+0x80>)
 800435a:	6819      	ldr	r1, [r3, #0]
 800435c:	f1b1 3fff 	cmp.w	r1, #4294967295	; 0xffffffff
 8004360:	d031      	beq.n	80043c6 <flash_flush+0x76>
void flash_flush(void) {
 8004362:	b510      	push	{r4, lr}
    if (firstFlush) { firstFlush = false; }  //  TODO: disable bootloader or something
 8004364:	4b1b      	ldr	r3, [pc, #108]	; (80043d4 <flash_flush+0x84>)
 8004366:	781b      	ldrb	r3, [r3, #0]
 8004368:	b113      	cbz	r3, 8004370 <flash_flush+0x20>
 800436a:	4b1a      	ldr	r3, [pc, #104]	; (80043d4 <flash_flush+0x84>)
 800436c:	2200      	movs	r2, #0
 800436e:	701a      	strb	r2, [r3, #0]
    DBG("Flush at %x", flashAddr);
    if (memcmp(flashBuf, (void *)flashAddr, FLASH_PAGE_SIZE) != 0) {
 8004370:	f44f 6280 	mov.w	r2, #1024	; 0x400
 8004374:	4818      	ldr	r0, [pc, #96]	; (80043d8 <flash_flush+0x88>)
 8004376:	f7fe f90c 	bl	8002592 <memcmp>
 800437a:	b920      	cbnz	r0, 8004386 <flash_flush+0x36>
        //  If the page contents are different, write to ROM.
        debug_print("-> "); debug_printhex_unsigned((size_t) flashAddr); debug_print(" "); //// DBG("Write flush at %x", flashAddr);
        int words_flashed = base_flash_program_array((void *)flashAddr, (void*)flashBuf, FLASH_PAGE_SIZE / 2);
        if (words_flashed != FLASH_PAGE_SIZE / 2) { debug_print("*** ERROR: Flash failed "); debug_print_int(words_flashed); debug_println(""); debug_force_flush(); }
    }
    flashAddr = NO_CACHE;
 800437c:	4b14      	ldr	r3, [pc, #80]	; (80043d0 <flash_flush+0x80>)
 800437e:	f04f 32ff 	mov.w	r2, #4294967295	; 0xffffffff
 8004382:	601a      	str	r2, [r3, #0]
}
 8004384:	bd10      	pop	{r4, pc}
        debug_print("-> "); debug_printhex_unsigned((size_t) flashAddr); debug_print(" "); //// DBG("Write flush at %x", flashAddr);
 8004386:	4815      	ldr	r0, [pc, #84]	; (80043dc <flash_flush+0x8c>)
 8004388:	f7fe fa9e 	bl	80028c8 <debug_print>
 800438c:	4c10      	ldr	r4, [pc, #64]	; (80043d0 <flash_flush+0x80>)
 800438e:	6820      	ldr	r0, [r4, #0]
 8004390:	f7fe fae6 	bl	8002960 <debug_printhex_unsigned>
 8004394:	4812      	ldr	r0, [pc, #72]	; (80043e0 <flash_flush+0x90>)
 8004396:	f7fe fa97 	bl	80028c8 <debug_print>
        int words_flashed = base_flash_program_array((void *)flashAddr, (void*)flashBuf, FLASH_PAGE_SIZE / 2);
 800439a:	f44f 7200 	mov.w	r2, #512	; 0x200
 800439e:	490e      	ldr	r1, [pc, #56]	; (80043d8 <flash_flush+0x88>)
 80043a0:	6820      	ldr	r0, [r4, #0]
 80043a2:	f7fc f905 	bl	80005b0 <base_flash_program_array>
 80043a6:	4604      	mov	r4, r0
        if (words_flashed != FLASH_PAGE_SIZE / 2) { debug_print("*** ERROR: Flash failed "); debug_print_int(words_flashed); debug_println(""); debug_force_flush(); }
 80043a8:	f5b0 7f00 	cmp.w	r0, #512	; 0x200
 80043ac:	d0e6      	beq.n	800437c <flash_flush+0x2c>
 80043ae:	480d      	ldr	r0, [pc, #52]	; (80043e4 <flash_flush+0x94>)
 80043b0:	f7fe fa8a 	bl	80028c8 <debug_print>
 80043b4:	4620      	mov	r0, r4
 80043b6:	f7fe fa93 	bl	80028e0 <debug_print_int>
 80043ba:	480b      	ldr	r0, [pc, #44]	; (80043e8 <flash_flush+0x98>)
 80043bc:	f7fe fa58 	bl	8002870 <debug_println>
 80043c0:	f7fe f9e8 	bl	8002794 <debug_force_flush>
 80043c4:	e7da      	b.n	800437c <flash_flush+0x2c>
 80043c6:	4770      	bx	lr
 80043c8:	20000624 	.word	0x20000624
 80043cc:	20000620 	.word	0x20000620
 80043d0:	20000124 	.word	0x20000124
 80043d4:	20000128 	.word	0x20000128
 80043d8:	20004c00 	.word	0x20004c00
 80043dc:	08005010 	.word	0x08005010
 80043e0:	08004a1c 	.word	0x08004a1c
 80043e4:	08005014 	.word	0x08005014
 80043e8:	08004608 	.word	0x08004608

080043ec <flash_write>:

void flash_write(uint32_t dst, const uint8_t *src, int byte_count) {
 80043ec:	e92d 41f0 	stmdb	sp!, {r4, r5, r6, r7, r8, lr}
 80043f0:	4604      	mov	r4, r0
 80043f2:	460e      	mov	r6, r1
 80043f4:	4615      	mov	r5, r2
    //  Write len bytes from src to ROM at address dst.  The writing is buffered in RAM until flash_flush() is called.    
    //  TODO: Support other memory sizes.
    if (dst < 0x8000000 || (dst + byte_count) >= 0x8010000 ||
 80043f6:	f1b0 6f00 	cmp.w	r0, #134217728	; 0x8000000
 80043fa:	d30e      	bcc.n	800441a <flash_write+0x2e>
 80043fc:	4611      	mov	r1, r2
 80043fe:	4402      	add	r2, r0
 8004400:	4b26      	ldr	r3, [pc, #152]	; (800449c <flash_write+0xb0>)
 8004402:	429a      	cmp	r2, r3
 8004404:	d809      	bhi.n	800441a <flash_write+0x2e>
 8004406:	f1b6 5f00 	cmp.w	r6, #536870912	; 0x20000000
 800440a:	d306      	bcc.n	800441a <flash_write+0x2e>
        (uint32_t) src < 0x20000000 || ((uint32_t) src + byte_count) >= 0x20005000) {
 800440c:	4431      	add	r1, r6
 800440e:	f103 53c0 	add.w	r3, r3, #402653184	; 0x18000000
 8004412:	f5a3 4330 	sub.w	r3, r3, #45056	; 0xb000
 8004416:	4299      	cmp	r1, r3
 8004418:	d923      	bls.n	8004462 <flash_write+0x76>
        debug_print("**** ERROR: Invalid flash write, dst "); debug_printhex_unsigned(dst); 
 800441a:	4821      	ldr	r0, [pc, #132]	; (80044a0 <flash_write+0xb4>)
 800441c:	f7fe fa54 	bl	80028c8 <debug_print>
 8004420:	4620      	mov	r0, r4
 8004422:	f7fe fa9d 	bl	8002960 <debug_printhex_unsigned>
        debug_print(", src "); debug_printhex_unsigned((uint32_t) src);
 8004426:	481f      	ldr	r0, [pc, #124]	; (80044a4 <flash_write+0xb8>)
 8004428:	f7fe fa4e 	bl	80028c8 <debug_print>
 800442c:	4630      	mov	r0, r6
 800442e:	f7fe fa97 	bl	8002960 <debug_printhex_unsigned>
        debug_print(", len "); debug_printhex_unsigned(byte_count); debug_println(""); debug_force_flush();
 8004432:	481d      	ldr	r0, [pc, #116]	; (80044a8 <flash_write+0xbc>)
 8004434:	f7fe fa48 	bl	80028c8 <debug_print>
 8004438:	4628      	mov	r0, r5
 800443a:	f7fe fa91 	bl	8002960 <debug_printhex_unsigned>
 800443e:	481b      	ldr	r0, [pc, #108]	; (80044ac <flash_write+0xc0>)
 8004440:	f7fe fa16 	bl	8002870 <debug_println>
 8004444:	f7fe f9a6 	bl	8002794 <debug_force_flush>
        //  Copy next page.
        dst += len;
        src += len;
        byte_count -= len;
    }
}
 8004448:	e8bd 81f0 	ldmia.w	sp!, {r4, r5, r6, r7, r8, pc}
        uint32_t offset = dst & (FLASH_PAGE_SIZE - 1);
 800444c:	f3c4 0309 	ubfx	r3, r4, #0, #10
        memcpy(flashBuf + offset, src, len);
 8004450:	463a      	mov	r2, r7
 8004452:	4631      	mov	r1, r6
 8004454:	4816      	ldr	r0, [pc, #88]	; (80044b0 <flash_write+0xc4>)
 8004456:	4418      	add	r0, r3
 8004458:	f7fe f8ab 	bl	80025b2 <memcpy>
        dst += len;
 800445c:	443c      	add	r4, r7
        src += len;
 800445e:	443e      	add	r6, r7
        byte_count -= len;
 8004460:	1bed      	subs	r5, r5, r7
    while (byte_count > 0) {
 8004462:	2d00      	cmp	r5, #0
 8004464:	ddf0      	ble.n	8004448 <flash_write+0x5c>
        int len = (byte_count > FLASH_PAGE_SIZE) ? FLASH_PAGE_SIZE : byte_count;
 8004466:	462f      	mov	r7, r5
 8004468:	f5b5 6f80 	cmp.w	r5, #1024	; 0x400
 800446c:	bfa8      	it	ge
 800446e:	f44f 6780 	movge.w	r7, #1024	; 0x400
        uint32_t newAddr = dst & ~(FLASH_PAGE_SIZE - 1);
 8004472:	f424 787f 	bic.w	r8, r4, #1020	; 0x3fc
 8004476:	f028 0803 	bic.w	r8, r8, #3
        if (newAddr != flashAddr) {  //  If the cache has a different page...
 800447a:	4b0e      	ldr	r3, [pc, #56]	; (80044b4 <flash_write+0xc8>)
 800447c:	681b      	ldr	r3, [r3, #0]
 800447e:	4543      	cmp	r3, r8
 8004480:	d0e4      	beq.n	800444c <flash_write+0x60>
            flash_flush();           //  Flush the previous cached page.
 8004482:	f7ff ff65 	bl	8004350 <flash_flush>
            flashAddr = newAddr;
 8004486:	4b0b      	ldr	r3, [pc, #44]	; (80044b4 <flash_write+0xc8>)
 8004488:	f8c3 8000 	str.w	r8, [r3]
            memcpy(flashBuf, (void *)newAddr, FLASH_PAGE_SIZE);  //  Copy the current ROM page into the buffer.
 800448c:	f44f 6280 	mov.w	r2, #1024	; 0x400
 8004490:	4641      	mov	r1, r8
 8004492:	4807      	ldr	r0, [pc, #28]	; (80044b0 <flash_write+0xc4>)
 8004494:	f7fe f88d 	bl	80025b2 <memcpy>
 8004498:	e7d8      	b.n	800444c <flash_write+0x60>
 800449a:	bf00      	nop
 800449c:	0800ffff 	.word	0x0800ffff
 80044a0:	08005030 	.word	0x08005030
 80044a4:	0800473c 	.word	0x0800473c
 80044a8:	08004744 	.word	0x08004744
 80044ac:	08004608 	.word	0x08004608
 80044b0:	20004c00 	.word	0x20004c00
 80044b4:	20000124 	.word	0x20000124

080044b8 <bootloader_set_restart_callback>:
int bootloader_set_restart_callback(restart_callback_type *func) {
 80044b8:	b508      	push	{r3, lr}
    boot_target_set_restart_callback(func);
 80044ba:	f7fe fdbd 	bl	8003038 <boot_target_set_restart_callback>
}
 80044be:	2000      	movs	r0, #0
 80044c0:	bd08      	pop	{r3, pc}

080044c2 <sleep_us>:
    for (int i = 0; i < us*10; i++) {
 80044c2:	2100      	movs	r1, #0
 80044c4:	e001      	b.n	80044ca <sleep_us+0x8>
        __asm__("nop");
 80044c6:	bf00      	nop
    for (int i = 0; i < us*10; i++) {
 80044c8:	3101      	adds	r1, #1
 80044ca:	eb00 0280 	add.w	r2, r0, r0, lsl #2
 80044ce:	0053      	lsls	r3, r2, #1
 80044d0:	428b      	cmp	r3, r1
 80044d2:	dcf8      	bgt.n	80044c6 <sleep_us+0x4>
}
 80044d4:	4770      	bx	lr

080044d6 <boot_target_get_serial_number>:
}

void boot_target_get_serial_number(char* dest, size_t max_chars) {
 80044d6:	b508      	push	{r3, lr}
    desig_get_unique_id_as_string(dest, max_chars+1);
 80044d8:	3101      	adds	r1, #1
 80044da:	f7fc fb2b 	bl	8000b34 <desig_get_unique_id_as_string>
}
 80044de:	bd08      	pop	{r3, pc}

080044e0 <usb_descriptor_type>:
}
 80044e0:	0a00      	lsrs	r0, r0, #8
 80044e2:	4770      	bx	lr

080044e4 <usb_descriptor_index>:
}
 80044e4:	b2c0      	uxtb	r0, r0
 80044e6:	4770      	bx	lr

080044e8 <usb_descriptor_type>:
static int usb_descriptor_type(uint16_t wValue) { return wValue >> 8; }
 80044e8:	0a00      	lsrs	r0, r0, #8
 80044ea:	4770      	bx	lr

080044ec <usb_descriptor_index>:
static int usb_descriptor_index(uint16_t wValue) { return wValue & 0xFF; }
 80044ec:	b2c0      	uxtb	r0, r0
 80044ee:	4770      	bx	lr

080044f0 <send_hf2_response>:
static void send_hf2_response(HF2_Buffer *pkt, int size) {
 80044f0:	b500      	push	{lr}
 80044f2:	b083      	sub	sp, #12
    volatile uint32_t dataToSendLength = 4 + size;
 80044f4:	3104      	adds	r1, #4
 80044f6:	9101      	str	r1, [sp, #4]
    pokeSend(dataToSend, dataToSendLength, dataToSendFlag);
 80044f8:	9901      	ldr	r1, [sp, #4]
 80044fa:	2240      	movs	r2, #64	; 0x40
 80044fc:	3002      	adds	r0, #2
 80044fe:	f7ff faeb 	bl	8003ad8 <pokeSend>
}
 8004502:	b003      	add	sp, #12
 8004504:	f85d fb04 	ldr.w	pc, [sp], #4

08004508 <build_bos_descriptor>:
									 uint8_t *buf, uint16_t len) {
 8004508:	e92d 4ff0 	stmdb	sp!, {r4, r5, r6, r7, r8, r9, sl, fp, lr}
 800450c:	b083      	sub	sp, #12
 800450e:	4682      	mov	sl, r0
 8004510:	460c      	mov	r4, r1
 8004512:	9101      	str	r1, [sp, #4]
 8004514:	4616      	mov	r6, r2
	bytes_to_copy = MIN(len, bos->bLength);
 8004516:	f890 8000 	ldrb.w	r8, [r0]
 800451a:	4590      	cmp	r8, r2
 800451c:	bf28      	it	cs
 800451e:	4690      	movcs	r8, r2
	memcpy(buf, bos, bytes_to_copy);
 8004520:	4642      	mov	r2, r8
 8004522:	4601      	mov	r1, r0
 8004524:	4620      	mov	r0, r4
 8004526:	f7fe f844 	bl	80025b2 <memcpy>
	buf += bytes_to_copy;
 800452a:	eb04 0908 	add.w	r9, r4, r8
	len -= bytes_to_copy;
 800452e:	eba6 0608 	sub.w	r6, r6, r8
 8004532:	b2b6      	uxth	r6, r6
	totallen += bos->bLength;
 8004534:	f89a b000 	ldrb.w	fp, [sl]
	for (i = 0; i < bos->bNumDeviceCaps; i++) {
 8004538:	2500      	movs	r5, #0
 800453a:	e018      	b.n	800456e <build_bos_descriptor+0x66>
			bos->capabilities[i];
 800453c:	f8da 3005 	ldr.w	r3, [sl, #5]
		const struct usb_device_capability_descriptor *cap =
 8004540:	f853 7025 	ldr.w	r7, [r3, r5, lsl #2]
		bytes_to_copy = MIN(len, cap->bLength);
 8004544:	783c      	ldrb	r4, [r7, #0]
 8004546:	42b4      	cmp	r4, r6
 8004548:	bf28      	it	cs
 800454a:	4634      	movcs	r4, r6
		memcpy(buf, cap, bytes_to_copy);
 800454c:	4622      	mov	r2, r4
 800454e:	4639      	mov	r1, r7
 8004550:	4648      	mov	r0, r9
 8004552:	f7fe f82e 	bl	80025b2 <memcpy>
		buf += bytes_to_copy;
 8004556:	44a1      	add	r9, r4
		len -= bytes_to_copy;
 8004558:	1b36      	subs	r6, r6, r4
 800455a:	b2b6      	uxth	r6, r6
		total += bytes_to_copy;
 800455c:	44a0      	add	r8, r4
 800455e:	fa1f f888 	uxth.w	r8, r8
		totallen += cap->bLength;
 8004562:	783b      	ldrb	r3, [r7, #0]
 8004564:	449b      	add	fp, r3
 8004566:	fa1f fb8b 	uxth.w	fp, fp
	for (i = 0; i < bos->bNumDeviceCaps; i++) {
 800456a:	3501      	adds	r5, #1
 800456c:	b2ad      	uxth	r5, r5
 800456e:	f89a 3004 	ldrb.w	r3, [sl, #4]
 8004572:	42ab      	cmp	r3, r5
 8004574:	d8e2      	bhi.n	800453c <build_bos_descriptor+0x34>
	*(uint16_t *)(tmpbuf + 2) = totallen;
 8004576:	9b01      	ldr	r3, [sp, #4]
 8004578:	f8a3 b002 	strh.w	fp, [r3, #2]
}
 800457c:	4640      	mov	r0, r8
 800457e:	b003      	add	sp, #12
 8004580:	e8bd 8ff0 	ldmia.w	sp!, {r4, r5, r6, r7, r8, r9, sl, fp, pc}
 8004584:	202a2a2a 	.word	0x202a2a2a
 8004588:	206c6168 	.word	0x206c6168
 800458c:	2f737362 	.word	0x2f737362
 8004590:	61746164 	.word	0x61746164
 8004594:	69616620 	.word	0x69616620
 8004598:	2c64656c 	.word	0x2c64656c
 800459c:	73736220 	.word	0x73736220
 80045a0:	7365745f 	.word	0x7365745f
 80045a4:	203d2074 	.word	0x203d2074
 80045a8:	00000000 	.word	0x00000000
 80045ac:	6164202c 	.word	0x6164202c
 80045b0:	745f6174 	.word	0x745f6174
 80045b4:	20747365 	.word	0x20747365
 80045b8:	0000203d 	.word	0x0000203d
 80045bc:	00203f61 	.word	0x00203f61
 80045c0:	00207b75 	.word	0x00207b75
 80045c4:	0000207d 	.word	0x0000207d
 80045c8:	2a2a2a2a 	.word	0x2a2a2a2a
 80045cc:	7261742a 	.word	0x7261742a
 80045d0:	5f746567 	.word	0x5f746567
 80045d4:	696e6170 	.word	0x696e6170
 80045d8:	00002063 	.word	0x00002063
 80045dc:	3c207477 	.word	0x3c207477
 80045e0:	00000000 	.word	0x00000000
 80045e4:	0000203e 	.word	0x0000203e
 80045e8:	70616568 	.word	0x70616568
 80045ec:	61747320 	.word	0x61747320
 80045f0:	203a7472 	.word	0x203a7472
 80045f4:	00000000 	.word	0x00000000
 80045f8:	6e65202c 	.word	0x6e65202c
 80045fc:	00203a64 	.word	0x00203a64
 8004600:	6973202c 	.word	0x6973202c
 8004604:	203a657a 	.word	0x203a657a
 8004608:	00000000 	.word	0x00000000
 800460c:	2c424b20 	.word	0x2c424b20
 8004610:	61747320 	.word	0x61747320
 8004614:	75206b63 	.word	0x75206b63
 8004618:	3a646573 	.word	0x3a646573
 800461c:	00000020 	.word	0x00000020
 8004620:	00424b20 	.word	0x00424b20

08004624 <chars.4166>:
 8004624:	33323130 37363534 42413938 46454443     0123456789ABCDEF
 8004634:	00000000                                ....

08004638 <st_usbfs_v1_usb_driver>:
 8004638:	080011a5 080011e5 08001255 08002005     ........U.... ..
 8004648:	08002071 080013b5 08002179 08001435     q ......y!..5...
 8004658:	080014c5 08001599 00000000 00000000     ................
 8004668:	00000000 04000200 06000000 202a2a2a     ............*** 
 8004678:	6f636f63 6120736f 72657373 61662074     cocoos assert fa
 8004688:	64656c69 00000020 00000030 0000002d     iled ...0...-...
 8004698:	65764f28 6f6c6672 00002977 4f52445b     (Overflow)..[DRO
 80046a8:	44455050 0000005d 00000a0d 2d2d2d2d     PPED].......----
 80046b8:	74616c70 6d726f66 7465735f 00007075     platform_setup..
 80046c8:	20637472 6b617761 2e2e2e65 00000000     rtc awake.......
 80046d8:	20637472 6b617761 6b6f2065 00000000     rtc awake ok....
 80046e8:	3f6d6c61 00000020 74616c70 6d726f66     alm? ...platform
 80046f8:	6174735f 745f7472 72656d69 00000000     _start_timer....
 8004708:	2d2d2d2d 746f6f62 64616f6c 00007265     ----bootloader..
 8004718:	5f627375 75746573 00000070 2d2d2d2d     usb_setup...----
 8004728:	65736162 64616f6c 00207265 6564202c     baseloader ., de
 8004738:	00207473 7273202c 00002063 656c202c     st ., src .., le
 8004748:	0000206e 662a202c 20636e75 00000000     n .., *func ....
 8004758:	65736162 64616f6c 66207265 656c6961     baseloader faile
 8004768:	00002064 746f6f62 7261745f 5f746567     d ..boot_target_
 8004778:	5f746567 69726573 6e5f6c61 65626d75     get_serial_numbe
 8004788:	00000072 5f627375 5f746573 69726573     r...usb_set_seri
 8004798:	6e5f6c61 65626d75 00000072 64627375     al_number...usbd
 80047a8:	6c6f7020 676e696c 002e2e2e 74736572      polling....rest
 80047b8:	69747261 2e2e676e 0000002e 656e6f64     arting......done
 80047c8:	00000000 74736572 20747261 6c6c6163     ....restart call
 80047d8:	6b636162 00000000 6f662820 64656372     back.... (forced
 80047e8:	00000029 2d2d2d2d 746f6f62 64616f6c     )...----bootload
 80047f8:	6d207265 2065646f 726f6628 29646563     er mode (forced)
 8004808:	00000000 2d2d2d2d 746f6f62 64616f6c     ....----bootload
 8004818:	6d207265 2065646f 206f6e28 29707061     er mode (no app)
 8004828:	00000000 2d2d2d2d 6c707061 74616369     ....----applicat
 8004838:	206e6f69 65646f6d 00000000 746f6f62     ion mode....boot
 8004848:	70706120 00000000 746f6f62 6f6f6220      app....boot boo
 8004858:	616f6c74 00726564 20746573 74736572     tloader.set rest
 8004868:	20747261 6c6c6163 6b636162 00000020     art callback ...
 8004878:	20707061 73697865 00007374 20707061     app exists..app 
 8004888:	7373696d 20676e69 00000000 00203d20     missing .... = .
 8004898:	5f544553 00524441 00203e3e 202a2a2a     SET_ADR.>> .*** 
 80048a8:	4f525245 54203a52 6d206f6f 20796e61     ERROR: Too many 
 80048b8:	746e6f63 206c6f72 6c6c6163 6b636162     control callback
 80048c8:	00000073 202a2a2a 4f525245 54203a52     s...*** ERROR: T
 80048d8:	6d206f6f 20796e61 666e6f63 63206769     oo many config c
 80048e8:	626c6c61 736b6361 00000000              allbacks....

080048f4 <bos_descriptor>:
 80048f4:	00000f05 00001c02 00000020              ........ ...

08004900 <cdc_iface_assoc>:
 8004900:	02010b08 06010202                       ........

08004908 <cdcacm_functional_descriptors>:
 8004908:	10002405 01240501 24040200 24050002     .$....$....$...$
 8004918:	00020106                                ....

0800491c <comm_endp>:
 800491c:	03840507 00ff0010 00000000 00000000     ................

0800492c <comm_iface>:
 800492c:	00010409 01020201 00491c07 00490808     ..........I...I.
 800493c:	00001308 00000000                       ........

08004944 <config>:
 8004944:	00000209 80000103 004a64fa 00000008     .........dJ.....

08004954 <data_endp>:
 8004954:	02030507 00010040 00000000 07000000     ....@...........
 8004964:	40028305 00000100 00000000 00000000     ...@............

08004974 <data_iface>:
 8004974:	00020409 00000a02 00495408 00000008     .........TI.....
	...

0800498c <dev>:
 800498c:	02100112 400102ef db421209 02010221     .......@..B.!...
 800499c:	00000103 00202f20 70797420 00000020     .... / . typ ...
 80049ac:	6572202c 00002071 6176202c 0000206c     , req .., val ..
 80049bc:	6469202c 00002078 4547202c 45445f54     , idx .., GET_DE
 80049cc:	00000053 5645445f 00000000 4746435f     S..._DEV...._CFG
 80049dc:	00000000 5254535f 00000000 464e495f     ...._STR...._INF
 80049ec:	00000000 504e455f 00000000 534f425f     ...._ENP...._BOS
 80049fc:	00000000 4553202c 44415f54 20202052     ...., SET_ADR   
 8004a0c:	00000020 4553202c 46435f54 20202047      ..., SET_CFG   
 8004a1c:	00000020 0000002c 00207420 00206920      ...,... t . i .

08004a2c <hf2_endp>:
 8004a2c:	02020507 00000040 00000000 07000000     ....@...........
 8004a3c:	40028205 00000000 00000000 00000000     ...@............

08004a4c <hf2_iface>:
 8004a4c:	00000409 012aff02 004a2c09 00000008     ......*..,J.....
	...

08004a64 <interfaces>:
 8004a64:	00000000 00000001 00000000 08004a4c     ............LJ..
 8004a74:	00000000 00000001 08004900 0800492c     .........I..,I..
 8004a84:	00000000 00000001 00000000 08004974     ............tI..
 8004a94:	202a2a2a 4f525245 73203a52 615f7465     *** ERROR: set_a
 8004aa4:	65726767 65746167 6c61635f 6361626c     ggregate_callbac
 8004ab4:	6166206b 64656c69 00000000 61766544     k failed....Deva
 8004ac4:	6372616e 00007968 42504144 20746f6f     narchy..DAPBoot 
 8004ad4:	20554644 746f6f42 64616f6c 00007265     DFU Bootloader..
 8004ae4:	42504144 20746f6f 00554644 65756c42     DAPBoot DFU.Blue
 8004af4:	6c695020 534d206c 00000043 65756c42      Pill MSC...Blue
 8004b04:	6c695020 6553206c 6c616972 726f5020      Pill Serial Por
 8004b14:	00000074 65756c42 6c695020 4f43206c     t...Blue Pill CO
 8004b24:	00004d4d 65756c42 6c695020 4144206c     MM..Blue Pill DA
 8004b34:	00004154 65756c42 6c695020 4648206c     TA..Blue Pill HF
 8004b44:	00000032 75736976 6c626c61 69706575     2...visualbluepi
 8004b54:	672e6c6c 75687469 6f692e62 00000000     ll.github.io....
 8004b64:	202a2a2a 5f627375 75746573 61662070     *** usb_setup fa
 8004b74:	64656c69 00000000 202a2a2a 75626577     iled....*** webu
 8004b84:	6e206273 7573746f 69207070 7865646e     sb notsupp index
 8004b94:	00000020 75626577 00006c72 202a2a2a      ...weburl..*** 
 8004ba4:	75626577 6e206273 7573746f 77207070     webusb notsupp w
 8004bb4:	65646e49 00002078                       Index ..

08004bbc <webusb_platform_capability_descriptor>:
 8004bbc:	00051018 3408b638 47a009a9 76a0fd8b     ....8..4...G...v
 8004bcc:	65b61588 01220100 202a2a2a 75626577     ...e..".*** webu
 8004bdc:	735f6273 635f7465 69666e6f 61662067     sb_set_config fa
 8004bec:	64656c69 00000000 202a2a2a 75626577     iled....*** webu
 8004bfc:	735f6273 70757465 69616620 0064656c     sb_setup failed.

08004c0c <guid>:
 8004c0c:	00000092 00050100 00880001 00070000     ................
 8004c1c:	002a0000 00650044 00690076 00650063     ..*.D.e.v.i.c.e.
 8004c2c:	006e0049 00650074 00660072 00630061     I.n.t.e.r.f.a.c.
 8004c3c:	00470065 00490055 00730044 00500000     e.G.U.I.D.s...P.
 8004c4c:	007b0000 00320030 00330036 00350062     ..{.0.2.6.3.b.5.
 8004c5c:	00320031 0038002d 00630038 002d0062     1.2.-.8.8.c.b.-.
 8004c6c:	00310034 00360033 0039002d 00310036     4.1.3.6.-.9.6.1.
 8004c7c:	002d0033 00630035 00650038 00300031     3.-.5.c.8.e.1.0.
 8004c8c:	00640039 00650038 00350066 0000007d     9.d.8.e.f.5.}...
 8004c9c:	00000000                                ....

08004ca0 <microsoft_platform_capability_descriptor>:
 8004ca0:	0005101c d8dd60df 4cc74589 9d65d29c     .....`...E.L..e.
 8004cb0:	9f8a649e 06030000 002100b2 646e6977     .d........!.wind
 8004cc0:	00007365 696e6977 00000064 706e6977     es..winid...winp
 8004cd0:	00007072 656e6977 00000065 202a2a2a     rp..winee...*** 
 8004ce0:	756e6977 735f6273 635f7465 69666e6f     winusb_set_confi
 8004cf0:	61662067 64656c69 00000000 202a2a2a     g failed....*** 
 8004d00:	756e6977 735f6273 70757465 69616620     winusb_setup fai
 8004d10:	0064656c                                led.

08004d14 <winusb_string_descriptor>:
 8004d14:	004d0312 00460053 00310054 00300030     ..M.S.F.T.1.0.0.
 8004d24:	00000021 202a2a2a 5f636463 75746573     !...*** cdc_setu
 8004d34:	61662070 64656c69 00000000 6d6d6f63     p failed....comm
 8004d44:	00000000 202a2a2a 61636463 635f6d63     ....*** cdcacm_c
 8004d54:	72746e6f 6e206c6f 7573746f 6c207070     ontrol notsupp l
 8004d64:	5f656e69 69646f63 0020676e 202a2a2a     ine_coding .*** 
 8004d74:	61636463 735f6d63 635f7465 69666e6f     cdcacm_set_confi
 8004d84:	61662067 64656c69 00000000              g failed....

08004d90 <line_coding>:
 8004d90:	0001c200 00080000 202a2a2a 4f525245     ........*** ERRO
 8004da0:	00203a52                                R: .

08004da4 <bad_packet_message>:
 8004da4:	20646162 6b636170 00007465 20326668     bad packet..hf2 
 8004db4:	62203e3e 6e696e69 00006f66 20326668     >> bininfo..hf2 
 8004dc4:	20667562 206f6f74 6c616d73 0000006c     buf too small...
 8004dd4:	20326668 69203e3e 006f666e 74706d65     hf2 >> info.empt
 8004de4:	66682079 6e692032 00006f66 20326668     y hf2 info..hf2 
 8004df4:	73203e3e 74726174 00000000 20326668     >> start....hf2 
 8004e04:	66203e3e 6873616c 00000000 20326668     >> flash....hf2 
 8004e14:	61203e3e 00007070 20326668 62203e3e     >> app..hf2 >> b
 8004e24:	00746f6f 20326668 72203e3e 00646165     oot.hf2 >> read.
 8004e34:	20326668 75203e3e 6f6e6b6e 00206e77     hf2 >> unknown .
 8004e44:	21212120 00000020 20326668 66203e3e      !!! ...hf2 >> f
 8004e54:	6873616c 00000020 646e6966 63657620     lash ...find vec
 8004e64:	2e726f74 00002e2e 6e756f66 65762064     tor.....found ve
 8004e74:	726f7463 7061202c 00002070 6f62202c     ctor, app .., bo
 8004e84:	7320746f 20657a69 00000000 6162202c     ot size ...., ba
 8004e94:	73206573 20657a69 00000000 202a2a2a     se size ....*** 
 8004ea4:	4f525245 49203a52 6c61766e 61206469     ERROR: Invalid a
 8004eb4:	20726464 00000000 746f7277 6f622065     ddr ....wrote bo
 8004ec4:	6f6c746f 72656461 00000000 706d6f63     otloader....comp
 8004ed4:	20657261 746f6f62 64616f6c 2e2e7265     are bootloader..
 8004ee4:	0000002e 746f6f62 64616f6c 63207265     ....bootloader c
 8004ef4:	676e6168 00006465 79706f63 73616220     hanged..copy bas
 8004f04:	616f6c65 20726564 00206f74 6973202c     eloader to ., si
 8004f14:	0020657a 74736572 20747261 62206f74     ze .restart to b
 8004f24:	6c657361 6564616f 00002072 746f6f62     aseloader ..boot
 8004f34:	64616f6c 69207265 746e6564 6c616369     loader identical
 8004f44:	00000020 202a2a2a 4f525245 63203a52      ...*** ERROR: c
 8004f54:	6b636568 61746144 657a6953 69616620     heckDataSize fai
 8004f64:	0064656c 20326668 20746573 666e6f63     led.hf2 set conf
 8004f74:	00006769 73616c66 6c612068 20776f6c     ig..flash allow 
 8004f84:	00000000 206f7420 00000000 202a2a2a     .... to ....*** 
 8004f94:	5f326668 75746573 61662070 64656c69     hf2_setup failed
 8004fa4:	00000000 20326668 00003c3c 20326668     ....hf2 <<..hf2 
 8004fb4:	00203c3c 202a2a2a 32627375 65735f31     << .*** usb21_se
 8004fc4:	6f635f74 6769666e 69616620 0064656c     t_config failed.
 8004fd4:	202a2a2a 32627375 65735f31 20707574     *** usb21_setup 
 8004fe4:	6c696166 00006465 202a2a2a 32627375     failed..*** usb2
 8004ff4:	65645f31 69726373 726f7470 206f6e20     1_descriptor no 
 8005004:	20736f62 00000000 00736f62 00203e2d     bos ....bos.-> .
 8005014:	202a2a2a 4f525245 46203a52 6873616c     *** ERROR: Flash
 8005024:	69616620 2064656c 00000000 2a2a2a2a      failed ....****
 8005034:	52524520 203a524f 61766e49 2064696c      ERROR: Invalid 
 8005044:	73616c66 72772068 2c657469 74736420     flash write, dst
 8005054:	00000020                                 ...

08005058 <infoUf2File>:
 8005058:	20324655 746f6f42 64616f6c 76207265     UF2 Bootloader v
 8005068:	2e312e31 46532033 4d0a0d41 6c65646f     1.1.3 SFA..Model
 8005078:	5453203a 4232334d 5045554c 0d4c4c49     : STM32BLUEPILL.
 8005088:	616f420a 492d6472 53203a44 32334d54     .Board-ID: STM32
 8005098:	33303146 422d3843 5065756c 2d6c6c69     F103C8-BluePill-
 80050a8:	0a0d3076 00000000                       v0......

Disassembly of section .text:

08006c00 <application_start>:
        debug_print(", data_test = "); debug_printhex_unsigned(app_data_test);
        for(;;) {}
    }
}

extern "C" void application_start(void) {
 8006c00:	b510      	push	{r4, lr}
	//  application_start() is always located at a fixed address (_text) so we can change the application easily.
	funcp_t *fp;

	//  Copy Application data section from ROM to RAM.
	volatile uint32_t *src = &_data_loadaddr;
	volatile uint32_t *dest = &_data;
 8006c02:	4b17      	ldr	r3, [pc, #92]	; (8006c60 <application_start+0x60>)
	volatile uint32_t *src = &_data_loadaddr;
 8006c04:	4917      	ldr	r1, [pc, #92]	; (8006c64 <application_start+0x64>)
	while (dest < &_edata) {
 8006c06:	4a18      	ldr	r2, [pc, #96]	; (8006c68 <application_start+0x68>)
 8006c08:	4293      	cmp	r3, r2
 8006c0a:	d204      	bcs.n	8006c16 <application_start+0x16>
		*dest = *src;
 8006c0c:	f851 2b04 	ldr.w	r2, [r1], #4
 8006c10:	f843 2b04 	str.w	r2, [r3], #4
	while (dest < &_edata) {
 8006c14:	e7f7      	b.n	8006c06 <application_start+0x6>
		src = src + 1;
		dest = dest + 1;
	}

	//  Init variables in Application BSS section to null.
	while (dest < &_ebss) { *dest++ = 0; }
 8006c16:	4a15      	ldr	r2, [pc, #84]	; (8006c6c <application_start+0x6c>)
 8006c18:	4293      	cmp	r3, r2
 8006c1a:	d203      	bcs.n	8006c24 <application_start+0x24>
 8006c1c:	2200      	movs	r2, #0
 8006c1e:	601a      	str	r2, [r3, #0]
 8006c20:	3304      	adds	r3, #4
 8006c22:	e7f8      	b.n	8006c16 <application_start+0x16>

	//  Call any init functions here.
	pre_main();
 8006c24:	f001 f9ca 	bl	8007fbc <_ZL8pre_mainv>
	
	//  Call C++ constructors for Application.
	for (fp = &__preinit_array_start; fp < &__preinit_array_end; fp++) {
 8006c28:	4c11      	ldr	r4, [pc, #68]	; (8006c70 <application_start+0x70>)
 8006c2a:	4b12      	ldr	r3, [pc, #72]	; (8006c74 <application_start+0x74>)
 8006c2c:	429c      	cmp	r4, r3
 8006c2e:	d203      	bcs.n	8006c38 <application_start+0x38>
		(*fp)();
 8006c30:	f854 3b04 	ldr.w	r3, [r4], #4
 8006c34:	4798      	blx	r3
	for (fp = &__preinit_array_start; fp < &__preinit_array_end; fp++) {
 8006c36:	e7f8      	b.n	8006c2a <application_start+0x2a>
	}
	for (fp = &__init_array_start; fp < &__init_array_end; fp++) {
 8006c38:	4c0f      	ldr	r4, [pc, #60]	; (8006c78 <application_start+0x78>)
 8006c3a:	4b10      	ldr	r3, [pc, #64]	; (8006c7c <application_start+0x7c>)
 8006c3c:	429c      	cmp	r4, r3
 8006c3e:	d203      	bcs.n	8006c48 <application_start+0x48>
		(*fp)();
 8006c40:	f854 3b04 	ldr.w	r3, [r4], #4
 8006c44:	4798      	blx	r3
	for (fp = &__init_array_start; fp < &__init_array_end; fp++) {
 8006c46:	e7f8      	b.n	8006c3a <application_start+0x3a>
	}

	//  Call the application's entry point.
	main();
 8006c48:	f000 f81e 	bl	8006c88 <main>

	//  Call C++ destructors.  Not used because we never return from main().
	for (fp = &__fini_array_start; fp < &__fini_array_end; fp++) {
 8006c4c:	4c0c      	ldr	r4, [pc, #48]	; (8006c80 <application_start+0x80>)
 8006c4e:	4b0d      	ldr	r3, [pc, #52]	; (8006c84 <application_start+0x84>)
 8006c50:	429c      	cmp	r4, r3
 8006c52:	d203      	bcs.n	8006c5c <application_start+0x5c>
		(*fp)();
 8006c54:	f854 3b04 	ldr.w	r3, [r4], #4
 8006c58:	4798      	blx	r3
	for (fp = &__fini_array_start; fp < &__fini_array_end; fp++) {
 8006c5a:	e7f8      	b.n	8006c4e <application_start+0x4e>
	}
}
 8006c5c:	bd10      	pop	{r4, pc}
 8006c5e:	bf00      	nop
 8006c60:	20001000 	.word	0x20001000
 8006c64:	0800a814 	.word	0x0800a814
 8006c68:	20001008 	.word	0x20001008
 8006c6c:	20002218 	.word	0x20002218
 8006c70:	0800a800 	.word	0x0800a800
 8006c74:	0800a800 	.word	0x0800a800
 8006c78:	0800a800 	.word	0x0800a800
 8006c7c:	0800a814 	.word	0x0800a814
 8006c80:	0800a814 	.word	0x0800a814
 8006c84:	0800a814 	.word	0x0800a814

08006c88 <main>:
static void debug_dump(codal::STM32BluePill& bluepill, const char *msg);

//  Blue Pill constructor will generate debug messages, make sure that the target has been initialised.
STM32BluePill bluepill;

int main() {
 8006c88:	b508      	push	{r3, lr}
    bluepill.init();
 8006c8a:	4c03      	ldr	r4, [pc, #12]	; (8006c98 <main+0x10>)
 8006c8c:	4620      	mov	r0, r4
 8006c8e:	f001 fa9f 	bl	80081d0 <_ZN5codal13STM32BluePill4initEv>
    Blink_main(bluepill);
 8006c92:	4620      	mov	r0, r4
 8006c94:	f000 f85c 	bl	8006d50 <_Z10Blink_mainRN5codal13STM32BluePillE>
 8006c98:	20001008 	.word	0x20001008

08006c9c <_ZN5codal14CodalComponent4initEv>:

        /**
          * Implement this function to receive a function call after the devices'
          * device model has been instantiated.
          */
        virtual int init() { return DEVICE_NOT_SUPPORTED; }
 8006c9c:	4800      	ldr	r0, [pc, #0]	; (8006ca0 <_ZN5codal14CodalComponent4initEv+0x4>)
 8006c9e:	4770      	bx	lr
 8006ca0:	fffffc16 	.word	0xfffffc16

08006ca4 <_ZL10debug_dumpRN5codal13STM32BluePillEPKc>:

        //  At t = 30 seconds, device should wakeup by alarm and restart as though t = 0.
    }
}

static void debug_dump(codal::STM32BluePill& bluepill, const char *msg) {
 8006ca4:	b508      	push	{r3, lr}
    debug_print(msg);
 8006ca6:	4608      	mov	r0, r1
 8006ca8:	f7fb fe0e 	bl	80028c8 <debug_print>
    debug_print(" t "); debug_print((size_t) (millis() / 1000)); 
 8006cac:	480a      	ldr	r0, [pc, #40]	; (8006cd8 <_ZL10debug_dumpRN5codal13STM32BluePillEPKc+0x34>)
 8006cae:	f7fb fe0b 	bl	80028c8 <debug_print>
 8006cb2:	f7fb ff8b 	bl	8002bcc <millis>
 8006cb6:	4b09      	ldr	r3, [pc, #36]	; (8006cdc <_ZL10debug_dumpRN5codal13STM32BluePillEPKc+0x38>)
 8006cb8:	fba3 3000 	umull	r3, r0, r3, r0
 8006cbc:	0980      	lsrs	r0, r0, #6
 8006cbe:	f7fb fd79 	bl	80027b4 <_Z11debug_printj>
    // debug_print(", ms "); debug_print((size_t) bluepill.timer.getTime()); 
    // debug_print(", us "); debug_print((size_t) bluepill.timer.getTimeUs()); 
    debug_print(", alm "); debug_print((size_t) platform_alarm_count()); 
 8006cc2:	4807      	ldr	r0, [pc, #28]	; (8006ce0 <_ZL10debug_dumpRN5codal13STM32BluePillEPKc+0x3c>)
 8006cc4:	f7fb fe00 	bl	80028c8 <debug_print>
 8006cc8:	f7fb ff6c 	bl	8002ba4 <platform_alarm_count>
 8006ccc:	f7fb fd72 	bl	80027b4 <_Z11debug_printj>
    // debug_print(", tick "); debug_print((size_t) platform_tick_count()); 
    debug_println(""); 
 8006cd0:	4804      	ldr	r0, [pc, #16]	; (8006ce4 <_ZL10debug_dumpRN5codal13STM32BluePillEPKc+0x40>)
 8006cd2:	f7fb fdcd 	bl	8002870 <debug_println>
    ////debug_flush(); ////
}
 8006cd6:	bd08      	pop	{r3, pc}
 8006cd8:	0800a280 	.word	0x0800a280
 8006cdc:	10624dd3 	.word	0x10624dd3
 8006ce0:	0800a284 	.word	0x0800a284
 8006ce4:	0800a428 	.word	0x0800a428

08006ce8 <_Z41__static_initialization_and_destruction_0ii>:
 8006ce8:	2801      	cmp	r0, #1
 8006cea:	d000      	beq.n	8006cee <_Z41__static_initialization_and_destruction_0ii+0x6>
 8006cec:	4770      	bx	lr
 8006cee:	f64f 73ff 	movw	r3, #65535	; 0xffff
 8006cf2:	4299      	cmp	r1, r3
 8006cf4:	d1fa      	bne.n	8006cec <_Z41__static_initialization_and_destruction_0ii+0x4>
 8006cf6:	b510      	push	{r4, lr}
STM32BluePill bluepill;
 8006cf8:	4c04      	ldr	r4, [pc, #16]	; (8006d0c <_Z41__static_initialization_and_destruction_0ii+0x24>)
 8006cfa:	4620      	mov	r0, r4
 8006cfc:	f001 faa8 	bl	8008250 <_ZN5codal13STM32BluePillC1Ev>
 8006d00:	4a03      	ldr	r2, [pc, #12]	; (8006d10 <_Z41__static_initialization_and_destruction_0ii+0x28>)
 8006d02:	4904      	ldr	r1, [pc, #16]	; (8006d14 <_Z41__static_initialization_and_destruction_0ii+0x2c>)
 8006d04:	4620      	mov	r0, r4
 8006d06:	f7f9 fe6d 	bl	80009e4 <__aeabi_atexit>
}
 8006d0a:	bd10      	pop	{r4, pc}
 8006d0c:	20001008 	.word	0x20001008
 8006d10:	20000160 	.word	0x20000160
 8006d14:	08006dc5 	.word	0x08006dc5

08006d18 <_ZN5codal14CodalComponentD1Ev>:

        /**
          * If you have added your component to the idle or system tick component arrays,
          * you must remember to remove your component from them if your component is destructed.
          */
        virtual ~CodalComponent()
 8006d18:	b510      	push	{r4, lr}
 8006d1a:	4604      	mov	r4, r0
        {
 8006d1c:	4b03      	ldr	r3, [pc, #12]	; (8006d2c <_ZN5codal14CodalComponentD1Ev+0x14>)
 8006d1e:	6003      	str	r3, [r0, #0]
            status = 0;
 8006d20:	2300      	movs	r3, #0
 8006d22:	80c3      	strh	r3, [r0, #6]
            removeComponent();
 8006d24:	f000 f94a 	bl	8006fbc <_ZN5codal14CodalComponent15removeComponentEv>
        }
 8006d28:	4620      	mov	r0, r4
 8006d2a:	bd10      	pop	{r4, pc}
 8006d2c:	0800a244 	.word	0x0800a244

08006d30 <_ZN5codal14CodalComponentD0Ev>:
        virtual ~CodalComponent()
 8006d30:	b510      	push	{r4, lr}
 8006d32:	4604      	mov	r4, r0
        {
 8006d34:	4b05      	ldr	r3, [pc, #20]	; (8006d4c <_ZN5codal14CodalComponentD0Ev+0x1c>)
 8006d36:	6003      	str	r3, [r0, #0]
            status = 0;
 8006d38:	2300      	movs	r3, #0
 8006d3a:	80c3      	strh	r3, [r0, #6]
            removeComponent();
 8006d3c:	f000 f93e 	bl	8006fbc <_ZN5codal14CodalComponent15removeComponentEv>
        }
 8006d40:	4620      	mov	r0, r4
 8006d42:	f7fb ff3f 	bl	8002bc4 <_ZdlPv>
 8006d46:	4620      	mov	r0, r4
 8006d48:	bd10      	pop	{r4, pc}
 8006d4a:	bf00      	nop
 8006d4c:	0800a244 	.word	0x0800a244

08006d50 <_Z10Blink_mainRN5codal13STM32BluePillE>:
void Blink_main(codal::STM32BluePill& bluepill) {
 8006d50:	b570      	push	{r4, r5, r6, lr}
 8006d52:	4605      	mov	r5, r0
    debug_dump(bluepill, "set led");
 8006d54:	4915      	ldr	r1, [pc, #84]	; (8006dac <_Z10Blink_mainRN5codal13STM32BluePillE+0x5c>)
 8006d56:	f7ff ffa5 	bl	8006ca4 <_ZL10debug_dumpRN5codal13STM32BluePillEPKc>
	bluepill.io.led.setDigitalValue(0);
 8006d5a:	f505 6679 	add.w	r6, r5, #3984	; 0xf90
 8006d5e:	2100      	movs	r1, #0
 8006d60:	4630      	mov	r0, r6
 8006d62:	f000 ffc3 	bl	8007cec <_ZN5codal3_cm3Pin15setDigitalValueEi>
    debug_dump(bluepill, "target wait");
 8006d66:	4912      	ldr	r1, [pc, #72]	; (8006db0 <_Z10Blink_mainRN5codal13STM32BluePillE+0x60>)
 8006d68:	4628      	mov	r0, r5
 8006d6a:	f7ff ff9b 	bl	8006ca4 <_ZL10debug_dumpRN5codal13STM32BluePillEPKc>
    target_wait_us(1000000);  //  Test the RTC.
 8006d6e:	4811      	ldr	r0, [pc, #68]	; (8006db4 <_Z10Blink_mainRN5codal13STM32BluePillE+0x64>)
 8006d70:	f7f9 fdb4 	bl	80008dc <target_wait_us>
    debug_dump(bluepill, "sleep");
 8006d74:	4910      	ldr	r1, [pc, #64]	; (8006db8 <_Z10Blink_mainRN5codal13STM32BluePillE+0x68>)
 8006d76:	4628      	mov	r0, r5
 8006d78:	f7ff ff94 	bl	8006ca4 <_ZL10debug_dumpRN5codal13STM32BluePillEPKc>
     * @return STM32BLUEPILL_OK on success, STM32BLUEPILL_INVALID_PARAMETER milliseconds is less than zero.
     *
     */
    inline void STM32BluePill::sleep(uint32_t milliseconds)
    {
        fiber_sleep(milliseconds);
 8006d7c:	f44f 707a 	mov.w	r0, #1000	; 0x3e8
 8006d80:	f000 fc18 	bl	80075b4 <_ZN5codal11fiber_sleepEm>
    debug_dump(bluepill, "loop");
 8006d84:	490d      	ldr	r1, [pc, #52]	; (8006dbc <_Z10Blink_mainRN5codal13STM32BluePillE+0x6c>)
 8006d86:	4628      	mov	r0, r5
 8006d88:	f7ff ff8c 	bl	8006ca4 <_ZL10debug_dumpRN5codal13STM32BluePillEPKc>
	int state = 1;
 8006d8c:	2401      	movs	r4, #1
		bluepill.io.led.setDigitalValue(state);
 8006d8e:	4621      	mov	r1, r4
 8006d90:	4630      	mov	r0, r6
 8006d92:	f000 ffab 	bl	8007cec <_ZN5codal3_cm3Pin15setDigitalValueEi>
        debug_dump(bluepill, "slp");
 8006d96:	490a      	ldr	r1, [pc, #40]	; (8006dc0 <_Z10Blink_mainRN5codal13STM32BluePillE+0x70>)
 8006d98:	4628      	mov	r0, r5
 8006d9a:	f7ff ff83 	bl	8006ca4 <_ZL10debug_dumpRN5codal13STM32BluePillEPKc>
 8006d9e:	f44f 707a 	mov.w	r0, #1000	; 0x3e8
 8006da2:	f000 fc07 	bl	80075b4 <_ZN5codal11fiber_sleepEm>
        state = !state;
 8006da6:	f084 0401 	eor.w	r4, r4, #1
 8006daa:	e7f0      	b.n	8006d8e <_Z10Blink_mainRN5codal13STM32BluePillE+0x3e>
 8006dac:	0800a258 	.word	0x0800a258
 8006db0:	0800a260 	.word	0x0800a260
 8006db4:	000f4240 	.word	0x000f4240
 8006db8:	0800a26c 	.word	0x0800a26c
 8006dbc:	0800a274 	.word	0x0800a274
 8006dc0:	0800a27c 	.word	0x0800a27c

08006dc4 <_ZN5codal13STM32BluePillD1Ev>:
    class STM32BluePill : public CodalComponent
 8006dc4:	b510      	push	{r4, lr}
 8006dc6:	4604      	mov	r4, r0
 8006dc8:	4b0d      	ldr	r3, [pc, #52]	; (8006e00 <_ZN5codal13STM32BluePillD1Ev+0x3c>)
 8006dca:	6003      	str	r3, [r0, #0]
        /**
          * Class definition for DeviceSerial.
          *
          * Represents an instance of RawSerial which accepts codal device specific data types.
          */
        class Serial : public codal::Serial
 8006dcc:	f241 0010 	movw	r0, #4112	; 0x1010
 8006dd0:	4b0c      	ldr	r3, [pc, #48]	; (8006e04 <_ZN5codal13STM32BluePillD1Ev+0x40>)
 8006dd2:	5023      	str	r3, [r4, r0]
 8006dd4:	4420      	add	r0, r4
 8006dd6:	f000 fd23 	bl	8007820 <_ZN5codal6SerialD1Ev>
 8006dda:	f104 002c 	add.w	r0, r4, #44	; 0x2c
 8006dde:	f000 fed5 	bl	8007b8c <_ZN5codal10MessageBusD1Ev>

namespace codal
{
    namespace _cm
    {
        class Timer : public codal::Timer
 8006de2:	4620      	mov	r0, r4
 8006de4:	4b08      	ldr	r3, [pc, #32]	; (8006e08 <_ZN5codal13STM32BluePillD1Ev+0x44>)
 8006de6:	f840 3f08 	str.w	r3, [r0, #8]!
 8006dea:	f002 fc52 	bl	8009692 <_ZN5codal5TimerD1Ev>
        {
 8006dee:	4b07      	ldr	r3, [pc, #28]	; (8006e0c <_ZN5codal13STM32BluePillD1Ev+0x48>)
 8006df0:	6023      	str	r3, [r4, #0]
            status = 0;
 8006df2:	2300      	movs	r3, #0
 8006df4:	80e3      	strh	r3, [r4, #6]
            removeComponent();
 8006df6:	4620      	mov	r0, r4
 8006df8:	f000 f8e0 	bl	8006fbc <_ZN5codal14CodalComponent15removeComponentEv>
 8006dfc:	4620      	mov	r0, r4
 8006dfe:	bd10      	pop	{r4, pc}
 8006e00:	0800a5b8 	.word	0x0800a5b8
 8006e04:	0800a394 	.word	0x0800a394
 8006e08:	0800a3f4 	.word	0x0800a3f4
 8006e0c:	0800a244 	.word	0x0800a244

08006e10 <_ZN5codal13STM32BluePillD0Ev>:
 8006e10:	b510      	push	{r4, lr}
 8006e12:	4604      	mov	r4, r0
 8006e14:	4b0f      	ldr	r3, [pc, #60]	; (8006e54 <_ZN5codal13STM32BluePillD0Ev+0x44>)
 8006e16:	6003      	str	r3, [r0, #0]
 8006e18:	f241 0010 	movw	r0, #4112	; 0x1010
 8006e1c:	4b0e      	ldr	r3, [pc, #56]	; (8006e58 <_ZN5codal13STM32BluePillD0Ev+0x48>)
 8006e1e:	5023      	str	r3, [r4, r0]
 8006e20:	4420      	add	r0, r4
 8006e22:	f000 fcfd 	bl	8007820 <_ZN5codal6SerialD1Ev>
 8006e26:	f104 002c 	add.w	r0, r4, #44	; 0x2c
 8006e2a:	f000 feaf 	bl	8007b8c <_ZN5codal10MessageBusD1Ev>
 8006e2e:	4620      	mov	r0, r4
 8006e30:	4b0a      	ldr	r3, [pc, #40]	; (8006e5c <_ZN5codal13STM32BluePillD0Ev+0x4c>)
 8006e32:	f840 3f08 	str.w	r3, [r0, #8]!
 8006e36:	f002 fc2c 	bl	8009692 <_ZN5codal5TimerD1Ev>
        {
 8006e3a:	4b09      	ldr	r3, [pc, #36]	; (8006e60 <_ZN5codal13STM32BluePillD0Ev+0x50>)
 8006e3c:	6023      	str	r3, [r4, #0]
            status = 0;
 8006e3e:	2300      	movs	r3, #0
 8006e40:	80e3      	strh	r3, [r4, #6]
            removeComponent();
 8006e42:	4620      	mov	r0, r4
 8006e44:	f000 f8ba 	bl	8006fbc <_ZN5codal14CodalComponent15removeComponentEv>
 8006e48:	4620      	mov	r0, r4
 8006e4a:	f7fb febb 	bl	8002bc4 <_ZdlPv>
 8006e4e:	4620      	mov	r0, r4
 8006e50:	bd10      	pop	{r4, pc}
 8006e52:	bf00      	nop
 8006e54:	0800a5b8 	.word	0x0800a5b8
 8006e58:	0800a394 	.word	0x0800a394
 8006e5c:	0800a3f4 	.word	0x0800a3f4
 8006e60:	0800a244 	.word	0x0800a244

08006e64 <_Z41__static_initialization_and_destruction_0ii>:
  //  Log the character in hex e.g. '\r' becomes "[0x0d]"
  debug_print("[0x");
  debug_write((uint8_t) nibbleToHex[ch / 16]);
  debug_write((uint8_t) nibbleToHex[ch % 16]);
  debug_print("]");
}
 8006e64:	2801      	cmp	r0, #1
 8006e66:	d000      	beq.n	8006e6a <_Z41__static_initialization_and_destruction_0ii+0x6>
 8006e68:	4770      	bx	lr
 8006e6a:	b508      	push	{r3, lr}
 8006e6c:	f64f 73ff 	movw	r3, #65535	; 0xffff
 8006e70:	4299      	cmp	r1, r3
 8006e72:	d000      	beq.n	8006e76 <_Z41__static_initialization_and_destruction_0ii+0x12>
 8006e74:	bd08      	pop	{r3, pc}
UARTInterface serialPort(UART_RX_PORT, UART_TX_PORT);  //  UART port for send/receive.
 8006e76:	2204      	movs	r2, #4
 8006e78:	2105      	movs	r1, #5
 8006e7a:	4802      	ldr	r0, [pc, #8]	; (8006e84 <_Z41__static_initialization_and_destruction_0ii+0x20>)
 8006e7c:	f003 f898 	bl	8009fb0 <_ZN13UARTInterfaceC1Ejj>
}
 8006e80:	e7f8      	b.n	8006e74 <_Z41__static_initialization_and_destruction_0ii+0x10>
 8006e82:	bf00      	nop
 8006e84:	2000204c 	.word	0x2000204c

08006e88 <_Z18component_callbackN5codal5EventE>:

/**
  * The periodic callback for all components.
  */
void component_callback(Event evt)
{
 8006e88:	b530      	push	{r4, r5, lr}
 8006e8a:	b083      	sub	sp, #12
 8006e8c:	ab02      	add	r3, sp, #8
 8006e8e:	e903 0003 	stmdb	r3, {r0, r1}
    uint8_t i = 0;

    if(evt.value == DEVICE_COMPONENT_EVT_SYSTEM_TICK)
 8006e92:	f8bd 5002 	ldrh.w	r5, [sp, #2]
 8006e96:	2d01      	cmp	r5, #1
 8006e98:	d004      	beq.n	8006ea4 <_Z18component_callbackN5codal5EventE+0x1c>
    uint8_t i = 0;
 8006e9a:	2400      	movs	r4, #0

            i++;
        }
    }

    if(evt.value == DEVICE_SCHEDULER_EVT_IDLE)
 8006e9c:	2d02      	cmp	r5, #2
 8006e9e:	d016      	beq.n	8006ece <_Z18component_callbackN5codal5EventE+0x46>
                CodalComponent::components[i]->idleCallback();

            i++;
        }
    }
}
 8006ea0:	b003      	add	sp, #12
 8006ea2:	bd30      	pop	{r4, r5, pc}
    uint8_t i = 0;
 8006ea4:	2400      	movs	r4, #0
 8006ea6:	e001      	b.n	8006eac <_Z18component_callbackN5codal5EventE+0x24>
            i++;
 8006ea8:	3401      	adds	r4, #1
 8006eaa:	b2e4      	uxtb	r4, r4
        while(i < DEVICE_COMPONENT_COUNT)
 8006eac:	2c3b      	cmp	r4, #59	; 0x3b
 8006eae:	d8f5      	bhi.n	8006e9c <_Z18component_callbackN5codal5EventE+0x14>
            if(CodalComponent::components[i] && CodalComponent::components[i]->status & DEVICE_COMPONENT_STATUS_SYSTEM_TICK)
 8006eb0:	4b0e      	ldr	r3, [pc, #56]	; (8006eec <_Z18component_callbackN5codal5EventE+0x64>)
 8006eb2:	f853 0024 	ldr.w	r0, [r3, r4, lsl #2]
 8006eb6:	2800      	cmp	r0, #0
 8006eb8:	d0f6      	beq.n	8006ea8 <_Z18component_callbackN5codal5EventE+0x20>
 8006eba:	88c3      	ldrh	r3, [r0, #6]
 8006ebc:	f413 5f00 	tst.w	r3, #8192	; 0x2000
 8006ec0:	d0f2      	beq.n	8006ea8 <_Z18component_callbackN5codal5EventE+0x20>
                CodalComponent::components[i]->periodicCallback();
 8006ec2:	6803      	ldr	r3, [r0, #0]
 8006ec4:	685b      	ldr	r3, [r3, #4]
 8006ec6:	4798      	blx	r3
 8006ec8:	e7ee      	b.n	8006ea8 <_Z18component_callbackN5codal5EventE+0x20>
            i++;
 8006eca:	3401      	adds	r4, #1
 8006ecc:	b2e4      	uxtb	r4, r4
        while(i < DEVICE_COMPONENT_COUNT)
 8006ece:	2c3b      	cmp	r4, #59	; 0x3b
 8006ed0:	d8e6      	bhi.n	8006ea0 <_Z18component_callbackN5codal5EventE+0x18>
            if(CodalComponent::components[i] && CodalComponent::components[i]->status & DEVICE_COMPONENT_STATUS_IDLE_TICK)
 8006ed2:	4b06      	ldr	r3, [pc, #24]	; (8006eec <_Z18component_callbackN5codal5EventE+0x64>)
 8006ed4:	f853 0024 	ldr.w	r0, [r3, r4, lsl #2]
 8006ed8:	2800      	cmp	r0, #0
 8006eda:	d0f6      	beq.n	8006eca <_Z18component_callbackN5codal5EventE+0x42>
 8006edc:	88c3      	ldrh	r3, [r0, #6]
 8006ede:	f413 4f80 	tst.w	r3, #16384	; 0x4000
 8006ee2:	d0f2      	beq.n	8006eca <_Z18component_callbackN5codal5EventE+0x42>
                CodalComponent::components[i]->idleCallback();
 8006ee4:	6803      	ldr	r3, [r0, #0]
 8006ee6:	689b      	ldr	r3, [r3, #8]
 8006ee8:	4798      	blx	r3
 8006eea:	e7ee      	b.n	8006eca <_Z18component_callbackN5codal5EventE+0x42>
 8006eec:	20002050 	.word	0x20002050

08006ef0 <_ZN5codal14CodalComponent12addComponentEv>:
/**
  * Adds the current CodalComponent instance to our array of components.
  */
void CodalComponent::addComponent()
{
    uint8_t i = 0;
 8006ef0:	2300      	movs	r3, #0

    // iterate through our list until an empty space is found.
    while(i < DEVICE_COMPONENT_COUNT)
 8006ef2:	2b3b      	cmp	r3, #59	; 0x3b
 8006ef4:	d80a      	bhi.n	8006f0c <_ZN5codal14CodalComponent12addComponentEv+0x1c>
    {
        if(components[i] == NULL)
 8006ef6:	4619      	mov	r1, r3
 8006ef8:	4a2c      	ldr	r2, [pc, #176]	; (8006fac <_ZN5codal14CodalComponent12addComponentEv+0xbc>)
 8006efa:	f852 2023 	ldr.w	r2, [r2, r3, lsl #2]
 8006efe:	b112      	cbz	r2, 8006f06 <_ZN5codal14CodalComponent12addComponentEv+0x16>
        {
            components[i] = this;
            break;
        }

        i++;
 8006f00:	3301      	adds	r3, #1
 8006f02:	b2db      	uxtb	r3, r3
    while(i < DEVICE_COMPONENT_COUNT)
 8006f04:	e7f5      	b.n	8006ef2 <_ZN5codal14CodalComponent12addComponentEv+0x2>
            components[i] = this;
 8006f06:	4b29      	ldr	r3, [pc, #164]	; (8006fac <_ZN5codal14CodalComponent12addComponentEv+0xbc>)
 8006f08:	f843 0021 	str.w	r0, [r3, r1, lsl #2]
    }

    if(!(configuration & DEVICE_COMPONENT_LISTENERS_CONFIGURED) && EventModel::defaultEventBus)
 8006f0c:	4b28      	ldr	r3, [pc, #160]	; (8006fb0 <_ZN5codal14CodalComponent12addComponentEv+0xc0>)
 8006f0e:	781b      	ldrb	r3, [r3, #0]
 8006f10:	f013 0f01 	tst.w	r3, #1
 8006f14:	d148      	bne.n	8006fa8 <_ZN5codal14CodalComponent12addComponentEv+0xb8>
 8006f16:	4b27      	ldr	r3, [pc, #156]	; (8006fb4 <_ZN5codal14CodalComponent12addComponentEv+0xc4>)
 8006f18:	681b      	ldr	r3, [r3, #0]
 8006f1a:	2b00      	cmp	r3, #0
 8006f1c:	d044      	beq.n	8006fa8 <_ZN5codal14CodalComponent12addComponentEv+0xb8>
{
 8006f1e:	b530      	push	{r4, r5, lr}
 8006f20:	b083      	sub	sp, #12
    {
        int ret = system_timer_event_every_us(SCHEDULER_TICK_PERIOD_US, DEVICE_ID_COMPONENT, DEVICE_COMPONENT_EVT_SYSTEM_TICK);
 8006f22:	2201      	movs	r2, #1
 8006f24:	2110      	movs	r1, #16
 8006f26:	f44f 607a 	mov.w	r0, #4000	; 0xfa0
 8006f2a:	f000 fcb3 	bl	8007894 <_ZN5codal27system_timer_event_every_usEmtt>

        if(ret == DEVICE_OK)
 8006f2e:	b108      	cbz	r0, 8006f34 <_ZN5codal14CodalComponent12addComponentEv+0x44>
            EventModel::defaultEventBus->listen(DEVICE_ID_SCHEDULER, DEVICE_SCHEDULER_EVT_IDLE, component_callback, MESSAGE_BUS_LISTENER_IMMEDIATE);

            CodalComponent::configuration |= DEVICE_COMPONENT_LISTENERS_CONFIGURED;
        }
    }
}
 8006f30:	b003      	add	sp, #12
 8006f32:	bd30      	pop	{r4, r5, pc}
            EventModel::defaultEventBus->listen(DEVICE_ID_COMPONENT, DEVICE_COMPONENT_EVT_SYSTEM_TICK, component_callback, MESSAGE_BUS_LISTENER_IMMEDIATE);
 8006f34:	4b1f      	ldr	r3, [pc, #124]	; (8006fb4 <_ZN5codal14CodalComponent12addComponentEv+0xc4>)
 8006f36:	681d      	ldr	r5, [r3, #0]
                return DEVICE_INVALID_PARAMETER;

            if(id == DEVICE_ID_SCHEDULER && flags != MESSAGE_BUS_LISTENER_IMMEDIATE)
                return DEVICE_INVALID_PARAMETER;

            Listener *newListener = new Listener(id, value, handler, flags);
 8006f38:	2020      	movs	r0, #32
 8006f3a:	f7fb fe3f 	bl	8002bbc <_Znwj>
 8006f3e:	4604      	mov	r4, r0
 8006f40:	23c0      	movs	r3, #192	; 0xc0
 8006f42:	9300      	str	r3, [sp, #0]
 8006f44:	4b1c      	ldr	r3, [pc, #112]	; (8006fb8 <_ZN5codal14CodalComponent12addComponentEv+0xc8>)
 8006f46:	2201      	movs	r2, #1
 8006f48:	2110      	movs	r1, #16
 8006f4a:	f002 f938 	bl	80091be <_ZN5codal8ListenerC1EttPFvNS_5EventEEt>

            if(add(newListener) == DEVICE_OK)
 8006f4e:	682b      	ldr	r3, [r5, #0]
 8006f50:	685b      	ldr	r3, [r3, #4]
 8006f52:	4621      	mov	r1, r4
 8006f54:	4628      	mov	r0, r5
 8006f56:	4798      	blx	r3
 8006f58:	b130      	cbz	r0, 8006f68 <_ZN5codal14CodalComponent12addComponentEv+0x78>
                return DEVICE_OK;

            delete newListener;
 8006f5a:	b12c      	cbz	r4, 8006f68 <_ZN5codal14CodalComponent12addComponentEv+0x78>
 8006f5c:	4620      	mov	r0, r4
 8006f5e:	f002 f942 	bl	80091e6 <_ZN5codal8ListenerD1Ev>
 8006f62:	4620      	mov	r0, r4
 8006f64:	f7fb fe2e 	bl	8002bc4 <_ZdlPv>
            EventModel::defaultEventBus->listen(DEVICE_ID_SCHEDULER, DEVICE_SCHEDULER_EVT_IDLE, component_callback, MESSAGE_BUS_LISTENER_IMMEDIATE);
 8006f68:	4b12      	ldr	r3, [pc, #72]	; (8006fb4 <_ZN5codal14CodalComponent12addComponentEv+0xc4>)
 8006f6a:	681d      	ldr	r5, [r3, #0]
            Listener *newListener = new Listener(id, value, handler, flags);
 8006f6c:	2020      	movs	r0, #32
 8006f6e:	f7fb fe25 	bl	8002bbc <_Znwj>
 8006f72:	4604      	mov	r4, r0
 8006f74:	23c0      	movs	r3, #192	; 0xc0
 8006f76:	9300      	str	r3, [sp, #0]
 8006f78:	4b0f      	ldr	r3, [pc, #60]	; (8006fb8 <_ZN5codal14CodalComponent12addComponentEv+0xc8>)
 8006f7a:	2202      	movs	r2, #2
 8006f7c:	210f      	movs	r1, #15
 8006f7e:	f002 f91e 	bl	80091be <_ZN5codal8ListenerC1EttPFvNS_5EventEEt>
            if(add(newListener) == DEVICE_OK)
 8006f82:	682b      	ldr	r3, [r5, #0]
 8006f84:	685b      	ldr	r3, [r3, #4]
 8006f86:	4621      	mov	r1, r4
 8006f88:	4628      	mov	r0, r5
 8006f8a:	4798      	blx	r3
 8006f8c:	b130      	cbz	r0, 8006f9c <_ZN5codal14CodalComponent12addComponentEv+0xac>
            delete newListener;
 8006f8e:	b12c      	cbz	r4, 8006f9c <_ZN5codal14CodalComponent12addComponentEv+0xac>
 8006f90:	4620      	mov	r0, r4
 8006f92:	f002 f928 	bl	80091e6 <_ZN5codal8ListenerD1Ev>
 8006f96:	4620      	mov	r0, r4
 8006f98:	f7fb fe14 	bl	8002bc4 <_ZdlPv>
            CodalComponent::configuration |= DEVICE_COMPONENT_LISTENERS_CONFIGURED;
 8006f9c:	4a04      	ldr	r2, [pc, #16]	; (8006fb0 <_ZN5codal14CodalComponent12addComponentEv+0xc0>)
 8006f9e:	7813      	ldrb	r3, [r2, #0]
 8006fa0:	f043 0301 	orr.w	r3, r3, #1
 8006fa4:	7013      	strb	r3, [r2, #0]
}
 8006fa6:	e7c3      	b.n	8006f30 <_ZN5codal14CodalComponent12addComponentEv+0x40>
 8006fa8:	4770      	bx	lr
 8006faa:	bf00      	nop
 8006fac:	20002050 	.word	0x20002050
 8006fb0:	20002210 	.word	0x20002210
 8006fb4:	20002170 	.word	0x20002170
 8006fb8:	08006e89 	.word	0x08006e89

08006fbc <_ZN5codal14CodalComponent15removeComponentEv>:
/**
  * Removes the current CodalComponent instance from our array of components.
  */
void CodalComponent::removeComponent()
{
    uint8_t i = 0;
 8006fbc:	2300      	movs	r3, #0

    while(i < DEVICE_COMPONENT_COUNT)
 8006fbe:	2b3b      	cmp	r3, #59	; 0x3b
 8006fc0:	d80d      	bhi.n	8006fde <_ZN5codal14CodalComponent15removeComponentEv+0x22>
    {
        if(components[i] == this)
 8006fc2:	4619      	mov	r1, r3
 8006fc4:	4a06      	ldr	r2, [pc, #24]	; (8006fe0 <_ZN5codal14CodalComponent15removeComponentEv+0x24>)
 8006fc6:	f852 2023 	ldr.w	r2, [r2, r3, lsl #2]
 8006fca:	4282      	cmp	r2, r0
 8006fcc:	d002      	beq.n	8006fd4 <_ZN5codal14CodalComponent15removeComponentEv+0x18>
        {
            components[i] = NULL;
            return;
        }

        i++;
 8006fce:	3301      	adds	r3, #1
 8006fd0:	b2db      	uxtb	r3, r3
    while(i < DEVICE_COMPONENT_COUNT)
 8006fd2:	e7f4      	b.n	8006fbe <_ZN5codal14CodalComponent15removeComponentEv+0x2>
            components[i] = NULL;
 8006fd4:	4b02      	ldr	r3, [pc, #8]	; (8006fe0 <_ZN5codal14CodalComponent15removeComponentEv+0x24>)
 8006fd6:	2200      	movs	r2, #0
 8006fd8:	f843 2021 	str.w	r2, [r3, r1, lsl #2]
            return;
 8006fdc:	4770      	bx	lr
    }
}
 8006fde:	4770      	bx	lr
 8006fe0:	20002050 	.word	0x20002050

08006fe4 <codal_dmesg_flush>:
{
    dmesg_flush_fn = fn;
}

void codal_dmesg_flush()
{
 8006fe4:	b508      	push	{r3, lr}
    if (dmesg_flush_fn)
 8006fe6:	4b02      	ldr	r3, [pc, #8]	; (8006ff0 <codal_dmesg_flush+0xc>)
 8006fe8:	681b      	ldr	r3, [r3, #0]
 8006fea:	b103      	cbz	r3, 8006fee <codal_dmesg_flush+0xa>
        dmesg_flush_fn();
 8006fec:	4798      	blx	r3
}
 8006fee:	bd08      	pop	{r3, pc}
 8006ff0:	20002140 	.word	0x20002140

08006ff4 <_ZN5codal14scheduler_tickENS_5EventE>:
  * The timer callback, called from interrupt context once every SYSTEM_TICK_PERIOD_MS milliseconds.
  * This function checks to determine if any fibers blocked on the sleep queue need to be woken up
  * and made runnable.
  */
void codal::scheduler_tick(Event evt)
{
 8006ff4:	b530      	push	{r4, r5, lr}
 8006ff6:	b083      	sub	sp, #12
 8006ff8:	ab02      	add	r3, sp, #8
 8006ffa:	e903 0003 	stmdb	r3, {r0, r1}
    Fiber *f = sleepQueue;
 8006ffe:	4b0a      	ldr	r3, [pc, #40]	; (8007028 <_ZN5codal14scheduler_tickENS_5EventE+0x34>)
 8007000:	681c      	ldr	r4, [r3, #0]
 8007002:	e000      	b.n	8007006 <_ZN5codal14scheduler_tickENS_5EventE+0x12>
{
 8007004:	462c      	mov	r4, r5
#if !CONFIG_ENABLED(LIGHTWEIGHT_EVENTS)
    evt.timestamp /= 1000;
#endif

    // Check the sleep queue, and wake up any fibers as necessary.
    while (f != NULL)
 8007006:	b164      	cbz	r4, 8007022 <_ZN5codal14scheduler_tickENS_5EventE+0x2e>
    {
        t = f->next;
 8007008:	69a5      	ldr	r5, [r4, #24]

        if (evt.timestamp >= f->context)
 800700a:	68e3      	ldr	r3, [r4, #12]
 800700c:	9a01      	ldr	r2, [sp, #4]
 800700e:	429a      	cmp	r2, r3
 8007010:	d3f8      	bcc.n	8007004 <_ZN5codal14scheduler_tickENS_5EventE+0x10>
        {
            // Wakey wakey!
            dequeue_fiber(f);
 8007012:	4620      	mov	r0, r4
 8007014:	f002 f81f 	bl	8009056 <_ZN5codal13dequeue_fiberEPNS_5FiberE>
            queue_fiber(f,&runQueue);
 8007018:	4904      	ldr	r1, [pc, #16]	; (800702c <_ZN5codal14scheduler_tickENS_5EventE+0x38>)
 800701a:	4620      	mov	r0, r4
 800701c:	f002 f804 	bl	8009028 <_ZN5codal11queue_fiberEPNS_5FiberEPS1_>
 8007020:	e7f0      	b.n	8007004 <_ZN5codal14scheduler_tickENS_5EventE+0x10>
        }

        f = t;
    }
}
 8007022:	b003      	add	sp, #12
 8007024:	bd30      	pop	{r4, r5, pc}
 8007026:	bf00      	nop
 8007028:	2000214c 	.word	0x2000214c
 800702c:	20002154 	.word	0x20002154

08007030 <_ZN5codal15scheduler_eventENS_5EventE>:
  * and made runnable due to the event.
  *
  * @param evt the event that has just been raised on an instance of DeviceMessageBus.
  */
void codal::scheduler_event(Event evt)
{
 8007030:	b570      	push	{r4, r5, r6, lr}
 8007032:	b08c      	sub	sp, #48	; 0x30
 8007034:	ab02      	add	r3, sp, #8
 8007036:	e883 0003 	stmia.w	r3, {r0, r1}
    Fiber *f = waitQueue;
 800703a:	4b29      	ldr	r3, [pc, #164]	; (80070e0 <_ZN5codal15scheduler_eventENS_5EventE+0xb0>)
 800703c:	681c      	ldr	r4, [r3, #0]
    int notifyOneComplete = 0;

    // This should never happen.
    // It is however, safe to simply ignore any events provided, as if no messageBus if recorded,
    // no fibers are permitted to block on events.
    if (messageBus == NULL)
 800703e:	4b29      	ldr	r3, [pc, #164]	; (80070e4 <_ZN5codal15scheduler_eventENS_5EventE+0xb4>)
 8007040:	681b      	ldr	r3, [r3, #0]
 8007042:	2b00      	cmp	r3, #0
 8007044:	d04a      	beq.n	80070dc <_ZN5codal15scheduler_eventENS_5EventE+0xac>
    int notifyOneComplete = 0;
 8007046:	2600      	movs	r6, #0
 8007048:	e01a      	b.n	8007080 <_ZN5codal15scheduler_eventENS_5EventE+0x50>
        // extract the event data this fiber is blocked on.
        uint16_t id = f->context & 0xFFFF;
        uint16_t value = (f->context & 0xFFFF0000) >> 16;

        // Special case for the NOTIFY_ONE channel...
        if ((evt.source == DEVICE_ID_NOTIFY_ONE && id == DEVICE_ID_NOTIFY) && (value == DEVICE_EVT_ANY || value == evt.value))
 800704a:	f240 30ff 	movw	r0, #1023	; 0x3ff
 800704e:	4282      	cmp	r2, r0
 8007050:	d121      	bne.n	8007096 <_ZN5codal15scheduler_eventENS_5EventE+0x66>
 8007052:	b11b      	cbz	r3, 800705c <_ZN5codal15scheduler_eventENS_5EventE+0x2c>
 8007054:	f8bd 000a 	ldrh.w	r0, [sp, #10]
 8007058:	4298      	cmp	r0, r3
 800705a:	d11c      	bne.n	8007096 <_ZN5codal15scheduler_eventENS_5EventE+0x66>
        {
            if (!notifyOneComplete)
 800705c:	b97e      	cbnz	r6, 800707e <_ZN5codal15scheduler_eventENS_5EventE+0x4e>
            {
                // Wakey wakey!
                dequeue_fiber(f);
 800705e:	4620      	mov	r0, r4
 8007060:	f001 fff9 	bl	8009056 <_ZN5codal13dequeue_fiberEPNS_5FiberE>
                queue_fiber(f,&runQueue);
 8007064:	4920      	ldr	r1, [pc, #128]	; (80070e8 <_ZN5codal15scheduler_eventENS_5EventE+0xb8>)
 8007066:	4620      	mov	r0, r4
 8007068:	f001 ffde 	bl	8009028 <_ZN5codal11queue_fiberEPNS_5FiberEPS1_>
                notifyOneComplete = 1;
 800706c:	2601      	movs	r6, #1
 800706e:	e006      	b.n	800707e <_ZN5codal15scheduler_eventENS_5EventE+0x4e>

        // Normal case.
        else if ((id == DEVICE_ID_ANY || id == evt.source) && (value == DEVICE_EVT_ANY || value == evt.value))
        {
            // Wakey wakey!
            dequeue_fiber(f);
 8007070:	4620      	mov	r0, r4
 8007072:	f001 fff0 	bl	8009056 <_ZN5codal13dequeue_fiberEPNS_5FiberE>
            queue_fiber(f,&runQueue);
 8007076:	491c      	ldr	r1, [pc, #112]	; (80070e8 <_ZN5codal15scheduler_eventENS_5EventE+0xb8>)
 8007078:	4620      	mov	r0, r4
 800707a:	f001 ffd5 	bl	8009028 <_ZN5codal11queue_fiberEPNS_5FiberEPS1_>
                notifyOneComplete = 1;
 800707e:	462c      	mov	r4, r5
    while (f != NULL)
 8007080:	b19c      	cbz	r4, 80070aa <_ZN5codal15scheduler_eventENS_5EventE+0x7a>
        t = f->next;
 8007082:	69a5      	ldr	r5, [r4, #24]
        uint16_t id = f->context & 0xFFFF;
 8007084:	68e3      	ldr	r3, [r4, #12]
 8007086:	b29a      	uxth	r2, r3
        uint16_t value = (f->context & 0xFFFF0000) >> 16;
 8007088:	0c1b      	lsrs	r3, r3, #16
        if ((evt.source == DEVICE_ID_NOTIFY_ONE && id == DEVICE_ID_NOTIFY) && (value == DEVICE_EVT_ANY || value == evt.value))
 800708a:	f8bd 1008 	ldrh.w	r1, [sp, #8]
 800708e:	f240 30fe 	movw	r0, #1022	; 0x3fe
 8007092:	4281      	cmp	r1, r0
 8007094:	d0d9      	beq.n	800704a <_ZN5codal15scheduler_eventENS_5EventE+0x1a>
        else if ((id == DEVICE_ID_ANY || id == evt.source) && (value == DEVICE_EVT_ANY || value == evt.value))
 8007096:	b10a      	cbz	r2, 800709c <_ZN5codal15scheduler_eventENS_5EventE+0x6c>
 8007098:	4291      	cmp	r1, r2
 800709a:	d1f0      	bne.n	800707e <_ZN5codal15scheduler_eventENS_5EventE+0x4e>
 800709c:	2b00      	cmp	r3, #0
 800709e:	d0e7      	beq.n	8007070 <_ZN5codal15scheduler_eventENS_5EventE+0x40>
 80070a0:	f8bd 200a 	ldrh.w	r2, [sp, #10]
 80070a4:	429a      	cmp	r2, r3
 80070a6:	d1ea      	bne.n	800707e <_ZN5codal15scheduler_eventENS_5EventE+0x4e>
 80070a8:	e7e2      	b.n	8007070 <_ZN5codal15scheduler_eventENS_5EventE+0x40>

        f = t;
    }

    // Unregister this event, as we've woken up all the fibers with this match.
    if (evt.source != DEVICE_ID_NOTIFY && evt.source != DEVICE_ID_NOTIFY_ONE)
 80070aa:	f8bd 1008 	ldrh.w	r1, [sp, #8]
 80070ae:	f2a1 33fe 	subw	r3, r1, #1022	; 0x3fe
 80070b2:	b29b      	uxth	r3, r3
 80070b4:	2b01      	cmp	r3, #1
 80070b6:	d911      	bls.n	80070dc <_ZN5codal15scheduler_eventENS_5EventE+0xac>
        messageBus->ignore(evt.source, evt.value, scheduler_event);
 80070b8:	4b0a      	ldr	r3, [pc, #40]	; (80070e4 <_ZN5codal15scheduler_eventENS_5EventE+0xb4>)
 80070ba:	681c      	ldr	r4, [r3, #0]
 80070bc:	f8bd 200a 	ldrh.w	r2, [sp, #10]
        int ignore(int id, int value, void (*handler)(Event))
        {
            if (handler == NULL)
                return DEVICE_INVALID_PARAMETER;

            Listener listener(id, value, handler);
 80070c0:	2310      	movs	r3, #16
 80070c2:	9300      	str	r3, [sp, #0]
 80070c4:	4b09      	ldr	r3, [pc, #36]	; (80070ec <_ZN5codal15scheduler_eventENS_5EventE+0xbc>)
 80070c6:	a804      	add	r0, sp, #16
 80070c8:	f002 f879 	bl	80091be <_ZN5codal8ListenerC1EttPFvNS_5EventEEt>
            remove(&listener);
 80070cc:	6823      	ldr	r3, [r4, #0]
 80070ce:	689b      	ldr	r3, [r3, #8]
 80070d0:	a904      	add	r1, sp, #16
 80070d2:	4620      	mov	r0, r4
 80070d4:	4798      	blx	r3
            Listener listener(id, value, handler);
 80070d6:	a804      	add	r0, sp, #16
 80070d8:	f002 f885 	bl	80091e6 <_ZN5codal8ListenerD1Ev>
}
 80070dc:	b00c      	add	sp, #48	; 0x30
 80070de:	bd70      	pop	{r4, r5, r6, pc}
 80070e0:	20002160 	.word	0x20002160
 80070e4:	20002148 	.word	0x20002148
 80070e8:	20002154 	.word	0x20002154
 80070ec:	08007031 	.word	0x08007031

080070f0 <_Z15getFiberContextv>:
{
 80070f0:	b538      	push	{r3, r4, r5, lr}
    target_disable_irq();
 80070f2:	f7f9 fc5f 	bl	80009b4 <target_disable_irq>
    if (fiberPool != NULL)
 80070f6:	4b13      	ldr	r3, [pc, #76]	; (8007144 <_Z15getFiberContextv+0x54>)
 80070f8:	681c      	ldr	r4, [r3, #0]
 80070fa:	b184      	cbz	r4, 800711e <_Z15getFiberContextv+0x2e>
        dequeue_fiber(f);
 80070fc:	4620      	mov	r0, r4
 80070fe:	f001 ffaa 	bl	8009056 <_ZN5codal13dequeue_fiberEPNS_5FiberE>
    target_enable_irq();
 8007102:	f7f9 fc55 	bl	80009b0 <target_enable_irq>
    f->flags = 0;
 8007106:	2300      	movs	r3, #0
 8007108:	6123      	str	r3, [r4, #16]
    f->user_data = 0;
 800710a:	6223      	str	r3, [r4, #32]
    tcb_configure_stack_base(f->tcb, fiber_initial_stack_base());
 800710c:	6825      	ldr	r5, [r4, #0]
 800710e:	f7f9 fbff 	bl	8000910 <fiber_initial_stack_base>
 8007112:	4601      	mov	r1, r0
 8007114:	4628      	mov	r0, r5
 8007116:	f7f9 fc58 	bl	80009ca <tcb_configure_stack_base>
}
 800711a:	4620      	mov	r0, r4
 800711c:	bd38      	pop	{r3, r4, r5, pc}
        f = new Fiber();
 800711e:	2024      	movs	r0, #36	; 0x24
 8007120:	f7fb fd4c 	bl	8002bbc <_Znwj>
 8007124:	4604      	mov	r4, r0
 8007126:	2224      	movs	r2, #36	; 0x24
 8007128:	2100      	movs	r1, #0
 800712a:	f7fb fa4f 	bl	80025cc <memset>
        if (f == NULL) {
 800712e:	b134      	cbz	r4, 800713e <_Z15getFiberContextv+0x4e>
        f->tcb = tcb_allocate();
 8007130:	f7f9 fc42 	bl	80009b8 <tcb_allocate>
 8007134:	6020      	str	r0, [r4, #0]
        f->stack_bottom = 0;
 8007136:	2300      	movs	r3, #0
 8007138:	6063      	str	r3, [r4, #4]
        f->stack_top = 0;
 800713a:	60a3      	str	r3, [r4, #8]
 800713c:	e7e1      	b.n	8007102 <_Z15getFiberContextv+0x12>
            target_enable_irq();
 800713e:	f7f9 fc37 	bl	80009b0 <target_enable_irq>
            return NULL;
 8007142:	e7ea      	b.n	800711a <_Z15getFiberContextv+0x2a>
 8007144:	20002158 	.word	0x20002158

08007148 <_ZL10handle_fobv>:

static Fiber* handle_fob()
{
 8007148:	b510      	push	{r4, lr}
    Fiber *f = currentFiber;
 800714a:	4b0a      	ldr	r3, [pc, #40]	; (8007174 <_ZL10handle_fobv+0x2c>)
 800714c:	681c      	ldr	r4, [r3, #0]

    // This is a blocking call, so if we're in a fork on block context,
    // it's time to spawn a new fiber...
    if (f->flags & DEVICE_FIBER_FLAG_FOB)
 800714e:	6923      	ldr	r3, [r4, #16]
 8007150:	f013 0f01 	tst.w	r3, #1
 8007154:	d101      	bne.n	800715a <_ZL10handle_fobv+0x12>
#endif
            f = forkedFiber;
        }
    }
    return f;
}
 8007156:	4620      	mov	r0, r4
 8007158:	bd10      	pop	{r4, pc}
        forkedFiber = getFiberContext();
 800715a:	f7ff ffc9 	bl	80070f0 <_Z15getFiberContextv>
 800715e:	4b06      	ldr	r3, [pc, #24]	; (8007178 <_ZL10handle_fobv+0x30>)
 8007160:	6018      	str	r0, [r3, #0]
        if (forkedFiber != NULL) {
 8007162:	2800      	cmp	r0, #0
 8007164:	d0f7      	beq.n	8007156 <_ZL10handle_fobv+0xe>
            forkedFiber->user_data = f->user_data;
 8007166:	6a23      	ldr	r3, [r4, #32]
 8007168:	6203      	str	r3, [r0, #32]
            f->user_data = NULL;
 800716a:	2300      	movs	r3, #0
 800716c:	6223      	str	r3, [r4, #32]
            f = forkedFiber;
 800716e:	4604      	mov	r4, r0
    return f;
 8007170:	e7f1      	b.n	8007156 <_ZL10handle_fobv+0xe>
 8007172:	bf00      	nop
 8007174:	20002144 	.word	0x20002144
 8007178:	20002150 	.word	0x20002150

0800717c <_ZN5codal23fiber_scheduler_runningEv>:
    if (fiber_flags & DEVICE_SCHEDULER_RUNNING)
 800717c:	4b04      	ldr	r3, [pc, #16]	; (8007190 <_ZN5codal23fiber_scheduler_runningEv+0x14>)
 800717e:	781b      	ldrb	r3, [r3, #0]
 8007180:	f013 0f01 	tst.w	r3, #1
 8007184:	d101      	bne.n	800718a <_ZN5codal23fiber_scheduler_runningEv+0xe>
    return 0;
 8007186:	2000      	movs	r0, #0
}
 8007188:	4770      	bx	lr
        return 1;
 800718a:	2001      	movs	r0, #1
 800718c:	4770      	bx	lr
 800718e:	bf00      	nop
 8007190:	20002211 	.word	0x20002211

08007194 <_ZN5codal14scheduler_initERNS_10EventModelE>:
{
 8007194:	b570      	push	{r4, r5, r6, lr}
 8007196:	b082      	sub	sp, #8
 8007198:	4604      	mov	r4, r0
    if (fiber_scheduler_running())
 800719a:	f7ff ffef 	bl	800717c <_ZN5codal23fiber_scheduler_runningEv>
 800719e:	b108      	cbz	r0, 80071a4 <_ZN5codal14scheduler_initERNS_10EventModelE+0x10>
}
 80071a0:	b002      	add	sp, #8
 80071a2:	bd70      	pop	{r4, r5, r6, pc}
    messageBus = &_messageBus;
 80071a4:	4d3a      	ldr	r5, [pc, #232]	; (8007290 <_ZN5codal14scheduler_initERNS_10EventModelE+0xfc>)
 80071a6:	602c      	str	r4, [r5, #0]
    currentFiber = getFiberContext();
 80071a8:	f7ff ffa2 	bl	80070f0 <_Z15getFiberContextv>
 80071ac:	4b39      	ldr	r3, [pc, #228]	; (8007294 <_ZN5codal14scheduler_initERNS_10EventModelE+0x100>)
 80071ae:	6018      	str	r0, [r3, #0]
    queue_fiber(currentFiber, &runQueue);
 80071b0:	4939      	ldr	r1, [pc, #228]	; (8007298 <_ZN5codal14scheduler_initERNS_10EventModelE+0x104>)
 80071b2:	f001 ff39 	bl	8009028 <_ZN5codal11queue_fiberEPNS_5FiberEPS1_>
    idleFiber = getFiberContext();
 80071b6:	f7ff ff9b 	bl	80070f0 <_Z15getFiberContextv>
 80071ba:	4c38      	ldr	r4, [pc, #224]	; (800729c <_ZN5codal14scheduler_initERNS_10EventModelE+0x108>)
 80071bc:	6020      	str	r0, [r4, #0]
    tcb_configure_sp(idleFiber->tcb, INITIAL_STACK_DEPTH);
 80071be:	6806      	ldr	r6, [r0, #0]
 80071c0:	f7f9 fba6 	bl	8000910 <fiber_initial_stack_base>
 80071c4:	1f01      	subs	r1, r0, #4
 80071c6:	4630      	mov	r0, r6
 80071c8:	f7f9 fbfd 	bl	80009c6 <tcb_configure_sp>
    tcb_configure_lr(idleFiber->tcb, (PROCESSOR_WORD_TYPE)&idle_task);
 80071cc:	6823      	ldr	r3, [r4, #0]
 80071ce:	4934      	ldr	r1, [pc, #208]	; (80072a0 <_ZN5codal14scheduler_initERNS_10EventModelE+0x10c>)
 80071d0:	6818      	ldr	r0, [r3, #0]
 80071d2:	f7f9 fbf6 	bl	80009c2 <tcb_configure_lr>
    if (messageBus)
 80071d6:	682c      	ldr	r4, [r5, #0]
 80071d8:	2c00      	cmp	r4, #0
 80071da:	d053      	beq.n	8007284 <_ZN5codal14scheduler_initERNS_10EventModelE+0xf0>
            Listener *newListener = new Listener(id, value, handler, flags);
 80071dc:	2020      	movs	r0, #32
 80071de:	f7fb fced 	bl	8002bbc <_Znwj>
 80071e2:	4605      	mov	r5, r0
 80071e4:	23c0      	movs	r3, #192	; 0xc0
 80071e6:	9300      	str	r3, [sp, #0]
 80071e8:	4b2e      	ldr	r3, [pc, #184]	; (80072a4 <_ZN5codal14scheduler_initERNS_10EventModelE+0x110>)
 80071ea:	2200      	movs	r2, #0
 80071ec:	f240 31ff 	movw	r1, #1023	; 0x3ff
 80071f0:	f001 ffe5 	bl	80091be <_ZN5codal8ListenerC1EttPFvNS_5EventEEt>
            if(add(newListener) == DEVICE_OK)
 80071f4:	6823      	ldr	r3, [r4, #0]
 80071f6:	685b      	ldr	r3, [r3, #4]
 80071f8:	4629      	mov	r1, r5
 80071fa:	4620      	mov	r0, r4
 80071fc:	4798      	blx	r3
 80071fe:	b130      	cbz	r0, 800720e <_ZN5codal14scheduler_initERNS_10EventModelE+0x7a>
            delete newListener;
 8007200:	b12d      	cbz	r5, 800720e <_ZN5codal14scheduler_initERNS_10EventModelE+0x7a>
 8007202:	4628      	mov	r0, r5
 8007204:	f001 ffef 	bl	80091e6 <_ZN5codal8ListenerD1Ev>
 8007208:	4628      	mov	r0, r5
 800720a:	f7fb fcdb 	bl	8002bc4 <_ZdlPv>
        messageBus->listen(DEVICE_ID_NOTIFY_ONE, DEVICE_EVT_ANY, scheduler_event, MESSAGE_BUS_LISTENER_IMMEDIATE);
 800720e:	4b20      	ldr	r3, [pc, #128]	; (8007290 <_ZN5codal14scheduler_initERNS_10EventModelE+0xfc>)
 8007210:	681d      	ldr	r5, [r3, #0]
            Listener *newListener = new Listener(id, value, handler, flags);
 8007212:	2020      	movs	r0, #32
 8007214:	f7fb fcd2 	bl	8002bbc <_Znwj>
 8007218:	4604      	mov	r4, r0
 800721a:	23c0      	movs	r3, #192	; 0xc0
 800721c:	9300      	str	r3, [sp, #0]
 800721e:	4b21      	ldr	r3, [pc, #132]	; (80072a4 <_ZN5codal14scheduler_initERNS_10EventModelE+0x110>)
 8007220:	2200      	movs	r2, #0
 8007222:	f240 31fe 	movw	r1, #1022	; 0x3fe
 8007226:	f001 ffca 	bl	80091be <_ZN5codal8ListenerC1EttPFvNS_5EventEEt>
            if(add(newListener) == DEVICE_OK)
 800722a:	682b      	ldr	r3, [r5, #0]
 800722c:	685b      	ldr	r3, [r3, #4]
 800722e:	4621      	mov	r1, r4
 8007230:	4628      	mov	r0, r5
 8007232:	4798      	blx	r3
 8007234:	b130      	cbz	r0, 8007244 <_ZN5codal14scheduler_initERNS_10EventModelE+0xb0>
            delete newListener;
 8007236:	b12c      	cbz	r4, 8007244 <_ZN5codal14scheduler_initERNS_10EventModelE+0xb0>
 8007238:	4620      	mov	r0, r4
 800723a:	f001 ffd4 	bl	80091e6 <_ZN5codal8ListenerD1Ev>
 800723e:	4620      	mov	r0, r4
 8007240:	f7fb fcc0 	bl	8002bc4 <_ZdlPv>
        system_timer_event_every_us(SCHEDULER_TICK_PERIOD_US, DEVICE_ID_SCHEDULER, DEVICE_SCHEDULER_EVT_TICK);
 8007244:	2201      	movs	r2, #1
 8007246:	210f      	movs	r1, #15
 8007248:	f44f 607a 	mov.w	r0, #4000	; 0xfa0
 800724c:	f000 fb22 	bl	8007894 <_ZN5codal27system_timer_event_every_usEmtt>
        messageBus->listen(DEVICE_ID_SCHEDULER, DEVICE_SCHEDULER_EVT_TICK, scheduler_tick, MESSAGE_BUS_LISTENER_IMMEDIATE);
 8007250:	4b0f      	ldr	r3, [pc, #60]	; (8007290 <_ZN5codal14scheduler_initERNS_10EventModelE+0xfc>)
 8007252:	681d      	ldr	r5, [r3, #0]
            Listener *newListener = new Listener(id, value, handler, flags);
 8007254:	2020      	movs	r0, #32
 8007256:	f7fb fcb1 	bl	8002bbc <_Znwj>
 800725a:	4604      	mov	r4, r0
 800725c:	23c0      	movs	r3, #192	; 0xc0
 800725e:	9300      	str	r3, [sp, #0]
 8007260:	4b11      	ldr	r3, [pc, #68]	; (80072a8 <_ZN5codal14scheduler_initERNS_10EventModelE+0x114>)
 8007262:	2201      	movs	r2, #1
 8007264:	210f      	movs	r1, #15
 8007266:	f001 ffaa 	bl	80091be <_ZN5codal8ListenerC1EttPFvNS_5EventEEt>
            if(add(newListener) == DEVICE_OK)
 800726a:	682b      	ldr	r3, [r5, #0]
 800726c:	685b      	ldr	r3, [r3, #4]
 800726e:	4621      	mov	r1, r4
 8007270:	4628      	mov	r0, r5
 8007272:	4798      	blx	r3
 8007274:	b130      	cbz	r0, 8007284 <_ZN5codal14scheduler_initERNS_10EventModelE+0xf0>
            delete newListener;
 8007276:	b12c      	cbz	r4, 8007284 <_ZN5codal14scheduler_initERNS_10EventModelE+0xf0>
 8007278:	4620      	mov	r0, r4
 800727a:	f001 ffb4 	bl	80091e6 <_ZN5codal8ListenerD1Ev>
 800727e:	4620      	mov	r0, r4
 8007280:	f7fb fca0 	bl	8002bc4 <_ZdlPv>
    fiber_flags |= DEVICE_SCHEDULER_RUNNING;
 8007284:	4a09      	ldr	r2, [pc, #36]	; (80072ac <_ZN5codal14scheduler_initERNS_10EventModelE+0x118>)
 8007286:	7813      	ldrb	r3, [r2, #0]
 8007288:	f043 0301 	orr.w	r3, r3, #1
 800728c:	7013      	strb	r3, [r2, #0]
 800728e:	e787      	b.n	80071a0 <_ZN5codal14scheduler_initERNS_10EventModelE+0xc>
 8007290:	20002148 	.word	0x20002148
 8007294:	20002144 	.word	0x20002144
 8007298:	20002154 	.word	0x20002154
 800729c:	2000215c 	.word	0x2000215c
 80072a0:	08009113 	.word	0x08009113
 80072a4:	08007031 	.word	0x08007031
 80072a8:	08006ff5 	.word	0x08006ff5
 80072ac:	20002211 	.word	0x20002211

080072b0 <_ZN5codal19fiber_wake_on_eventEtt>:
  * schedule();
  * @endcode
  */
int codal::fiber_wake_on_event(uint16_t id, uint16_t value)
{
    if (messageBus == NULL || !fiber_scheduler_running())
 80072b0:	4b1f      	ldr	r3, [pc, #124]	; (8007330 <_ZN5codal19fiber_wake_on_eventEtt+0x80>)
 80072b2:	681b      	ldr	r3, [r3, #0]
 80072b4:	2b00      	cmp	r3, #0
 80072b6:	d034      	beq.n	8007322 <_ZN5codal19fiber_wake_on_eventEtt+0x72>
{
 80072b8:	b5f0      	push	{r4, r5, r6, r7, lr}
 80072ba:	b083      	sub	sp, #12
 80072bc:	460e      	mov	r6, r1
 80072be:	4604      	mov	r4, r0
    if (messageBus == NULL || !fiber_scheduler_running())
 80072c0:	f7ff ff5c 	bl	800717c <_ZN5codal23fiber_scheduler_runningEv>
 80072c4:	b378      	cbz	r0, 8007326 <_ZN5codal19fiber_wake_on_eventEtt+0x76>
        return DEVICE_NOT_SUPPORTED;

    Fiber *f = handle_fob();
 80072c6:	f7ff ff3f 	bl	8007148 <_ZL10handle_fobv>
 80072ca:	4605      	mov	r5, r0

    // Encode the event data in the context field. It's handy having a 32 bit core. :-)
    f->context = (uint32_t)value << 16 | id;
 80072cc:	ea44 4306 	orr.w	r3, r4, r6, lsl #16
 80072d0:	60c3      	str	r3, [r0, #12]

    // Remove ourselves from the run queue
    dequeue_fiber(f);
 80072d2:	f001 fec0 	bl	8009056 <_ZN5codal13dequeue_fiberEPNS_5FiberE>

    // Add ourselves to the sleep queue. We maintain strict ordering here to reduce lookup times.
    queue_fiber(f, &waitQueue);
 80072d6:	4917      	ldr	r1, [pc, #92]	; (8007334 <_ZN5codal19fiber_wake_on_eventEtt+0x84>)
 80072d8:	4628      	mov	r0, r5
 80072da:	f001 fea5 	bl	8009028 <_ZN5codal11queue_fiberEPNS_5FiberEPS1_>

    // Register to receive this event, so we can wake up the fiber when it happens.
    // Special case for the notify channel, as we always stay registered for that.
    if (id != DEVICE_ID_NOTIFY && id != DEVICE_ID_NOTIFY_ONE)
 80072de:	f2a4 33fe 	subw	r3, r4, #1022	; 0x3fe
 80072e2:	b29b      	uxth	r3, r3
 80072e4:	2b01      	cmp	r3, #1
 80072e6:	d920      	bls.n	800732a <_ZN5codal19fiber_wake_on_eventEtt+0x7a>
        messageBus->listen(id, value, scheduler_event, MESSAGE_BUS_LISTENER_IMMEDIATE);
 80072e8:	4b11      	ldr	r3, [pc, #68]	; (8007330 <_ZN5codal19fiber_wake_on_eventEtt+0x80>)
 80072ea:	681f      	ldr	r7, [r3, #0]
            Listener *newListener = new Listener(id, value, handler, flags);
 80072ec:	2020      	movs	r0, #32
 80072ee:	f7fb fc65 	bl	8002bbc <_Znwj>
 80072f2:	4605      	mov	r5, r0
 80072f4:	23c0      	movs	r3, #192	; 0xc0
 80072f6:	9300      	str	r3, [sp, #0]
 80072f8:	4b0f      	ldr	r3, [pc, #60]	; (8007338 <_ZN5codal19fiber_wake_on_eventEtt+0x88>)
 80072fa:	4632      	mov	r2, r6
 80072fc:	4621      	mov	r1, r4
 80072fe:	f001 ff5e 	bl	80091be <_ZN5codal8ListenerC1EttPFvNS_5EventEEt>
            if(add(newListener) == DEVICE_OK)
 8007302:	683b      	ldr	r3, [r7, #0]
 8007304:	685b      	ldr	r3, [r3, #4]
 8007306:	4629      	mov	r1, r5
 8007308:	4638      	mov	r0, r7
 800730a:	4798      	blx	r3
 800730c:	b130      	cbz	r0, 800731c <_ZN5codal19fiber_wake_on_eventEtt+0x6c>
            delete newListener;
 800730e:	b12d      	cbz	r5, 800731c <_ZN5codal19fiber_wake_on_eventEtt+0x6c>
 8007310:	4628      	mov	r0, r5
 8007312:	f001 ff68 	bl	80091e6 <_ZN5codal8ListenerD1Ev>
 8007316:	4628      	mov	r0, r5
 8007318:	f7fb fc54 	bl	8002bc4 <_ZdlPv>

    return DEVICE_OK;
 800731c:	2000      	movs	r0, #0
}
 800731e:	b003      	add	sp, #12
 8007320:	bdf0      	pop	{r4, r5, r6, r7, pc}
        return DEVICE_NOT_SUPPORTED;
 8007322:	4806      	ldr	r0, [pc, #24]	; (800733c <_ZN5codal19fiber_wake_on_eventEtt+0x8c>)
}
 8007324:	4770      	bx	lr
        return DEVICE_NOT_SUPPORTED;
 8007326:	4805      	ldr	r0, [pc, #20]	; (800733c <_ZN5codal19fiber_wake_on_eventEtt+0x8c>)
 8007328:	e7f9      	b.n	800731e <_ZN5codal19fiber_wake_on_eventEtt+0x6e>
    return DEVICE_OK;
 800732a:	2000      	movs	r0, #0
 800732c:	e7f7      	b.n	800731e <_ZN5codal19fiber_wake_on_eventEtt+0x6e>
 800732e:	bf00      	nop
 8007330:	20002148 	.word	0x20002148
 8007334:	20002160 	.word	0x20002160
 8007338:	08007031 	.word	0x08007031
 800733c:	fffffc16 	.word	0xfffffc16

08007340 <_Z14__create_fibermmmi>:
    release_fiber(pm);
}


Fiber *__create_fiber(uint32_t ep, uint32_t cp, uint32_t pm, int parameterised)
{
 8007340:	e92d 41f0 	stmdb	sp!, {r4, r5, r6, r7, r8, lr}
    // Validate our parameters.
    if (ep == 0 || cp == 0)
 8007344:	b328      	cbz	r0, 8007392 <_Z14__create_fibermmmi+0x52>
 8007346:	4606      	mov	r6, r0
 8007348:	b329      	cbz	r1, 8007396 <_Z14__create_fibermmmi+0x56>
 800734a:	4698      	mov	r8, r3
 800734c:	4617      	mov	r7, r2
 800734e:	460d      	mov	r5, r1
        return NULL;

    // Allocate a TCB from the new fiber. This will come from the fiber pool if availiable,
    // else a new one will be allocated on the heap.
    Fiber *newFiber = getFiberContext();
 8007350:	f7ff fece 	bl	80070f0 <_Z15getFiberContextv>

    // If we're out of memory, there's nothing we can do.
    if (newFiber == NULL)
 8007354:	4604      	mov	r4, r0
 8007356:	b1b8      	cbz	r0, 8007388 <_Z14__create_fibermmmi+0x48>
        return NULL;

    tcb_configure_args(newFiber->tcb, ep, cp, pm);
 8007358:	463b      	mov	r3, r7
 800735a:	462a      	mov	r2, r5
 800735c:	4631      	mov	r1, r6
 800735e:	6800      	ldr	r0, [r0, #0]
 8007360:	f7f9 fb3b 	bl	80009da <tcb_configure_args>
    tcb_configure_sp(newFiber->tcb, INITIAL_STACK_DEPTH);
 8007364:	6825      	ldr	r5, [r4, #0]
 8007366:	f7f9 fad3 	bl	8000910 <fiber_initial_stack_base>
 800736a:	1f01      	subs	r1, r0, #4
 800736c:	4628      	mov	r0, r5
 800736e:	f7f9 fb2a 	bl	80009c6 <tcb_configure_sp>
    tcb_configure_lr(newFiber->tcb, parameterised ? (PROCESSOR_WORD_TYPE) &launch_new_fiber_param : (PROCESSOR_WORD_TYPE) &launch_new_fiber);
 8007372:	6820      	ldr	r0, [r4, #0]
 8007374:	f1b8 0f00 	cmp.w	r8, #0
 8007378:	d009      	beq.n	800738e <_Z14__create_fibermmmi+0x4e>
 800737a:	4908      	ldr	r1, [pc, #32]	; (800739c <_Z14__create_fibermmmi+0x5c>)
 800737c:	f7f9 fb21 	bl	80009c2 <tcb_configure_lr>

    // Add new fiber to the run queue.
    queue_fiber(newFiber, &runQueue);
 8007380:	4907      	ldr	r1, [pc, #28]	; (80073a0 <_Z14__create_fibermmmi+0x60>)
 8007382:	4620      	mov	r0, r4
 8007384:	f001 fe50 	bl	8009028 <_ZN5codal11queue_fiberEPNS_5FiberEPS1_>

    return newFiber;
}
 8007388:	4620      	mov	r0, r4
 800738a:	e8bd 81f0 	ldmia.w	sp!, {r4, r5, r6, r7, r8, pc}
    tcb_configure_lr(newFiber->tcb, parameterised ? (PROCESSOR_WORD_TYPE) &launch_new_fiber_param : (PROCESSOR_WORD_TYPE) &launch_new_fiber);
 800738e:	4905      	ldr	r1, [pc, #20]	; (80073a4 <_Z14__create_fibermmmi+0x64>)
 8007390:	e7f4      	b.n	800737c <_Z14__create_fibermmmi+0x3c>
        return NULL;
 8007392:	2400      	movs	r4, #0
 8007394:	e7f8      	b.n	8007388 <_Z14__create_fibermmmi+0x48>
 8007396:	2400      	movs	r4, #0
 8007398:	e7f6      	b.n	8007388 <_Z14__create_fibermmmi+0x48>
 800739a:	bf00      	nop
 800739c:	080090fb 	.word	0x080090fb
 80073a0:	20002154 	.word	0x20002154
 80073a4:	080090dd 	.word	0x080090dd

080073a8 <_ZN5codal24scheduler_runqueue_emptyEv>:
  *
  * @return The number of fibers currently on the run queue
  */
int codal::scheduler_runqueue_empty()
{
    return (runQueue == NULL);
 80073a8:	4b02      	ldr	r3, [pc, #8]	; (80073b4 <_ZN5codal24scheduler_runqueue_emptyEv+0xc>)
 80073aa:	6818      	ldr	r0, [r3, #0]
}
 80073ac:	fab0 f080 	clz	r0, r0
 80073b0:	0940      	lsrs	r0, r0, #5
 80073b2:	4770      	bx	lr
 80073b4:	20002154 	.word	0x20002154

080073b8 <_ZN5codal4idleEv>:
/**
  * Set of tasks to perform when idle.
  * Service any background tasks that are required, and attempt a power efficient sleep.
  */
void codal::idle()
{
 80073b8:	b500      	push	{lr}
 80073ba:	b083      	sub	sp, #12
    // Prevent an idle loop of death:
    // We will return to idle after processing any idle events that add anything
    // to our run queue, we use the DEVICE_SCHEDULER_IDLE flag to determine this
    // scenario.
    if(!(fiber_flags & DEVICE_SCHEDULER_IDLE))
 80073bc:	4b0e      	ldr	r3, [pc, #56]	; (80073f8 <_ZN5codal4idleEv+0x40>)
 80073be:	781b      	ldrb	r3, [r3, #0]
 80073c0:	f013 0f02 	tst.w	r3, #2
 80073c4:	d005      	beq.n	80073d2 <_ZN5codal4idleEv+0x1a>
        fiber_flags |= DEVICE_SCHEDULER_IDLE;
        Event(DEVICE_ID_SCHEDULER, DEVICE_SCHEDULER_EVT_IDLE);
    }

    // If the above did create any useful work, enter power efficient sleep.
    if(scheduler_runqueue_empty())
 80073c6:	f7ff ffef 	bl	80073a8 <_ZN5codal24scheduler_runqueue_emptyEv>
 80073ca:	b968      	cbnz	r0, 80073e8 <_ZN5codal4idleEv+0x30>
        // because we enforce MESSAGE_BUS_LISTENER_IMMEDIATE for listeners placed
        // on the scheduler.
        fiber_flags &= ~DEVICE_SCHEDULER_IDLE;
        target_wait_for_event();
    }
}
 80073cc:	b003      	add	sp, #12
 80073ce:	f85d fb04 	ldr.w	pc, [sp], #4
        fiber_flags |= DEVICE_SCHEDULER_IDLE;
 80073d2:	f043 0302 	orr.w	r3, r3, #2
 80073d6:	4a08      	ldr	r2, [pc, #32]	; (80073f8 <_ZN5codal4idleEv+0x40>)
 80073d8:	7013      	strb	r3, [r2, #0]
        Event(DEVICE_ID_SCHEDULER, DEVICE_SCHEDULER_EVT_IDLE);
 80073da:	2301      	movs	r3, #1
 80073dc:	2202      	movs	r2, #2
 80073de:	210f      	movs	r1, #15
 80073e0:	4668      	mov	r0, sp
 80073e2:	f002 faee 	bl	80099c2 <_ZN5codal5EventC1EttNS_15EventLaunchModeE>
 80073e6:	e7ee      	b.n	80073c6 <_ZN5codal4idleEv+0xe>
        fiber_flags &= ~DEVICE_SCHEDULER_IDLE;
 80073e8:	4a03      	ldr	r2, [pc, #12]	; (80073f8 <_ZN5codal4idleEv+0x40>)
 80073ea:	7813      	ldrb	r3, [r2, #0]
 80073ec:	f023 0302 	bic.w	r3, r3, #2
 80073f0:	7013      	strb	r3, [r2, #0]
        target_wait_for_event();
 80073f2:	f7f9 fa3d 	bl	8000870 <target_wait_for_event>
}
 80073f6:	e7e9      	b.n	80073cc <_ZN5codal4idleEv+0x14>
 80073f8:	20002211 	.word	0x20002211

080073fc <_ZN5codal8scheduleEv>:
{
 80073fc:	b570      	push	{r4, r5, r6, lr}
    if (!fiber_scheduler_running())
 80073fe:	f7ff febd 	bl	800717c <_ZN5codal23fiber_scheduler_runningEv>
 8007402:	2800      	cmp	r0, #0
 8007404:	f000 80c6 	beq.w	8007594 <_ZN5codal8scheduleEv+0x198>
    Fiber *oldFiber = currentFiber;
 8007408:	4b64      	ldr	r3, [pc, #400]	; (800759c <_ZN5codal8scheduleEv+0x1a0>)
 800740a:	681c      	ldr	r4, [r3, #0]
    if (currentFiber->flags & DEVICE_FIBER_FLAG_FOB)
 800740c:	6923      	ldr	r3, [r4, #16]
 800740e:	f013 0f01 	tst.w	r3, #1
 8007412:	d14d      	bne.n	80074b0 <_ZN5codal8scheduleEv+0xb4>
    if (runQueue == NULL)
 8007414:	4a62      	ldr	r2, [pc, #392]	; (80075a0 <_ZN5codal8scheduleEv+0x1a4>)
 8007416:	6812      	ldr	r2, [r2, #0]
 8007418:	2a00      	cmp	r2, #0
 800741a:	f000 808a 	beq.w	8007532 <_ZN5codal8scheduleEv+0x136>
    else if (currentFiber->queue == &runQueue)
 800741e:	6960      	ldr	r0, [r4, #20]
 8007420:	495f      	ldr	r1, [pc, #380]	; (80075a0 <_ZN5codal8scheduleEv+0x1a4>)
 8007422:	4288      	cmp	r0, r1
 8007424:	f000 808a 	beq.w	800753c <_ZN5codal8scheduleEv+0x140>
        currentFiber = runQueue;
 8007428:	495c      	ldr	r1, [pc, #368]	; (800759c <_ZN5codal8scheduleEv+0x1a0>)
 800742a:	600a      	str	r2, [r1, #0]
    if (currentFiber == idleFiber && oldFiber->flags & DEVICE_FIBER_FLAG_DO_NOT_PAGE)
 800742c:	4a5b      	ldr	r2, [pc, #364]	; (800759c <_ZN5codal8scheduleEv+0x1a0>)
 800742e:	6811      	ldr	r1, [r2, #0]
 8007430:	4a5c      	ldr	r2, [pc, #368]	; (80075a4 <_ZN5codal8scheduleEv+0x1a8>)
 8007432:	6812      	ldr	r2, [r2, #0]
 8007434:	4291      	cmp	r1, r2
 8007436:	f000 8088 	beq.w	800754a <_ZN5codal8scheduleEv+0x14e>
    if (currentFiber != oldFiber)
 800743a:	4b58      	ldr	r3, [pc, #352]	; (800759c <_ZN5codal8scheduleEv+0x1a0>)
 800743c:	681b      	ldr	r3, [r3, #0]
 800743e:	42a3      	cmp	r3, r4
 8007440:	f000 80a8 	beq.w	8007594 <_ZN5codal8scheduleEv+0x198>
        if (currentFiber == idleFiber)
 8007444:	4a57      	ldr	r2, [pc, #348]	; (80075a4 <_ZN5codal8scheduleEv+0x1a8>)
 8007446:	6812      	ldr	r2, [r2, #0]
 8007448:	4293      	cmp	r3, r2
 800744a:	f000 808d 	beq.w	8007568 <_ZN5codal8scheduleEv+0x16c>
        if (oldFiber == idleFiber || oldFiber->queue == &fiberPool)
 800744e:	4b55      	ldr	r3, [pc, #340]	; (80075a4 <_ZN5codal8scheduleEv+0x1a8>)
 8007450:	681b      	ldr	r3, [r3, #0]
 8007452:	42a3      	cmp	r3, r4
 8007454:	f000 8096 	beq.w	8007584 <_ZN5codal8scheduleEv+0x188>
 8007458:	6962      	ldr	r2, [r4, #20]
 800745a:	4b53      	ldr	r3, [pc, #332]	; (80075a8 <_ZN5codal8scheduleEv+0x1ac>)
 800745c:	429a      	cmp	r2, r3
 800745e:	f000 8091 	beq.w	8007584 <_ZN5codal8scheduleEv+0x188>
    stackDepth = tcb_get_stack_base(f->tcb) - (PROCESSOR_WORD_TYPE)get_current_sp();
 8007462:	6820      	ldr	r0, [r4, #0]
 8007464:	f7f9 fab3 	bl	80009ce <tcb_get_stack_base>
 8007468:	4605      	mov	r5, r0
 800746a:	f7f9 fab2 	bl	80009d2 <get_current_sp>
 800746e:	1a2d      	subs	r5, r5, r0
    bufferSize = f->stack_top - f->stack_bottom;
 8007470:	68a2      	ldr	r2, [r4, #8]
 8007472:	6860      	ldr	r0, [r4, #4]
 8007474:	1a12      	subs	r2, r2, r0
    if (bufferSize < stackDepth)
 8007476:	4295      	cmp	r5, r2
 8007478:	d911      	bls.n	800749e <_ZN5codal8scheduleEv+0xa2>
        Fiber *prevCurrFiber = currentFiber;
 800747a:	4a48      	ldr	r2, [pc, #288]	; (800759c <_ZN5codal8scheduleEv+0x1a0>)
 800747c:	6816      	ldr	r6, [r2, #0]
        currentFiber = f;
 800747e:	6014      	str	r4, [r2, #0]
        bufferSize = (stackDepth + 32) & 0xffffffe0;
 8007480:	f105 0320 	add.w	r3, r5, #32
 8007484:	f023 051f 	bic.w	r5, r3, #31
        if (f->stack_bottom != 0)
 8007488:	2800      	cmp	r0, #0
 800748a:	f040 8084 	bne.w	8007596 <_ZN5codal8scheduleEv+0x19a>
        f->stack_bottom = (PROCESSOR_WORD_TYPE)malloc(bufferSize);
 800748e:	4628      	mov	r0, r5
 8007490:	f000 f94a 	bl	8007728 <device_malloc>
 8007494:	6060      	str	r0, [r4, #4]
        f->stack_top = f->stack_bottom + bufferSize;
 8007496:	4405      	add	r5, r0
 8007498:	60a5      	str	r5, [r4, #8]
        currentFiber = prevCurrFiber;
 800749a:	4b40      	ldr	r3, [pc, #256]	; (800759c <_ZN5codal8scheduleEv+0x1a0>)
 800749c:	601e      	str	r6, [r3, #0]
            swap_context(oldFiber->tcb, oldFiber->stack_top, currentFiber->tcb, currentFiber->stack_top);
 800749e:	4b3f      	ldr	r3, [pc, #252]	; (800759c <_ZN5codal8scheduleEv+0x1a0>)
 80074a0:	681a      	ldr	r2, [r3, #0]
 80074a2:	6893      	ldr	r3, [r2, #8]
 80074a4:	6812      	ldr	r2, [r2, #0]
 80074a6:	68a1      	ldr	r1, [r4, #8]
 80074a8:	6820      	ldr	r0, [r4, #0]
 80074aa:	f7f9 faa1 	bl	80009f0 <swap_context>
 80074ae:	e071      	b.n	8007594 <_ZN5codal8scheduleEv+0x198>
        currentFiber->flags |= DEVICE_FIBER_FLAG_PARENT;
 80074b0:	f043 0302 	orr.w	r3, r3, #2
 80074b4:	6123      	str	r3, [r4, #16]
        forkedFiber->flags |= DEVICE_FIBER_FLAG_CHILD;
 80074b6:	4d3d      	ldr	r5, [pc, #244]	; (80075ac <_ZN5codal8scheduleEv+0x1b0>)
 80074b8:	682b      	ldr	r3, [r5, #0]
 80074ba:	691a      	ldr	r2, [r3, #16]
 80074bc:	f042 0204 	orr.w	r2, r2, #4
 80074c0:	611a      	str	r2, [r3, #16]
        tcb_configure_stack_base(forkedFiber->tcb, tcb_get_sp(currentFiber->tcb));
 80074c2:	681e      	ldr	r6, [r3, #0]
 80074c4:	6820      	ldr	r0, [r4, #0]
 80074c6:	f7f9 fa86 	bl	80009d6 <tcb_get_sp>
 80074ca:	4601      	mov	r1, r0
 80074cc:	4630      	mov	r0, r6
 80074ce:	f7f9 fa7c 	bl	80009ca <tcb_configure_stack_base>
        verify_stack_size(forkedFiber);
 80074d2:	682d      	ldr	r5, [r5, #0]
    stackDepth = tcb_get_stack_base(f->tcb) - (PROCESSOR_WORD_TYPE)get_current_sp();
 80074d4:	6828      	ldr	r0, [r5, #0]
 80074d6:	f7f9 fa7a 	bl	80009ce <tcb_get_stack_base>
 80074da:	4604      	mov	r4, r0
 80074dc:	f7f9 fa79 	bl	80009d2 <get_current_sp>
 80074e0:	1a24      	subs	r4, r4, r0
    bufferSize = f->stack_top - f->stack_bottom;
 80074e2:	68aa      	ldr	r2, [r5, #8]
 80074e4:	6868      	ldr	r0, [r5, #4]
 80074e6:	1a12      	subs	r2, r2, r0
    if (bufferSize < stackDepth)
 80074e8:	4294      	cmp	r4, r2
 80074ea:	d90f      	bls.n	800750c <_ZN5codal8scheduleEv+0x110>
        Fiber *prevCurrFiber = currentFiber;
 80074ec:	4a2b      	ldr	r2, [pc, #172]	; (800759c <_ZN5codal8scheduleEv+0x1a0>)
 80074ee:	6816      	ldr	r6, [r2, #0]
        currentFiber = f;
 80074f0:	6015      	str	r5, [r2, #0]
        bufferSize = (stackDepth + 32) & 0xffffffe0;
 80074f2:	f104 0320 	add.w	r3, r4, #32
 80074f6:	f023 041f 	bic.w	r4, r3, #31
        if (f->stack_bottom != 0)
 80074fa:	b9b8      	cbnz	r0, 800752c <_ZN5codal8scheduleEv+0x130>
        f->stack_bottom = (PROCESSOR_WORD_TYPE)malloc(bufferSize);
 80074fc:	4620      	mov	r0, r4
 80074fe:	f000 f913 	bl	8007728 <device_malloc>
 8007502:	6068      	str	r0, [r5, #4]
        f->stack_top = f->stack_bottom + bufferSize;
 8007504:	4404      	add	r4, r0
 8007506:	60ac      	str	r4, [r5, #8]
        currentFiber = prevCurrFiber;
 8007508:	4b24      	ldr	r3, [pc, #144]	; (800759c <_ZN5codal8scheduleEv+0x1a0>)
 800750a:	601e      	str	r6, [r3, #0]
        save_context(forkedFiber->tcb, forkedFiber->stack_top);
 800750c:	4b27      	ldr	r3, [pc, #156]	; (80075ac <_ZN5codal8scheduleEv+0x1b0>)
 800750e:	681b      	ldr	r3, [r3, #0]
 8007510:	6899      	ldr	r1, [r3, #8]
 8007512:	6818      	ldr	r0, [r3, #0]
 8007514:	f7f9 faad 	bl	8000a72 <save_context>
        if (currentFiber->flags & DEVICE_FIBER_FLAG_PARENT)
 8007518:	4b20      	ldr	r3, [pc, #128]	; (800759c <_ZN5codal8scheduleEv+0x1a0>)
 800751a:	681b      	ldr	r3, [r3, #0]
 800751c:	691a      	ldr	r2, [r3, #16]
 800751e:	f012 0f02 	tst.w	r2, #2
 8007522:	d037      	beq.n	8007594 <_ZN5codal8scheduleEv+0x198>
            restore_register_context(currentFiber->tcb);
 8007524:	6818      	ldr	r0, [r3, #0]
 8007526:	f7f9 fade 	bl	8000ae6 <restore_register_context>
 800752a:	e033      	b.n	8007594 <_ZN5codal8scheduleEv+0x198>
            free((void *)f->stack_bottom);
 800752c:	f000 f926 	bl	800777c <device_free>
 8007530:	e7e4      	b.n	80074fc <_ZN5codal8scheduleEv+0x100>
        currentFiber = idleFiber;
 8007532:	4a1c      	ldr	r2, [pc, #112]	; (80075a4 <_ZN5codal8scheduleEv+0x1a8>)
 8007534:	6811      	ldr	r1, [r2, #0]
 8007536:	4a19      	ldr	r2, [pc, #100]	; (800759c <_ZN5codal8scheduleEv+0x1a0>)
 8007538:	6011      	str	r1, [r2, #0]
 800753a:	e777      	b.n	800742c <_ZN5codal8scheduleEv+0x30>
        currentFiber = currentFiber->next == NULL ? runQueue : currentFiber->next;
 800753c:	69a1      	ldr	r1, [r4, #24]
 800753e:	b111      	cbz	r1, 8007546 <_ZN5codal8scheduleEv+0x14a>
 8007540:	4a16      	ldr	r2, [pc, #88]	; (800759c <_ZN5codal8scheduleEv+0x1a0>)
 8007542:	6011      	str	r1, [r2, #0]
 8007544:	e772      	b.n	800742c <_ZN5codal8scheduleEv+0x30>
 8007546:	4611      	mov	r1, r2
 8007548:	e7fa      	b.n	8007540 <_ZN5codal8scheduleEv+0x144>
    if (currentFiber == idleFiber && oldFiber->flags & DEVICE_FIBER_FLAG_DO_NOT_PAGE)
 800754a:	f013 0f08 	tst.w	r3, #8
 800754e:	f43f af74 	beq.w	800743a <_ZN5codal8scheduleEv+0x3e>
        currentFiber = oldFiber;
 8007552:	4b12      	ldr	r3, [pc, #72]	; (800759c <_ZN5codal8scheduleEv+0x1a0>)
 8007554:	601c      	str	r4, [r3, #0]
            idle();
 8007556:	f7ff ff2f 	bl	80073b8 <_ZN5codal4idleEv>
        while (runQueue == NULL);
 800755a:	4b11      	ldr	r3, [pc, #68]	; (80075a0 <_ZN5codal8scheduleEv+0x1a4>)
 800755c:	681b      	ldr	r3, [r3, #0]
 800755e:	2b00      	cmp	r3, #0
 8007560:	d0f9      	beq.n	8007556 <_ZN5codal8scheduleEv+0x15a>
        currentFiber = runQueue;
 8007562:	4a0e      	ldr	r2, [pc, #56]	; (800759c <_ZN5codal8scheduleEv+0x1a0>)
 8007564:	6013      	str	r3, [r2, #0]
 8007566:	e768      	b.n	800743a <_ZN5codal8scheduleEv+0x3e>
            tcb_configure_sp(idleFiber->tcb, INITIAL_STACK_DEPTH);
 8007568:	6815      	ldr	r5, [r2, #0]
 800756a:	f7f9 f9d1 	bl	8000910 <fiber_initial_stack_base>
 800756e:	1f01      	subs	r1, r0, #4
 8007570:	4628      	mov	r0, r5
 8007572:	f7f9 fa28 	bl	80009c6 <tcb_configure_sp>
            tcb_configure_lr(idleFiber->tcb, (PROCESSOR_WORD_TYPE)&idle_task);
 8007576:	4b0b      	ldr	r3, [pc, #44]	; (80075a4 <_ZN5codal8scheduleEv+0x1a8>)
 8007578:	681b      	ldr	r3, [r3, #0]
 800757a:	490d      	ldr	r1, [pc, #52]	; (80075b0 <_ZN5codal8scheduleEv+0x1b4>)
 800757c:	6818      	ldr	r0, [r3, #0]
 800757e:	f7f9 fa20 	bl	80009c2 <tcb_configure_lr>
 8007582:	e764      	b.n	800744e <_ZN5codal8scheduleEv+0x52>
            swap_context(NULL, 0, currentFiber->tcb, currentFiber->stack_top);
 8007584:	4b05      	ldr	r3, [pc, #20]	; (800759c <_ZN5codal8scheduleEv+0x1a0>)
 8007586:	681a      	ldr	r2, [r3, #0]
 8007588:	6893      	ldr	r3, [r2, #8]
 800758a:	6812      	ldr	r2, [r2, #0]
 800758c:	2100      	movs	r1, #0
 800758e:	4608      	mov	r0, r1
 8007590:	f7f9 fa2e 	bl	80009f0 <swap_context>
}
 8007594:	bd70      	pop	{r4, r5, r6, pc}
            free((void *)f->stack_bottom);
 8007596:	f000 f8f1 	bl	800777c <device_free>
 800759a:	e778      	b.n	800748e <_ZN5codal8scheduleEv+0x92>
 800759c:	20002144 	.word	0x20002144
 80075a0:	20002154 	.word	0x20002154
 80075a4:	2000215c 	.word	0x2000215c
 80075a8:	20002158 	.word	0x20002158
 80075ac:	20002150 	.word	0x20002150
 80075b0:	08009113 	.word	0x08009113

080075b4 <_ZN5codal11fiber_sleepEm>:
{
 80075b4:	b538      	push	{r3, r4, r5, lr}
 80075b6:	4604      	mov	r4, r0
    if (!fiber_scheduler_running())
 80075b8:	f7ff fde0 	bl	800717c <_ZN5codal23fiber_scheduler_runningEv>
 80075bc:	b180      	cbz	r0, 80075e0 <_ZN5codal11fiber_sleepEm+0x2c>
    Fiber *f = handle_fob();
 80075be:	f7ff fdc3 	bl	8007148 <_ZL10handle_fobv>
 80075c2:	4605      	mov	r5, r0
    f->context = system_timer_current_time() + t;
 80075c4:	f000 f95a 	bl	800787c <_ZN5codal25system_timer_current_timeEv>
 80075c8:	4420      	add	r0, r4
 80075ca:	60e8      	str	r0, [r5, #12]
    dequeue_fiber(f);
 80075cc:	4628      	mov	r0, r5
 80075ce:	f001 fd42 	bl	8009056 <_ZN5codal13dequeue_fiberEPNS_5FiberE>
    queue_fiber(f, &sleepQueue);
 80075d2:	4905      	ldr	r1, [pc, #20]	; (80075e8 <_ZN5codal11fiber_sleepEm+0x34>)
 80075d4:	4628      	mov	r0, r5
 80075d6:	f001 fd27 	bl	8009028 <_ZN5codal11queue_fiberEPNS_5FiberEPS1_>
    schedule();
 80075da:	f7ff ff0f 	bl	80073fc <_ZN5codal8scheduleEv>
}
 80075de:	bd38      	pop	{r3, r4, r5, pc}
        target_wait(t);
 80075e0:	4620      	mov	r0, r4
 80075e2:	f7f9 f94d 	bl	8000880 <target_wait>
        return;
 80075e6:	e7fa      	b.n	80075de <_ZN5codal11fiber_sleepEm+0x2a>
 80075e8:	2000214c 	.word	0x2000214c

080075ec <_ZN5codal13release_fiberEv>:
{
 80075ec:	b538      	push	{r3, r4, r5, lr}
    if (!fiber_scheduler_running())
 80075ee:	f7ff fdc5 	bl	800717c <_ZN5codal23fiber_scheduler_runningEv>
 80075f2:	b900      	cbnz	r0, 80075f6 <_ZN5codal13release_fiberEv+0xa>
}
 80075f4:	bd38      	pop	{r3, r4, r5, pc}
    dequeue_fiber(currentFiber);
 80075f6:	4d17      	ldr	r5, [pc, #92]	; (8007654 <_ZN5codal13release_fiberEv+0x68>)
 80075f8:	6828      	ldr	r0, [r5, #0]
 80075fa:	f001 fd2c 	bl	8009056 <_ZN5codal13dequeue_fiberEPNS_5FiberE>
    queue_fiber(currentFiber, &fiberPool);
 80075fe:	4c16      	ldr	r4, [pc, #88]	; (8007658 <_ZN5codal13release_fiberEv+0x6c>)
 8007600:	4621      	mov	r1, r4
 8007602:	6828      	ldr	r0, [r5, #0]
 8007604:	f001 fd10 	bl	8009028 <_ZN5codal11queue_fiberEPNS_5FiberEPS1_>
    for (Fiber *p = fiberPool; p; p = p->next) {
 8007608:	6824      	ldr	r4, [r4, #0]
    int numFree = 0;
 800760a:	2200      	movs	r2, #0
 800760c:	e001      	b.n	8007612 <_ZN5codal13release_fiberEv+0x26>
        numFree++;
 800760e:	3201      	adds	r2, #1
    for (Fiber *p = fiberPool; p; p = p->next) {
 8007610:	461c      	mov	r4, r3
 8007612:	b184      	cbz	r4, 8007636 <_ZN5codal13release_fiberEv+0x4a>
        if (!p->next && numFree > 3) {
 8007614:	69a3      	ldr	r3, [r4, #24]
 8007616:	2b00      	cmp	r3, #0
 8007618:	d1f9      	bne.n	800760e <_ZN5codal13release_fiberEv+0x22>
 800761a:	2a03      	cmp	r2, #3
 800761c:	ddf7      	ble.n	800760e <_ZN5codal13release_fiberEv+0x22>
            p->prev->next = NULL;
 800761e:	69e3      	ldr	r3, [r4, #28]
 8007620:	2200      	movs	r2, #0
 8007622:	619a      	str	r2, [r3, #24]
            free(p->tcb);
 8007624:	6820      	ldr	r0, [r4, #0]
 8007626:	f000 f8a9 	bl	800777c <device_free>
            free((void *)p->stack_bottom);
 800762a:	6860      	ldr	r0, [r4, #4]
 800762c:	f000 f8a6 	bl	800777c <device_free>
            free(p);
 8007630:	4620      	mov	r0, r4
 8007632:	f000 f8a3 	bl	800777c <device_free>
    currentFiber->flags = 0;
 8007636:	4b07      	ldr	r3, [pc, #28]	; (8007654 <_ZN5codal13release_fiberEv+0x68>)
 8007638:	681b      	ldr	r3, [r3, #0]
 800763a:	2200      	movs	r2, #0
 800763c:	611a      	str	r2, [r3, #16]
    tcb_configure_stack_base(currentFiber->tcb, fiber_initial_stack_base());
 800763e:	681c      	ldr	r4, [r3, #0]
 8007640:	f7f9 f966 	bl	8000910 <fiber_initial_stack_base>
 8007644:	4601      	mov	r1, r0
 8007646:	4620      	mov	r0, r4
 8007648:	f7f9 f9bf 	bl	80009ca <tcb_configure_stack_base>
    schedule();
 800764c:	f7ff fed6 	bl	80073fc <_ZN5codal8scheduleEv>
 8007650:	e7d0      	b.n	80075f4 <_ZN5codal13release_fiberEv+0x8>
 8007652:	bf00      	nop
 8007654:	20002144 	.word	0x20002144
 8007658:	20002158 	.word	0x20002158

0800765c <_ZN5codal6invokeEPFvPvES0_>:
    if (entry_fn == NULL)
 800765c:	2800      	cmp	r0, #0
 800765e:	d03a      	beq.n	80076d6 <_ZN5codal6invokeEPFvPvES0_+0x7a>
{
 8007660:	b538      	push	{r3, r4, r5, lr}
 8007662:	4605      	mov	r5, r0
 8007664:	460c      	mov	r4, r1
    if (!fiber_scheduler_running())
 8007666:	f7ff fd89 	bl	800717c <_ZN5codal23fiber_scheduler_runningEv>
 800766a:	2800      	cmp	r0, #0
 800766c:	d036      	beq.n	80076dc <_ZN5codal6invokeEPFvPvES0_+0x80>
    if (currentFiber->flags & (DEVICE_FIBER_FLAG_FOB | DEVICE_FIBER_FLAG_PARENT | DEVICE_FIBER_FLAG_CHILD) || HAS_THREAD_USER_DATA)
 800766e:	4b1c      	ldr	r3, [pc, #112]	; (80076e0 <_ZN5codal6invokeEPFvPvES0_+0x84>)
 8007670:	681b      	ldr	r3, [r3, #0]
 8007672:	691a      	ldr	r2, [r3, #16]
 8007674:	f012 0f07 	tst.w	r2, #7
 8007678:	d101      	bne.n	800767e <_ZN5codal6invokeEPFvPvES0_+0x22>
 800767a:	6a1a      	ldr	r2, [r3, #32]
 800767c:	b132      	cbz	r2, 800768c <_ZN5codal6invokeEPFvPvES0_+0x30>
        create_fiber(entry_fn, param);
 800767e:	4a19      	ldr	r2, [pc, #100]	; (80076e4 <_ZN5codal6invokeEPFvPvES0_+0x88>)
 8007680:	4621      	mov	r1, r4
 8007682:	4628      	mov	r0, r5
 8007684:	f001 fd10 	bl	80090a8 <_ZN5codal12create_fiberEPFvPvES0_S2_>
        return DEVICE_OK;
 8007688:	2000      	movs	r0, #0
}
 800768a:	bd38      	pop	{r3, r4, r5, pc}
    save_register_context(currentFiber->tcb);
 800768c:	6818      	ldr	r0, [r3, #0]
 800768e:	f7f9 fa12 	bl	8000ab6 <save_register_context>
    if (currentFiber->flags & DEVICE_FIBER_FLAG_PARENT)
 8007692:	4b13      	ldr	r3, [pc, #76]	; (80076e0 <_ZN5codal6invokeEPFvPvES0_+0x84>)
 8007694:	681a      	ldr	r2, [r3, #0]
 8007696:	6913      	ldr	r3, [r2, #16]
 8007698:	f013 0f02 	tst.w	r3, #2
 800769c:	d111      	bne.n	80076c2 <_ZN5codal6invokeEPFvPvES0_+0x66>
    currentFiber->flags |= DEVICE_FIBER_FLAG_FOB;
 800769e:	f043 0301 	orr.w	r3, r3, #1
 80076a2:	6113      	str	r3, [r2, #16]
    entry_fn(param);
 80076a4:	4620      	mov	r0, r4
 80076a6:	47a8      	blx	r5
    currentFiber->user_data = NULL;
 80076a8:	4b0d      	ldr	r3, [pc, #52]	; (80076e0 <_ZN5codal6invokeEPFvPvES0_+0x84>)
 80076aa:	681b      	ldr	r3, [r3, #0]
 80076ac:	2200      	movs	r2, #0
 80076ae:	621a      	str	r2, [r3, #32]
    currentFiber->flags &= ~DEVICE_FIBER_FLAG_FOB;
 80076b0:	691a      	ldr	r2, [r3, #16]
 80076b2:	f022 0101 	bic.w	r1, r2, #1
 80076b6:	6119      	str	r1, [r3, #16]
    if (currentFiber->flags & DEVICE_FIBER_FLAG_CHILD)
 80076b8:	f012 0f04 	tst.w	r2, #4
 80076bc:	d106      	bne.n	80076cc <_ZN5codal6invokeEPFvPvES0_+0x70>
    return DEVICE_OK;
 80076be:	2000      	movs	r0, #0
 80076c0:	e7e3      	b.n	800768a <_ZN5codal6invokeEPFvPvES0_+0x2e>
        currentFiber->flags &= ~DEVICE_FIBER_FLAG_PARENT;
 80076c2:	f023 0303 	bic.w	r3, r3, #3
 80076c6:	6113      	str	r3, [r2, #16]
        return DEVICE_OK;
 80076c8:	2000      	movs	r0, #0
 80076ca:	e7de      	b.n	800768a <_ZN5codal6invokeEPFvPvES0_+0x2e>
        release_fiber(param);
 80076cc:	4620      	mov	r0, r4
 80076ce:	f001 fd0c 	bl	80090ea <_ZN5codal13release_fiberEPv>
    return DEVICE_OK;
 80076d2:	2000      	movs	r0, #0
 80076d4:	e7d9      	b.n	800768a <_ZN5codal6invokeEPFvPvES0_+0x2e>
        return DEVICE_INVALID_PARAMETER;
 80076d6:	f46f 707a 	mvn.w	r0, #1000	; 0x3e8
}
 80076da:	4770      	bx	lr
        return DEVICE_NOT_SUPPORTED;
 80076dc:	4802      	ldr	r0, [pc, #8]	; (80076e8 <_ZN5codal6invokeEPFvPvES0_+0x8c>)
 80076de:	e7d4      	b.n	800768a <_ZN5codal6invokeEPFvPvES0_+0x2e>
 80076e0:	20002144 	.word	0x20002144
 80076e4:	080090eb 	.word	0x080090eb
 80076e8:	fffffc16 	.word	0xfffffc16

080076ec <_Z18device_create_heapmm>:
  * code, and user code targetting the runtime. External code can choose to include this file, or
  * simply use the standard heap.
  */

int device_create_heap(PROCESSOR_WORD_TYPE start, PROCESSOR_WORD_TYPE end)
{
 80076ec:	b5f8      	push	{r3, r4, r5, r6, r7, lr}
 80076ee:	4606      	mov	r6, r0
 80076f0:	460c      	mov	r4, r1
    HeapDefinition *h = &heap[heap_count];
 80076f2:	4d0b      	ldr	r5, [pc, #44]	; (8007720 <_Z18device_create_heapmm+0x34>)
 80076f4:	782f      	ldrb	r7, [r5, #0]
    if (end <= start || end - start < DEVICE_HEAP_BLOCK_SIZE*2 || end % DEVICE_HEAP_BLOCK_SIZE != 0 || start % DEVICE_HEAP_BLOCK_SIZE != 0)
        return DEVICE_INVALID_PARAMETER;
#endif

    // Disable IRQ temporarily to ensure no race conditions!
    target_disable_irq();
 80076f6:	f7f9 f95d 	bl	80009b4 <target_disable_irq>

    // Record the dimensions of this new heap
    h->heap_start = (PROCESSOR_WORD_TYPE *)start;
 80076fa:	4b0a      	ldr	r3, [pc, #40]	; (8007724 <_Z18device_create_heapmm+0x38>)
 80076fc:	f843 6037 	str.w	r6, [r3, r7, lsl #3]
    h->heap_end = (PROCESSOR_WORD_TYPE *)end;
 8007700:	eb03 03c7 	add.w	r3, r3, r7, lsl #3
 8007704:	605c      	str	r4, [r3, #4]

    // Initialise the heap as being completely empty and available for use.
    *h->heap_start = DEVICE_HEAP_BLOCK_FREE | (((PROCESSOR_WORD_TYPE) h->heap_end - (PROCESSOR_WORD_TYPE) h->heap_start) / DEVICE_HEAP_BLOCK_SIZE);
 8007706:	1ba4      	subs	r4, r4, r6
 8007708:	08a4      	lsrs	r4, r4, #2
 800770a:	f044 4400 	orr.w	r4, r4, #2147483648	; 0x80000000
 800770e:	6034      	str	r4, [r6, #0]

    heap_count++;
 8007710:	782b      	ldrb	r3, [r5, #0]
 8007712:	3301      	adds	r3, #1
 8007714:	702b      	strb	r3, [r5, #0]

    // Enable Interrupts
    target_enable_irq();
 8007716:	f7f9 f94b 	bl	80009b0 <target_enable_irq>
#if (CODAL_DEBUG >= CODAL_DEBUG_HEAP)
    device_heap_print();
#endif

    return DEVICE_OK;
}
 800771a:	2000      	movs	r0, #0
 800771c:	bdf8      	pop	{r3, r4, r5, r6, r7, pc}
 800771e:	bf00      	nop
 8007720:	20002213 	.word	0x20002213
 8007724:	20002164 	.word	0x20002164

08007728 <device_malloc>:
  * @param size The amount of memory, in bytes, to allocate.
  *
  * @return A pointer to the allocated memory, or NULL if insufficient memory is available.
  */
void* device_malloc (size_t size)
{
 8007728:	b510      	push	{r4, lr}
    static uint8_t initialised = 0;
    void *p;

    if (size <= 0)
 800772a:	b1d8      	cbz	r0, 8007764 <device_malloc+0x3c>
 800772c:	4604      	mov	r4, r0
        return NULL;

    if (!initialised)
 800772e:	4b0e      	ldr	r3, [pc, #56]	; (8007768 <device_malloc+0x40>)
 8007730:	781b      	ldrb	r3, [r3, #0]
 8007732:	b13b      	cbz	r3, 8007744 <device_malloc+0x1c>
#endif
        initialised = 1;
    }

#if (DEVICE_MAXIMUM_HEAPS == 1)
    p = device_malloc_in(size, heap[0]);
 8007734:	490d      	ldr	r1, [pc, #52]	; (800776c <device_malloc+0x44>)
 8007736:	4620      	mov	r0, r4
 8007738:	f001 fcf1 	bl	800911e <_Z16device_malloc_injR14HeapDefinition>
        if (p != NULL)
            break;
    }
#endif

    if (p != NULL)
 800773c:	4604      	mov	r4, r0
 800773e:	b168      	cbz	r0, 800775c <device_malloc+0x34>
#if CONFIG_ENABLED(DEVICE_PANIC_HEAP_FULL)
    target_panic(DEVICE_OOM);
#endif

    return NULL;
}
 8007740:	4620      	mov	r0, r4
 8007742:	bd10      	pop	{r4, pc}
        heap_count = 0;
 8007744:	4b0a      	ldr	r3, [pc, #40]	; (8007770 <device_malloc+0x48>)
 8007746:	2200      	movs	r2, #0
 8007748:	701a      	strb	r2, [r3, #0]
        device_create_heap((PROCESSOR_WORD_TYPE)(codal_heap_start), (PROCESSOR_WORD_TYPE)(DEVICE_STACK_BASE) - (PROCESSOR_WORD_TYPE)(DEVICE_STACK_SIZE));
 800774a:	490a      	ldr	r1, [pc, #40]	; (8007774 <device_malloc+0x4c>)
 800774c:	4b0a      	ldr	r3, [pc, #40]	; (8007778 <device_malloc+0x50>)
 800774e:	6818      	ldr	r0, [r3, #0]
 8007750:	f7ff ffcc 	bl	80076ec <_Z18device_create_heapmm>
        initialised = 1;
 8007754:	4b04      	ldr	r3, [pc, #16]	; (8007768 <device_malloc+0x40>)
 8007756:	2201      	movs	r2, #1
 8007758:	701a      	strb	r2, [r3, #0]
 800775a:	e7eb      	b.n	8007734 <device_malloc+0xc>
    target_panic(DEVICE_OOM);
 800775c:	2014      	movs	r0, #20
 800775e:	f7f9 f8c7 	bl	80008f0 <target_panic>
    return NULL;
 8007762:	e7ed      	b.n	8007740 <device_malloc+0x18>
        return NULL;
 8007764:	2400      	movs	r4, #0
 8007766:	e7eb      	b.n	8007740 <device_malloc+0x18>
 8007768:	20002212 	.word	0x20002212
 800776c:	20002164 	.word	0x20002164
 8007770:	20002213 	.word	0x20002213
 8007774:	20004800 	.word	0x20004800
 8007778:	20000004 	.word	0x20000004

0800777c <device_free>:
#if (CODAL_DEBUG >= CODAL_DEBUG_HEAP)
    if (heap_count > 0)
        DMESG("device_free:   %p\n", mem);
#endif
    // Sanity check.
    if (memory == NULL)
 800777c:	b1e0      	cbz	r0, 80077b8 <device_free+0x3c>
{
 800777e:	b510      	push	{r4, lr}
 8007780:	4604      	mov	r4, r0

#if (DEVICE_MAXIMUM_HEAPS > 1)
    for (i=0; i < heap_count; i++)
#endif
    {
        if(memory > heap[i].heap_start && memory < heap[i].heap_end)
 8007782:	4b0e      	ldr	r3, [pc, #56]	; (80077bc <device_free+0x40>)
 8007784:	681b      	ldr	r3, [r3, #0]
 8007786:	4283      	cmp	r3, r0
 8007788:	d212      	bcs.n	80077b0 <device_free+0x34>
 800778a:	4b0c      	ldr	r3, [pc, #48]	; (80077bc <device_free+0x40>)
 800778c:	685b      	ldr	r3, [r3, #4]
 800778e:	4283      	cmp	r3, r0
 8007790:	d90e      	bls.n	80077b0 <device_free+0x34>
        {
            // The memory block given is part of this heap, so we can simply
            // flag that this memory area is now free, and we're done.
            if (*cb == 0 || *cb & DEVICE_HEAP_BLOCK_FREE)
 8007792:	f850 3c04 	ldr.w	r3, [r0, #-4]
 8007796:	2b00      	cmp	r3, #0
 8007798:	dd06      	ble.n	80077a8 <device_free+0x2c>
                target_panic(DEVICE_HEAP_ERROR);
            *cb |= DEVICE_HEAP_BLOCK_FREE;
 800779a:	f854 3c04 	ldr.w	r3, [r4, #-4]
 800779e:	f043 4300 	orr.w	r3, r3, #2147483648	; 0x80000000
 80077a2:	f844 3c04 	str.w	r3, [r4, #-4]
            return;
 80077a6:	e006      	b.n	80077b6 <device_free+0x3a>
                target_panic(DEVICE_HEAP_ERROR);
 80077a8:	201e      	movs	r0, #30
 80077aa:	f7f9 f8a1 	bl	80008f0 <target_panic>
 80077ae:	e7f4      	b.n	800779a <device_free+0x1e>
        }
    }

    // If we reach here, then the memory is not part of any registered heap.
    target_panic(DEVICE_HEAP_ERROR);
 80077b0:	201e      	movs	r0, #30
 80077b2:	f7f9 f89d 	bl	80008f0 <target_panic>
}
 80077b6:	bd10      	pop	{r4, pc}
 80077b8:	4770      	bx	lr
 80077ba:	bf00      	nop
 80077bc:	20002164 	.word	0x20002164

080077c0 <_ZN5codal6SerialC1ERNS_3PinES2_hht>:
 *       -https://github.com/mbedmicro/mbed/blob/master/libraries/mbed/api/SerialBase.h
 *       -https://github.com/mbedmicro/mbed/blob/master/libraries/mbed/api/RawSerial.h
 *
 *       Buffers aren't allocated until the first send or receive respectively.
 */
Serial::Serial(Pin& tx, Pin& rx, uint8_t rxBufferSize, uint8_t txBufferSize, uint16_t id) : tx(tx), rx(rx)
 80077c0:	e92d 41f0 	stmdb	sp!, {r4, r5, r6, r7, r8, lr}
 80077c4:	4604      	mov	r4, r0
 80077c6:	4688      	mov	r8, r1
 80077c8:	4617      	mov	r7, r2
 80077ca:	461e      	mov	r6, r3
        {
 80077cc:	4b12      	ldr	r3, [pc, #72]	; (8007818 <_ZN5codal6SerialC1ERNS_3PinES2_hht+0x58>)
 80077ce:	6003      	str	r3, [r0, #0]
            this->id = 0;
 80077d0:	2500      	movs	r5, #0
 80077d2:	8085      	strh	r5, [r0, #4]
            this->status = 0;
 80077d4:	80c5      	strh	r5, [r0, #6]
            addComponent();
 80077d6:	f7ff fb8b 	bl	8006ef0 <_ZN5codal14CodalComponent12addComponentEv>
 80077da:	4b10      	ldr	r3, [pc, #64]	; (800781c <_ZN5codal6SerialC1ERNS_3PinES2_hht+0x5c>)
 80077dc:	6023      	str	r3, [r4, #0]
 80077de:	f8c4 8008 	str.w	r8, [r4, #8]
 80077e2:	60e7      	str	r7, [r4, #12]
 80077e4:	f104 0010 	add.w	r0, r4, #16
 80077e8:	f002 f975 	bl	8009ad6 <_ZN5codal13ManagedStringC1Ev>
{
    this->id = id;
 80077ec:	f8bd 301c 	ldrh.w	r3, [sp, #28]
 80077f0:	80a3      	strh	r3, [r4, #4]

    // + 1 so there is a usable buffer size, of the size the user requested.
    this->rxBuffSize = rxBufferSize + 1;
 80077f2:	3601      	adds	r6, #1
 80077f4:	7726      	strb	r6, [r4, #28]
    this->txBuffSize = txBufferSize + 1;
 80077f6:	f89d 3018 	ldrb.w	r3, [sp, #24]
 80077fa:	3301      	adds	r3, #1
 80077fc:	f884 3028 	strb.w	r3, [r4, #40]	; 0x28

    this->rxBuff = NULL;
 8007800:	61a5      	str	r5, [r4, #24]
    this->txBuff = NULL;
 8007802:	6265      	str	r5, [r4, #36]	; 0x24

    this->rxBuffHead = 0;
 8007804:	83e5      	strh	r5, [r4, #30]
    this->rxBuffTail = 0;
 8007806:	8425      	strh	r5, [r4, #32]

    this->txBuffHead = 0;
 8007808:	8565      	strh	r5, [r4, #42]	; 0x2a
    this->txBuffTail = 0;
 800780a:	85a5      	strh	r5, [r4, #44]	; 0x2c

    this->rxBuffHeadMatch = -1;
 800780c:	f04f 33ff 	mov.w	r3, #4294967295	; 0xffffffff
 8007810:	6163      	str	r3, [r4, #20]
}
 8007812:	4620      	mov	r0, r4
 8007814:	e8bd 81f0 	ldmia.w	sp!, {r4, r5, r6, r7, r8, pc}
 8007818:	0800a244 	.word	0x0800a244
 800781c:	0800a294 	.word	0x0800a294

08007820 <_ZN5codal6SerialD1Ev>:
int Serial::txInUse()
{
    return (status & CODAL_SERIAL_TX_IN_USE);
}

Serial::~Serial()
 8007820:	b510      	push	{r4, lr}
 8007822:	4604      	mov	r4, r0
 8007824:	4b06      	ldr	r3, [pc, #24]	; (8007840 <_ZN5codal6SerialD1Ev+0x20>)
 8007826:	f840 3b10 	str.w	r3, [r0], #16
 800782a:	f002 f8f8 	bl	8009a1e <_ZN5codal13ManagedStringD1Ev>
        {
 800782e:	4b05      	ldr	r3, [pc, #20]	; (8007844 <_ZN5codal6SerialD1Ev+0x24>)
 8007830:	6023      	str	r3, [r4, #0]
            status = 0;
 8007832:	2300      	movs	r3, #0
 8007834:	80e3      	strh	r3, [r4, #6]
            removeComponent();
 8007836:	4620      	mov	r0, r4
 8007838:	f7ff fbc0 	bl	8006fbc <_ZN5codal14CodalComponent15removeComponentEv>
{

 800783c:	4620      	mov	r0, r4
 800783e:	bd10      	pop	{r4, pc}
 8007840:	0800a294 	.word	0x0800a294
 8007844:	0800a244 	.word	0x0800a244

08007848 <_ZN5codal5TimerC1Ev>:
}

/**
 * Constructor for a generic system clock interface.
 */
Timer::Timer()
 8007848:	b510      	push	{r4, lr}
 800784a:	4604      	mov	r4, r0
 800784c:	4b09      	ldr	r3, [pc, #36]	; (8007874 <_ZN5codal5TimerC1Ev+0x2c>)
 800784e:	6003      	str	r3, [r0, #0]
{
    // Register ourselves as the defualt timer - most recent timer wins.
    system_timer = this;
 8007850:	4b09      	ldr	r3, [pc, #36]	; (8007878 <_ZN5codal5TimerC1Ev+0x30>)
 8007852:	6018      	str	r0, [r3, #0]

    // Create an empty event list of the default size.
    eventListSize = CODAL_TIMER_DEFAULT_EVENT_LIST_SIZE;
 8007854:	230a      	movs	r3, #10
 8007856:	6183      	str	r3, [r0, #24]
    timerEventList = (TimerEvent *) malloc(sizeof(TimerEvent) * CODAL_TIMER_DEFAULT_EVENT_LIST_SIZE);
 8007858:	2078      	movs	r0, #120	; 0x78
 800785a:	f7ff ff65 	bl	8007728 <device_malloc>
 800785e:	6120      	str	r0, [r4, #16]
      *
      * @param b the number of bytes to clear.
      */
    inline void *memclr(void *a, size_t b)
    {
        return memset(a,0,b);
 8007860:	2278      	movs	r2, #120	; 0x78
 8007862:	2100      	movs	r1, #0
 8007864:	f7fa feb2 	bl	80025cc <memset>
    memclr(timerEventList, sizeof(TimerEvent) * CODAL_TIMER_DEFAULT_EVENT_LIST_SIZE);
    nextTimerEvent = NULL;
 8007868:	2300      	movs	r3, #0
 800786a:	6163      	str	r3, [r4, #20]

    // Reset clock
    currentTime = 0;
 800786c:	6063      	str	r3, [r4, #4]
    currentTimeUs = 0;
 800786e:	60a3      	str	r3, [r4, #8]
}
 8007870:	4620      	mov	r0, r4
 8007872:	bd10      	pop	{r4, pc}
 8007874:	0800a2cc 	.word	0x0800a2cc
 8007878:	2000216c 	.word	0x2000216c

0800787c <_ZN5codal25system_timer_current_timeEv>:
  * Determines the time since the device was powered on.
  *
  * @return the current time since power on in milliseconds
  */
CODAL_TIMESTAMP codal::system_timer_current_time()
{
 800787c:	b508      	push	{r3, lr}
    if(system_timer == NULL)
 800787e:	4b04      	ldr	r3, [pc, #16]	; (8007890 <_ZN5codal25system_timer_current_timeEv+0x14>)
 8007880:	6818      	ldr	r0, [r3, #0]
 8007882:	b110      	cbz	r0, 800788a <_ZN5codal25system_timer_current_timeEv+0xe>
        return 0;

    return system_timer->getTime();
 8007884:	f001 fe56 	bl	8009534 <_ZN5codal5Timer7getTimeEv>
}
 8007888:	bd08      	pop	{r3, pc}
        return 0;
 800788a:	2000      	movs	r0, #0
 800788c:	e7fc      	b.n	8007888 <_ZN5codal25system_timer_current_timeEv+0xc>
 800788e:	bf00      	nop
 8007890:	2000216c 	.word	0x2000216c

08007894 <_ZN5codal27system_timer_event_every_usEmtt>:
  * @param the value to fire against the current system_timer id.
  *
  * @return DEVICE_OK or DEVICE_NOT_SUPPORTED if no timer has been registered.
  */
int codal::system_timer_event_every_us(CODAL_TIMESTAMP period, uint16_t id, uint16_t value)
{
 8007894:	b510      	push	{r4, lr}
    if(system_timer == NULL)
 8007896:	4b06      	ldr	r3, [pc, #24]	; (80078b0 <_ZN5codal27system_timer_event_every_usEmtt+0x1c>)
 8007898:	681c      	ldr	r4, [r3, #0]
 800789a:	b134      	cbz	r4, 80078aa <_ZN5codal27system_timer_event_every_usEmtt+0x16>
 800789c:	4613      	mov	r3, r2
 800789e:	460a      	mov	r2, r1
 80078a0:	4601      	mov	r1, r0
        return DEVICE_NOT_SUPPORTED;

    return system_timer->eventEveryUs(period, id, value);
 80078a2:	4620      	mov	r0, r4
 80078a4:	f001 fe89 	bl	80095ba <_ZN5codal5Timer12eventEveryUsEmtt>
}
 80078a8:	bd10      	pop	{r4, pc}
        return DEVICE_NOT_SUPPORTED;
 80078aa:	4802      	ldr	r0, [pc, #8]	; (80078b4 <_ZN5codal27system_timer_event_every_usEmtt+0x20>)
 80078ac:	e7fc      	b.n	80078a8 <_ZN5codal27system_timer_event_every_usEmtt+0x14>
 80078ae:	bf00      	nop
 80078b0:	2000216c 	.word	0x2000216c
 80078b4:	fffffc16 	.word	0xfffffc16

080078b8 <_ZN5codal10EventModel4sendENS_5EventE>:
        virtual int send(Event)
 80078b8:	b082      	sub	sp, #8
 80078ba:	ab02      	add	r3, sp, #8
 80078bc:	e903 0006 	stmdb	r3, {r1, r2}
        }
 80078c0:	4801      	ldr	r0, [pc, #4]	; (80078c8 <_ZN5codal10EventModel4sendENS_5EventE+0x10>)
 80078c2:	b002      	add	sp, #8
 80078c4:	4770      	bx	lr
 80078c6:	bf00      	nop
 80078c8:	fffffc16 	.word	0xfffffc16

080078cc <_ZN5codal10EventModel3addEPNS_8ListenerE>:
        }
 80078cc:	4800      	ldr	r0, [pc, #0]	; (80078d0 <_ZN5codal10EventModel3addEPNS_8ListenerE+0x4>)
 80078ce:	4770      	bx	lr
 80078d0:	fffffc16 	.word	0xfffffc16

080078d4 <_ZN5codal10EventModel6removeEPNS_8ListenerE>:
        }
 80078d4:	4800      	ldr	r0, [pc, #0]	; (80078d8 <_ZN5codal10EventModel6removeEPNS_8ListenerE+0x4>)
 80078d6:	4770      	bx	lr
 80078d8:	fffffc16 	.word	0xfffffc16

080078dc <_ZN5codal10MessageBus3addEPNS_8ListenerE>:
{
    Listener *l, *p;
    int methodCallback;

    //handler can't be NULL!
    if (newListener == NULL)
 80078dc:	2900      	cmp	r1, #0
 80078de:	d06c      	beq.n	80079ba <_ZN5codal10MessageBus3addEPNS_8ListenerE+0xde>
{
 80078e0:	b570      	push	{r4, r5, r6, lr}
 80078e2:	b084      	sub	sp, #16
 80078e4:	460d      	mov	r5, r1
 80078e6:	4606      	mov	r6, r0
        return DEVICE_INVALID_PARAMETER;

    l = listeners;
 80078e8:	6944      	ldr	r4, [r0, #20]
 80078ea:	e005      	b.n	80078f8 <_ZN5codal10MessageBus3addEPNS_8ListenerE+0x1c>

    // We always check the ID, VALUE and CB_METHOD fields.
    // If we have a callback to a method, check the cb_method class. Otherwise, the cb function point is sufficient.
    while (l != NULL)
    {
        methodCallback = (newListener->flags & MESSAGE_BUS_LISTENER_METHOD) && (l->flags & MESSAGE_BUS_LISTENER_METHOD);
 80078ec:	2100      	movs	r1, #0

        if (l->id == newListener->id && l->value == newListener->value && (methodCallback ? *l->cb_method == *newListener->cb_method : l->cb == newListener->cb))
 80078ee:	6822      	ldr	r2, [r4, #0]
 80078f0:	682b      	ldr	r3, [r5, #0]
 80078f2:	429a      	cmp	r2, r3
 80078f4:	d00d      	beq.n	8007912 <_ZN5codal10MessageBus3addEPNS_8ListenerE+0x36>
                l->flags &= ~MESSAGE_BUS_LISTENER_DELETING;

            return DEVICE_NOT_SUPPORTED;
        }

        l = l->next;
 80078f6:	69e4      	ldr	r4, [r4, #28]
    while (l != NULL)
 80078f8:	b314      	cbz	r4, 8007940 <_ZN5codal10MessageBus3addEPNS_8ListenerE+0x64>
        methodCallback = (newListener->flags & MESSAGE_BUS_LISTENER_METHOD) && (l->flags & MESSAGE_BUS_LISTENER_METHOD);
 80078fa:	88ab      	ldrh	r3, [r5, #4]
 80078fc:	f013 0f02 	tst.w	r3, #2
 8007900:	d0f4      	beq.n	80078ec <_ZN5codal10MessageBus3addEPNS_8ListenerE+0x10>
 8007902:	88a3      	ldrh	r3, [r4, #4]
 8007904:	f013 0f02 	tst.w	r3, #2
 8007908:	d101      	bne.n	800790e <_ZN5codal10MessageBus3addEPNS_8ListenerE+0x32>
 800790a:	2100      	movs	r1, #0
 800790c:	e7ef      	b.n	80078ee <_ZN5codal10MessageBus3addEPNS_8ListenerE+0x12>
 800790e:	2101      	movs	r1, #1
 8007910:	e7ed      	b.n	80078ee <_ZN5codal10MessageBus3addEPNS_8ListenerE+0x12>
        if (l->id == newListener->id && l->value == newListener->value && (methodCallback ? *l->cb_method == *newListener->cb_method : l->cb == newListener->cb))
 8007912:	b949      	cbnz	r1, 8007928 <_ZN5codal10MessageBus3addEPNS_8ListenerE+0x4c>
 8007914:	68a2      	ldr	r2, [r4, #8]
 8007916:	68ab      	ldr	r3, [r5, #8]
 8007918:	429a      	cmp	r2, r3
 800791a:	d1ec      	bne.n	80078f6 <_ZN5codal10MessageBus3addEPNS_8ListenerE+0x1a>
            if(l->flags & MESSAGE_BUS_LISTENER_DELETING)
 800791c:	88a3      	ldrh	r3, [r4, #4]
 800791e:	f413 4f00 	tst.w	r3, #32768	; 0x8000
 8007922:	d108      	bne.n	8007936 <_ZN5codal10MessageBus3addEPNS_8ListenerE+0x5a>
            return DEVICE_NOT_SUPPORTED;
 8007924:	4826      	ldr	r0, [pc, #152]	; (80079c0 <_ZN5codal10MessageBus3addEPNS_8ListenerE+0xe4>)
 8007926:	e03a      	b.n	800799e <_ZN5codal10MessageBus3addEPNS_8ListenerE+0xc2>
        if (l->id == newListener->id && l->value == newListener->value && (methodCallback ? *l->cb_method == *newListener->cb_method : l->cb == newListener->cb))
 8007928:	68a9      	ldr	r1, [r5, #8]
 800792a:	68a0      	ldr	r0, [r4, #8]
 800792c:	f002 f958 	bl	8009be0 <_ZN5codal22MemberFunctionCallbackeqERKS0_>
 8007930:	2800      	cmp	r0, #0
 8007932:	d0e0      	beq.n	80078f6 <_ZN5codal10MessageBus3addEPNS_8ListenerE+0x1a>
 8007934:	e7f2      	b.n	800791c <_ZN5codal10MessageBus3addEPNS_8ListenerE+0x40>
                l->flags &= ~MESSAGE_BUS_LISTENER_DELETING;
 8007936:	f3c3 030e 	ubfx	r3, r3, #0, #15
 800793a:	80a3      	strh	r3, [r4, #4]
            return DEVICE_NOT_SUPPORTED;
 800793c:	4820      	ldr	r0, [pc, #128]	; (80079c0 <_ZN5codal10MessageBus3addEPNS_8ListenerE+0xe4>)
 800793e:	e02e      	b.n	800799e <_ZN5codal10MessageBus3addEPNS_8ListenerE+0xc2>
    }

    // We have a valid, new event handler. Add it to the list.
    // if listeners is null - we can automatically add this listener to the list at the beginning...
    if (listeners == NULL)
 8007940:	6974      	ldr	r4, [r6, #20]
 8007942:	b114      	cbz	r4, 800794a <_ZN5codal10MessageBus3addEPNS_8ListenerE+0x6e>
    // We maintain an ordered list of listeners.
    // The chain is held stictly in increasing order of ID (first level), then value code (second level).
    // Find the correct point in the chain for this event.
    // Adding a listener is a rare occurance, so we just walk the list...

    p = listeners;
 8007944:	4622      	mov	r2, r4
    l = listeners;
 8007946:	4623      	mov	r3, r4
 8007948:	e00b      	b.n	8007962 <_ZN5codal10MessageBus3addEPNS_8ListenerE+0x86>
        listeners = newListener;
 800794a:	6175      	str	r5, [r6, #20]
        Event(DEVICE_ID_MESSAGE_BUS_LISTENER, newListener->id);
 800794c:	2301      	movs	r3, #1
 800794e:	882a      	ldrh	r2, [r5, #0]
 8007950:	f240 31fd 	movw	r1, #1021	; 0x3fd
 8007954:	4668      	mov	r0, sp
 8007956:	f002 f834 	bl	80099c2 <_ZN5codal5EventC1EttNS_15EventLaunchModeE>
        return DEVICE_OK;
 800795a:	2000      	movs	r0, #0
 800795c:	e01f      	b.n	800799e <_ZN5codal10MessageBus3addEPNS_8ListenerE+0xc2>

    while (l != NULL && l->id < newListener->id)
    {
        p = l;
 800795e:	461a      	mov	r2, r3
        l = l->next;
 8007960:	69db      	ldr	r3, [r3, #28]
    while (l != NULL && l->id < newListener->id)
 8007962:	b11b      	cbz	r3, 800796c <_ZN5codal10MessageBus3addEPNS_8ListenerE+0x90>
 8007964:	8818      	ldrh	r0, [r3, #0]
 8007966:	8829      	ldrh	r1, [r5, #0]
 8007968:	4288      	cmp	r0, r1
 800796a:	d3f8      	bcc.n	800795e <_ZN5codal10MessageBus3addEPNS_8ListenerE+0x82>
    }

    while (l != NULL && l->id == newListener->id && l->value < newListener->value)
 800796c:	b153      	cbz	r3, 8007984 <_ZN5codal10MessageBus3addEPNS_8ListenerE+0xa8>
 800796e:	8818      	ldrh	r0, [r3, #0]
 8007970:	8829      	ldrh	r1, [r5, #0]
 8007972:	4288      	cmp	r0, r1
 8007974:	d106      	bne.n	8007984 <_ZN5codal10MessageBus3addEPNS_8ListenerE+0xa8>
 8007976:	8858      	ldrh	r0, [r3, #2]
 8007978:	8869      	ldrh	r1, [r5, #2]
 800797a:	4288      	cmp	r0, r1
 800797c:	d202      	bcs.n	8007984 <_ZN5codal10MessageBus3addEPNS_8ListenerE+0xa8>
    {
        p = l;
 800797e:	461a      	mov	r2, r3
        l = l->next;
 8007980:	69db      	ldr	r3, [r3, #28]
    while (l != NULL && l->id == newListener->id && l->value < newListener->value)
 8007982:	e7f3      	b.n	800796c <_ZN5codal10MessageBus3addEPNS_8ListenerE+0x90>
    }

    //add at front of list
    if (p == listeners && (newListener->id < p->id || (p->id == newListener->id && p->value > newListener->value)))
 8007984:	4294      	cmp	r4, r2
 8007986:	d00c      	beq.n	80079a2 <_ZN5codal10MessageBus3addEPNS_8ListenerE+0xc6>
    }

    //add after p
    else
    {
        newListener->next = p->next;
 8007988:	69d3      	ldr	r3, [r2, #28]
 800798a:	61eb      	str	r3, [r5, #28]
        p->next = newListener;
 800798c:	61d5      	str	r5, [r2, #28]
    }

    Event(DEVICE_ID_MESSAGE_BUS_LISTENER, newListener->id);
 800798e:	2301      	movs	r3, #1
 8007990:	882a      	ldrh	r2, [r5, #0]
 8007992:	f240 31fd 	movw	r1, #1021	; 0x3fd
 8007996:	a802      	add	r0, sp, #8
 8007998:	f002 f813 	bl	80099c2 <_ZN5codal5EventC1EttNS_15EventLaunchModeE>
    return DEVICE_OK;
 800799c:	2000      	movs	r0, #0
}
 800799e:	b004      	add	sp, #16
 80079a0:	bd70      	pop	{r4, r5, r6, pc}
    if (p == listeners && (newListener->id < p->id || (p->id == newListener->id && p->value > newListener->value)))
 80079a2:	8829      	ldrh	r1, [r5, #0]
 80079a4:	8813      	ldrh	r3, [r2, #0]
 80079a6:	4299      	cmp	r1, r3
 80079a8:	d304      	bcc.n	80079b4 <_ZN5codal10MessageBus3addEPNS_8ListenerE+0xd8>
 80079aa:	d1ed      	bne.n	8007988 <_ZN5codal10MessageBus3addEPNS_8ListenerE+0xac>
 80079ac:	8851      	ldrh	r1, [r2, #2]
 80079ae:	886b      	ldrh	r3, [r5, #2]
 80079b0:	4299      	cmp	r1, r3
 80079b2:	d9e9      	bls.n	8007988 <_ZN5codal10MessageBus3addEPNS_8ListenerE+0xac>
        newListener->next = p;
 80079b4:	61ea      	str	r2, [r5, #28]
        listeners = newListener;
 80079b6:	6175      	str	r5, [r6, #20]
 80079b8:	e7e9      	b.n	800798e <_ZN5codal10MessageBus3addEPNS_8ListenerE+0xb2>
        return DEVICE_INVALID_PARAMETER;
 80079ba:	f46f 707a 	mvn.w	r0, #1000	; 0x3e8
}
 80079be:	4770      	bx	lr
 80079c0:	fffffc16 	.word	0xfffffc16

080079c4 <_ZN5codal10MessageBus7processERNS_5EventEb>:
{
 80079c4:	b5f8      	push	{r3, r4, r5, r6, r7, lr}
 80079c6:	460d      	mov	r5, r1
 80079c8:	4617      	mov	r7, r2
    l = listeners;
 80079ca:	6944      	ldr	r4, [r0, #20]
    int complete = 1;
 80079cc:	2601      	movs	r6, #1
 80079ce:	e004      	b.n	80079da <_ZN5codal10MessageBus7processERNS_5EventEb+0x16>
                listenerUrgent = true;
 80079d0:	2301      	movs	r3, #1
            if(listenerUrgent == urgent && !(l->flags & MESSAGE_BUS_LISTENER_DELETING))
 80079d2:	42bb      	cmp	r3, r7
 80079d4:	d01b      	beq.n	8007a0e <_ZN5codal10MessageBus7processERNS_5EventEb+0x4a>
                complete = 0;
 80079d6:	2600      	movs	r6, #0
        l = l->next;
 80079d8:	69e4      	ldr	r4, [r4, #28]
    while (l != NULL)
 80079da:	2c00      	cmp	r4, #0
 80079dc:	d032      	beq.n	8007a44 <_ZN5codal10MessageBus7processERNS_5EventEb+0x80>
        if((l->id == evt.source || l->id == DEVICE_ID_ANY) && (l->value == evt.value || l->value == DEVICE_EVT_ANY))
 80079de:	8823      	ldrh	r3, [r4, #0]
 80079e0:	882a      	ldrh	r2, [r5, #0]
 80079e2:	4293      	cmp	r3, r2
 80079e4:	d001      	beq.n	80079ea <_ZN5codal10MessageBus7processERNS_5EventEb+0x26>
 80079e6:	2b00      	cmp	r3, #0
 80079e8:	d1f6      	bne.n	80079d8 <_ZN5codal10MessageBus7processERNS_5EventEb+0x14>
 80079ea:	8863      	ldrh	r3, [r4, #2]
 80079ec:	886a      	ldrh	r2, [r5, #2]
 80079ee:	4293      	cmp	r3, r2
 80079f0:	d001      	beq.n	80079f6 <_ZN5codal10MessageBus7processERNS_5EventEb+0x32>
 80079f2:	2b00      	cmp	r3, #0
 80079f4:	d1f0      	bne.n	80079d8 <_ZN5codal10MessageBus7processERNS_5EventEb+0x14>
            if (fiber_scheduler_running())
 80079f6:	f7ff fbc1 	bl	800717c <_ZN5codal23fiber_scheduler_runningEv>
 80079fa:	2800      	cmp	r0, #0
 80079fc:	d0e8      	beq.n	80079d0 <_ZN5codal10MessageBus7processERNS_5EventEb+0xc>
                listenerUrgent = (l->flags & MESSAGE_BUS_LISTENER_IMMEDIATE) == MESSAGE_BUS_LISTENER_IMMEDIATE;
 80079fe:	88a3      	ldrh	r3, [r4, #4]
 8007a00:	f003 03c0 	and.w	r3, r3, #192	; 0xc0
 8007a04:	2bc0      	cmp	r3, #192	; 0xc0
 8007a06:	bf14      	ite	ne
 8007a08:	2300      	movne	r3, #0
 8007a0a:	2301      	moveq	r3, #1
 8007a0c:	e7e1      	b.n	80079d2 <_ZN5codal10MessageBus7processERNS_5EventEb+0xe>
            if(listenerUrgent == urgent && !(l->flags & MESSAGE_BUS_LISTENER_DELETING))
 8007a0e:	88a2      	ldrh	r2, [r4, #4]
 8007a10:	f412 4f00 	tst.w	r2, #32768	; 0x8000
 8007a14:	d114      	bne.n	8007a40 <_ZN5codal10MessageBus7processERNS_5EventEb+0x7c>
                l->evt = evt;
 8007a16:	f104 0310 	add.w	r3, r4, #16
 8007a1a:	e895 0003 	ldmia.w	r5, {r0, r1}
 8007a1e:	e883 0003 	stmia.w	r3, {r0, r1}
                if (l->flags & MESSAGE_BUS_LISTENER_NONBLOCKING || !fiber_scheduler_running())
 8007a22:	f012 0f40 	tst.w	r2, #64	; 0x40
 8007a26:	d102      	bne.n	8007a2e <_ZN5codal10MessageBus7processERNS_5EventEb+0x6a>
 8007a28:	f7ff fba8 	bl	800717c <_ZN5codal23fiber_scheduler_runningEv>
 8007a2c:	b918      	cbnz	r0, 8007a36 <_ZN5codal10MessageBus7processERNS_5EventEb+0x72>
                    async_callback(l);
 8007a2e:	4620      	mov	r0, r4
 8007a30:	f001 fe53 	bl	80096da <_Z14async_callbackPv>
 8007a34:	e7d0      	b.n	80079d8 <_ZN5codal10MessageBus7processERNS_5EventEb+0x14>
                    invoke(async_callback, l);
 8007a36:	4621      	mov	r1, r4
 8007a38:	4803      	ldr	r0, [pc, #12]	; (8007a48 <_ZN5codal10MessageBus7processERNS_5EventEb+0x84>)
 8007a3a:	f7ff fe0f 	bl	800765c <_ZN5codal6invokeEPFvPvES0_>
 8007a3e:	e7cb      	b.n	80079d8 <_ZN5codal10MessageBus7processERNS_5EventEb+0x14>
                complete = 0;
 8007a40:	2600      	movs	r6, #0
 8007a42:	e7c9      	b.n	80079d8 <_ZN5codal10MessageBus7processERNS_5EventEb+0x14>
}
 8007a44:	4630      	mov	r0, r6
 8007a46:	bdf8      	pop	{r3, r4, r5, r6, r7, pc}
 8007a48:	080096db 	.word	0x080096db

08007a4c <_ZN5codal19allocateNotifyEventEv>:
/**
 * Allocate a NOTIFY event code dynamicaly, for generally purpose condition synchronisation.
 */
uint16_t allocateNotifyEvent()
{
    return userNotifyId++;
 8007a4c:	4b02      	ldr	r3, [pc, #8]	; (8007a58 <_ZN5codal19allocateNotifyEventEv+0xc>)
 8007a4e:	8818      	ldrh	r0, [r3, #0]
 8007a50:	1c42      	adds	r2, r0, #1
 8007a52:	801a      	strh	r2, [r3, #0]
}
 8007a54:	4770      	bx	lr
 8007a56:	bf00      	nop
 8007a58:	20001004 	.word	0x20001004

08007a5c <_ZN5codal22MemberFunctionCallbackC1INS_10MessageBusEEEPT_MS3_FvNS_5EventEE>:
      * @param object The object the callback method should be invooked on.
      *
      * @param method The method to invoke.
      */
    template <typename T>
    MemberFunctionCallback::MemberFunctionCallback(T* object, void (T::*method)(Event e))
 8007a5c:	b410      	push	{r4}
 8007a5e:	b083      	sub	sp, #12
 8007a60:	4604      	mov	r4, r0
 8007a62:	4668      	mov	r0, sp
 8007a64:	e880 000c 	stmia.w	r0, {r2, r3}
    {
        this->object = object;
 8007a68:	4622      	mov	r2, r4
 8007a6a:	f842 1b04 	str.w	r1, [r2], #4
 8007a6e:	2300      	movs	r3, #0
 8007a70:	6093      	str	r3, [r2, #8]
 8007a72:	60d3      	str	r3, [r2, #12]
        memclr(this->method, sizeof(this->method));
        memcpy(this->method, &method, sizeof(method));
 8007a74:	4603      	mov	r3, r0
 8007a76:	cb03      	ldmia	r3!, {r0, r1}
 8007a78:	6060      	str	r0, [r4, #4]
 8007a7a:	6051      	str	r1, [r2, #4]
        invoke = &MemberFunctionCallback::methodCall<T>;
 8007a7c:	4b02      	ldr	r3, [pc, #8]	; (8007a88 <_ZN5codal22MemberFunctionCallbackC1INS_10MessageBusEEEPT_MS3_FvNS_5EventEE+0x2c>)
 8007a7e:	6163      	str	r3, [r4, #20]
    }
 8007a80:	4620      	mov	r0, r4
 8007a82:	b003      	add	sp, #12
 8007a84:	bc10      	pop	{r4}
 8007a86:	4770      	bx	lr
 8007a88:	080096a5 	.word	0x080096a5

08007a8c <_ZN5codal10EventModel6listenINS_10MessageBusEEEittPT_MS3_FvNS_5EventEEt>:
      *
      * @return DEVICE_OK on success or DEVICE_INVALID_PARAMETER if the handler or object
      *         pointers are NULL.
      */
    template <typename T>
    int EventModel::listen(uint16_t id, uint16_t value, T* object, void (T::*handler)(Event), uint16_t flags)
 8007a8c:	e92d 43f0 	stmdb	sp!, {r4, r5, r6, r7, r8, r9, lr}
 8007a90:	b085      	sub	sp, #20
 8007a92:	f8bd 8038 	ldrh.w	r8, [sp, #56]	; 0x38
    {
        if (object == NULL || handler == NULL)
 8007a96:	b3ab      	cbz	r3, 8007b04 <_ZN5codal10EventModel6listenINS_10MessageBusEEEittPT_MS3_FvNS_5EventEEt+0x78>
 8007a98:	461f      	mov	r7, r3
 8007a9a:	9b0c      	ldr	r3, [sp, #48]	; 0x30
 8007a9c:	b35b      	cbz	r3, 8007af6 <_ZN5codal10EventModel6listenINS_10MessageBusEEEittPT_MS3_FvNS_5EventEEt+0x6a>
            return DEVICE_INVALID_PARAMETER;

        if(id == DEVICE_ID_SCHEDULER && flags != MESSAGE_BUS_LISTENER_IMMEDIATE)
 8007a9e:	290f      	cmp	r1, #15
 8007aa0:	d102      	bne.n	8007aa8 <_ZN5codal10EventModel6listenINS_10MessageBusEEEittPT_MS3_FvNS_5EventEEt+0x1c>
 8007aa2:	f1b8 0fc0 	cmp.w	r8, #192	; 0xc0
 8007aa6:	d130      	bne.n	8007b0a <_ZN5codal10EventModel6listenINS_10MessageBusEEEittPT_MS3_FvNS_5EventEEt+0x7e>
 8007aa8:	4691      	mov	r9, r2
 8007aaa:	460c      	mov	r4, r1
 8007aac:	4605      	mov	r5, r0
            return DEVICE_INVALID_PARAMETER;

        Listener *newListener = new Listener(id, value, object, handler, flags);
 8007aae:	2020      	movs	r0, #32
 8007ab0:	f7fb f884 	bl	8002bbc <_Znwj>
 8007ab4:	4606      	mov	r6, r0
 8007ab6:	f8cd 8008 	str.w	r8, [sp, #8]
 8007aba:	ab0c      	add	r3, sp, #48	; 0x30
 8007abc:	e893 0003 	ldmia.w	r3, {r0, r1}
 8007ac0:	e88d 0003 	stmia.w	sp, {r0, r1}
 8007ac4:	463b      	mov	r3, r7
 8007ac6:	464a      	mov	r2, r9
 8007ac8:	4621      	mov	r1, r4
 8007aca:	4630      	mov	r0, r6
 8007acc:	f001 ff1d 	bl	800990a <_ZN5codal8ListenerC1INS_10MessageBusEEEttPT_MS3_FvNS_5EventEEt>

        if(add(newListener) == DEVICE_OK)
 8007ad0:	682b      	ldr	r3, [r5, #0]
 8007ad2:	685b      	ldr	r3, [r3, #4]
 8007ad4:	4631      	mov	r1, r6
 8007ad6:	4628      	mov	r0, r5
 8007ad8:	4798      	blx	r3
 8007ada:	4603      	mov	r3, r0
 8007adc:	b138      	cbz	r0, 8007aee <_ZN5codal10EventModel6listenINS_10MessageBusEEEittPT_MS3_FvNS_5EventEEt+0x62>
            return DEVICE_OK;

        delete newListener;
 8007ade:	b1be      	cbz	r6, 8007b10 <_ZN5codal10EventModel6listenINS_10MessageBusEEEittPT_MS3_FvNS_5EventEEt+0x84>
 8007ae0:	4630      	mov	r0, r6
 8007ae2:	f001 fb80 	bl	80091e6 <_ZN5codal8ListenerD1Ev>
 8007ae6:	4630      	mov	r0, r6
 8007ae8:	f7fb f86c 	bl	8002bc4 <_ZdlPv>
        return DEVICE_NOT_SUPPORTED;
 8007aec:	4b09      	ldr	r3, [pc, #36]	; (8007b14 <_ZN5codal10EventModel6listenINS_10MessageBusEEEittPT_MS3_FvNS_5EventEEt+0x88>)
    }
 8007aee:	4618      	mov	r0, r3
 8007af0:	b005      	add	sp, #20
 8007af2:	e8bd 83f0 	ldmia.w	sp!, {r4, r5, r6, r7, r8, r9, pc}
        if (object == NULL || handler == NULL)
 8007af6:	9b0d      	ldr	r3, [sp, #52]	; 0x34
 8007af8:	f013 0f01 	tst.w	r3, #1
 8007afc:	d1cf      	bne.n	8007a9e <_ZN5codal10EventModel6listenINS_10MessageBusEEEittPT_MS3_FvNS_5EventEEt+0x12>
            return DEVICE_INVALID_PARAMETER;
 8007afe:	f46f 737a 	mvn.w	r3, #1000	; 0x3e8
 8007b02:	e7f4      	b.n	8007aee <_ZN5codal10EventModel6listenINS_10MessageBusEEEittPT_MS3_FvNS_5EventEEt+0x62>
 8007b04:	f46f 737a 	mvn.w	r3, #1000	; 0x3e8
 8007b08:	e7f1      	b.n	8007aee <_ZN5codal10EventModel6listenINS_10MessageBusEEEittPT_MS3_FvNS_5EventEEt+0x62>
            return DEVICE_INVALID_PARAMETER;
 8007b0a:	f46f 737a 	mvn.w	r3, #1000	; 0x3e8
 8007b0e:	e7ee      	b.n	8007aee <_ZN5codal10EventModel6listenINS_10MessageBusEEEittPT_MS3_FvNS_5EventEEt+0x62>
        return DEVICE_NOT_SUPPORTED;
 8007b10:	4b00      	ldr	r3, [pc, #0]	; (8007b14 <_ZN5codal10EventModel6listenINS_10MessageBusEEEittPT_MS3_FvNS_5EventEEt+0x88>)
 8007b12:	e7ec      	b.n	8007aee <_ZN5codal10EventModel6listenINS_10MessageBusEEEittPT_MS3_FvNS_5EventEEt+0x62>
 8007b14:	fffffc16 	.word	0xfffffc16

08007b18 <_ZN5codal10MessageBusC1Ev>:
MessageBus::MessageBus()
 8007b18:	b530      	push	{r4, r5, lr}
 8007b1a:	b087      	sub	sp, #28
 8007b1c:	4604      	mov	r4, r0
    class EventModel
 8007b1e:	4b16      	ldr	r3, [pc, #88]	; (8007b78 <_ZN5codal10MessageBusC1Ev+0x60>)
 8007b20:	f840 3b08 	str.w	r3, [r0], #8
        {
 8007b24:	4b15      	ldr	r3, [pc, #84]	; (8007b7c <_ZN5codal10MessageBusC1Ev+0x64>)
 8007b26:	60a3      	str	r3, [r4, #8]
            this->id = 0;
 8007b28:	2500      	movs	r5, #0
 8007b2a:	81a5      	strh	r5, [r4, #12]
            this->status = 0;
 8007b2c:	81e5      	strh	r5, [r4, #14]
            addComponent();
 8007b2e:	f7ff f9df 	bl	8006ef0 <_ZN5codal14CodalComponent12addComponentEv>
 8007b32:	4b13      	ldr	r3, [pc, #76]	; (8007b80 <_ZN5codal10MessageBusC1Ev+0x68>)
 8007b34:	f103 0208 	add.w	r2, r3, #8
 8007b38:	6022      	str	r2, [r4, #0]
 8007b3a:	3328      	adds	r3, #40	; 0x28
 8007b3c:	60a3      	str	r3, [r4, #8]
    this->listeners = NULL;
 8007b3e:	6165      	str	r5, [r4, #20]
    this->evt_queue_head = NULL;
 8007b40:	61a5      	str	r5, [r4, #24]
    this->evt_queue_tail = NULL;
 8007b42:	61e5      	str	r5, [r4, #28]
    this->queueLength = 0;
 8007b44:	8465      	strh	r5, [r4, #34]	; 0x22
    listen(DEVICE_ID_SCHEDULER, DEVICE_SCHEDULER_EVT_IDLE, this, &MessageBus::idle, MESSAGE_BUS_LISTENER_IMMEDIATE);
 8007b46:	4b0f      	ldr	r3, [pc, #60]	; (8007b84 <_ZN5codal10MessageBusC1Ev+0x6c>)
 8007b48:	9304      	str	r3, [sp, #16]
 8007b4a:	9505      	str	r5, [sp, #20]
 8007b4c:	23c0      	movs	r3, #192	; 0xc0
 8007b4e:	9302      	str	r3, [sp, #8]
 8007b50:	ab06      	add	r3, sp, #24
 8007b52:	e913 0003 	ldmdb	r3, {r0, r1}
 8007b56:	e88d 0003 	stmia.w	sp, {r0, r1}
 8007b5a:	4623      	mov	r3, r4
 8007b5c:	2202      	movs	r2, #2
 8007b5e:	210f      	movs	r1, #15
 8007b60:	4620      	mov	r0, r4
 8007b62:	f7ff ff93 	bl	8007a8c <_ZN5codal10EventModel6listenINS_10MessageBusEEEittPT_MS3_FvNS_5EventEEt>
    if(EventModel::defaultEventBus == NULL)
 8007b66:	4b08      	ldr	r3, [pc, #32]	; (8007b88 <_ZN5codal10MessageBusC1Ev+0x70>)
 8007b68:	681b      	ldr	r3, [r3, #0]
 8007b6a:	b113      	cbz	r3, 8007b72 <_ZN5codal10MessageBusC1Ev+0x5a>
}
 8007b6c:	4620      	mov	r0, r4
 8007b6e:	b007      	add	sp, #28
 8007b70:	bd30      	pop	{r4, r5, pc}
        EventModel::defaultEventBus = this;
 8007b72:	4b05      	ldr	r3, [pc, #20]	; (8007b88 <_ZN5codal10MessageBusC1Ev+0x70>)
 8007b74:	601c      	str	r4, [r3, #0]
 8007b76:	e7f9      	b.n	8007b6c <_ZN5codal10MessageBusC1Ev+0x54>
 8007b78:	0800a2e4 	.word	0x0800a2e4
 8007b7c:	0800a244 	.word	0x0800a244
 8007b80:	0800a2f0 	.word	0x0800a2f0
 8007b84:	080098cd 	.word	0x080098cd
 8007b88:	20002170 	.word	0x20002170

08007b8c <_ZN5codal10MessageBusD1Ev>:
}

/**
  * Destructor for MessageBus, where we deregister this instance from the array of fiber components.
  */
MessageBus::~MessageBus()
 8007b8c:	b530      	push	{r4, r5, lr}
 8007b8e:	b085      	sub	sp, #20
 8007b90:	4604      	mov	r4, r0
 8007b92:	4b0f      	ldr	r3, [pc, #60]	; (8007bd0 <_ZN5codal10MessageBusD1Ev+0x44>)
 8007b94:	f103 0208 	add.w	r2, r3, #8
 8007b98:	6002      	str	r2, [r0, #0]
 8007b9a:	3328      	adds	r3, #40	; 0x28
 8007b9c:	6083      	str	r3, [r0, #8]
{
    ignore(DEVICE_ID_SCHEDULER, DEVICE_EVT_ANY, this, &MessageBus::idle);
 8007b9e:	4b0d      	ldr	r3, [pc, #52]	; (8007bd4 <_ZN5codal10MessageBusD1Ev+0x48>)
 8007ba0:	9302      	str	r3, [sp, #8]
 8007ba2:	2500      	movs	r5, #0
 8007ba4:	9503      	str	r5, [sp, #12]
 8007ba6:	ab04      	add	r3, sp, #16
 8007ba8:	e913 0003 	ldmdb	r3, {r0, r1}
 8007bac:	e88d 0003 	stmia.w	sp, {r0, r1}
 8007bb0:	4623      	mov	r3, r4
 8007bb2:	462a      	mov	r2, r5
 8007bb4:	210f      	movs	r1, #15
 8007bb6:	4620      	mov	r0, r4
 8007bb8:	f001 fec6 	bl	8009948 <_ZN5codal10EventModel6ignoreINS_10MessageBusEEEittPT_MS3_FvNS_5EventEE>
        {
 8007bbc:	4b06      	ldr	r3, [pc, #24]	; (8007bd8 <_ZN5codal10MessageBusD1Ev+0x4c>)
 8007bbe:	60a3      	str	r3, [r4, #8]
            status = 0;
 8007bc0:	81e5      	strh	r5, [r4, #14]
            removeComponent();
 8007bc2:	f104 0008 	add.w	r0, r4, #8
 8007bc6:	f7ff f9f9 	bl	8006fbc <_ZN5codal14CodalComponent15removeComponentEv>
}
 8007bca:	4620      	mov	r0, r4
 8007bcc:	b005      	add	sp, #20
 8007bce:	bd30      	pop	{r4, r5, pc}
 8007bd0:	0800a2f0 	.word	0x0800a2f0
 8007bd4:	080098cd 	.word	0x080098cd
 8007bd8:	0800a244 	.word	0x0800a244

08007bdc <_ZN5codal5Event4fireEv>:

/**
  * Fires this Event onto the Default EventModel, or a custom one!
  */
void Event::fire()
{
 8007bdc:	b538      	push	{r3, r4, r5, lr}
    if(EventModel::defaultEventBus)
 8007bde:	4b05      	ldr	r3, [pc, #20]	; (8007bf4 <_ZN5codal5Event4fireEv+0x18>)
 8007be0:	681c      	ldr	r4, [r3, #0]
 8007be2:	b12c      	cbz	r4, 8007bf0 <_ZN5codal5Event4fireEv+0x14>
        EventModel::defaultEventBus->send(*this);
 8007be4:	6822      	ldr	r2, [r4, #0]
 8007be6:	6815      	ldr	r5, [r2, #0]
 8007be8:	e9d0 1200 	ldrd	r1, r2, [r0]
 8007bec:	4620      	mov	r0, r4
 8007bee:	47a8      	blx	r5
}
 8007bf0:	bd38      	pop	{r3, r4, r5, pc}
 8007bf2:	bf00      	nop
 8007bf4:	20002170 	.word	0x20002170

08007bf8 <_ZN5codal13ManagedString9initEmptyEv>:
  *
  * Configures this ManagedString to refer to the static EmptyString
  */
void ManagedString::initEmpty()
{
    ptr = EMPTY_DATA;
 8007bf8:	4b01      	ldr	r3, [pc, #4]	; (8007c00 <_ZN5codal13ManagedString9initEmptyEv+0x8>)
 8007bfa:	6003      	str	r3, [r0, #0]
}
 8007bfc:	4770      	bx	lr
 8007bfe:	bf00      	nop
 8007c00:	0800a32c 	.word	0x0800a32c

08007c04 <_Z41__static_initialization_and_destruction_0ii>:
}

/**
  * Empty string constant literal
  */
ManagedString ManagedString::EmptyString(EMPTY_DATA);
 8007c04:	2801      	cmp	r0, #1
 8007c06:	d000      	beq.n	8007c0a <_Z41__static_initialization_and_destruction_0ii+0x6>
 8007c08:	4770      	bx	lr
 8007c0a:	f64f 73ff 	movw	r3, #65535	; 0xffff
 8007c0e:	4299      	cmp	r1, r3
 8007c10:	d1fa      	bne.n	8007c08 <_Z41__static_initialization_and_destruction_0ii+0x4>
 8007c12:	b510      	push	{r4, lr}
 8007c14:	4c05      	ldr	r4, [pc, #20]	; (8007c2c <_Z41__static_initialization_and_destruction_0ii+0x28>)
 8007c16:	4906      	ldr	r1, [pc, #24]	; (8007c30 <_Z41__static_initialization_and_destruction_0ii+0x2c>)
 8007c18:	4620      	mov	r0, r4
 8007c1a:	f001 ff1e 	bl	8009a5a <_ZN5codal13ManagedStringC1EPNS_10StringDataE>
 8007c1e:	4a05      	ldr	r2, [pc, #20]	; (8007c34 <_Z41__static_initialization_and_destruction_0ii+0x30>)
 8007c20:	4905      	ldr	r1, [pc, #20]	; (8007c38 <_Z41__static_initialization_and_destruction_0ii+0x34>)
 8007c22:	4620      	mov	r0, r4
 8007c24:	f7f8 fede 	bl	80009e4 <__aeabi_atexit>
 8007c28:	bd10      	pop	{r4, pc}
 8007c2a:	bf00      	nop
 8007c2c:	20002174 	.word	0x20002174
 8007c30:	0800a32c 	.word	0x0800a32c
 8007c34:	20000160 	.word	0x20000160
 8007c38:	08009a1f 	.word	0x08009a1f

08007c3c <_ZN5codal4itoaEiPc>:
int codal::itoa(int n, char *s)
{
    int i = 0;
    int positive = (n >= 0);

    if (s == NULL)
 8007c3c:	b369      	cbz	r1, 8007c9a <_ZN5codal4itoaEiPc+0x5e>
{
 8007c3e:	b570      	push	{r4, r5, r6, lr}
 8007c40:	460d      	mov	r5, r1
        return DEVICE_INVALID_PARAMETER;

    // Record the sign of the number,
    // Ensure our working value is positive.
    if (positive)
 8007c42:	2800      	cmp	r0, #0
 8007c44:	db02      	blt.n	8007c4c <_ZN5codal4itoaEiPc+0x10>
        n = -n;
 8007c46:	4241      	negs	r1, r0
 8007c48:	2400      	movs	r4, #0
 8007c4a:	e002      	b.n	8007c52 <_ZN5codal4itoaEiPc+0x16>
 8007c4c:	4601      	mov	r1, r0
 8007c4e:	e7fb      	b.n	8007c48 <_ZN5codal4itoaEiPc+0xc>

    // Calculate each character, starting with the LSB.
    do {
         s[i++] = abs(n % 10) + '0';
 8007c50:	4634      	mov	r4, r6
 8007c52:	4a13      	ldr	r2, [pc, #76]	; (8007ca0 <_ZN5codal4itoaEiPc+0x64>)
 8007c54:	fb82 3201 	smull	r3, r2, r2, r1
 8007c58:	17cb      	asrs	r3, r1, #31
 8007c5a:	ebc3 03a2 	rsb	r3, r3, r2, asr #2
 8007c5e:	461a      	mov	r2, r3
 8007c60:	eb03 0383 	add.w	r3, r3, r3, lsl #2
 8007c64:	005e      	lsls	r6, r3, #1
 8007c66:	1b8b      	subs	r3, r1, r6
 8007c68:	2b00      	cmp	r3, #0
 8007c6a:	bfb8      	it	lt
 8007c6c:	425b      	neglt	r3, r3
 8007c6e:	1c66      	adds	r6, r4, #1
 8007c70:	3330      	adds	r3, #48	; 0x30
 8007c72:	552b      	strb	r3, [r5, r4]
    } while (abs(n /= 10) > 0);
 8007c74:	4611      	mov	r1, r2
 8007c76:	2a00      	cmp	r2, #0
 8007c78:	bfb8      	it	lt
 8007c7a:	4252      	neglt	r2, r2
 8007c7c:	2a00      	cmp	r2, #0
 8007c7e:	dce7      	bgt.n	8007c50 <_ZN5codal4itoaEiPc+0x14>

    // Add a negative sign as needed
    if (!positive)
 8007c80:	2800      	cmp	r0, #0
 8007c82:	db06      	blt.n	8007c92 <_ZN5codal4itoaEiPc+0x56>
 8007c84:	4628      	mov	r0, r5
        s[i++] = '-';

    // Terminate the string.
    s[i] = '\0';
 8007c86:	2400      	movs	r4, #0
 8007c88:	55ac      	strb	r4, [r5, r6]

    // Flip the order.
    string_reverse(s);
 8007c8a:	f001 ff84 	bl	8009b96 <_ZN5codal14string_reverseEPc>

    return DEVICE_OK;
 8007c8e:	4620      	mov	r0, r4
}
 8007c90:	bd70      	pop	{r4, r5, r6, pc}
        s[i++] = '-';
 8007c92:	232d      	movs	r3, #45	; 0x2d
 8007c94:	55ab      	strb	r3, [r5, r6]
 8007c96:	1ca6      	adds	r6, r4, #2
 8007c98:	e7f4      	b.n	8007c84 <_ZN5codal4itoaEiPc+0x48>
        return DEVICE_INVALID_PARAMETER;
 8007c9a:	f46f 707a 	mvn.w	r0, #1000	; 0x3e8
}
 8007c9e:	4770      	bx	lr
 8007ca0:	66666667 	.word	0x66666667

08007ca4 <_ZN5codal3_cm3Pin14setAnalogValueEi>:
  *         if the given pin does not have analog capability.
  */
int Pin::setAnalogValue(int value)
{
    //check if this pin has an analogue mode...
    if(!(PIN_CAPABILITY_DIGITAL & capability))
 8007ca4:	7903      	ldrb	r3, [r0, #4]
 8007ca6:	f013 0f01 	tst.w	r3, #1
 8007caa:	d007      	beq.n	8007cbc <_ZN5codal3_cm3Pin14setAnalogValueEi+0x18>
        return DEVICE_NOT_SUPPORTED;

    //sanitise the level value
    if(value < 0 || value > DEVICE_PIN_MAX_OUTPUT)
 8007cac:	f5b1 6f80 	cmp.w	r1, #1024	; 0x400
 8007cb0:	d201      	bcs.n	8007cb6 <_ZN5codal3_cm3Pin14setAnalogValueEi+0x12>
#ifdef TODO
    //obtain use of the DynamicPwm instance, if it has changed / configure if we do not have one
    if(obtainAnalogChannel() == DEVICE_OK)
        return ((DynamicPwm *)pin)->write(level);
#endif  //  TODO
    return DEVICE_OK;
 8007cb2:	2000      	movs	r0, #0
}
 8007cb4:	4770      	bx	lr
        return DEVICE_INVALID_PARAMETER;
 8007cb6:	f46f 707a 	mvn.w	r0, #1000	; 0x3e8
 8007cba:	4770      	bx	lr
        return DEVICE_NOT_SUPPORTED;
 8007cbc:	4800      	ldr	r0, [pc, #0]	; (8007cc0 <_ZN5codal3_cm3Pin14setAnalogValueEi+0x1c>)
 8007cbe:	4770      	bx	lr
 8007cc0:	fffffc16 	.word	0xfffffc16

08007cc4 <_ZN5codal3_cm3Pin9isTouchedEv>:
  * @endcode
  */
int Pin::isTouched()
{
    return DEVICE_NOT_SUPPORTED;
}
 8007cc4:	4800      	ldr	r0, [pc, #0]	; (8007cc8 <_ZN5codal3_cm3Pin9isTouchedEv+0x4>)
 8007cc6:	4770      	bx	lr
 8007cc8:	fffffc16 	.word	0xfffffc16

08007ccc <_ZN5codal3_cm3Pin17getAnalogPeriodUsEv>:
        return DEVICE_NOT_SUPPORTED;

    return ((DynamicPwm *)pin)->getPeriodUs();
#endif  //  TODO
    return DEVICE_NOT_SUPPORTED;
}
 8007ccc:	4800      	ldr	r0, [pc, #0]	; (8007cd0 <_ZN5codal3_cm3Pin17getAnalogPeriodUsEv+0x4>)
 8007cce:	4770      	bx	lr
 8007cd0:	fffffc16 	.word	0xfffffc16

08007cd4 <_ZN5codal3_cm3Pin15getAnalogPeriodEv>:
  *
  * @return the period on success, or DEVICE_NOT_SUPPORTED if the
  *         given pin is not configured as an analog output.
  */
int Pin::getAnalogPeriod()
{
 8007cd4:	b508      	push	{r3, lr}
    return getAnalogPeriodUs()/1000;
 8007cd6:	6803      	ldr	r3, [r0, #0]
 8007cd8:	6b9b      	ldr	r3, [r3, #56]	; 0x38
 8007cda:	4798      	blx	r3
 8007cdc:	4b02      	ldr	r3, [pc, #8]	; (8007ce8 <_ZN5codal3_cm3Pin15getAnalogPeriodEv+0x14>)
 8007cde:	fba3 3000 	umull	r3, r0, r3, r0
}
 8007ce2:	0980      	lsrs	r0, r0, #6
 8007ce4:	bd08      	pop	{r3, pc}
 8007ce6:	bf00      	nop
 8007ce8:	10624dd3 	.word	0x10624dd3

08007cec <_ZN5codal3_cm3Pin15setDigitalValueEi>:
{
 8007cec:	b538      	push	{r3, r4, r5, lr}
 8007cee:	4605      	mov	r5, r0
 8007cf0:	460c      	mov	r4, r1
    debug_print("pin "); debug_println(value); ////
 8007cf2:	4815      	ldr	r0, [pc, #84]	; (8007d48 <_ZN5codal3_cm3Pin15setDigitalValueEi+0x5c>)
 8007cf4:	f7fa fde8 	bl	80028c8 <debug_print>
 8007cf8:	4620      	mov	r0, r4
 8007cfa:	f7fa fdc7 	bl	800288c <_Z13debug_printlni>
    if(!(PIN_CAPABILITY_DIGITAL & capability))
 8007cfe:	792b      	ldrb	r3, [r5, #4]
 8007d00:	f013 0f01 	tst.w	r3, #1
 8007d04:	d01b      	beq.n	8007d3e <_ZN5codal3_cm3Pin15setDigitalValueEi+0x52>
    if (value < 0 || value > 1)
 8007d06:	2c01      	cmp	r4, #1
 8007d08:	d81b      	bhi.n	8007d42 <_ZN5codal3_cm3Pin15setDigitalValueEi+0x56>
	rcc_periph_clock_enable(RCC_GPIOC);
 8007d0a:	f44f 7041 	mov.w	r0, #772	; 0x304
 8007d0e:	f7f9 fd00 	bl	8001712 <rcc_periph_clock_enable>
	gpio_set_mode(GPIOC, GPIO_MODE_OUTPUT_2_MHZ, GPIO_CNF_OUTPUT_PUSHPULL, GPIO13);
 8007d12:	f44f 5300 	mov.w	r3, #8192	; 0x2000
 8007d16:	2200      	movs	r2, #0
 8007d18:	2102      	movs	r1, #2
 8007d1a:	480c      	ldr	r0, [pc, #48]	; (8007d4c <_ZN5codal3_cm3Pin15setDigitalValueEi+0x60>)
 8007d1c:	f7f9 fcba 	bl	8001694 <gpio_set_mode>
    if (value) {
 8007d20:	b934      	cbnz	r4, 8007d30 <_ZN5codal3_cm3Pin15setDigitalValueEi+0x44>
	    gpio_clear(GPIOC, GPIO13);
 8007d22:	f44f 5100 	mov.w	r1, #8192	; 0x2000
 8007d26:	4809      	ldr	r0, [pc, #36]	; (8007d4c <_ZN5codal3_cm3Pin15setDigitalValueEi+0x60>)
 8007d28:	f7f9 fcec 	bl	8001704 <gpio_clear>
    return DEVICE_OK;
 8007d2c:	4620      	mov	r0, r4
}
 8007d2e:	bd38      	pop	{r3, r4, r5, pc}
        gpio_set(GPIOC, GPIO13);
 8007d30:	f44f 5100 	mov.w	r1, #8192	; 0x2000
 8007d34:	4805      	ldr	r0, [pc, #20]	; (8007d4c <_ZN5codal3_cm3Pin15setDigitalValueEi+0x60>)
 8007d36:	f7f9 fce3 	bl	8001700 <gpio_set>
    return DEVICE_OK;
 8007d3a:	2000      	movs	r0, #0
 8007d3c:	e7f7      	b.n	8007d2e <_ZN5codal3_cm3Pin15setDigitalValueEi+0x42>
        return DEVICE_NOT_SUPPORTED;
 8007d3e:	4804      	ldr	r0, [pc, #16]	; (8007d50 <_ZN5codal3_cm3Pin15setDigitalValueEi+0x64>)
 8007d40:	e7f5      	b.n	8007d2e <_ZN5codal3_cm3Pin15setDigitalValueEi+0x42>
        return DEVICE_INVALID_PARAMETER;
 8007d42:	f46f 707a 	mvn.w	r0, #1000	; 0x3e8
 8007d46:	e7f2      	b.n	8007d2e <_ZN5codal3_cm3Pin15setDigitalValueEi+0x42>
 8007d48:	0800a330 	.word	0x0800a330
 8007d4c:	40011000 	.word	0x40011000
 8007d50:	fffffc16 	.word	0xfffffc16

08007d54 <_ZN5codal3_cm3PinC1EhmmtNS_13PinCapabilityE>:
Pin::Pin(
 8007d54:	b470      	push	{r4, r5, r6}
    rcc(rcc), port(port), pin(pin) {
 8007d56:	f101 0664 	add.w	r6, r1, #100	; 0x64
          * Pin P0(DEVICE_ID_IO_P0, DEVICE_PIN_P0, PIN_CAPABILITY_ALL);
          * @endcode
          */
        Pin(int id, PinNumber name, PinCapability capability)
        {
            this->status = 0;
 8007d5a:	2500      	movs	r5, #0
 8007d5c:	8185      	strh	r5, [r0, #12]
            this->id = id;
 8007d5e:	81c6      	strh	r6, [r0, #14]
            this->name = name;
 8007d60:	7401      	strb	r1, [r0, #16]
            this->capability = capability;
 8007d62:	f89d 1010 	ldrb.w	r1, [sp, #16]
 8007d66:	7101      	strb	r1, [r0, #4]
 8007d68:	4904      	ldr	r1, [pc, #16]	; (8007d7c <_ZN5codal3_cm3PinC1EhmmtNS_13PinCapabilityE+0x28>)
 8007d6a:	6001      	str	r1, [r0, #0]
 8007d6c:	6142      	str	r2, [r0, #20]
 8007d6e:	6183      	str	r3, [r0, #24]
 8007d70:	f8bd 300c 	ldrh.w	r3, [sp, #12]
 8007d74:	8383      	strh	r3, [r0, #28]
    this->pullMode = DEVICE_DEFAULT_PULLMODE;
 8007d76:	6085      	str	r5, [r0, #8]
}
 8007d78:	bc70      	pop	{r4, r5, r6}
 8007d7a:	4770      	bx	lr
 8007d7c:	0800a340 	.word	0x0800a340

08007d80 <_ZN5codal3_cm3Pin13setServoValueEiii>:
{
 8007d80:	b538      	push	{r3, r4, r5, lr}
    if(!(PIN_CAPABILITY_ANALOG & capability))
 8007d82:	7904      	ldrb	r4, [r0, #4]
 8007d84:	f014 0f02 	tst.w	r4, #2
 8007d88:	d024      	beq.n	8007dd4 <_ZN5codal3_cm3Pin13setServoValueEiii+0x54>
    if(value < 0 || range < 1 || center < 1)
 8007d8a:	2900      	cmp	r1, #0
 8007d8c:	db24      	blt.n	8007dd8 <_ZN5codal3_cm3Pin13setServoValueEiii+0x58>
 8007d8e:	2a00      	cmp	r2, #0
 8007d90:	dd25      	ble.n	8007dde <_ZN5codal3_cm3Pin13setServoValueEiii+0x5e>
 8007d92:	2b00      	cmp	r3, #0
 8007d94:	dd26      	ble.n	8007de4 <_ZN5codal3_cm3Pin13setServoValueEiii+0x64>
    if(value > DEVICE_PIN_MAX_SERVO_RANGE)
 8007d96:	29b4      	cmp	r1, #180	; 0xb4
 8007d98:	dd00      	ble.n	8007d9c <_ZN5codal3_cm3Pin13setServoValueEiii+0x1c>
        value = DEVICE_PIN_MAX_SERVO_RANGE;
 8007d9a:	21b4      	movs	r1, #180	; 0xb4
    int lower = (center - (range / 2)) * 1000;
 8007d9c:	eb02 74d2 	add.w	r4, r2, r2, lsr #31
 8007da0:	eba3 0364 	sub.w	r3, r3, r4, asr #1
 8007da4:	f44f 757a 	mov.w	r5, #1000	; 0x3e8
    value = value * 1000;
 8007da8:	fb05 f101 	mul.w	r1, r5, r1
    int scaled = lower + (range * (value / DEVICE_PIN_MAX_SERVO_RANGE));
 8007dac:	4c0f      	ldr	r4, [pc, #60]	; (8007dec <_ZN5codal3_cm3Pin13setServoValueEiii+0x6c>)
 8007dae:	fb84 c401 	smull	ip, r4, r4, r1
 8007db2:	440c      	add	r4, r1
 8007db4:	17c9      	asrs	r1, r1, #31
 8007db6:	ebc1 11e4 	rsb	r1, r1, r4, asr #7
 8007dba:	fb02 f101 	mul.w	r1, r2, r1
 8007dbe:	fb05 1303 	mla	r3, r5, r3, r1
    return setServoPulseUs(scaled / 1000);
 8007dc2:	490b      	ldr	r1, [pc, #44]	; (8007df0 <_ZN5codal3_cm3Pin13setServoValueEiii+0x70>)
 8007dc4:	fb81 2103 	smull	r2, r1, r1, r3
 8007dc8:	17db      	asrs	r3, r3, #31
 8007dca:	ebc3 11a1 	rsb	r1, r3, r1, asr #6
 8007dce:	f001 ff5e 	bl	8009c8e <_ZN5codal3_cm3Pin15setServoPulseUsEi>
}
 8007dd2:	bd38      	pop	{r3, r4, r5, pc}
        return DEVICE_NOT_SUPPORTED;
 8007dd4:	4807      	ldr	r0, [pc, #28]	; (8007df4 <_ZN5codal3_cm3Pin13setServoValueEiii+0x74>)
 8007dd6:	e7fc      	b.n	8007dd2 <_ZN5codal3_cm3Pin13setServoValueEiii+0x52>
        return DEVICE_INVALID_PARAMETER;
 8007dd8:	f46f 707a 	mvn.w	r0, #1000	; 0x3e8
 8007ddc:	e7f9      	b.n	8007dd2 <_ZN5codal3_cm3Pin13setServoValueEiii+0x52>
 8007dde:	f46f 707a 	mvn.w	r0, #1000	; 0x3e8
 8007de2:	e7f6      	b.n	8007dd2 <_ZN5codal3_cm3Pin13setServoValueEiii+0x52>
 8007de4:	f46f 707a 	mvn.w	r0, #1000	; 0x3e8
 8007de8:	e7f3      	b.n	8007dd2 <_ZN5codal3_cm3Pin13setServoValueEiii+0x52>
 8007dea:	bf00      	nop
 8007dec:	b60b60b7 	.word	0xb60b60b7
 8007df0:	10624dd3 	.word	0x10624dd3
 8007df4:	fffffc16 	.word	0xfffffc16

08007df8 <_ZN5codal3_cm6SerialD1Ev>:
 8007df8:	b510      	push	{r4, lr}
 8007dfa:	4604      	mov	r4, r0
 8007dfc:	4b02      	ldr	r3, [pc, #8]	; (8007e08 <_ZN5codal3_cm6SerialD1Ev+0x10>)
 8007dfe:	6003      	str	r3, [r0, #0]
 8007e00:	f7ff fd0e 	bl	8007820 <_ZN5codal6SerialD1Ev>
 8007e04:	4620      	mov	r0, r4
 8007e06:	bd10      	pop	{r4, pc}
 8007e08:	0800a394 	.word	0x0800a394

08007e0c <_ZN5codal3_cm6SerialD0Ev>:
 8007e0c:	b510      	push	{r4, lr}
 8007e0e:	4604      	mov	r4, r0
 8007e10:	4b04      	ldr	r3, [pc, #16]	; (8007e24 <_ZN5codal3_cm6SerialD0Ev+0x18>)
 8007e12:	6003      	str	r3, [r0, #0]
 8007e14:	f7ff fd04 	bl	8007820 <_ZN5codal6SerialD1Ev>
 8007e18:	4620      	mov	r0, r4
 8007e1a:	f7fa fed3 	bl	8002bc4 <_ZdlPv>
 8007e1e:	4620      	mov	r0, r4
 8007e20:	bd10      	pop	{r4, pc}
 8007e22:	bf00      	nop
 8007e24:	0800a394 	.word	0x0800a394

08007e28 <_ZN5codal3_cm6SerialC1ERNS0_3PinES3_hh>:
          *       -https://github.com/mbedmicro/mbed/blob/master/libraries/mbed/api/SerialBase.h
          *       -https://github.com/mbedmicro/mbed/blob/master/libraries/mbed/api/RawSerial.h
          *
          *       Buffers aren't allocated until the first send or receive respectively.
          */
        Serial::Serial(Pin &tx, Pin &rx, uint8_t rxBufferSize, uint8_t txBufferSize) 
 8007e28:	b530      	push	{r4, r5, lr}
 8007e2a:	b083      	sub	sp, #12
 8007e2c:	4604      	mov	r4, r0
 8007e2e:	461d      	mov	r5, r3
            : codal::Serial(tx, rx)
 8007e30:	230c      	movs	r3, #12
 8007e32:	9301      	str	r3, [sp, #4]
 8007e34:	2314      	movs	r3, #20
 8007e36:	9300      	str	r3, [sp, #0]
 8007e38:	f7ff fcc2 	bl	80077c0 <_ZN5codal6SerialC1ERNS_3PinES2_hht>
 8007e3c:	4b0d      	ldr	r3, [pc, #52]	; (8007e74 <_ZN5codal3_cm6SerialC1ERNS0_3PinES3_hh+0x4c>)
 8007e3e:	6023      	str	r3, [r4, #0]
        {
            // + 1 so there is a usable buffer size, of the size the user requested.
            this->rxBuffSize = rxBufferSize + 1;
 8007e40:	3501      	adds	r5, #1
 8007e42:	7725      	strb	r5, [r4, #28]
            this->txBuffSize = txBufferSize + 1;
 8007e44:	f89d 3018 	ldrb.w	r3, [sp, #24]
 8007e48:	3301      	adds	r3, #1
 8007e4a:	f884 3028 	strb.w	r3, [r4, #40]	; 0x28

            this->rxBuff = NULL;
 8007e4e:	2300      	movs	r3, #0
 8007e50:	61a3      	str	r3, [r4, #24]
            this->txBuff = NULL;
 8007e52:	6263      	str	r3, [r4, #36]	; 0x24

            this->rxBuffHead = 0;
 8007e54:	83e3      	strh	r3, [r4, #30]
            this->rxBuffTail = 0;
 8007e56:	8423      	strh	r3, [r4, #32]

            this->txBuffHead = 0;
 8007e58:	8563      	strh	r3, [r4, #42]	; 0x2a
            this->txBuffTail = 0;
 8007e5a:	85a3      	strh	r3, [r4, #44]	; 0x2c

            this->rxBuffHeadMatch = -1;
 8007e5c:	f04f 33ff 	mov.w	r3, #4294967295	; 0xffffffff
 8007e60:	6163      	str	r3, [r4, #20]

            this->baud(CODAL_SERIAL_DEFAULT_BAUD_RATE);
 8007e62:	f44f 31e1 	mov.w	r1, #115200	; 0x1c200
 8007e66:	4620      	mov	r0, r4
 8007e68:	f001 ff90 	bl	8009d8c <_ZN5codal3_cm6Serial4baudEi>
        }
 8007e6c:	4620      	mov	r0, r4
 8007e6e:	b003      	add	sp, #12
 8007e70:	bd30      	pop	{r4, r5, pc}
 8007e72:	bf00      	nop
 8007e74:	0800a394 	.word	0x0800a394

08007e78 <_ZN5codal3_cm13tick_callbackEv>:
                }
            }
#endif  //  TODO
        }

        void tick_callback() {
 8007e78:	b508      	push	{r3, lr}
            //  Will be called at every millisecond tick.  Needed to keep CODAL scheduler running.
            //  Warning: This is called from an Interrupt Service Routine.  Don't trigger any interrupts or call slow functions.
            if (!Timer::instance) { return; }  //  No timer to trigger, quit.
 8007e7a:	4b09      	ldr	r3, [pc, #36]	; (8007ea0 <_ZN5codal3_cm13tick_callbackEv+0x28>)
 8007e7c:	681b      	ldr	r3, [r3, #0]
 8007e7e:	b133      	cbz	r3, 8007e8e <_ZN5codal3_cm13tick_callbackEv+0x16>
            CODAL_TIMESTAMP now = millis();
 8007e80:	f7fa fea4 	bl	8002bcc <millis>
            //  If we have exceed the tick period (4 millisec)...
            if (last_trigger + (SCHEDULER_TICK_PERIOD_US / 1000) <= now) {
 8007e84:	4b07      	ldr	r3, [pc, #28]	; (8007ea4 <_ZN5codal3_cm13tick_callbackEv+0x2c>)
 8007e86:	681b      	ldr	r3, [r3, #0]
 8007e88:	3304      	adds	r3, #4
 8007e8a:	4283      	cmp	r3, r0
 8007e8c:	d900      	bls.n	8007e90 <_ZN5codal3_cm13tick_callbackEv+0x18>
                last_trigger = now;
                Timer::instance->trigger();  //  Trigger the CODAL Scheduler.
            }
        }
 8007e8e:	bd08      	pop	{r3, pc}
                last_trigger = now;
 8007e90:	4b04      	ldr	r3, [pc, #16]	; (8007ea4 <_ZN5codal3_cm13tick_callbackEv+0x2c>)
 8007e92:	6018      	str	r0, [r3, #0]
                Timer::instance->trigger();  //  Trigger the CODAL Scheduler.
 8007e94:	4b02      	ldr	r3, [pc, #8]	; (8007ea0 <_ZN5codal3_cm13tick_callbackEv+0x28>)
 8007e96:	6818      	ldr	r0, [r3, #0]
 8007e98:	f001 fba9 	bl	80095ee <_ZN5codal5Timer7triggerEv>
 8007e9c:	e7f7      	b.n	8007e8e <_ZN5codal3_cm13tick_callbackEv+0x16>
 8007e9e:	bf00      	nop
 8007ea0:	20002178 	.word	0x20002178
 8007ea4:	2000217c 	.word	0x2000217c

08007ea8 <_ZN5codal3_cm14alarm_callbackEv>:

        void alarm_callback() {
 8007ea8:	b508      	push	{r3, lr}
            //  Will be called when an alarm is triggered.  Needed to keep CODAL scheduler running, which sets alarms every few seconds.
            //  Warning: This is called from an Interrupt Service Routine.  Don't trigger any interrupts or call slow functions.
            if (!Timer::instance) { return; }  //  No timer to trigger, quit.
 8007eaa:	4b03      	ldr	r3, [pc, #12]	; (8007eb8 <_ZN5codal3_cm14alarm_callbackEv+0x10>)
 8007eac:	6818      	ldr	r0, [r3, #0]
 8007eae:	b108      	cbz	r0, 8007eb4 <_ZN5codal3_cm14alarm_callbackEv+0xc>
            Timer::instance->trigger();        //  Trigger the CODAL Scheduler.
 8007eb0:	f001 fb9d 	bl	80095ee <_ZN5codal5Timer7triggerEv>
        }
 8007eb4:	bd08      	pop	{r3, pc}
 8007eb6:	bf00      	nop
 8007eb8:	20002178 	.word	0x20002178

08007ebc <_ZN5codal3_cm5Timer9triggerInEm>:
            NVIC_EnableIRQ(TIM5_IRQn);
            HAL_TIM_OC_Start(&TimHandle, TIM_CHANNEL_1);
#endif  //  TODO
        }

        void Timer::triggerIn(CODAL_TIMESTAMP t) {
 8007ebc:	b508      	push	{r3, lr}
            //  Set alarm for millis() + t millisecs.
            if (!initialised) {
 8007ebe:	f890 3020 	ldrb.w	r3, [r0, #32]
 8007ec2:	b11b      	cbz	r3, 8007ecc <_ZN5codal3_cm5Timer9triggerInEm+0x10>
                trigger_period = t;
                debug_println("triggerIn b4 init!");
                return;
            }
            //  debug_print("triggerIn "); debug_println((size_t) t); debug_flush(); debug_printhex_unsigned(platform_get_alarm()); debug_print(" "); debug_flush(); ////
            platform_set_alarm(t);
 8007ec4:	4608      	mov	r0, r1
 8007ec6:	f7fa fe53 	bl	8002b70 <platform_set_alarm>
            __HAL_TIM_SET_COMPARE(&TimHandle, TIM_CHANNEL_1,
                                (uint32_t)(__HAL_TIM_GET_COUNTER(&TimHandle) + t));
            __HAL_TIM_ENABLE_IT(&TimHandle, TIM_IT_CC1);
            target_enable_irq();
#endif  //  TODO
        }
 8007eca:	bd08      	pop	{r3, pc}
                trigger_period = t;
 8007ecc:	4b02      	ldr	r3, [pc, #8]	; (8007ed8 <_ZN5codal3_cm5Timer9triggerInEm+0x1c>)
 8007ece:	6019      	str	r1, [r3, #0]
                debug_println("triggerIn b4 init!");
 8007ed0:	4802      	ldr	r0, [pc, #8]	; (8007edc <_ZN5codal3_cm5Timer9triggerInEm+0x20>)
 8007ed2:	f7fa fccd 	bl	8002870 <debug_println>
                return;
 8007ed6:	e7f8      	b.n	8007eca <_ZN5codal3_cm5Timer9triggerInEm+0xe>
 8007ed8:	20002180 	.word	0x20002180
 8007edc:	0800a3d8 	.word	0x0800a3d8

08007ee0 <_ZN5codal3_cm5Timer11syncRequestEv>:

        void Timer::syncRequest() {
 8007ee0:	b510      	push	{r4, lr}
 8007ee2:	b082      	sub	sp, #8
            if (!initialised) {
 8007ee4:	f890 3020 	ldrb.w	r3, [r0, #32]
 8007ee8:	b1bb      	cbz	r3, 8007f1a <_ZN5codal3_cm5Timer11syncRequestEv+0x3a>
 8007eea:	4604      	mov	r4, r0
                debug_print("sync! ");  //  Warning: syncRequest called before init
                return;
            }
            target_disable_irq();
 8007eec:	f7f8 fd62 	bl	80009b4 <target_disable_irq>
            volatile uint32_t curr = millis();
 8007ef0:	f7fa fe6c 	bl	8002bcc <millis>
 8007ef4:	9001      	str	r0, [sp, #4]
            volatile uint32_t delta = curr - this->prev;  //  In milliseconds.
 8007ef6:	9b01      	ldr	r3, [sp, #4]
 8007ef8:	69e2      	ldr	r2, [r4, #28]
 8007efa:	1a9b      	subs	r3, r3, r2
 8007efc:	9300      	str	r3, [sp, #0]

            // update the hal...
            // uwTick += delta;
            this->prev = curr;
 8007efe:	9b01      	ldr	r3, [sp, #4]
 8007f00:	61e3      	str	r3, [r4, #28]
            this->sync(delta * 1000);  //  Sync expects microseconds.
 8007f02:	9b00      	ldr	r3, [sp, #0]
 8007f04:	f44f 717a 	mov.w	r1, #1000	; 0x3e8
 8007f08:	fb01 f103 	mul.w	r1, r1, r3
 8007f0c:	4620      	mov	r0, r4
 8007f0e:	f001 fb5c 	bl	80095ca <_ZN5codal5Timer4syncEm>
            target_enable_irq();            
 8007f12:	f7f8 fd4d 	bl	80009b0 <target_enable_irq>
            //  debug_print("timer sync "); debug_println((size_t) delta * 1000);
        }
 8007f16:	b002      	add	sp, #8
 8007f18:	bd10      	pop	{r4, pc}
                debug_print("sync! ");  //  Warning: syncRequest called before init
 8007f1a:	4802      	ldr	r0, [pc, #8]	; (8007f24 <_ZN5codal3_cm5Timer11syncRequestEv+0x44>)
 8007f1c:	f7fa fcd4 	bl	80028c8 <debug_print>
                return;
 8007f20:	e7f9      	b.n	8007f16 <_ZN5codal3_cm5Timer11syncRequestEv+0x36>
 8007f22:	bf00      	nop
 8007f24:	0800a3c4 	.word	0x0800a3c4

08007f28 <_ZN5codal3_cm5TimerC1Ev>:
        Timer::Timer() : codal::Timer() {
 8007f28:	b510      	push	{r4, lr}
 8007f2a:	4604      	mov	r4, r0
 8007f2c:	f7ff fc8c 	bl	8007848 <_ZN5codal5TimerC1Ev>
 8007f30:	4b06      	ldr	r3, [pc, #24]	; (8007f4c <_ZN5codal3_cm5TimerC1Ev+0x24>)
 8007f32:	6023      	str	r3, [r4, #0]
            initialised = false;
 8007f34:	2300      	movs	r3, #0
 8007f36:	f884 3020 	strb.w	r3, [r4, #32]
            instance = this;
 8007f3a:	4a05      	ldr	r2, [pc, #20]	; (8007f50 <_ZN5codal3_cm5TimerC1Ev+0x28>)
 8007f3c:	6014      	str	r4, [r2, #0]
            prev = 0;
 8007f3e:	61e3      	str	r3, [r4, #28]
            trigger_period = 0;
 8007f40:	4a04      	ldr	r2, [pc, #16]	; (8007f54 <_ZN5codal3_cm5TimerC1Ev+0x2c>)
 8007f42:	6013      	str	r3, [r2, #0]
            last_trigger = 0;
 8007f44:	4a04      	ldr	r2, [pc, #16]	; (8007f58 <_ZN5codal3_cm5TimerC1Ev+0x30>)
 8007f46:	6013      	str	r3, [r2, #0]
        }
 8007f48:	4620      	mov	r0, r4
 8007f4a:	bd10      	pop	{r4, pc}
 8007f4c:	0800a3f4 	.word	0x0800a3f4
 8007f50:	20002178 	.word	0x20002178
 8007f54:	20002180 	.word	0x20002180
 8007f58:	2000217c 	.word	0x2000217c

08007f5c <_ZN5codal3_cm5Timer4initEv>:
            if (initialised) { return; }  //  If already initialised, quit.
 8007f5c:	f890 3020 	ldrb.w	r3, [r0, #32]
 8007f60:	b103      	cbz	r3, 8007f64 <_ZN5codal3_cm5Timer4initEv+0x8>
 8007f62:	4770      	bx	lr
        void Timer::init() {
 8007f64:	b510      	push	{r4, lr}
 8007f66:	4604      	mov	r4, r0
            debug_println("timer init"); ////
 8007f68:	480f      	ldr	r0, [pc, #60]	; (8007fa8 <_ZN5codal3_cm5Timer4initEv+0x4c>)
 8007f6a:	f7fa fc81 	bl	8002870 <debug_println>
            initialised = true;
 8007f6e:	2301      	movs	r3, #1
 8007f70:	f884 3020 	strb.w	r3, [r4, #32]
            prev = millis();
 8007f74:	f7fa fe2a 	bl	8002bcc <millis>
 8007f78:	61e0      	str	r0, [r4, #28]
            target_set_tick_callback(tick_callback);
 8007f7a:	480c      	ldr	r0, [pc, #48]	; (8007fac <_ZN5codal3_cm5Timer4initEv+0x50>)
 8007f7c:	f7f8 fd06 	bl	800098c <target_set_tick_callback>
            target_set_alarm_callback(alarm_callback);
 8007f80:	480b      	ldr	r0, [pc, #44]	; (8007fb0 <_ZN5codal3_cm5Timer4initEv+0x54>)
 8007f82:	f7f8 fd09 	bl	8000998 <target_set_alarm_callback>
            if (trigger_period > 0) {
 8007f86:	4b0b      	ldr	r3, [pc, #44]	; (8007fb4 <_ZN5codal3_cm5Timer4initEv+0x58>)
 8007f88:	6819      	ldr	r1, [r3, #0]
 8007f8a:	b929      	cbnz	r1, 8007f98 <_ZN5codal3_cm5Timer4initEv+0x3c>
            start_background_tasks();
 8007f8c:	f000 f8b0 	bl	80080f0 <start_background_tasks>
            bootloader_set_restart_callback(restart_callback);
 8007f90:	4809      	ldr	r0, [pc, #36]	; (8007fb8 <_ZN5codal3_cm5Timer4initEv+0x5c>)
 8007f92:	f7fc fa91 	bl	80044b8 <bootloader_set_restart_callback>
        }
 8007f96:	bd10      	pop	{r4, pc}
                triggerIn(trigger_period);
 8007f98:	6823      	ldr	r3, [r4, #0]
 8007f9a:	681b      	ldr	r3, [r3, #0]
 8007f9c:	4620      	mov	r0, r4
 8007f9e:	4798      	blx	r3
                trigger_period = 0;
 8007fa0:	4b04      	ldr	r3, [pc, #16]	; (8007fb4 <_ZN5codal3_cm5Timer4initEv+0x58>)
 8007fa2:	2200      	movs	r2, #0
 8007fa4:	601a      	str	r2, [r3, #0]
 8007fa6:	e7f1      	b.n	8007f8c <_ZN5codal3_cm5Timer4initEv+0x30>
 8007fa8:	0800a3cc 	.word	0x0800a3cc
 8007fac:	08007e79 	.word	0x08007e79
 8007fb0:	08007ea9 	.word	0x08007ea9
 8007fb4:	20002180 	.word	0x20002180
 8007fb8:	08008095 	.word	0x08008095

08007fbc <_ZL8pre_mainv>:
static void pre_main() {
 8007fbc:	b508      	push	{r3, lr}
    if (app_bss_test != 0x0 || app_data_test != 0x12345678) {
 8007fbe:	4b0c      	ldr	r3, [pc, #48]	; (8007ff0 <_ZL8pre_mainv+0x34>)
 8007fc0:	681b      	ldr	r3, [r3, #0]
 8007fc2:	b923      	cbnz	r3, 8007fce <_ZL8pre_mainv+0x12>
 8007fc4:	4b0b      	ldr	r3, [pc, #44]	; (8007ff4 <_ZL8pre_mainv+0x38>)
 8007fc6:	681a      	ldr	r2, [r3, #0]
 8007fc8:	4b0b      	ldr	r3, [pc, #44]	; (8007ff8 <_ZL8pre_mainv+0x3c>)
 8007fca:	429a      	cmp	r2, r3
 8007fcc:	d00e      	beq.n	8007fec <_ZL8pre_mainv+0x30>
        debug_print("*** app bss/data failed, bss_test = "); debug_printhex_unsigned(app_bss_test);
 8007fce:	480b      	ldr	r0, [pc, #44]	; (8007ffc <_ZL8pre_mainv+0x40>)
 8007fd0:	f7fa fc7a 	bl	80028c8 <debug_print>
 8007fd4:	4b06      	ldr	r3, [pc, #24]	; (8007ff0 <_ZL8pre_mainv+0x34>)
 8007fd6:	6818      	ldr	r0, [r3, #0]
 8007fd8:	f7fa fcc2 	bl	8002960 <debug_printhex_unsigned>
        debug_print(", data_test = "); debug_printhex_unsigned(app_data_test);
 8007fdc:	4808      	ldr	r0, [pc, #32]	; (8008000 <_ZL8pre_mainv+0x44>)
 8007fde:	f7fa fc73 	bl	80028c8 <debug_print>
 8007fe2:	4b04      	ldr	r3, [pc, #16]	; (8007ff4 <_ZL8pre_mainv+0x38>)
 8007fe4:	6818      	ldr	r0, [r3, #0]
 8007fe6:	f7fa fcbb 	bl	8002960 <debug_printhex_unsigned>
 8007fea:	e7fe      	b.n	8007fea <_ZL8pre_mainv+0x2e>
}
 8007fec:	bd08      	pop	{r3, pc}
 8007fee:	bf00      	nop
 8007ff0:	20002184 	.word	0x20002184
 8007ff4:	20001000 	.word	0x20001000
 8007ff8:	12345678 	.word	0x12345678
 8007ffc:	0800a404 	.word	0x0800a404
 8008000:	0800a42c 	.word	0x0800a42c

08008004 <_ZL15restart_handlerN5codal5EventE>:
static codal::Event restart_event(  //  This event will be triggered for a restart request.
    CM_SOURCE_BOOTLOADER, CM_EVT_RESTART, codal::CREATE_ONLY);
static bool restart_listener_started = false;
static bool restart_requested = false;

static void restart_handler(codal::Event evt) {
 8008004:	b500      	push	{lr}
 8008006:	b083      	sub	sp, #12
 8008008:	ab02      	add	r3, sp, #8
 800800a:	e903 0003 	stmdb	r3, {r0, r1}
    //  Handle a restart request.  Flush the log then restart.
    debug_println("restart handler");
 800800e:	480e      	ldr	r0, [pc, #56]	; (8008048 <_ZL15restart_handlerN5codal5EventE+0x44>)
 8008010:	f7fa fc2e 	bl	8002870 <debug_println>
    if (evt.value != CM_EVT_RESTART) { return; }
 8008014:	f8bd 2002 	ldrh.w	r2, [sp, #2]
 8008018:	f640 039d 	movw	r3, #2205	; 0x89d
 800801c:	429a      	cmp	r2, r3
 800801e:	d002      	beq.n	8008026 <_ZL15restart_handlerN5codal5EventE+0x22>
    codal::fiber_sleep(5000);

    debug_println("done");
    debug_force_flush();
    scb_reset_system();
}
 8008020:	b003      	add	sp, #12
 8008022:	f85d fb04 	ldr.w	pc, [sp], #4
    debug_println("restarting...");
 8008026:	4809      	ldr	r0, [pc, #36]	; (800804c <_ZL15restart_handlerN5codal5EventE+0x48>)
 8008028:	f7fa fc22 	bl	8002870 <debug_println>
    debug_force_flush();
 800802c:	f7fa fbb2 	bl	8002794 <debug_force_flush>
    codal::fiber_sleep(5000);
 8008030:	f241 3088 	movw	r0, #5000	; 0x1388
 8008034:	f7ff fabe 	bl	80075b4 <_ZN5codal11fiber_sleepEm>
    debug_println("done");
 8008038:	4805      	ldr	r0, [pc, #20]	; (8008050 <_ZL15restart_handlerN5codal5EventE+0x4c>)
 800803a:	f7fa fc19 	bl	8002870 <debug_println>
    debug_force_flush();
 800803e:	f7fa fba9 	bl	8002794 <debug_force_flush>
    scb_reset_system();
 8008042:	f7f9 f8c7 	bl	80011d4 <scb_reset_system>
 8008046:	bf00      	nop
 8008048:	0800a448 	.word	0x0800a448
 800804c:	0800a458 	.word	0x0800a458
 8008050:	0800a468 	.word	0x0800a468

08008054 <_ZL10flush_taskv>:
        return status;
    }
    return 0;
}

static void flush_task(void) {
 8008054:	b508      	push	{r3, lr}
    //  Flush the log periodically.
    debug_println("flush task");
 8008056:	4804      	ldr	r0, [pc, #16]	; (8008068 <_ZL10flush_taskv+0x14>)
 8008058:	f7fa fc0a 	bl	8002870 <debug_println>
    while (true) {
        debug_flush();
 800805c:	f7fa fc2f 	bl	80028be <debug_flush>
        codal::fiber_sleep(200);
 8008060:	20c8      	movs	r0, #200	; 0xc8
 8008062:	f7ff faa7 	bl	80075b4 <_ZN5codal11fiber_sleepEm>
 8008066:	e7f9      	b.n	800805c <_ZL10flush_taskv+0x8>
 8008068:	0800a43c 	.word	0x0800a43c

0800806c <_Z41__static_initialization_and_destruction_0ii>:
                restart_listener_started = true;
            }
        }
    }
    return 0;
}
 800806c:	2801      	cmp	r0, #1
 800806e:	d000      	beq.n	8008072 <_Z41__static_initialization_and_destruction_0ii+0x6>
 8008070:	4770      	bx	lr
 8008072:	b508      	push	{r3, lr}
 8008074:	f64f 73ff 	movw	r3, #65535	; 0xffff
 8008078:	4299      	cmp	r1, r3
 800807a:	d000      	beq.n	800807e <_Z41__static_initialization_and_destruction_0ii+0x12>
 800807c:	bd08      	pop	{r3, pc}
    CM_SOURCE_BOOTLOADER, CM_EVT_RESTART, codal::CREATE_ONLY);
 800807e:	2300      	movs	r3, #0
 8008080:	f640 029d 	movw	r2, #2205	; 0x89d
 8008084:	f645 0134 	movw	r1, #22580	; 0x5834
 8008088:	4801      	ldr	r0, [pc, #4]	; (8008090 <_Z41__static_initialization_and_destruction_0ii+0x24>)
 800808a:	f001 fc9a 	bl	80099c2 <_ZN5codal5EventC1EttNS_15EventLaunchModeE>
}
 800808e:	e7f5      	b.n	800807c <_Z41__static_initialization_and_destruction_0ii+0x10>
 8008090:	20002188 	.word	0x20002188

08008094 <restart_callback>:
int restart_callback(void) {
 8008094:	b510      	push	{r4, lr}
    debug_println("restart callback");
 8008096:	4810      	ldr	r0, [pc, #64]	; (80080d8 <restart_callback+0x44>)
 8008098:	f7fa fbea 	bl	8002870 <debug_println>
    if (!codal::EventModel::defaultEventBus) {
 800809c:	4b0f      	ldr	r3, [pc, #60]	; (80080dc <restart_callback+0x48>)
 800809e:	6818      	ldr	r0, [r3, #0]
 80080a0:	b148      	cbz	r0, 80080b6 <restart_callback+0x22>
    int status = codal::EventModel::defaultEventBus->send(restart_event);
 80080a2:	4b0f      	ldr	r3, [pc, #60]	; (80080e0 <restart_callback+0x4c>)
 80080a4:	6802      	ldr	r2, [r0, #0]
 80080a6:	6814      	ldr	r4, [r2, #0]
 80080a8:	e893 0006 	ldmia.w	r3, {r1, r2}
 80080ac:	47a0      	blx	r4
    if (status) {
 80080ae:	4604      	mov	r4, r0
 80080b0:	b938      	cbnz	r0, 80080c2 <restart_callback+0x2e>
}
 80080b2:	4620      	mov	r0, r4
 80080b4:	bd10      	pop	{r4, pc}
        debug_println("*** ERROR: missing event bus");
 80080b6:	480b      	ldr	r0, [pc, #44]	; (80080e4 <restart_callback+0x50>)
 80080b8:	f7fa fbda 	bl	8002870 <debug_println>
        return -1;
 80080bc:	f04f 34ff 	mov.w	r4, #4294967295	; 0xffffffff
 80080c0:	e7f7      	b.n	80080b2 <restart_callback+0x1e>
        debug_print("*** ERROR: unable to send restart event ");
 80080c2:	4809      	ldr	r0, [pc, #36]	; (80080e8 <restart_callback+0x54>)
 80080c4:	f7fa fc00 	bl	80028c8 <debug_print>
        debug_print_unsigned(status); debug_println("");
 80080c8:	4620      	mov	r0, r4
 80080ca:	f7fa fc0d 	bl	80028e8 <debug_print_unsigned>
 80080ce:	4807      	ldr	r0, [pc, #28]	; (80080ec <restart_callback+0x58>)
 80080d0:	f7fa fbce 	bl	8002870 <debug_println>
        return status;
 80080d4:	e7ed      	b.n	80080b2 <restart_callback+0x1e>
 80080d6:	bf00      	nop
 80080d8:	0800a470 	.word	0x0800a470
 80080dc:	20002170 	.word	0x20002170
 80080e0:	20002188 	.word	0x20002188
 80080e4:	0800a484 	.word	0x0800a484
 80080e8:	0800a4a4 	.word	0x0800a4a4
 80080ec:	0800a428 	.word	0x0800a428

080080f0 <start_background_tasks>:
int start_background_tasks(void) {
 80080f0:	b530      	push	{r4, r5, lr}
 80080f2:	b083      	sub	sp, #12
    if (!flush_task_fibre) {
 80080f4:	4b29      	ldr	r3, [pc, #164]	; (800819c <start_background_tasks+0xac>)
 80080f6:	681b      	ldr	r3, [r3, #0]
 80080f8:	b34b      	cbz	r3, 800814e <start_background_tasks+0x5e>
    if (!restart_listener_started) {
 80080fa:	4b29      	ldr	r3, [pc, #164]	; (80081a0 <start_background_tasks+0xb0>)
 80080fc:	781b      	ldrb	r3, [r3, #0]
 80080fe:	bb1b      	cbnz	r3, 8008148 <start_background_tasks+0x58>
        if (!codal::EventModel::defaultEventBus) {
 8008100:	4b28      	ldr	r3, [pc, #160]	; (80081a4 <start_background_tasks+0xb4>)
 8008102:	681c      	ldr	r4, [r3, #0]
 8008104:	2c00      	cmp	r4, #0
 8008106:	d038      	beq.n	800817a <start_background_tasks+0x8a>
            Listener *newListener = new Listener(id, value, handler, flags);
 8008108:	2020      	movs	r0, #32
 800810a:	f7fa fd57 	bl	8002bbc <_Znwj>
 800810e:	4605      	mov	r5, r0
 8008110:	2310      	movs	r3, #16
 8008112:	9300      	str	r3, [sp, #0]
 8008114:	4b24      	ldr	r3, [pc, #144]	; (80081a8 <start_background_tasks+0xb8>)
 8008116:	f640 029d 	movw	r2, #2205	; 0x89d
 800811a:	f645 0134 	movw	r1, #22580	; 0x5834
 800811e:	f001 f84e 	bl	80091be <_ZN5codal8ListenerC1EttPFvNS_5EventEEt>
            if(add(newListener) == DEVICE_OK)
 8008122:	6823      	ldr	r3, [r4, #0]
 8008124:	685b      	ldr	r3, [r3, #4]
 8008126:	4629      	mov	r1, r5
 8008128:	4620      	mov	r0, r4
 800812a:	4798      	blx	r3
 800812c:	4604      	mov	r4, r0
 800812e:	b138      	cbz	r0, 8008140 <start_background_tasks+0x50>
            delete newListener;
 8008130:	b33d      	cbz	r5, 8008182 <start_background_tasks+0x92>
 8008132:	4628      	mov	r0, r5
 8008134:	f001 f857 	bl	80091e6 <_ZN5codal8ListenerD1Ev>
 8008138:	4628      	mov	r0, r5
 800813a:	f7fa fd43 	bl	8002bc4 <_ZdlPv>
            return DEVICE_NOT_SUPPORTED;
 800813e:	4c1b      	ldr	r4, [pc, #108]	; (80081ac <start_background_tasks+0xbc>)
            if (status) {
 8008140:	bb0c      	cbnz	r4, 8008186 <start_background_tasks+0x96>
                restart_listener_started = true;
 8008142:	4b17      	ldr	r3, [pc, #92]	; (80081a0 <start_background_tasks+0xb0>)
 8008144:	2201      	movs	r2, #1
 8008146:	701a      	strb	r2, [r3, #0]
}
 8008148:	2000      	movs	r0, #0
 800814a:	b003      	add	sp, #12
 800814c:	bd30      	pop	{r4, r5, pc}
        if (!codal::fiber_scheduler_running()) {
 800814e:	f7ff f815 	bl	800717c <_ZN5codal23fiber_scheduler_runningEv>
 8008152:	b918      	cbnz	r0, 800815c <start_background_tasks+0x6c>
            debug_println("no scheduler, start bg tasks later");
 8008154:	4816      	ldr	r0, [pc, #88]	; (80081b0 <start_background_tasks+0xc0>)
 8008156:	f7fa fb8b 	bl	8002870 <debug_println>
 800815a:	e7ce      	b.n	80080fa <start_background_tasks+0xa>
            debug_println("start bg tasks");
 800815c:	4815      	ldr	r0, [pc, #84]	; (80081b4 <start_background_tasks+0xc4>)
 800815e:	f7fa fb87 	bl	8002870 <debug_println>
            flush_task_fibre = codal::create_fiber(flush_task);
 8008162:	4915      	ldr	r1, [pc, #84]	; (80081b8 <start_background_tasks+0xc8>)
 8008164:	4815      	ldr	r0, [pc, #84]	; (80081bc <start_background_tasks+0xcc>)
 8008166:	f000 ff90 	bl	800908a <_ZN5codal12create_fiberEPFvvES1_>
 800816a:	4b0c      	ldr	r3, [pc, #48]	; (800819c <start_background_tasks+0xac>)
 800816c:	6018      	str	r0, [r3, #0]
            if (!flush_task_fibre) {
 800816e:	2800      	cmp	r0, #0
 8008170:	d1c3      	bne.n	80080fa <start_background_tasks+0xa>
                debug_println("*** ERROR: create fibre failed");
 8008172:	4813      	ldr	r0, [pc, #76]	; (80081c0 <start_background_tasks+0xd0>)
 8008174:	f7fa fb7c 	bl	8002870 <debug_println>
 8008178:	e7bf      	b.n	80080fa <start_background_tasks+0xa>
            debug_println("*** ERROR: missing event bus");
 800817a:	4812      	ldr	r0, [pc, #72]	; (80081c4 <start_background_tasks+0xd4>)
 800817c:	f7fa fb78 	bl	8002870 <debug_println>
 8008180:	e7e2      	b.n	8008148 <start_background_tasks+0x58>
 8008182:	4c0a      	ldr	r4, [pc, #40]	; (80081ac <start_background_tasks+0xbc>)
 8008184:	e7dc      	b.n	8008140 <start_background_tasks+0x50>
                debug_print("*** ERROR: unable to listen for restart event ");
 8008186:	4810      	ldr	r0, [pc, #64]	; (80081c8 <start_background_tasks+0xd8>)
 8008188:	f7fa fb9e 	bl	80028c8 <debug_print>
                debug_printhex_unsigned(status); debug_println("");
 800818c:	4620      	mov	r0, r4
 800818e:	f7fa fbe7 	bl	8002960 <debug_printhex_unsigned>
 8008192:	480e      	ldr	r0, [pc, #56]	; (80081cc <start_background_tasks+0xdc>)
 8008194:	f7fa fb6c 	bl	8002870 <debug_println>
 8008198:	e7d6      	b.n	8008148 <start_background_tasks+0x58>
 800819a:	bf00      	nop
 800819c:	20002190 	.word	0x20002190
 80081a0:	20002214 	.word	0x20002214
 80081a4:	20002170 	.word	0x20002170
 80081a8:	08008005 	.word	0x08008005
 80081ac:	fffffc16 	.word	0xfffffc16
 80081b0:	0800a4d0 	.word	0x0800a4d0
 80081b4:	0800a4f4 	.word	0x0800a4f4
 80081b8:	080075ed 	.word	0x080075ed
 80081bc:	08008055 	.word	0x08008055
 80081c0:	0800a504 	.word	0x0800a504
 80081c4:	0800a484 	.word	0x0800a484
 80081c8:	0800a524 	.word	0x0800a524
 80081cc:	0800a428 	.word	0x0800a428

080081d0 <_ZN5codal13STM32BluePill4initEv>:
  *
  * @note This method must be called before user code utilises any functionality
  *       contained within the GenuinoZero class.
  */
int STM32BluePill::init()
{
 80081d0:	b538      	push	{r3, r4, r5, lr}
    if (status & DEVICE_INITIALIZED)
 80081d2:	88c3      	ldrh	r3, [r0, #6]
 80081d4:	f013 0f01 	tst.w	r3, #1
 80081d8:	d12e      	bne.n	8008238 <_ZN5codal13STM32BluePill4initEv+0x68>
 80081da:	4605      	mov	r5, r0
        return DEVICE_NOT_SUPPORTED;
    status |= DEVICE_INITIALIZED;
 80081dc:	f043 0301 	orr.w	r3, r3, #1
 80081e0:	80c3      	strh	r3, [r0, #6]

    debug_println("bluepill init scheduler"); debug_flush(); ////
 80081e2:	4816      	ldr	r0, [pc, #88]	; (800823c <_ZN5codal13STM32BluePill4initEv+0x6c>)
 80081e4:	f7fa fb44 	bl	8002870 <debug_println>
 80081e8:	f7fa fb69 	bl	80028be <debug_flush>

    //  Codal initialisation... Bring up fiber scheduler.
    scheduler_init(messageBus);
 80081ec:	f105 002c 	add.w	r0, r5, #44	; 0x2c
 80081f0:	f7fe ffd0 	bl	8007194 <_ZN5codal14scheduler_initERNS_10EventModelE>
    debug_println("bluepill init components"); debug_flush(); ////
 80081f4:	4812      	ldr	r0, [pc, #72]	; (8008240 <_ZN5codal13STM32BluePill4initEv+0x70>)
 80081f6:	f7fa fb3b 	bl	8002870 <debug_println>
 80081fa:	f7fa fb60 	bl	80028be <debug_flush>

    //  Init the timer first, all other components depend on the timer.
    timer.init();
 80081fe:	f105 0008 	add.w	r0, r5, #8
 8008202:	f7ff feab 	bl	8007f5c <_ZN5codal3_cm5Timer4initEv>

    //  Initialise all the Codal components.
    for(int i = 0; i < DEVICE_COMPONENT_COUNT; i++)
 8008206:	2400      	movs	r4, #0
 8008208:	e000      	b.n	800820c <_ZN5codal13STM32BluePill4initEv+0x3c>
 800820a:	3401      	adds	r4, #1
 800820c:	2c3b      	cmp	r4, #59	; 0x3b
 800820e:	dc08      	bgt.n	8008222 <_ZN5codal13STM32BluePill4initEv+0x52>
    {
        if(CodalComponent::components[i])
 8008210:	4b0c      	ldr	r3, [pc, #48]	; (8008244 <_ZN5codal13STM32BluePill4initEv+0x74>)
 8008212:	f853 0024 	ldr.w	r0, [r3, r4, lsl #2]
 8008216:	2800      	cmp	r0, #0
 8008218:	d0f7      	beq.n	800820a <_ZN5codal13STM32BluePill4initEv+0x3a>
            CodalComponent::components[i]->init();
 800821a:	6803      	ldr	r3, [r0, #0]
 800821c:	681b      	ldr	r3, [r3, #0]
 800821e:	4798      	blx	r3
 8008220:	e7f3      	b.n	800820a <_ZN5codal13STM32BluePill4initEv+0x3a>
    }
    status |= DEVICE_COMPONENT_STATUS_IDLE_TICK;
 8008222:	88eb      	ldrh	r3, [r5, #6]
 8008224:	f443 4380 	orr.w	r3, r3, #16384	; 0x4000
 8008228:	80eb      	strh	r3, [r5, #6]
    debug_println("bluepill init ok"); debug_flush(); ////
 800822a:	4807      	ldr	r0, [pc, #28]	; (8008248 <_ZN5codal13STM32BluePill4initEv+0x78>)
 800822c:	f7fa fb20 	bl	8002870 <debug_println>
 8008230:	f7fa fb45 	bl	80028be <debug_flush>
    return DEVICE_OK;
 8008234:	2000      	movs	r0, #0
}
 8008236:	bd38      	pop	{r3, r4, r5, pc}
        return DEVICE_NOT_SUPPORTED;
 8008238:	4804      	ldr	r0, [pc, #16]	; (800824c <_ZN5codal13STM32BluePill4initEv+0x7c>)
 800823a:	e7fc      	b.n	8008236 <_ZN5codal13STM32BluePill4initEv+0x66>
 800823c:	0800a554 	.word	0x0800a554
 8008240:	0800a56c 	.word	0x0800a56c
 8008244:	20002050 	.word	0x20002050
 8008248:	0800a588 	.word	0x0800a588
 800824c:	fffffc16 	.word	0xfffffc16

08008250 <_ZN5codal13STM32BluePillC1Ev>:
STM32BluePill::STM32BluePill() :
 8008250:	b530      	push	{r4, r5, lr}
 8008252:	b083      	sub	sp, #12
 8008254:	4604      	mov	r4, r0
        {
 8008256:	4b25      	ldr	r3, [pc, #148]	; (80082ec <_ZN5codal13STM32BluePillC1Ev+0x9c>)
 8008258:	6003      	str	r3, [r0, #0]
            this->id = 0;
 800825a:	2500      	movs	r5, #0
 800825c:	8085      	strh	r5, [r0, #4]
            this->status = 0;
 800825e:	80c5      	strh	r5, [r0, #6]
            addComponent();
 8008260:	f7fe fe46 	bl	8006ef0 <_ZN5codal14CodalComponent12addComponentEv>
    usart2(io.tx2, io.rx2) {  //  Port USART2 (USART1, USART3 not supported yet)
 8008264:	4620      	mov	r0, r4
 8008266:	4b22      	ldr	r3, [pc, #136]	; (80082f0 <_ZN5codal13STM32BluePillC1Ev+0xa0>)
 8008268:	f840 3b08 	str.w	r3, [r0], #8
 800826c:	f7ff fe5c 	bl	8007f28 <_ZN5codal3_cm5TimerC1Ev>
 8008270:	f104 002c 	add.w	r0, r4, #44	; 0x2c
 8008274:	f7ff fc50 	bl	8007b18 <_ZN5codal10MessageBusC1Ev>
 8008278:	f104 0050 	add.w	r0, r4, #80	; 0x50
 800827c:	f000 f83c 	bl	80082f8 <_ZN5codal15STM32BluePillIOC1Ev>
 8008280:	f504 6241 	add.w	r2, r4, #3088	; 0xc10
 8008284:	f504 6143 	add.w	r1, r4, #3120	; 0xc30
 8008288:	f504 607b 	add.w	r0, r4, #4016	; 0xfb0
 800828c:	f000 fdee 	bl	8008e6c <_ZN5codal3_cm3I2CC1ERNS_3PinES3_>
 8008290:	f504 6351 	add.w	r3, r4, #3344	; 0xd10
 8008294:	9300      	str	r3, [sp, #0]
 8008296:	f504 6353 	add.w	r3, r4, #3376	; 0xd30
 800829a:	f504 6255 	add.w	r2, r4, #3408	; 0xd50
 800829e:	f504 6157 	add.w	r1, r4, #3440	; 0xd70
 80082a2:	f504 607c 	add.w	r0, r4, #4032	; 0xfc0
 80082a6:	f000 fe1d 	bl	8008ee4 <_ZN5codal3_cm3SPIC1ERNS0_3PinES3_S3_S3_>
 80082aa:	f504 6361 	add.w	r3, r4, #3600	; 0xe10
 80082ae:	9300      	str	r3, [sp, #0]
 80082b0:	f504 6363 	add.w	r3, r4, #3632	; 0xe30
 80082b4:	f504 6265 	add.w	r2, r4, #3664	; 0xe50
 80082b8:	f504 6167 	add.w	r1, r4, #3696	; 0xe70
 80082bc:	f604 70e8 	addw	r0, r4, #4072	; 0xfe8
 80082c0:	f000 fe10 	bl	8008ee4 <_ZN5codal3_cm3SPIC1ERNS0_3PinES3_S3_S3_>
 80082c4:	2314      	movs	r3, #20
 80082c6:	9300      	str	r3, [sp, #0]
 80082c8:	f504 6229 	add.w	r2, r4, #2704	; 0xa90
 80082cc:	f504 6127 	add.w	r1, r4, #2672	; 0xa70
 80082d0:	f504 5080 	add.w	r0, r4, #4096	; 0x1000
 80082d4:	3010      	adds	r0, #16
 80082d6:	f7ff fda7 	bl	8007e28 <_ZN5codal3_cm6SerialC1ERNS0_3PinES3_hh>
    status = 0;
 80082da:	80e5      	strh	r5, [r4, #6]
    debug_println("bluepill construct"); debug_flush(); ////
 80082dc:	4805      	ldr	r0, [pc, #20]	; (80082f4 <_ZN5codal13STM32BluePillC1Ev+0xa4>)
 80082de:	f7fa fac7 	bl	8002870 <debug_println>
 80082e2:	f7fa faec 	bl	80028be <debug_flush>
}
 80082e6:	4620      	mov	r0, r4
 80082e8:	b003      	add	sp, #12
 80082ea:	bd30      	pop	{r4, r5, pc}
 80082ec:	0800a244 	.word	0x0800a244
 80082f0:	0800a5b8 	.word	0x0800a5b8
 80082f4:	0800a59c 	.word	0x0800a59c

080082f8 <_ZN5codal15STM32BluePillIOC1Ev>:
  * Create a representation of all given I/O pins on the edge connector
  *
  * Accepts a sequence of unique ID's used to distinguish events raised
  * by MicroBitPin instances on the default EventModel.
  */
STM32BluePillIO::STM32BluePillIO() :
 80082f8:	e92d 4ff0 	stmdb	sp!, {r4, r5, r6, r7, r8, r9, sl, fp, lr}
 80082fc:	b083      	sub	sp, #12
 80082fe:	4604      	mov	r4, r0
mosi3        (CM_PIN_SPI_MOSI3       , RCC_GPIOB, GPIOB, GPIO5, PIN_CAPABILITY_DIGITAL),
nss3_remap   (CM_PIN_SPI_NSS3_REMAP  , RCC_GPIOA, GPIOA, GPIO4, PIN_CAPABILITY_DIGITAL),
sck3_remap   (CM_PIN_SPI_SCK3_REMAP  , RCC_GPIOC, GPIOC, GPIO10, PIN_CAPABILITY_DIGITAL),
miso3_remap  (CM_PIN_SPI_MISO3_REMAP , RCC_GPIOC, GPIOC, GPIO11, PIN_CAPABILITY_DIGITAL),
mosi3_remap  (CM_PIN_SPI_MOSI3_REMAP , RCC_GPIOC, GPIOC, GPIO12, PIN_CAPABILITY_DIGITAL),
led         (CM_PIN_LED        , RCC_GPIOC, GPIOC, GPIO13, PIN_CAPABILITY_DIGITAL)
 8008300:	2501      	movs	r5, #1
 8008302:	9501      	str	r5, [sp, #4]
 8008304:	9500      	str	r5, [sp, #0]
 8008306:	4bd1      	ldr	r3, [pc, #836]	; (800864c <_ZN5codal15STM32BluePillIOC1Ev+0x354>)
 8008308:	f240 3202 	movw	r2, #770	; 0x302
 800830c:	2100      	movs	r1, #0
 800830e:	f7ff fd21 	bl	8007d54 <_ZN5codal3_cm3PinC1EhmmtNS_13PinCapabilityE>
 8008312:	9501      	str	r5, [sp, #4]
 8008314:	2702      	movs	r7, #2
 8008316:	9700      	str	r7, [sp, #0]
 8008318:	4bcc      	ldr	r3, [pc, #816]	; (800864c <_ZN5codal15STM32BluePillIOC1Ev+0x354>)
 800831a:	f240 3202 	movw	r2, #770	; 0x302
 800831e:	4629      	mov	r1, r5
 8008320:	f104 0020 	add.w	r0, r4, #32
 8008324:	f7ff fd16 	bl	8007d54 <_ZN5codal3_cm3PinC1EhmmtNS_13PinCapabilityE>
 8008328:	9501      	str	r5, [sp, #4]
 800832a:	f04f 0804 	mov.w	r8, #4
 800832e:	f8cd 8000 	str.w	r8, [sp]
 8008332:	4bc6      	ldr	r3, [pc, #792]	; (800864c <_ZN5codal15STM32BluePillIOC1Ev+0x354>)
 8008334:	f240 3202 	movw	r2, #770	; 0x302
 8008338:	4639      	mov	r1, r7
 800833a:	f104 0040 	add.w	r0, r4, #64	; 0x40
 800833e:	f7ff fd09 	bl	8007d54 <_ZN5codal3_cm3PinC1EhmmtNS_13PinCapabilityE>
 8008342:	9501      	str	r5, [sp, #4]
 8008344:	f04f 0a08 	mov.w	sl, #8
 8008348:	f8cd a000 	str.w	sl, [sp]
 800834c:	4bbf      	ldr	r3, [pc, #764]	; (800864c <_ZN5codal15STM32BluePillIOC1Ev+0x354>)
 800834e:	f240 3202 	movw	r2, #770	; 0x302
 8008352:	2103      	movs	r1, #3
 8008354:	f104 0060 	add.w	r0, r4, #96	; 0x60
 8008358:	f7ff fcfc 	bl	8007d54 <_ZN5codal3_cm3PinC1EhmmtNS_13PinCapabilityE>
 800835c:	9501      	str	r5, [sp, #4]
 800835e:	2310      	movs	r3, #16
 8008360:	9300      	str	r3, [sp, #0]
 8008362:	4bba      	ldr	r3, [pc, #744]	; (800864c <_ZN5codal15STM32BluePillIOC1Ev+0x354>)
 8008364:	f240 3202 	movw	r2, #770	; 0x302
 8008368:	4641      	mov	r1, r8
 800836a:	f104 0080 	add.w	r0, r4, #128	; 0x80
 800836e:	f7ff fcf1 	bl	8007d54 <_ZN5codal3_cm3PinC1EhmmtNS_13PinCapabilityE>
 8008372:	9501      	str	r5, [sp, #4]
 8008374:	2320      	movs	r3, #32
 8008376:	9300      	str	r3, [sp, #0]
 8008378:	4bb4      	ldr	r3, [pc, #720]	; (800864c <_ZN5codal15STM32BluePillIOC1Ev+0x354>)
 800837a:	f240 3202 	movw	r2, #770	; 0x302
 800837e:	2105      	movs	r1, #5
 8008380:	f104 00a0 	add.w	r0, r4, #160	; 0xa0
 8008384:	f7ff fce6 	bl	8007d54 <_ZN5codal3_cm3PinC1EhmmtNS_13PinCapabilityE>
 8008388:	9501      	str	r5, [sp, #4]
 800838a:	2640      	movs	r6, #64	; 0x40
 800838c:	9600      	str	r6, [sp, #0]
 800838e:	4baf      	ldr	r3, [pc, #700]	; (800864c <_ZN5codal15STM32BluePillIOC1Ev+0x354>)
 8008390:	f240 3202 	movw	r2, #770	; 0x302
 8008394:	2106      	movs	r1, #6
 8008396:	f104 00c0 	add.w	r0, r4, #192	; 0xc0
 800839a:	f7ff fcdb 	bl	8007d54 <_ZN5codal3_cm3PinC1EhmmtNS_13PinCapabilityE>
 800839e:	9501      	str	r5, [sp, #4]
 80083a0:	2380      	movs	r3, #128	; 0x80
 80083a2:	9300      	str	r3, [sp, #0]
 80083a4:	4ba9      	ldr	r3, [pc, #676]	; (800864c <_ZN5codal15STM32BluePillIOC1Ev+0x354>)
 80083a6:	f240 3202 	movw	r2, #770	; 0x302
 80083aa:	2107      	movs	r1, #7
 80083ac:	f104 00e0 	add.w	r0, r4, #224	; 0xe0
 80083b0:	f7ff fcd0 	bl	8007d54 <_ZN5codal3_cm3PinC1EhmmtNS_13PinCapabilityE>
 80083b4:	9501      	str	r5, [sp, #4]
 80083b6:	f44f 7380 	mov.w	r3, #256	; 0x100
 80083ba:	9300      	str	r3, [sp, #0]
 80083bc:	4ba3      	ldr	r3, [pc, #652]	; (800864c <_ZN5codal15STM32BluePillIOC1Ev+0x354>)
 80083be:	f240 3202 	movw	r2, #770	; 0x302
 80083c2:	4651      	mov	r1, sl
 80083c4:	f504 7080 	add.w	r0, r4, #256	; 0x100
 80083c8:	f7ff fcc4 	bl	8007d54 <_ZN5codal3_cm3PinC1EhmmtNS_13PinCapabilityE>
 80083cc:	9501      	str	r5, [sp, #4]
 80083ce:	f44f 7300 	mov.w	r3, #512	; 0x200
 80083d2:	9300      	str	r3, [sp, #0]
 80083d4:	f103 4380 	add.w	r3, r3, #1073741824	; 0x40000000
 80083d8:	f503 3383 	add.w	r3, r3, #67072	; 0x10600
 80083dc:	f240 3202 	movw	r2, #770	; 0x302
 80083e0:	2109      	movs	r1, #9
 80083e2:	f504 7090 	add.w	r0, r4, #288	; 0x120
 80083e6:	f7ff fcb5 	bl	8007d54 <_ZN5codal3_cm3PinC1EhmmtNS_13PinCapabilityE>
 80083ea:	9501      	str	r5, [sp, #4]
 80083ec:	f44f 6b80 	mov.w	fp, #1024	; 0x400
 80083f0:	f8cd b000 	str.w	fp, [sp]
 80083f4:	4b95      	ldr	r3, [pc, #596]	; (800864c <_ZN5codal15STM32BluePillIOC1Ev+0x354>)
 80083f6:	f240 3202 	movw	r2, #770	; 0x302
 80083fa:	210a      	movs	r1, #10
 80083fc:	f504 70a0 	add.w	r0, r4, #320	; 0x140
 8008400:	f7ff fca8 	bl	8007d54 <_ZN5codal3_cm3PinC1EhmmtNS_13PinCapabilityE>
 8008404:	9501      	str	r5, [sp, #4]
 8008406:	f44f 6300 	mov.w	r3, #2048	; 0x800
 800840a:	9300      	str	r3, [sp, #0]
 800840c:	f103 4380 	add.w	r3, r3, #1073741824	; 0x40000000
 8008410:	f503 3380 	add.w	r3, r3, #65536	; 0x10000
 8008414:	f240 3202 	movw	r2, #770	; 0x302
 8008418:	210b      	movs	r1, #11
 800841a:	f504 70b0 	add.w	r0, r4, #352	; 0x160
 800841e:	f7ff fc99 	bl	8007d54 <_ZN5codal3_cm3PinC1EhmmtNS_13PinCapabilityE>
 8008422:	9501      	str	r5, [sp, #4]
 8008424:	f44f 5980 	mov.w	r9, #4096	; 0x1000
 8008428:	f8cd 9000 	str.w	r9, [sp]
 800842c:	4b87      	ldr	r3, [pc, #540]	; (800864c <_ZN5codal15STM32BluePillIOC1Ev+0x354>)
 800842e:	f240 3202 	movw	r2, #770	; 0x302
 8008432:	210c      	movs	r1, #12
 8008434:	f504 70c0 	add.w	r0, r4, #384	; 0x180
 8008438:	f7ff fc8c 	bl	8007d54 <_ZN5codal3_cm3PinC1EhmmtNS_13PinCapabilityE>
 800843c:	9501      	str	r5, [sp, #4]
 800843e:	f44f 4300 	mov.w	r3, #32768	; 0x8000
 8008442:	9300      	str	r3, [sp, #0]
 8008444:	f103 4380 	add.w	r3, r3, #1073741824	; 0x40000000
 8008448:	f503 4308 	add.w	r3, r3, #34816	; 0x8800
 800844c:	f240 3202 	movw	r2, #770	; 0x302
 8008450:	210d      	movs	r1, #13
 8008452:	f504 70d0 	add.w	r0, r4, #416	; 0x1a0
 8008456:	f7ff fc7d 	bl	8007d54 <_ZN5codal3_cm3PinC1EhmmtNS_13PinCapabilityE>
 800845a:	9501      	str	r5, [sp, #4]
 800845c:	9500      	str	r5, [sp, #0]
 800845e:	4b7c      	ldr	r3, [pc, #496]	; (8008650 <_ZN5codal15STM32BluePillIOC1Ev+0x358>)
 8008460:	f240 3203 	movw	r2, #771	; 0x303
 8008464:	210e      	movs	r1, #14
 8008466:	f504 70e0 	add.w	r0, r4, #448	; 0x1c0
 800846a:	f7ff fc73 	bl	8007d54 <_ZN5codal3_cm3PinC1EhmmtNS_13PinCapabilityE>
 800846e:	9501      	str	r5, [sp, #4]
 8008470:	9700      	str	r7, [sp, #0]
 8008472:	4b77      	ldr	r3, [pc, #476]	; (8008650 <_ZN5codal15STM32BluePillIOC1Ev+0x358>)
 8008474:	f240 3203 	movw	r2, #771	; 0x303
 8008478:	210f      	movs	r1, #15
 800847a:	f504 70f0 	add.w	r0, r4, #480	; 0x1e0
 800847e:	f7ff fc69 	bl	8007d54 <_ZN5codal3_cm3PinC1EhmmtNS_13PinCapabilityE>
 8008482:	9501      	str	r5, [sp, #4]
 8008484:	f8cd a000 	str.w	sl, [sp]
 8008488:	4b71      	ldr	r3, [pc, #452]	; (8008650 <_ZN5codal15STM32BluePillIOC1Ev+0x358>)
 800848a:	f240 3203 	movw	r2, #771	; 0x303
 800848e:	2110      	movs	r1, #16
 8008490:	f504 7000 	add.w	r0, r4, #512	; 0x200
 8008494:	f7ff fc5e 	bl	8007d54 <_ZN5codal3_cm3PinC1EhmmtNS_13PinCapabilityE>
 8008498:	9501      	str	r5, [sp, #4]
 800849a:	2310      	movs	r3, #16
 800849c:	9300      	str	r3, [sp, #0]
 800849e:	4b6c      	ldr	r3, [pc, #432]	; (8008650 <_ZN5codal15STM32BluePillIOC1Ev+0x358>)
 80084a0:	f240 3203 	movw	r2, #771	; 0x303
 80084a4:	2111      	movs	r1, #17
 80084a6:	f504 7008 	add.w	r0, r4, #544	; 0x220
 80084aa:	f7ff fc53 	bl	8007d54 <_ZN5codal3_cm3PinC1EhmmtNS_13PinCapabilityE>
 80084ae:	9501      	str	r5, [sp, #4]
 80084b0:	2320      	movs	r3, #32
 80084b2:	9300      	str	r3, [sp, #0]
 80084b4:	4b66      	ldr	r3, [pc, #408]	; (8008650 <_ZN5codal15STM32BluePillIOC1Ev+0x358>)
 80084b6:	f240 3203 	movw	r2, #771	; 0x303
 80084ba:	2112      	movs	r1, #18
 80084bc:	f504 7010 	add.w	r0, r4, #576	; 0x240
 80084c0:	f7ff fc48 	bl	8007d54 <_ZN5codal3_cm3PinC1EhmmtNS_13PinCapabilityE>
 80084c4:	9501      	str	r5, [sp, #4]
 80084c6:	9600      	str	r6, [sp, #0]
 80084c8:	4b61      	ldr	r3, [pc, #388]	; (8008650 <_ZN5codal15STM32BluePillIOC1Ev+0x358>)
 80084ca:	f240 3203 	movw	r2, #771	; 0x303
 80084ce:	2113      	movs	r1, #19
 80084d0:	f504 7018 	add.w	r0, r4, #608	; 0x260
 80084d4:	f7ff fc3e 	bl	8007d54 <_ZN5codal3_cm3PinC1EhmmtNS_13PinCapabilityE>
 80084d8:	9501      	str	r5, [sp, #4]
 80084da:	2380      	movs	r3, #128	; 0x80
 80084dc:	9300      	str	r3, [sp, #0]
 80084de:	4b5c      	ldr	r3, [pc, #368]	; (8008650 <_ZN5codal15STM32BluePillIOC1Ev+0x358>)
 80084e0:	f240 3203 	movw	r2, #771	; 0x303
 80084e4:	2114      	movs	r1, #20
 80084e6:	f504 7020 	add.w	r0, r4, #640	; 0x280
 80084ea:	f7ff fc33 	bl	8007d54 <_ZN5codal3_cm3PinC1EhmmtNS_13PinCapabilityE>
 80084ee:	9501      	str	r5, [sp, #4]
 80084f0:	f44f 7380 	mov.w	r3, #256	; 0x100
 80084f4:	9300      	str	r3, [sp, #0]
 80084f6:	4b56      	ldr	r3, [pc, #344]	; (8008650 <_ZN5codal15STM32BluePillIOC1Ev+0x358>)
 80084f8:	f240 3203 	movw	r2, #771	; 0x303
 80084fc:	2115      	movs	r1, #21
 80084fe:	f504 7028 	add.w	r0, r4, #672	; 0x2a0
 8008502:	f7ff fc27 	bl	8007d54 <_ZN5codal3_cm3PinC1EhmmtNS_13PinCapabilityE>
 8008506:	9501      	str	r5, [sp, #4]
 8008508:	f44f 7300 	mov.w	r3, #512	; 0x200
 800850c:	9300      	str	r3, [sp, #0]
 800850e:	4b50      	ldr	r3, [pc, #320]	; (8008650 <_ZN5codal15STM32BluePillIOC1Ev+0x358>)
 8008510:	f240 3203 	movw	r2, #771	; 0x303
 8008514:	2116      	movs	r1, #22
 8008516:	f504 7030 	add.w	r0, r4, #704	; 0x2c0
 800851a:	f7ff fc1b 	bl	8007d54 <_ZN5codal3_cm3PinC1EhmmtNS_13PinCapabilityE>
 800851e:	9501      	str	r5, [sp, #4]
 8008520:	f8cd b000 	str.w	fp, [sp]
 8008524:	4b4a      	ldr	r3, [pc, #296]	; (8008650 <_ZN5codal15STM32BluePillIOC1Ev+0x358>)
 8008526:	f240 3203 	movw	r2, #771	; 0x303
 800852a:	2117      	movs	r1, #23
 800852c:	f504 7038 	add.w	r0, r4, #736	; 0x2e0
 8008530:	f7ff fc10 	bl	8007d54 <_ZN5codal3_cm3PinC1EhmmtNS_13PinCapabilityE>
 8008534:	9501      	str	r5, [sp, #4]
 8008536:	f44f 6300 	mov.w	r3, #2048	; 0x800
 800853a:	9300      	str	r3, [sp, #0]
 800853c:	4b44      	ldr	r3, [pc, #272]	; (8008650 <_ZN5codal15STM32BluePillIOC1Ev+0x358>)
 800853e:	f240 3203 	movw	r2, #771	; 0x303
 8008542:	2118      	movs	r1, #24
 8008544:	f504 7040 	add.w	r0, r4, #768	; 0x300
 8008548:	f7ff fc04 	bl	8007d54 <_ZN5codal3_cm3PinC1EhmmtNS_13PinCapabilityE>
 800854c:	9501      	str	r5, [sp, #4]
 800854e:	f8cd 9000 	str.w	r9, [sp]
 8008552:	4b3f      	ldr	r3, [pc, #252]	; (8008650 <_ZN5codal15STM32BluePillIOC1Ev+0x358>)
 8008554:	f240 3203 	movw	r2, #771	; 0x303
 8008558:	2119      	movs	r1, #25
 800855a:	f504 7048 	add.w	r0, r4, #800	; 0x320
 800855e:	f7ff fbf9 	bl	8007d54 <_ZN5codal3_cm3PinC1EhmmtNS_13PinCapabilityE>
 8008562:	9501      	str	r5, [sp, #4]
 8008564:	f44f 5300 	mov.w	r3, #8192	; 0x2000
 8008568:	9300      	str	r3, [sp, #0]
 800856a:	4b39      	ldr	r3, [pc, #228]	; (8008650 <_ZN5codal15STM32BluePillIOC1Ev+0x358>)
 800856c:	f240 3203 	movw	r2, #771	; 0x303
 8008570:	211a      	movs	r1, #26
 8008572:	f504 7050 	add.w	r0, r4, #832	; 0x340
 8008576:	f7ff fbed 	bl	8007d54 <_ZN5codal3_cm3PinC1EhmmtNS_13PinCapabilityE>
 800857a:	9501      	str	r5, [sp, #4]
 800857c:	f44f 4380 	mov.w	r3, #16384	; 0x4000
 8008580:	9300      	str	r3, [sp, #0]
 8008582:	4b33      	ldr	r3, [pc, #204]	; (8008650 <_ZN5codal15STM32BluePillIOC1Ev+0x358>)
 8008584:	f240 3203 	movw	r2, #771	; 0x303
 8008588:	211b      	movs	r1, #27
 800858a:	f504 7058 	add.w	r0, r4, #864	; 0x360
 800858e:	f7ff fbe1 	bl	8007d54 <_ZN5codal3_cm3PinC1EhmmtNS_13PinCapabilityE>
 8008592:	9501      	str	r5, [sp, #4]
 8008594:	f44f 4300 	mov.w	r3, #32768	; 0x8000
 8008598:	9300      	str	r3, [sp, #0]
 800859a:	4b2d      	ldr	r3, [pc, #180]	; (8008650 <_ZN5codal15STM32BluePillIOC1Ev+0x358>)
 800859c:	f240 3203 	movw	r2, #771	; 0x303
 80085a0:	211c      	movs	r1, #28
 80085a2:	f504 7060 	add.w	r0, r4, #896	; 0x380
 80085a6:	f7ff fbd5 	bl	8007d54 <_ZN5codal3_cm3PinC1EhmmtNS_13PinCapabilityE>
 80085aa:	9501      	str	r5, [sp, #4]
 80085ac:	f8cd b000 	str.w	fp, [sp]
 80085b0:	4b28      	ldr	r3, [pc, #160]	; (8008654 <_ZN5codal15STM32BluePillIOC1Ev+0x35c>)
 80085b2:	f44f 7241 	mov.w	r2, #772	; 0x304
 80085b6:	211d      	movs	r1, #29
 80085b8:	f504 7068 	add.w	r0, r4, #928	; 0x3a0
 80085bc:	f7ff fbca 	bl	8007d54 <_ZN5codal3_cm3PinC1EhmmtNS_13PinCapabilityE>
 80085c0:	9501      	str	r5, [sp, #4]
 80085c2:	f44f 6300 	mov.w	r3, #2048	; 0x800
 80085c6:	9300      	str	r3, [sp, #0]
 80085c8:	f103 4380 	add.w	r3, r3, #1073741824	; 0x40000000
 80085cc:	f503 3384 	add.w	r3, r3, #67584	; 0x10800
 80085d0:	f44f 7241 	mov.w	r2, #772	; 0x304
 80085d4:	211e      	movs	r1, #30
 80085d6:	f504 7070 	add.w	r0, r4, #960	; 0x3c0
 80085da:	f7ff fbbb 	bl	8007d54 <_ZN5codal3_cm3PinC1EhmmtNS_13PinCapabilityE>
 80085de:	9501      	str	r5, [sp, #4]
 80085e0:	f8cd 9000 	str.w	r9, [sp]
 80085e4:	4b1b      	ldr	r3, [pc, #108]	; (8008654 <_ZN5codal15STM32BluePillIOC1Ev+0x35c>)
 80085e6:	f44f 7241 	mov.w	r2, #772	; 0x304
 80085ea:	211f      	movs	r1, #31
 80085ec:	f504 7078 	add.w	r0, r4, #992	; 0x3e0
 80085f0:	f7ff fbb0 	bl	8007d54 <_ZN5codal3_cm3PinC1EhmmtNS_13PinCapabilityE>
 80085f4:	9501      	str	r5, [sp, #4]
 80085f6:	f8cd 8000 	str.w	r8, [sp]
 80085fa:	4b17      	ldr	r3, [pc, #92]	; (8008658 <_ZN5codal15STM32BluePillIOC1Ev+0x360>)
 80085fc:	f240 3205 	movw	r2, #773	; 0x305
 8008600:	2120      	movs	r1, #32
 8008602:	eb04 000b 	add.w	r0, r4, fp
 8008606:	f7ff fba5 	bl	8007d54 <_ZN5codal3_cm3PinC1EhmmtNS_13PinCapabilityE>
 800860a:	9501      	str	r5, [sp, #4]
 800860c:	f8cd a000 	str.w	sl, [sp]
 8008610:	4b11      	ldr	r3, [pc, #68]	; (8008658 <_ZN5codal15STM32BluePillIOC1Ev+0x360>)
 8008612:	f240 3205 	movw	r2, #773	; 0x305
 8008616:	2121      	movs	r1, #33	; 0x21
 8008618:	f504 6084 	add.w	r0, r4, #1056	; 0x420
 800861c:	f7ff fb9a 	bl	8007d54 <_ZN5codal3_cm3PinC1EhmmtNS_13PinCapabilityE>
 8008620:	9501      	str	r5, [sp, #4]
 8008622:	2310      	movs	r3, #16
 8008624:	9300      	str	r3, [sp, #0]
 8008626:	4b0c      	ldr	r3, [pc, #48]	; (8008658 <_ZN5codal15STM32BluePillIOC1Ev+0x360>)
 8008628:	f240 3205 	movw	r2, #773	; 0x305
 800862c:	2122      	movs	r1, #34	; 0x22
 800862e:	f504 6088 	add.w	r0, r4, #1088	; 0x440
 8008632:	f7ff fb8f 	bl	8007d54 <_ZN5codal3_cm3PinC1EhmmtNS_13PinCapabilityE>
 8008636:	9501      	str	r5, [sp, #4]
 8008638:	2320      	movs	r3, #32
 800863a:	9300      	str	r3, [sp, #0]
 800863c:	4b06      	ldr	r3, [pc, #24]	; (8008658 <_ZN5codal15STM32BluePillIOC1Ev+0x360>)
 800863e:	f240 3205 	movw	r2, #773	; 0x305
 8008642:	2123      	movs	r1, #35	; 0x23
 8008644:	f504 608c 	add.w	r0, r4, #1120	; 0x460
 8008648:	e008      	b.n	800865c <_ZN5codal15STM32BluePillIOC1Ev+0x364>
 800864a:	bf00      	nop
 800864c:	40010800 	.word	0x40010800
 8008650:	40010c00 	.word	0x40010c00
 8008654:	40011000 	.word	0x40011000
 8008658:	40011400 	.word	0x40011400
 800865c:	f7ff fb7a 	bl	8007d54 <_ZN5codal3_cm3PinC1EhmmtNS_13PinCapabilityE>
 8008660:	9501      	str	r5, [sp, #4]
 8008662:	9600      	str	r6, [sp, #0]
 8008664:	4bce      	ldr	r3, [pc, #824]	; (80089a0 <_ZN5codal15STM32BluePillIOC1Ev+0x6a8>)
 8008666:	f240 3205 	movw	r2, #773	; 0x305
 800866a:	2124      	movs	r1, #36	; 0x24
 800866c:	f504 6090 	add.w	r0, r4, #1152	; 0x480
 8008670:	f7ff fb70 	bl	8007d54 <_ZN5codal3_cm3PinC1EhmmtNS_13PinCapabilityE>
 8008674:	9501      	str	r5, [sp, #4]
 8008676:	2380      	movs	r3, #128	; 0x80
 8008678:	9300      	str	r3, [sp, #0]
 800867a:	4bc9      	ldr	r3, [pc, #804]	; (80089a0 <_ZN5codal15STM32BluePillIOC1Ev+0x6a8>)
 800867c:	f240 3205 	movw	r2, #773	; 0x305
 8008680:	2125      	movs	r1, #37	; 0x25
 8008682:	f504 6094 	add.w	r0, r4, #1184	; 0x4a0
 8008686:	f7ff fb65 	bl	8007d54 <_ZN5codal3_cm3PinC1EhmmtNS_13PinCapabilityE>
 800868a:	9501      	str	r5, [sp, #4]
 800868c:	f8cd 9000 	str.w	r9, [sp]
 8008690:	4bc3      	ldr	r3, [pc, #780]	; (80089a0 <_ZN5codal15STM32BluePillIOC1Ev+0x6a8>)
 8008692:	f240 3205 	movw	r2, #773	; 0x305
 8008696:	2126      	movs	r1, #38	; 0x26
 8008698:	f504 6098 	add.w	r0, r4, #1216	; 0x4c0
 800869c:	f7ff fb5a 	bl	8007d54 <_ZN5codal3_cm3PinC1EhmmtNS_13PinCapabilityE>
 80086a0:	9501      	str	r5, [sp, #4]
 80086a2:	f44f 5300 	mov.w	r3, #8192	; 0x2000
 80086a6:	9300      	str	r3, [sp, #0]
 80086a8:	4bbd      	ldr	r3, [pc, #756]	; (80089a0 <_ZN5codal15STM32BluePillIOC1Ev+0x6a8>)
 80086aa:	f240 3205 	movw	r2, #773	; 0x305
 80086ae:	2127      	movs	r1, #39	; 0x27
 80086b0:	f504 609c 	add.w	r0, r4, #1248	; 0x4e0
 80086b4:	f7ff fb4e 	bl	8007d54 <_ZN5codal3_cm3PinC1EhmmtNS_13PinCapabilityE>
 80086b8:	9501      	str	r5, [sp, #4]
 80086ba:	f44f 4380 	mov.w	r3, #16384	; 0x4000
 80086be:	9300      	str	r3, [sp, #0]
 80086c0:	4bb7      	ldr	r3, [pc, #732]	; (80089a0 <_ZN5codal15STM32BluePillIOC1Ev+0x6a8>)
 80086c2:	f240 3205 	movw	r2, #773	; 0x305
 80086c6:	2128      	movs	r1, #40	; 0x28
 80086c8:	f504 60a0 	add.w	r0, r4, #1280	; 0x500
 80086cc:	f7ff fb42 	bl	8007d54 <_ZN5codal3_cm3PinC1EhmmtNS_13PinCapabilityE>
 80086d0:	9501      	str	r5, [sp, #4]
 80086d2:	f44f 4300 	mov.w	r3, #32768	; 0x8000
 80086d6:	9300      	str	r3, [sp, #0]
 80086d8:	4bb1      	ldr	r3, [pc, #708]	; (80089a0 <_ZN5codal15STM32BluePillIOC1Ev+0x6a8>)
 80086da:	f240 3205 	movw	r2, #773	; 0x305
 80086de:	2129      	movs	r1, #41	; 0x29
 80086e0:	f504 60a4 	add.w	r0, r4, #1312	; 0x520
 80086e4:	f7ff fb36 	bl	8007d54 <_ZN5codal3_cm3PinC1EhmmtNS_13PinCapabilityE>
 80086e8:	9501      	str	r5, [sp, #4]
 80086ea:	9500      	str	r5, [sp, #0]
 80086ec:	4bad      	ldr	r3, [pc, #692]	; (80089a4 <_ZN5codal15STM32BluePillIOC1Ev+0x6ac>)
 80086ee:	f240 3202 	movw	r2, #770	; 0x302
 80086f2:	212a      	movs	r1, #42	; 0x2a
 80086f4:	f504 60a8 	add.w	r0, r4, #1344	; 0x540
 80086f8:	f7ff fb2c 	bl	8007d54 <_ZN5codal3_cm3PinC1EhmmtNS_13PinCapabilityE>
 80086fc:	9501      	str	r5, [sp, #4]
 80086fe:	9700      	str	r7, [sp, #0]
 8008700:	4ba8      	ldr	r3, [pc, #672]	; (80089a4 <_ZN5codal15STM32BluePillIOC1Ev+0x6ac>)
 8008702:	f240 3202 	movw	r2, #770	; 0x302
 8008706:	212b      	movs	r1, #43	; 0x2b
 8008708:	f504 60ac 	add.w	r0, r4, #1376	; 0x560
 800870c:	f7ff fb22 	bl	8007d54 <_ZN5codal3_cm3PinC1EhmmtNS_13PinCapabilityE>
 8008710:	9501      	str	r5, [sp, #4]
 8008712:	f8cd 8000 	str.w	r8, [sp]
 8008716:	4ba3      	ldr	r3, [pc, #652]	; (80089a4 <_ZN5codal15STM32BluePillIOC1Ev+0x6ac>)
 8008718:	f240 3202 	movw	r2, #770	; 0x302
 800871c:	212c      	movs	r1, #44	; 0x2c
 800871e:	f504 60b0 	add.w	r0, r4, #1408	; 0x580
 8008722:	f7ff fb17 	bl	8007d54 <_ZN5codal3_cm3PinC1EhmmtNS_13PinCapabilityE>
 8008726:	9501      	str	r5, [sp, #4]
 8008728:	f8cd a000 	str.w	sl, [sp]
 800872c:	4b9d      	ldr	r3, [pc, #628]	; (80089a4 <_ZN5codal15STM32BluePillIOC1Ev+0x6ac>)
 800872e:	f240 3202 	movw	r2, #770	; 0x302
 8008732:	212d      	movs	r1, #45	; 0x2d
 8008734:	f504 60b4 	add.w	r0, r4, #1440	; 0x5a0
 8008738:	f7ff fb0c 	bl	8007d54 <_ZN5codal3_cm3PinC1EhmmtNS_13PinCapabilityE>
 800873c:	9501      	str	r5, [sp, #4]
 800873e:	9600      	str	r6, [sp, #0]
 8008740:	4b99      	ldr	r3, [pc, #612]	; (80089a8 <_ZN5codal15STM32BluePillIOC1Ev+0x6b0>)
 8008742:	f240 3203 	movw	r2, #771	; 0x303
 8008746:	212e      	movs	r1, #46	; 0x2e
 8008748:	f504 60b8 	add.w	r0, r4, #1472	; 0x5c0
 800874c:	f7ff fb02 	bl	8007d54 <_ZN5codal3_cm3PinC1EhmmtNS_13PinCapabilityE>
 8008750:	9501      	str	r5, [sp, #4]
 8008752:	2380      	movs	r3, #128	; 0x80
 8008754:	9300      	str	r3, [sp, #0]
 8008756:	4b94      	ldr	r3, [pc, #592]	; (80089a8 <_ZN5codal15STM32BluePillIOC1Ev+0x6b0>)
 8008758:	f240 3203 	movw	r2, #771	; 0x303
 800875c:	212f      	movs	r1, #47	; 0x2f
 800875e:	f504 60bc 	add.w	r0, r4, #1504	; 0x5e0
 8008762:	f7ff faf7 	bl	8007d54 <_ZN5codal3_cm3PinC1EhmmtNS_13PinCapabilityE>
 8008766:	9501      	str	r5, [sp, #4]
 8008768:	f44f 7380 	mov.w	r3, #256	; 0x100
 800876c:	9300      	str	r3, [sp, #0]
 800876e:	4b8e      	ldr	r3, [pc, #568]	; (80089a8 <_ZN5codal15STM32BluePillIOC1Ev+0x6b0>)
 8008770:	f240 3203 	movw	r2, #771	; 0x303
 8008774:	2130      	movs	r1, #48	; 0x30
 8008776:	f504 60c0 	add.w	r0, r4, #1536	; 0x600
 800877a:	f7ff faeb 	bl	8007d54 <_ZN5codal3_cm3PinC1EhmmtNS_13PinCapabilityE>
 800877e:	9501      	str	r5, [sp, #4]
 8008780:	f44f 7300 	mov.w	r3, #512	; 0x200
 8008784:	9300      	str	r3, [sp, #0]
 8008786:	4b88      	ldr	r3, [pc, #544]	; (80089a8 <_ZN5codal15STM32BluePillIOC1Ev+0x6b0>)
 8008788:	f240 3203 	movw	r2, #771	; 0x303
 800878c:	2131      	movs	r1, #49	; 0x31
 800878e:	f504 60c4 	add.w	r0, r4, #1568	; 0x620
 8008792:	f7ff fadf 	bl	8007d54 <_ZN5codal3_cm3PinC1EhmmtNS_13PinCapabilityE>
 8008796:	9501      	str	r5, [sp, #4]
 8008798:	f8cd 9000 	str.w	r9, [sp]
 800879c:	4b80      	ldr	r3, [pc, #512]	; (80089a0 <_ZN5codal15STM32BluePillIOC1Ev+0x6a8>)
 800879e:	f240 3205 	movw	r2, #773	; 0x305
 80087a2:	2132      	movs	r1, #50	; 0x32
 80087a4:	f504 60c8 	add.w	r0, r4, #1600	; 0x640
 80087a8:	f7ff fad4 	bl	8007d54 <_ZN5codal3_cm3PinC1EhmmtNS_13PinCapabilityE>
 80087ac:	9501      	str	r5, [sp, #4]
 80087ae:	f44f 5300 	mov.w	r3, #8192	; 0x2000
 80087b2:	9300      	str	r3, [sp, #0]
 80087b4:	4b7a      	ldr	r3, [pc, #488]	; (80089a0 <_ZN5codal15STM32BluePillIOC1Ev+0x6a8>)
 80087b6:	f240 3205 	movw	r2, #773	; 0x305
 80087ba:	2133      	movs	r1, #51	; 0x33
 80087bc:	f504 60cc 	add.w	r0, r4, #1632	; 0x660
 80087c0:	f7ff fac8 	bl	8007d54 <_ZN5codal3_cm3PinC1EhmmtNS_13PinCapabilityE>
 80087c4:	9501      	str	r5, [sp, #4]
 80087c6:	f44f 4380 	mov.w	r3, #16384	; 0x4000
 80087ca:	9300      	str	r3, [sp, #0]
 80087cc:	4b74      	ldr	r3, [pc, #464]	; (80089a0 <_ZN5codal15STM32BluePillIOC1Ev+0x6a8>)
 80087ce:	f240 3205 	movw	r2, #773	; 0x305
 80087d2:	2134      	movs	r1, #52	; 0x34
 80087d4:	f504 60d0 	add.w	r0, r4, #1664	; 0x680
 80087d8:	f7ff fabc 	bl	8007d54 <_ZN5codal3_cm3PinC1EhmmtNS_13PinCapabilityE>
 80087dc:	9501      	str	r5, [sp, #4]
 80087de:	f44f 4300 	mov.w	r3, #32768	; 0x8000
 80087e2:	9300      	str	r3, [sp, #0]
 80087e4:	4b6e      	ldr	r3, [pc, #440]	; (80089a0 <_ZN5codal15STM32BluePillIOC1Ev+0x6a8>)
 80087e6:	f240 3205 	movw	r2, #773	; 0x305
 80087ea:	2135      	movs	r1, #53	; 0x35
 80087ec:	f504 60d4 	add.w	r0, r4, #1696	; 0x6a0
 80087f0:	f7ff fab0 	bl	8007d54 <_ZN5codal3_cm3PinC1EhmmtNS_13PinCapabilityE>
 80087f4:	9501      	str	r5, [sp, #4]
 80087f6:	9600      	str	r6, [sp, #0]
 80087f8:	4b6a      	ldr	r3, [pc, #424]	; (80089a4 <_ZN5codal15STM32BluePillIOC1Ev+0x6ac>)
 80087fa:	f240 3202 	movw	r2, #770	; 0x302
 80087fe:	2136      	movs	r1, #54	; 0x36
 8008800:	f504 60d8 	add.w	r0, r4, #1728	; 0x6c0
 8008804:	f7ff faa6 	bl	8007d54 <_ZN5codal3_cm3PinC1EhmmtNS_13PinCapabilityE>
 8008808:	9501      	str	r5, [sp, #4]
 800880a:	2380      	movs	r3, #128	; 0x80
 800880c:	9300      	str	r3, [sp, #0]
 800880e:	4b65      	ldr	r3, [pc, #404]	; (80089a4 <_ZN5codal15STM32BluePillIOC1Ev+0x6ac>)
 8008810:	f240 3202 	movw	r2, #770	; 0x302
 8008814:	2137      	movs	r1, #55	; 0x37
 8008816:	f504 60dc 	add.w	r0, r4, #1760	; 0x6e0
 800881a:	f7ff fa9b 	bl	8007d54 <_ZN5codal3_cm3PinC1EhmmtNS_13PinCapabilityE>
 800881e:	9501      	str	r5, [sp, #4]
 8008820:	9500      	str	r5, [sp, #0]
 8008822:	4b61      	ldr	r3, [pc, #388]	; (80089a8 <_ZN5codal15STM32BluePillIOC1Ev+0x6b0>)
 8008824:	f240 3203 	movw	r2, #771	; 0x303
 8008828:	2138      	movs	r1, #56	; 0x38
 800882a:	f504 60e0 	add.w	r0, r4, #1792	; 0x700
 800882e:	f7ff fa91 	bl	8007d54 <_ZN5codal3_cm3PinC1EhmmtNS_13PinCapabilityE>
 8008832:	9501      	str	r5, [sp, #4]
 8008834:	9700      	str	r7, [sp, #0]
 8008836:	4b5c      	ldr	r3, [pc, #368]	; (80089a8 <_ZN5codal15STM32BluePillIOC1Ev+0x6b0>)
 8008838:	f240 3203 	movw	r2, #771	; 0x303
 800883c:	2139      	movs	r1, #57	; 0x39
 800883e:	f504 60e4 	add.w	r0, r4, #1824	; 0x720
 8008842:	f7ff fa87 	bl	8007d54 <_ZN5codal3_cm3PinC1EhmmtNS_13PinCapabilityE>
 8008846:	9501      	str	r5, [sp, #4]
 8008848:	9700      	str	r7, [sp, #0]
 800884a:	4b56      	ldr	r3, [pc, #344]	; (80089a4 <_ZN5codal15STM32BluePillIOC1Ev+0x6ac>)
 800884c:	f240 3202 	movw	r2, #770	; 0x302
 8008850:	213a      	movs	r1, #58	; 0x3a
 8008852:	f504 60e8 	add.w	r0, r4, #1856	; 0x740
 8008856:	f7ff fa7d 	bl	8007d54 <_ZN5codal3_cm3PinC1EhmmtNS_13PinCapabilityE>
 800885a:	9501      	str	r5, [sp, #4]
 800885c:	f8cd 8000 	str.w	r8, [sp]
 8008860:	4b50      	ldr	r3, [pc, #320]	; (80089a4 <_ZN5codal15STM32BluePillIOC1Ev+0x6ac>)
 8008862:	f240 3202 	movw	r2, #770	; 0x302
 8008866:	213b      	movs	r1, #59	; 0x3b
 8008868:	f504 60ec 	add.w	r0, r4, #1888	; 0x760
 800886c:	f7ff fa72 	bl	8007d54 <_ZN5codal3_cm3PinC1EhmmtNS_13PinCapabilityE>
 8008870:	9501      	str	r5, [sp, #4]
 8008872:	f8cd a000 	str.w	sl, [sp]
 8008876:	4b4b      	ldr	r3, [pc, #300]	; (80089a4 <_ZN5codal15STM32BluePillIOC1Ev+0x6ac>)
 8008878:	f240 3202 	movw	r2, #770	; 0x302
 800887c:	213c      	movs	r1, #60	; 0x3c
 800887e:	f504 60f0 	add.w	r0, r4, #1920	; 0x780
 8008882:	f7ff fa67 	bl	8007d54 <_ZN5codal3_cm3PinC1EhmmtNS_13PinCapabilityE>
 8008886:	9501      	str	r5, [sp, #4]
 8008888:	f8cd 9000 	str.w	r9, [sp]
 800888c:	4b45      	ldr	r3, [pc, #276]	; (80089a4 <_ZN5codal15STM32BluePillIOC1Ev+0x6ac>)
 800888e:	f240 3202 	movw	r2, #770	; 0x302
 8008892:	213d      	movs	r1, #61	; 0x3d
 8008894:	f504 60f4 	add.w	r0, r4, #1952	; 0x7a0
 8008898:	f7ff fa5c 	bl	8007d54 <_ZN5codal3_cm3PinC1EhmmtNS_13PinCapabilityE>
 800889c:	9501      	str	r5, [sp, #4]
 800889e:	f44f 7380 	mov.w	r3, #256	; 0x100
 80088a2:	9300      	str	r3, [sp, #0]
 80088a4:	4b3f      	ldr	r3, [pc, #252]	; (80089a4 <_ZN5codal15STM32BluePillIOC1Ev+0x6ac>)
 80088a6:	f240 3202 	movw	r2, #770	; 0x302
 80088aa:	213e      	movs	r1, #62	; 0x3e
 80088ac:	f504 60f8 	add.w	r0, r4, #1984	; 0x7c0
 80088b0:	f7ff fa50 	bl	8007d54 <_ZN5codal3_cm3PinC1EhmmtNS_13PinCapabilityE>
 80088b4:	9501      	str	r5, [sp, #4]
 80088b6:	f44f 7300 	mov.w	r3, #512	; 0x200
 80088ba:	9300      	str	r3, [sp, #0]
 80088bc:	f103 4380 	add.w	r3, r3, #1073741824	; 0x40000000
 80088c0:	f503 3383 	add.w	r3, r3, #67072	; 0x10600
 80088c4:	f240 3202 	movw	r2, #770	; 0x302
 80088c8:	213f      	movs	r1, #63	; 0x3f
 80088ca:	f504 60fc 	add.w	r0, r4, #2016	; 0x7e0
 80088ce:	f7ff fa41 	bl	8007d54 <_ZN5codal3_cm3PinC1EhmmtNS_13PinCapabilityE>
 80088d2:	9501      	str	r5, [sp, #4]
 80088d4:	f8cd b000 	str.w	fp, [sp]
 80088d8:	4b32      	ldr	r3, [pc, #200]	; (80089a4 <_ZN5codal15STM32BluePillIOC1Ev+0x6ac>)
 80088da:	f240 3202 	movw	r2, #770	; 0x302
 80088de:	4631      	mov	r1, r6
 80088e0:	f504 6000 	add.w	r0, r4, #2048	; 0x800
 80088e4:	f7ff fa36 	bl	8007d54 <_ZN5codal3_cm3PinC1EhmmtNS_13PinCapabilityE>
 80088e8:	9501      	str	r5, [sp, #4]
 80088ea:	f44f 6300 	mov.w	r3, #2048	; 0x800
 80088ee:	9300      	str	r3, [sp, #0]
 80088f0:	f103 4380 	add.w	r3, r3, #1073741824	; 0x40000000
 80088f4:	f503 3380 	add.w	r3, r3, #65536	; 0x10000
 80088f8:	f240 3202 	movw	r2, #770	; 0x302
 80088fc:	2141      	movs	r1, #65	; 0x41
 80088fe:	f504 6002 	add.w	r0, r4, #2080	; 0x820
 8008902:	f7ff fa27 	bl	8007d54 <_ZN5codal3_cm3PinC1EhmmtNS_13PinCapabilityE>
 8008906:	9501      	str	r5, [sp, #4]
 8008908:	f8cd 9000 	str.w	r9, [sp]
 800890c:	4b26      	ldr	r3, [pc, #152]	; (80089a8 <_ZN5codal15STM32BluePillIOC1Ev+0x6b0>)
 800890e:	f240 3203 	movw	r2, #771	; 0x303
 8008912:	2142      	movs	r1, #66	; 0x42
 8008914:	f504 6004 	add.w	r0, r4, #2112	; 0x840
 8008918:	f7ff fa1c 	bl	8007d54 <_ZN5codal3_cm3PinC1EhmmtNS_13PinCapabilityE>
 800891c:	9501      	str	r5, [sp, #4]
 800891e:	f44f 5300 	mov.w	r3, #8192	; 0x2000
 8008922:	9300      	str	r3, [sp, #0]
 8008924:	4b20      	ldr	r3, [pc, #128]	; (80089a8 <_ZN5codal15STM32BluePillIOC1Ev+0x6b0>)
 8008926:	f240 3203 	movw	r2, #771	; 0x303
 800892a:	2143      	movs	r1, #67	; 0x43
 800892c:	f504 6006 	add.w	r0, r4, #2144	; 0x860
 8008930:	f7ff fa10 	bl	8007d54 <_ZN5codal3_cm3PinC1EhmmtNS_13PinCapabilityE>
 8008934:	9501      	str	r5, [sp, #4]
 8008936:	f44f 4380 	mov.w	r3, #16384	; 0x4000
 800893a:	9300      	str	r3, [sp, #0]
 800893c:	4b1a      	ldr	r3, [pc, #104]	; (80089a8 <_ZN5codal15STM32BluePillIOC1Ev+0x6b0>)
 800893e:	f240 3203 	movw	r2, #771	; 0x303
 8008942:	2144      	movs	r1, #68	; 0x44
 8008944:	f504 6008 	add.w	r0, r4, #2176	; 0x880
 8008948:	f7ff fa04 	bl	8007d54 <_ZN5codal3_cm3PinC1EhmmtNS_13PinCapabilityE>
 800894c:	9501      	str	r5, [sp, #4]
 800894e:	f44f 4300 	mov.w	r3, #32768	; 0x8000
 8008952:	9300      	str	r3, [sp, #0]
 8008954:	4b14      	ldr	r3, [pc, #80]	; (80089a8 <_ZN5codal15STM32BluePillIOC1Ev+0x6b0>)
 8008956:	f240 3203 	movw	r2, #771	; 0x303
 800895a:	2145      	movs	r1, #69	; 0x45
 800895c:	f504 600a 	add.w	r0, r4, #2208	; 0x8a0
 8008960:	f7ff f9f8 	bl	8007d54 <_ZN5codal3_cm3PinC1EhmmtNS_13PinCapabilityE>
 8008964:	9501      	str	r5, [sp, #4]
 8008966:	f8cd 9000 	str.w	r9, [sp]
 800896a:	4b10      	ldr	r3, [pc, #64]	; (80089ac <_ZN5codal15STM32BluePillIOC1Ev+0x6b4>)
 800896c:	f44f 7241 	mov.w	r2, #772	; 0x304
 8008970:	2146      	movs	r1, #70	; 0x46
 8008972:	f504 600c 	add.w	r0, r4, #2240	; 0x8c0
 8008976:	f7ff f9ed 	bl	8007d54 <_ZN5codal3_cm3PinC1EhmmtNS_13PinCapabilityE>
 800897a:	9501      	str	r5, [sp, #4]
 800897c:	f8cd 8000 	str.w	r8, [sp]
 8008980:	4b07      	ldr	r3, [pc, #28]	; (80089a0 <_ZN5codal15STM32BluePillIOC1Ev+0x6a8>)
 8008982:	f240 3205 	movw	r2, #773	; 0x305
 8008986:	2147      	movs	r1, #71	; 0x47
 8008988:	f504 600e 	add.w	r0, r4, #2272	; 0x8e0
 800898c:	f7ff f9e2 	bl	8007d54 <_ZN5codal3_cm3PinC1EhmmtNS_13PinCapabilityE>
 8008990:	9501      	str	r5, [sp, #4]
 8008992:	f8cd b000 	str.w	fp, [sp]
 8008996:	4b05      	ldr	r3, [pc, #20]	; (80089ac <_ZN5codal15STM32BluePillIOC1Ev+0x6b4>)
 8008998:	f44f 7241 	mov.w	r2, #772	; 0x304
 800899c:	2148      	movs	r1, #72	; 0x48
 800899e:	e007      	b.n	80089b0 <_ZN5codal15STM32BluePillIOC1Ev+0x6b8>
 80089a0:	40011400 	.word	0x40011400
 80089a4:	40010800 	.word	0x40010800
 80089a8:	40010c00 	.word	0x40010c00
 80089ac:	40011000 	.word	0x40011000
 80089b0:	f504 6010 	add.w	r0, r4, #2304	; 0x900
 80089b4:	f7ff f9ce 	bl	8007d54 <_ZN5codal3_cm3PinC1EhmmtNS_13PinCapabilityE>
 80089b8:	9501      	str	r5, [sp, #4]
 80089ba:	f44f 6300 	mov.w	r3, #2048	; 0x800
 80089be:	9300      	str	r3, [sp, #0]
 80089c0:	f103 4380 	add.w	r3, r3, #1073741824	; 0x40000000
 80089c4:	f503 3384 	add.w	r3, r3, #67584	; 0x10800
 80089c8:	f44f 7241 	mov.w	r2, #772	; 0x304
 80089cc:	2149      	movs	r1, #73	; 0x49
 80089ce:	f504 6012 	add.w	r0, r4, #2336	; 0x920
 80089d2:	f7ff f9bf 	bl	8007d54 <_ZN5codal3_cm3PinC1EhmmtNS_13PinCapabilityE>
 80089d6:	9501      	str	r5, [sp, #4]
 80089d8:	f8cd b000 	str.w	fp, [sp]
 80089dc:	4bd6      	ldr	r3, [pc, #856]	; (8008d38 <_ZN5codal15STM32BluePillIOC1Ev+0xa40>)
 80089de:	f240 3203 	movw	r2, #771	; 0x303
 80089e2:	214a      	movs	r1, #74	; 0x4a
 80089e4:	f504 6014 	add.w	r0, r4, #2368	; 0x940
 80089e8:	f7ff f9b4 	bl	8007d54 <_ZN5codal3_cm3PinC1EhmmtNS_13PinCapabilityE>
 80089ec:	9501      	str	r5, [sp, #4]
 80089ee:	f44f 6300 	mov.w	r3, #2048	; 0x800
 80089f2:	9300      	str	r3, [sp, #0]
 80089f4:	4bd0      	ldr	r3, [pc, #832]	; (8008d38 <_ZN5codal15STM32BluePillIOC1Ev+0xa40>)
 80089f6:	f240 3203 	movw	r2, #771	; 0x303
 80089fa:	214b      	movs	r1, #75	; 0x4b
 80089fc:	f504 6016 	add.w	r0, r4, #2400	; 0x960
 8008a00:	f7ff f9a8 	bl	8007d54 <_ZN5codal3_cm3PinC1EhmmtNS_13PinCapabilityE>
 8008a04:	9501      	str	r5, [sp, #4]
 8008a06:	f8cd 9000 	str.w	r9, [sp]
 8008a0a:	4bcb      	ldr	r3, [pc, #812]	; (8008d38 <_ZN5codal15STM32BluePillIOC1Ev+0xa40>)
 8008a0c:	f240 3203 	movw	r2, #771	; 0x303
 8008a10:	214c      	movs	r1, #76	; 0x4c
 8008a12:	f504 6018 	add.w	r0, r4, #2432	; 0x980
 8008a16:	f7ff f99d 	bl	8007d54 <_ZN5codal3_cm3PinC1EhmmtNS_13PinCapabilityE>
 8008a1a:	9501      	str	r5, [sp, #4]
 8008a1c:	f44f 5300 	mov.w	r3, #8192	; 0x2000
 8008a20:	9300      	str	r3, [sp, #0]
 8008a22:	4bc5      	ldr	r3, [pc, #788]	; (8008d38 <_ZN5codal15STM32BluePillIOC1Ev+0xa40>)
 8008a24:	f240 3203 	movw	r2, #771	; 0x303
 8008a28:	214d      	movs	r1, #77	; 0x4d
 8008a2a:	f504 601a 	add.w	r0, r4, #2464	; 0x9a0
 8008a2e:	f7ff f991 	bl	8007d54 <_ZN5codal3_cm3PinC1EhmmtNS_13PinCapabilityE>
 8008a32:	9501      	str	r5, [sp, #4]
 8008a34:	f44f 4380 	mov.w	r3, #16384	; 0x4000
 8008a38:	9300      	str	r3, [sp, #0]
 8008a3a:	4bbf      	ldr	r3, [pc, #764]	; (8008d38 <_ZN5codal15STM32BluePillIOC1Ev+0xa40>)
 8008a3c:	f240 3203 	movw	r2, #771	; 0x303
 8008a40:	214e      	movs	r1, #78	; 0x4e
 8008a42:	f504 601c 	add.w	r0, r4, #2496	; 0x9c0
 8008a46:	f7ff f985 	bl	8007d54 <_ZN5codal3_cm3PinC1EhmmtNS_13PinCapabilityE>
 8008a4a:	9501      	str	r5, [sp, #4]
 8008a4c:	9500      	str	r5, [sp, #0]
 8008a4e:	4bbb      	ldr	r3, [pc, #748]	; (8008d3c <_ZN5codal15STM32BluePillIOC1Ev+0xa44>)
 8008a50:	f240 3202 	movw	r2, #770	; 0x302
 8008a54:	214f      	movs	r1, #79	; 0x4f
 8008a56:	f504 601e 	add.w	r0, r4, #2528	; 0x9e0
 8008a5a:	f7ff f97b 	bl	8007d54 <_ZN5codal3_cm3PinC1EhmmtNS_13PinCapabilityE>
 8008a5e:	9501      	str	r5, [sp, #4]
 8008a60:	9700      	str	r7, [sp, #0]
 8008a62:	4bb6      	ldr	r3, [pc, #728]	; (8008d3c <_ZN5codal15STM32BluePillIOC1Ev+0xa44>)
 8008a64:	f240 3202 	movw	r2, #770	; 0x302
 8008a68:	2150      	movs	r1, #80	; 0x50
 8008a6a:	f504 6020 	add.w	r0, r4, #2560	; 0xa00
 8008a6e:	f7ff f971 	bl	8007d54 <_ZN5codal3_cm3PinC1EhmmtNS_13PinCapabilityE>
 8008a72:	9501      	str	r5, [sp, #4]
 8008a74:	f8cd 8000 	str.w	r8, [sp]
 8008a78:	4bb0      	ldr	r3, [pc, #704]	; (8008d3c <_ZN5codal15STM32BluePillIOC1Ev+0xa44>)
 8008a7a:	f240 3202 	movw	r2, #770	; 0x302
 8008a7e:	2151      	movs	r1, #81	; 0x51
 8008a80:	f504 6022 	add.w	r0, r4, #2592	; 0xa20
 8008a84:	f7ff f966 	bl	8007d54 <_ZN5codal3_cm3PinC1EhmmtNS_13PinCapabilityE>
 8008a88:	9501      	str	r5, [sp, #4]
 8008a8a:	f8cd a000 	str.w	sl, [sp]
 8008a8e:	4bab      	ldr	r3, [pc, #684]	; (8008d3c <_ZN5codal15STM32BluePillIOC1Ev+0xa44>)
 8008a90:	f240 3202 	movw	r2, #770	; 0x302
 8008a94:	2152      	movs	r1, #82	; 0x52
 8008a96:	f504 6024 	add.w	r0, r4, #2624	; 0xa40
 8008a9a:	f7ff f95b 	bl	8007d54 <_ZN5codal3_cm3PinC1EhmmtNS_13PinCapabilityE>
 8008a9e:	9501      	str	r5, [sp, #4]
 8008aa0:	2310      	movs	r3, #16
 8008aa2:	9300      	str	r3, [sp, #0]
 8008aa4:	4ba5      	ldr	r3, [pc, #660]	; (8008d3c <_ZN5codal15STM32BluePillIOC1Ev+0xa44>)
 8008aa6:	f240 3202 	movw	r2, #770	; 0x302
 8008aaa:	2153      	movs	r1, #83	; 0x53
 8008aac:	f504 6026 	add.w	r0, r4, #2656	; 0xa60
 8008ab0:	f7ff f950 	bl	8007d54 <_ZN5codal3_cm3PinC1EhmmtNS_13PinCapabilityE>
 8008ab4:	9501      	str	r5, [sp, #4]
 8008ab6:	f8cd a000 	str.w	sl, [sp]
 8008aba:	4ba1      	ldr	r3, [pc, #644]	; (8008d40 <_ZN5codal15STM32BluePillIOC1Ev+0xa48>)
 8008abc:	f240 3205 	movw	r2, #773	; 0x305
 8008ac0:	2154      	movs	r1, #84	; 0x54
 8008ac2:	f504 6028 	add.w	r0, r4, #2688	; 0xa80
 8008ac6:	f7ff f945 	bl	8007d54 <_ZN5codal3_cm3PinC1EhmmtNS_13PinCapabilityE>
 8008aca:	9501      	str	r5, [sp, #4]
 8008acc:	2310      	movs	r3, #16
 8008ace:	9300      	str	r3, [sp, #0]
 8008ad0:	4b9b      	ldr	r3, [pc, #620]	; (8008d40 <_ZN5codal15STM32BluePillIOC1Ev+0xa48>)
 8008ad2:	f240 3205 	movw	r2, #773	; 0x305
 8008ad6:	2155      	movs	r1, #85	; 0x55
 8008ad8:	f504 602a 	add.w	r0, r4, #2720	; 0xaa0
 8008adc:	f7ff f93a 	bl	8007d54 <_ZN5codal3_cm3PinC1EhmmtNS_13PinCapabilityE>
 8008ae0:	9501      	str	r5, [sp, #4]
 8008ae2:	2320      	movs	r3, #32
 8008ae4:	9300      	str	r3, [sp, #0]
 8008ae6:	4b96      	ldr	r3, [pc, #600]	; (8008d40 <_ZN5codal15STM32BluePillIOC1Ev+0xa48>)
 8008ae8:	f240 3205 	movw	r2, #773	; 0x305
 8008aec:	2156      	movs	r1, #86	; 0x56
 8008aee:	f504 602c 	add.w	r0, r4, #2752	; 0xac0
 8008af2:	f7ff f92f 	bl	8007d54 <_ZN5codal3_cm3PinC1EhmmtNS_13PinCapabilityE>
 8008af6:	9501      	str	r5, [sp, #4]
 8008af8:	9600      	str	r6, [sp, #0]
 8008afa:	4b91      	ldr	r3, [pc, #580]	; (8008d40 <_ZN5codal15STM32BluePillIOC1Ev+0xa48>)
 8008afc:	f240 3205 	movw	r2, #773	; 0x305
 8008b00:	2157      	movs	r1, #87	; 0x57
 8008b02:	f504 602e 	add.w	r0, r4, #2784	; 0xae0
 8008b06:	f7ff f925 	bl	8007d54 <_ZN5codal3_cm3PinC1EhmmtNS_13PinCapabilityE>
 8008b0a:	9501      	str	r5, [sp, #4]
 8008b0c:	2380      	movs	r3, #128	; 0x80
 8008b0e:	9300      	str	r3, [sp, #0]
 8008b10:	4b8b      	ldr	r3, [pc, #556]	; (8008d40 <_ZN5codal15STM32BluePillIOC1Ev+0xa48>)
 8008b12:	f240 3205 	movw	r2, #773	; 0x305
 8008b16:	2158      	movs	r1, #88	; 0x58
 8008b18:	f504 6030 	add.w	r0, r4, #2816	; 0xb00
 8008b1c:	f7ff f91a 	bl	8007d54 <_ZN5codal3_cm3PinC1EhmmtNS_13PinCapabilityE>
 8008b20:	9501      	str	r5, [sp, #4]
 8008b22:	f44f 7300 	mov.w	r3, #512	; 0x200
 8008b26:	9300      	str	r3, [sp, #0]
 8008b28:	f103 4380 	add.w	r3, r3, #1073741824	; 0x40000000
 8008b2c:	f503 3383 	add.w	r3, r3, #67072	; 0x10600
 8008b30:	f240 3202 	movw	r2, #770	; 0x302
 8008b34:	2159      	movs	r1, #89	; 0x59
 8008b36:	f504 6032 	add.w	r0, r4, #2848	; 0xb20
 8008b3a:	f7ff f90b 	bl	8007d54 <_ZN5codal3_cm3PinC1EhmmtNS_13PinCapabilityE>
 8008b3e:	9501      	str	r5, [sp, #4]
 8008b40:	f8cd b000 	str.w	fp, [sp]
 8008b44:	4b7d      	ldr	r3, [pc, #500]	; (8008d3c <_ZN5codal15STM32BluePillIOC1Ev+0xa44>)
 8008b46:	f240 3202 	movw	r2, #770	; 0x302
 8008b4a:	215a      	movs	r1, #90	; 0x5a
 8008b4c:	f504 6034 	add.w	r0, r4, #2880	; 0xb40
 8008b50:	f7ff f900 	bl	8007d54 <_ZN5codal3_cm3PinC1EhmmtNS_13PinCapabilityE>
 8008b54:	4e78      	ldr	r6, [pc, #480]	; (8008d38 <_ZN5codal15STM32BluePillIOC1Ev+0xa40>)
 8008b56:	9501      	str	r5, [sp, #4]
 8008b58:	f04f 0b40 	mov.w	fp, #64	; 0x40
 8008b5c:	f8cd b000 	str.w	fp, [sp]
 8008b60:	4633      	mov	r3, r6
 8008b62:	f240 3203 	movw	r2, #771	; 0x303
 8008b66:	215b      	movs	r1, #91	; 0x5b
 8008b68:	f504 6036 	add.w	r0, r4, #2912	; 0xb60
 8008b6c:	f7ff f8f2 	bl	8007d54 <_ZN5codal3_cm3PinC1EhmmtNS_13PinCapabilityE>
 8008b70:	9501      	str	r5, [sp, #4]
 8008b72:	f04f 0a80 	mov.w	sl, #128	; 0x80
 8008b76:	f8cd a000 	str.w	sl, [sp]
 8008b7a:	4633      	mov	r3, r6
 8008b7c:	f240 3203 	movw	r2, #771	; 0x303
 8008b80:	215c      	movs	r1, #92	; 0x5c
 8008b82:	f504 6038 	add.w	r0, r4, #2944	; 0xb80
 8008b86:	f7ff f8e5 	bl	8007d54 <_ZN5codal3_cm3PinC1EhmmtNS_13PinCapabilityE>
 8008b8a:	9501      	str	r5, [sp, #4]
 8008b8c:	2720      	movs	r7, #32
 8008b8e:	9700      	str	r7, [sp, #0]
 8008b90:	4633      	mov	r3, r6
 8008b92:	f240 3203 	movw	r2, #771	; 0x303
 8008b96:	215d      	movs	r1, #93	; 0x5d
 8008b98:	f504 603a 	add.w	r0, r4, #2976	; 0xba0
 8008b9c:	f7ff f8da 	bl	8007d54 <_ZN5codal3_cm3PinC1EhmmtNS_13PinCapabilityE>
 8008ba0:	9501      	str	r5, [sp, #4]
 8008ba2:	f8cd b000 	str.w	fp, [sp]
 8008ba6:	4633      	mov	r3, r6
 8008ba8:	f240 3203 	movw	r2, #771	; 0x303
 8008bac:	215e      	movs	r1, #94	; 0x5e
 8008bae:	f504 603c 	add.w	r0, r4, #3008	; 0xbc0
 8008bb2:	f7ff f8cf 	bl	8007d54 <_ZN5codal3_cm3PinC1EhmmtNS_13PinCapabilityE>
 8008bb6:	9501      	str	r5, [sp, #4]
 8008bb8:	f8cd a000 	str.w	sl, [sp]
 8008bbc:	4633      	mov	r3, r6
 8008bbe:	f240 3203 	movw	r2, #771	; 0x303
 8008bc2:	215f      	movs	r1, #95	; 0x5f
 8008bc4:	f504 603e 	add.w	r0, r4, #3040	; 0xbe0
 8008bc8:	f7ff f8c4 	bl	8007d54 <_ZN5codal3_cm3PinC1EhmmtNS_13PinCapabilityE>
 8008bcc:	9501      	str	r5, [sp, #4]
 8008bce:	9700      	str	r7, [sp, #0]
 8008bd0:	4633      	mov	r3, r6
 8008bd2:	f240 3203 	movw	r2, #771	; 0x303
 8008bd6:	2160      	movs	r1, #96	; 0x60
 8008bd8:	f504 6040 	add.w	r0, r4, #3072	; 0xc00
 8008bdc:	f7ff f8ba 	bl	8007d54 <_ZN5codal3_cm3PinC1EhmmtNS_13PinCapabilityE>
 8008be0:	9501      	str	r5, [sp, #4]
 8008be2:	f44f 7380 	mov.w	r3, #256	; 0x100
 8008be6:	9300      	str	r3, [sp, #0]
 8008be8:	4633      	mov	r3, r6
 8008bea:	f240 3203 	movw	r2, #771	; 0x303
 8008bee:	2161      	movs	r1, #97	; 0x61
 8008bf0:	f504 6042 	add.w	r0, r4, #3104	; 0xc20
 8008bf4:	f7ff f8ae 	bl	8007d54 <_ZN5codal3_cm3PinC1EhmmtNS_13PinCapabilityE>
 8008bf8:	9501      	str	r5, [sp, #4]
 8008bfa:	f44f 7300 	mov.w	r3, #512	; 0x200
 8008bfe:	9300      	str	r3, [sp, #0]
 8008c00:	4633      	mov	r3, r6
 8008c02:	f240 3203 	movw	r2, #771	; 0x303
 8008c06:	2162      	movs	r1, #98	; 0x62
 8008c08:	f504 6044 	add.w	r0, r4, #3136	; 0xc40
 8008c0c:	f7ff f8a2 	bl	8007d54 <_ZN5codal3_cm3PinC1EhmmtNS_13PinCapabilityE>
 8008c10:	9501      	str	r5, [sp, #4]
 8008c12:	f44f 6380 	mov.w	r3, #1024	; 0x400
 8008c16:	9300      	str	r3, [sp, #0]
 8008c18:	4633      	mov	r3, r6
 8008c1a:	f240 3203 	movw	r2, #771	; 0x303
 8008c1e:	2163      	movs	r1, #99	; 0x63
 8008c20:	f504 6046 	add.w	r0, r4, #3168	; 0xc60
 8008c24:	f7ff f896 	bl	8007d54 <_ZN5codal3_cm3PinC1EhmmtNS_13PinCapabilityE>
 8008c28:	9501      	str	r5, [sp, #4]
 8008c2a:	f44f 6300 	mov.w	r3, #2048	; 0x800
 8008c2e:	9300      	str	r3, [sp, #0]
 8008c30:	4633      	mov	r3, r6
 8008c32:	f240 3203 	movw	r2, #771	; 0x303
 8008c36:	2164      	movs	r1, #100	; 0x64
 8008c38:	f504 6048 	add.w	r0, r4, #3200	; 0xc80
 8008c3c:	f7ff f88a 	bl	8007d54 <_ZN5codal3_cm3PinC1EhmmtNS_13PinCapabilityE>
 8008c40:	9501      	str	r5, [sp, #4]
 8008c42:	f8cd 9000 	str.w	r9, [sp]
 8008c46:	4633      	mov	r3, r6
 8008c48:	f240 3203 	movw	r2, #771	; 0x303
 8008c4c:	2165      	movs	r1, #101	; 0x65
 8008c4e:	f504 604a 	add.w	r0, r4, #3232	; 0xca0
 8008c52:	f7ff f87f 	bl	8007d54 <_ZN5codal3_cm3PinC1EhmmtNS_13PinCapabilityE>
 8008c56:	9501      	str	r5, [sp, #4]
 8008c58:	f04f 0810 	mov.w	r8, #16
 8008c5c:	f8cd 8000 	str.w	r8, [sp]
 8008c60:	4b36      	ldr	r3, [pc, #216]	; (8008d3c <_ZN5codal15STM32BluePillIOC1Ev+0xa44>)
 8008c62:	f240 3202 	movw	r2, #770	; 0x302
 8008c66:	2166      	movs	r1, #102	; 0x66
 8008c68:	f504 604c 	add.w	r0, r4, #3264	; 0xcc0
 8008c6c:	f7ff f872 	bl	8007d54 <_ZN5codal3_cm3PinC1EhmmtNS_13PinCapabilityE>
 8008c70:	9501      	str	r5, [sp, #4]
 8008c72:	9700      	str	r7, [sp, #0]
 8008c74:	4b31      	ldr	r3, [pc, #196]	; (8008d3c <_ZN5codal15STM32BluePillIOC1Ev+0xa44>)
 8008c76:	f240 3202 	movw	r2, #770	; 0x302
 8008c7a:	2167      	movs	r1, #103	; 0x67
 8008c7c:	f504 604e 	add.w	r0, r4, #3296	; 0xce0
 8008c80:	f7ff f868 	bl	8007d54 <_ZN5codal3_cm3PinC1EhmmtNS_13PinCapabilityE>
 8008c84:	9501      	str	r5, [sp, #4]
 8008c86:	f8cd b000 	str.w	fp, [sp]
 8008c8a:	4b2c      	ldr	r3, [pc, #176]	; (8008d3c <_ZN5codal15STM32BluePillIOC1Ev+0xa44>)
 8008c8c:	f240 3202 	movw	r2, #770	; 0x302
 8008c90:	2168      	movs	r1, #104	; 0x68
 8008c92:	f504 6050 	add.w	r0, r4, #3328	; 0xd00
 8008c96:	f7ff f85d 	bl	8007d54 <_ZN5codal3_cm3PinC1EhmmtNS_13PinCapabilityE>
 8008c9a:	9501      	str	r5, [sp, #4]
 8008c9c:	f8cd a000 	str.w	sl, [sp]
 8008ca0:	4b26      	ldr	r3, [pc, #152]	; (8008d3c <_ZN5codal15STM32BluePillIOC1Ev+0xa44>)
 8008ca2:	f240 3202 	movw	r2, #770	; 0x302
 8008ca6:	2169      	movs	r1, #105	; 0x69
 8008ca8:	f504 6052 	add.w	r0, r4, #3360	; 0xd20
 8008cac:	f7ff f852 	bl	8007d54 <_ZN5codal3_cm3PinC1EhmmtNS_13PinCapabilityE>
 8008cb0:	9501      	str	r5, [sp, #4]
 8008cb2:	f44f 4a00 	mov.w	sl, #32768	; 0x8000
 8008cb6:	f8cd a000 	str.w	sl, [sp]
 8008cba:	4b20      	ldr	r3, [pc, #128]	; (8008d3c <_ZN5codal15STM32BluePillIOC1Ev+0xa44>)
 8008cbc:	f240 3202 	movw	r2, #770	; 0x302
 8008cc0:	216a      	movs	r1, #106	; 0x6a
 8008cc2:	f504 6054 	add.w	r0, r4, #3392	; 0xd40
 8008cc6:	f7ff f845 	bl	8007d54 <_ZN5codal3_cm3PinC1EhmmtNS_13PinCapabilityE>
 8008cca:	9501      	str	r5, [sp, #4]
 8008ccc:	2308      	movs	r3, #8
 8008cce:	9300      	str	r3, [sp, #0]
 8008cd0:	4633      	mov	r3, r6
 8008cd2:	f240 3203 	movw	r2, #771	; 0x303
 8008cd6:	216b      	movs	r1, #107	; 0x6b
 8008cd8:	f504 6056 	add.w	r0, r4, #3424	; 0xd60
 8008cdc:	f7ff f83a 	bl	8007d54 <_ZN5codal3_cm3PinC1EhmmtNS_13PinCapabilityE>
 8008ce0:	9501      	str	r5, [sp, #4]
 8008ce2:	f8cd 8000 	str.w	r8, [sp]
 8008ce6:	4633      	mov	r3, r6
 8008ce8:	f240 3203 	movw	r2, #771	; 0x303
 8008cec:	216c      	movs	r1, #108	; 0x6c
 8008cee:	f504 6058 	add.w	r0, r4, #3456	; 0xd80
 8008cf2:	f7ff f82f 	bl	8007d54 <_ZN5codal3_cm3PinC1EhmmtNS_13PinCapabilityE>
 8008cf6:	9501      	str	r5, [sp, #4]
 8008cf8:	9700      	str	r7, [sp, #0]
 8008cfa:	4633      	mov	r3, r6
 8008cfc:	f240 3203 	movw	r2, #771	; 0x303
 8008d00:	216d      	movs	r1, #109	; 0x6d
 8008d02:	f504 605a 	add.w	r0, r4, #3488	; 0xda0
 8008d06:	f7ff f825 	bl	8007d54 <_ZN5codal3_cm3PinC1EhmmtNS_13PinCapabilityE>
 8008d0a:	9501      	str	r5, [sp, #4]
 8008d0c:	f8cd 9000 	str.w	r9, [sp]
 8008d10:	4633      	mov	r3, r6
 8008d12:	f240 3203 	movw	r2, #771	; 0x303
 8008d16:	216e      	movs	r1, #110	; 0x6e
 8008d18:	f504 605c 	add.w	r0, r4, #3520	; 0xdc0
 8008d1c:	f7ff f81a 	bl	8007d54 <_ZN5codal3_cm3PinC1EhmmtNS_13PinCapabilityE>
 8008d20:	9501      	str	r5, [sp, #4]
 8008d22:	f44f 5b00 	mov.w	fp, #8192	; 0x2000
 8008d26:	f8cd b000 	str.w	fp, [sp]
 8008d2a:	4633      	mov	r3, r6
 8008d2c:	f240 3203 	movw	r2, #771	; 0x303
 8008d30:	216f      	movs	r1, #111	; 0x6f
 8008d32:	f504 605e 	add.w	r0, r4, #3552	; 0xde0
 8008d36:	e005      	b.n	8008d44 <_ZN5codal15STM32BluePillIOC1Ev+0xa4c>
 8008d38:	40010c00 	.word	0x40010c00
 8008d3c:	40010800 	.word	0x40010800
 8008d40:	40011400 	.word	0x40011400
 8008d44:	f7ff f806 	bl	8007d54 <_ZN5codal3_cm3PinC1EhmmtNS_13PinCapabilityE>
 8008d48:	9501      	str	r5, [sp, #4]
 8008d4a:	f44f 4380 	mov.w	r3, #16384	; 0x4000
 8008d4e:	9300      	str	r3, [sp, #0]
 8008d50:	4633      	mov	r3, r6
 8008d52:	f240 3203 	movw	r2, #771	; 0x303
 8008d56:	2170      	movs	r1, #112	; 0x70
 8008d58:	f504 6060 	add.w	r0, r4, #3584	; 0xe00
 8008d5c:	f7fe fffa 	bl	8007d54 <_ZN5codal3_cm3PinC1EhmmtNS_13PinCapabilityE>
 8008d60:	9501      	str	r5, [sp, #4]
 8008d62:	f8cd a000 	str.w	sl, [sp]
 8008d66:	4633      	mov	r3, r6
 8008d68:	f240 3203 	movw	r2, #771	; 0x303
 8008d6c:	2171      	movs	r1, #113	; 0x71
 8008d6e:	f504 6062 	add.w	r0, r4, #3616	; 0xe20
 8008d72:	f7fe ffef 	bl	8007d54 <_ZN5codal3_cm3PinC1EhmmtNS_13PinCapabilityE>
 8008d76:	9501      	str	r5, [sp, #4]
 8008d78:	f8cd a000 	str.w	sl, [sp]
 8008d7c:	4b33      	ldr	r3, [pc, #204]	; (8008e4c <_ZN5codal15STM32BluePillIOC1Ev+0xb54>)
 8008d7e:	f240 3202 	movw	r2, #770	; 0x302
 8008d82:	2172      	movs	r1, #114	; 0x72
 8008d84:	f504 6064 	add.w	r0, r4, #3648	; 0xe40
 8008d88:	f7fe ffe4 	bl	8007d54 <_ZN5codal3_cm3PinC1EhmmtNS_13PinCapabilityE>
 8008d8c:	9501      	str	r5, [sp, #4]
 8008d8e:	2308      	movs	r3, #8
 8008d90:	9300      	str	r3, [sp, #0]
 8008d92:	4633      	mov	r3, r6
 8008d94:	f240 3203 	movw	r2, #771	; 0x303
 8008d98:	2173      	movs	r1, #115	; 0x73
 8008d9a:	f504 6066 	add.w	r0, r4, #3680	; 0xe60
 8008d9e:	f7fe ffd9 	bl	8007d54 <_ZN5codal3_cm3PinC1EhmmtNS_13PinCapabilityE>
 8008da2:	9501      	str	r5, [sp, #4]
 8008da4:	f8cd 8000 	str.w	r8, [sp]
 8008da8:	4633      	mov	r3, r6
 8008daa:	f240 3203 	movw	r2, #771	; 0x303
 8008dae:	2174      	movs	r1, #116	; 0x74
 8008db0:	f504 6068 	add.w	r0, r4, #3712	; 0xe80
 8008db4:	f7fe ffce 	bl	8007d54 <_ZN5codal3_cm3PinC1EhmmtNS_13PinCapabilityE>
 8008db8:	9501      	str	r5, [sp, #4]
 8008dba:	9700      	str	r7, [sp, #0]
 8008dbc:	4633      	mov	r3, r6
 8008dbe:	f240 3203 	movw	r2, #771	; 0x303
 8008dc2:	2175      	movs	r1, #117	; 0x75
 8008dc4:	f504 606a 	add.w	r0, r4, #3744	; 0xea0
 8008dc8:	f7fe ffc4 	bl	8007d54 <_ZN5codal3_cm3PinC1EhmmtNS_13PinCapabilityE>
 8008dcc:	9501      	str	r5, [sp, #4]
 8008dce:	f8cd 8000 	str.w	r8, [sp]
 8008dd2:	4b1e      	ldr	r3, [pc, #120]	; (8008e4c <_ZN5codal15STM32BluePillIOC1Ev+0xb54>)
 8008dd4:	f240 3202 	movw	r2, #770	; 0x302
 8008dd8:	2176      	movs	r1, #118	; 0x76
 8008dda:	f504 606c 	add.w	r0, r4, #3776	; 0xec0
 8008dde:	f7fe ffb9 	bl	8007d54 <_ZN5codal3_cm3PinC1EhmmtNS_13PinCapabilityE>
 8008de2:	f506 6680 	add.w	r6, r6, #1024	; 0x400
 8008de6:	9501      	str	r5, [sp, #4]
 8008de8:	f44f 6380 	mov.w	r3, #1024	; 0x400
 8008dec:	9300      	str	r3, [sp, #0]
 8008dee:	4633      	mov	r3, r6
 8008df0:	f44f 7241 	mov.w	r2, #772	; 0x304
 8008df4:	2177      	movs	r1, #119	; 0x77
 8008df6:	f504 606e 	add.w	r0, r4, #3808	; 0xee0
 8008dfa:	f7fe ffab 	bl	8007d54 <_ZN5codal3_cm3PinC1EhmmtNS_13PinCapabilityE>
 8008dfe:	9501      	str	r5, [sp, #4]
 8008e00:	f44f 6300 	mov.w	r3, #2048	; 0x800
 8008e04:	9300      	str	r3, [sp, #0]
 8008e06:	4633      	mov	r3, r6
 8008e08:	f44f 7241 	mov.w	r2, #772	; 0x304
 8008e0c:	2178      	movs	r1, #120	; 0x78
 8008e0e:	f504 6070 	add.w	r0, r4, #3840	; 0xf00
 8008e12:	f7fe ff9f 	bl	8007d54 <_ZN5codal3_cm3PinC1EhmmtNS_13PinCapabilityE>
 8008e16:	9501      	str	r5, [sp, #4]
 8008e18:	f8cd 9000 	str.w	r9, [sp]
 8008e1c:	4633      	mov	r3, r6
 8008e1e:	f44f 7241 	mov.w	r2, #772	; 0x304
 8008e22:	2179      	movs	r1, #121	; 0x79
 8008e24:	f504 6072 	add.w	r0, r4, #3872	; 0xf20
 8008e28:	f7fe ff94 	bl	8007d54 <_ZN5codal3_cm3PinC1EhmmtNS_13PinCapabilityE>
 8008e2c:	9501      	str	r5, [sp, #4]
 8008e2e:	f8cd b000 	str.w	fp, [sp]
 8008e32:	4633      	mov	r3, r6
 8008e34:	f44f 7241 	mov.w	r2, #772	; 0x304
 8008e38:	217a      	movs	r1, #122	; 0x7a
 8008e3a:	f504 6074 	add.w	r0, r4, #3904	; 0xf40
 8008e3e:	f7fe ff89 	bl	8007d54 <_ZN5codal3_cm3PinC1EhmmtNS_13PinCapabilityE>
vbat        (CM_PIN_VBAT       , RCC_GPIOADC, GPIOADC, GPIOVBAT, PIN_CAPABILITY_DIGITAL),
#endif  //  TODO

//  End of autogenerated section
{
}
 8008e42:	4620      	mov	r0, r4
 8008e44:	b003      	add	sp, #12
 8008e46:	e8bd 8ff0 	ldmia.w	sp!, {r4, r5, r6, r7, r8, r9, sl, fp, pc}
 8008e4a:	bf00      	nop
 8008e4c:	40010800 	.word	0x40010800

08008e50 <_Z41__static_initialization_and_destruction_0ii>:

void UARTInterface::write(uint8_t ch) {
    //  Send the byte to the UART port.
    //  debug_println("uart_write"); debug_flush();
    usart_send(USART2, ch);
}
 8008e50:	2801      	cmp	r0, #1
 8008e52:	d000      	beq.n	8008e56 <_Z41__static_initialization_and_destruction_0ii+0x6>
 8008e54:	4770      	bx	lr
 8008e56:	f64f 73ff 	movw	r3, #65535	; 0xffff
 8008e5a:	4299      	cmp	r1, r3
 8008e5c:	d1fa      	bne.n	8008e54 <_Z41__static_initialization_and_destruction_0ii+0x4>
      constexpr __atomic_base(__int_type __i) noexcept : _M_i (__i) { }
 8008e5e:	4b02      	ldr	r3, [pc, #8]	; (8008e68 <_Z41__static_initialization_and_destruction_0ii+0x18>)
 8008e60:	2200      	movs	r2, #0
 8008e62:	601a      	str	r2, [r3, #0]
 8008e64:	641a      	str	r2, [r3, #64]	; 0x40
 8008e66:	e7f5      	b.n	8008e54 <_Z41__static_initialization_and_destruction_0ii+0x4>
 8008e68:	20002194 	.word	0x20002194

08008e6c <_ZN5codal3_cm3I2CC1ERNS_3PinES3_>:
            int res = HAL_I2C_Init(&i2c);
            CODAL_ASSERT(res == HAL_OK);
#endif  //  TODO            
        }

        I2C::I2C(codal::Pin &sda, codal::Pin &scl) : codal::I2C(sda, scl), sda(sda), scl(scl)
 8008e6c:	b570      	push	{r4, r5, r6, lr}
 8008e6e:	4604      	mov	r4, r0
 8008e70:	460e      	mov	r6, r1
 8008e72:	4615      	mov	r5, r2
 8008e74:	f000 f8c2 	bl	8008ffc <_ZN5codal3I2CC1ERNS_3PinES2_>
 8008e78:	4b02      	ldr	r3, [pc, #8]	; (8008e84 <_ZN5codal3_cm3I2CC1ERNS_3PinES3_+0x18>)
 8008e7a:	6023      	str	r3, [r4, #0]
 8008e7c:	6066      	str	r6, [r4, #4]
 8008e7e:	60a5      	str	r5, [r4, #8]
            i2c.Init.OwnAddress1 = 0xFE;
            i2c.Init.OwnAddress2 = 0xFE;

            needsInit = true;
#endif  //  TODO            
        }
 8008e80:	4620      	mov	r0, r4
 8008e82:	bd70      	pop	{r4, r5, r6, pc}
 8008e84:	0800a6f4 	.word	0x0800a6f4

08008e88 <_ZN5codal3_cm3SPI4initEv>:
            p->setup(mode, cnf);
            CODAL_ASSERT(!prev || prev == peri);
            return peri;
        }

        void SPI::init() {
 8008e88:	b538      	push	{r3, r4, r5, lr}
            auto res = HAL_OK;
            if (!needsInit) { return; }
 8008e8a:	f890 3020 	ldrb.w	r3, [r0, #32]
 8008e8e:	b903      	cbnz	r3, 8008e92 <_ZN5codal3_cm3SPI4initEv+0xa>
            }
            spi.Init.BaudRatePrescaler = SPI_BAUDRATEPRESCALER_4;
            auto res = HAL_SPI_Init(&spi);
#endif  //  TODO
            CODAL_ASSERT(res == HAL_OK);
        }
 8008e90:	bd38      	pop	{r3, r4, r5, pc}
 8008e92:	4604      	mov	r4, r0
            needsInit = false;
 8008e94:	2500      	movs	r5, #0
 8008e96:	f880 5020 	strb.w	r5, [r0, #32]
            uint32_t instance = _codal_setup_pin(sclk, 0, PinMap_SPI_SCK);
 8008e9a:	4a0d      	ldr	r2, [pc, #52]	; (8008ed0 <_ZN5codal3_cm3SPI4initEv+0x48>)
 8008e9c:	4629      	mov	r1, r5
 8008e9e:	68c0      	ldr	r0, [r0, #12]
 8008ea0:	f001 f8b1 	bl	800a006 <_ZN5codal3_cm16_codal_setup_pinEPNS0_3PinEmPK6PinMap>
            instance = _codal_setup_pin(miso, 0, PinMap_SPI_MISO);
 8008ea4:	4a0b      	ldr	r2, [pc, #44]	; (8008ed4 <_ZN5codal3_cm3SPI4initEv+0x4c>)
 8008ea6:	4629      	mov	r1, r5
 8008ea8:	68a0      	ldr	r0, [r4, #8]
 8008eaa:	f001 f8ac 	bl	800a006 <_ZN5codal3_cm16_codal_setup_pinEPNS0_3PinEmPK6PinMap>
            instance = _codal_setup_pin(mosi, 0, PinMap_SPI_MOSI);
 8008eae:	4a0a      	ldr	r2, [pc, #40]	; (8008ed8 <_ZN5codal3_cm3SPI4initEv+0x50>)
 8008eb0:	4629      	mov	r1, r5
 8008eb2:	6860      	ldr	r0, [r4, #4]
 8008eb4:	f001 f8a7 	bl	800a006 <_ZN5codal3_cm16_codal_setup_pinEPNS0_3PinEmPK6PinMap>
            instance = _codal_setup_pin(nss, 0, PinMap_SPI_NSS);
 8008eb8:	4a08      	ldr	r2, [pc, #32]	; (8008edc <_ZN5codal3_cm3SPI4initEv+0x54>)
 8008eba:	4629      	mov	r1, r5
 8008ebc:	6920      	ldr	r0, [r4, #16]
 8008ebe:	f001 f8a2 	bl	800a006 <_ZN5codal3_cm16_codal_setup_pinEPNS0_3PinEmPK6PinMap>
            LOG("SPI instance %p", instance);
 8008ec2:	4807      	ldr	r0, [pc, #28]	; (8008ee0 <_ZN5codal3_cm3SPI4initEv+0x58>)
 8008ec4:	f7f9 fcd4 	bl	8002870 <debug_println>
 8008ec8:	f7f9 fcf9 	bl	80028be <debug_flush>
 8008ecc:	e7e0      	b.n	8008e90 <_ZN5codal3_cm3SPI4initEv+0x8>
 8008ece:	bf00      	nop
 8008ed0:	0800a6a4 	.word	0x0800a6a4
 8008ed4:	0800a5cc 	.word	0x0800a5cc
 8008ed8:	0800a614 	.word	0x0800a614
 8008edc:	0800a65c 	.word	0x0800a65c
 8008ee0:	0800a718 	.word	0x0800a718

08008ee4 <_ZN5codal3_cm3SPIC1ERNS0_3PinES3_S3_S3_>:
            debug_print(" sclk "); debug_print(sclk.name); 
            debug_println(""); debug_flush();
        }

        //  New constructor.  Called by codal-libopencm3.
        SPI::SPI(Pin &mosi, Pin &miso, Pin &sclk, Pin &nss) : codal::SPI() {
 8008ee4:	e92d 41f0 	stmdb	sp!, {r4, r5, r6, r7, r8, lr}
 8008ee8:	4604      	mov	r4, r0
 8008eea:	4688      	mov	r8, r1
 8008eec:	4617      	mov	r7, r2
 8008eee:	461e      	mov	r6, r3
 8008ef0:	9d06      	ldr	r5, [sp, #24]
 8008ef2:	4b1c      	ldr	r3, [pc, #112]	; (8008f64 <_ZN5codal3_cm3SPIC1ERNS0_3PinES3_S3_S3_+0x80>)
 8008ef4:	6003      	str	r3, [r0, #0]
            this->mosi = &mosi;
 8008ef6:	6061      	str	r1, [r4, #4]
            this->miso = &miso;
 8008ef8:	60a2      	str	r2, [r4, #8]
            this->sclk = &sclk;
 8008efa:	60c6      	str	r6, [r0, #12]
            this->nss = &nss;
 8008efc:	6105      	str	r5, [r0, #16]
            // ZERO(spi); ZERO(hdma_tx); ZERO(hdma_rx);
            this->needsInit = true;
 8008efe:	2301      	movs	r3, #1
 8008f00:	f880 3020 	strb.w	r3, [r0, #32]
            this->transferCompleteEventCode = codal::allocateNotifyEvent();
 8008f04:	f7fe fda2 	bl	8007a4c <_ZN5codal19allocateNotifyEventEv>
 8008f08:	84a0      	strh	r0, [r4, #36]	; 0x24
            for (unsigned i = 0; i < ARRAY_SIZE(_instances); ++i) {
 8008f0a:	2300      	movs	r3, #0
 8008f0c:	2b03      	cmp	r3, #3
 8008f0e:	d808      	bhi.n	8008f22 <_ZN5codal3_cm3SPIC1ERNS0_3PinES3_S3_S3_+0x3e>
                if (_instances[i] == NULL) {
 8008f10:	4a15      	ldr	r2, [pc, #84]	; (8008f68 <_ZN5codal3_cm3SPIC1ERNS0_3PinES3_S3_S3_+0x84>)
 8008f12:	f852 2023 	ldr.w	r2, [r2, r3, lsl #2]
 8008f16:	b10a      	cbz	r2, 8008f1c <_ZN5codal3_cm3SPIC1ERNS0_3PinES3_S3_S3_+0x38>
            for (unsigned i = 0; i < ARRAY_SIZE(_instances); ++i) {
 8008f18:	3301      	adds	r3, #1
 8008f1a:	e7f7      	b.n	8008f0c <_ZN5codal3_cm3SPIC1ERNS0_3PinES3_S3_S3_+0x28>
                    _instances[i] = this;
 8008f1c:	4a12      	ldr	r2, [pc, #72]	; (8008f68 <_ZN5codal3_cm3SPIC1ERNS0_3PinES3_S3_S3_+0x84>)
 8008f1e:	f842 4023 	str.w	r4, [r2, r3, lsl #2]
                    break;
                }
            }
            debug_print("spi mosi "); debug_print(mosi.name); 
 8008f22:	4812      	ldr	r0, [pc, #72]	; (8008f6c <_ZN5codal3_cm3SPIC1ERNS0_3PinES3_S3_S3_+0x88>)
 8008f24:	f7f9 fcd0 	bl	80028c8 <debug_print>
 8008f28:	f898 0010 	ldrb.w	r0, [r8, #16]
 8008f2c:	f7f9 fc86 	bl	800283c <_Z11debug_printi>
            debug_print(" miso "); debug_print(miso.name); 
 8008f30:	480f      	ldr	r0, [pc, #60]	; (8008f70 <_ZN5codal3_cm3SPIC1ERNS0_3PinES3_S3_S3_+0x8c>)
 8008f32:	f7f9 fcc9 	bl	80028c8 <debug_print>
 8008f36:	7c38      	ldrb	r0, [r7, #16]
 8008f38:	f7f9 fc80 	bl	800283c <_Z11debug_printi>
            debug_print(" sclk "); debug_print(sclk.name); 
 8008f3c:	480d      	ldr	r0, [pc, #52]	; (8008f74 <_ZN5codal3_cm3SPIC1ERNS0_3PinES3_S3_S3_+0x90>)
 8008f3e:	f7f9 fcc3 	bl	80028c8 <debug_print>
 8008f42:	7c30      	ldrb	r0, [r6, #16]
 8008f44:	f7f9 fc7a 	bl	800283c <_Z11debug_printi>
            debug_print(" nss "); debug_print(nss.name); 
 8008f48:	480b      	ldr	r0, [pc, #44]	; (8008f78 <_ZN5codal3_cm3SPIC1ERNS0_3PinES3_S3_S3_+0x94>)
 8008f4a:	f7f9 fcbd 	bl	80028c8 <debug_print>
 8008f4e:	7c28      	ldrb	r0, [r5, #16]
 8008f50:	f7f9 fc74 	bl	800283c <_Z11debug_printi>
            debug_println(""); debug_flush();
 8008f54:	4809      	ldr	r0, [pc, #36]	; (8008f7c <_ZN5codal3_cm3SPIC1ERNS0_3PinES3_S3_S3_+0x98>)
 8008f56:	f7f9 fc8b 	bl	8002870 <debug_println>
 8008f5a:	f7f9 fcb0 	bl	80028be <debug_flush>
        }
 8008f5e:	4620      	mov	r0, r4
 8008f60:	e8bd 81f0 	ldmia.w	sp!, {r4, r5, r6, r7, r8, pc}
 8008f64:	0800a768 	.word	0x0800a768
 8008f68:	20002200 	.word	0x20002200
 8008f6c:	0800a74c 	.word	0x0800a74c
 8008f70:	0800a73c 	.word	0x0800a73c
 8008f74:	0800a744 	.word	0x0800a744
 8008f78:	0800a758 	.word	0x0800a758
 8008f7c:	0800a428 	.word	0x0800a428

08008f80 <pinmap_peripheral>:

static CmPeripheral pinmap_find_peripheral(codal::PinNumber pin, const PinMap *map);
static CmPinMode pinmap_find_mode(codal::PinNumber pin, const PinMap *map);
static CmPinCnf pinmap_find_cnf(codal::PinNumber pin, const PinMap *map);

CmPeripheral pinmap_peripheral(codal::PinNumber pin, const PinMap* map) {
 8008f80:	b510      	push	{r4, lr}
    //  Return the peripheral for the pin e.g. SPI1.
    CmPeripheral peripheral = CM_PERIPHERAL_NC;
    if (pin == CM_PIN_NC) { return CM_PERIPHERAL_NC; }
 8008f82:	28ff      	cmp	r0, #255	; 0xff
 8008f84:	d00d      	beq.n	8008fa2 <pinmap_peripheral+0x22>

    peripheral = pinmap_find_peripheral(pin, map);
 8008f86:	f001 f87d 	bl	800a084 <_ZL22pinmap_find_peripheralhPK6PinMap>
 8008f8a:	4604      	mov	r4, r0
    if (peripheral == CM_PERIPHERAL_NC) // no mapping available
 8008f8c:	f1b0 3fff 	cmp.w	r0, #4294967295	; 0xffffffff
 8008f90:	d001      	beq.n	8008f96 <pinmap_peripheral+0x16>
        { error("pinmap not found for peripheral"); }
    return peripheral;
}
 8008f92:	4620      	mov	r0, r4
 8008f94:	bd10      	pop	{r4, pc}
        { error("pinmap not found for peripheral"); }
 8008f96:	4804      	ldr	r0, [pc, #16]	; (8008fa8 <pinmap_peripheral+0x28>)
 8008f98:	f7f9 fc6a 	bl	8002870 <debug_println>
 8008f9c:	f7f9 fc8f 	bl	80028be <debug_flush>
 8008fa0:	e7f7      	b.n	8008f92 <pinmap_peripheral+0x12>
    if (pin == CM_PIN_NC) { return CM_PERIPHERAL_NC; }
 8008fa2:	f04f 34ff 	mov.w	r4, #4294967295	; 0xffffffff
 8008fa6:	e7f4      	b.n	8008f92 <pinmap_peripheral+0x12>
 8008fa8:	0800a7b4 	.word	0x0800a7b4

08008fac <pinmap_mode>:

CmPinMode pinmap_mode(codal::PinNumber pin, const PinMap* map) {
 8008fac:	b510      	push	{r4, lr}
    //  Return the pin mode for the peripheral e.g. GPIO_MODE_OUTPUT_2_MHZ.
    CmPinMode mode = CM_PINMODE_NC;
    if (pin == CM_PIN_NC) { return CM_PINMODE_NC; }
 8008fae:	28ff      	cmp	r0, #255	; 0xff
 8008fb0:	d00c      	beq.n	8008fcc <pinmap_mode+0x20>

    mode = pinmap_find_mode(pin, map);
 8008fb2:	f001 f873 	bl	800a09c <_ZL16pinmap_find_modehPK6PinMap>
 8008fb6:	4604      	mov	r4, r0
    if (mode == CM_PINMODE_NC) // no mapping available
 8008fb8:	28ff      	cmp	r0, #255	; 0xff
 8008fba:	d001      	beq.n	8008fc0 <pinmap_mode+0x14>
        { error("pinmap not found for mode"); }
    return mode;
}
 8008fbc:	4620      	mov	r0, r4
 8008fbe:	bd10      	pop	{r4, pc}
        { error("pinmap not found for mode"); }
 8008fc0:	4803      	ldr	r0, [pc, #12]	; (8008fd0 <pinmap_mode+0x24>)
 8008fc2:	f7f9 fc55 	bl	8002870 <debug_println>
 8008fc6:	f7f9 fc7a 	bl	80028be <debug_flush>
 8008fca:	e7f7      	b.n	8008fbc <pinmap_mode+0x10>
    if (pin == CM_PIN_NC) { return CM_PINMODE_NC; }
 8008fcc:	24ff      	movs	r4, #255	; 0xff
 8008fce:	e7f5      	b.n	8008fbc <pinmap_mode+0x10>
 8008fd0:	0800a798 	.word	0x0800a798

08008fd4 <pinmap_cnf>:

CmPinCnf pinmap_cnf(codal::PinNumber pin, const PinMap* map) {
 8008fd4:	b510      	push	{r4, lr}
    //  Return the pin config for the peripheral e.g. GPIO_CNF_OUTPUT_PUSHPULL.
    CmPinCnf cnf = CM_PINCNF_NC;
    if (pin == CM_PIN_NC) { return CM_PINCNF_NC; }
 8008fd6:	28ff      	cmp	r0, #255	; 0xff
 8008fd8:	d00c      	beq.n	8008ff4 <pinmap_cnf+0x20>

    cnf = pinmap_find_cnf(pin, map);
 8008fda:	f001 f86a 	bl	800a0b2 <_ZL15pinmap_find_cnfhPK6PinMap>
 8008fde:	4604      	mov	r4, r0
    if (cnf == CM_PINCNF_NC) // no mapping available
 8008fe0:	28ff      	cmp	r0, #255	; 0xff
 8008fe2:	d001      	beq.n	8008fe8 <pinmap_cnf+0x14>
        { error("pinmap not found for cnf"); }
    return cnf;
}
 8008fe4:	4620      	mov	r0, r4
 8008fe6:	bd10      	pop	{r4, pc}
        { error("pinmap not found for cnf"); }
 8008fe8:	4803      	ldr	r0, [pc, #12]	; (8008ff8 <pinmap_cnf+0x24>)
 8008fea:	f7f9 fc41 	bl	8002870 <debug_println>
 8008fee:	f7f9 fc66 	bl	80028be <debug_flush>
 8008ff2:	e7f7      	b.n	8008fe4 <pinmap_cnf+0x10>
    if (pin == CM_PIN_NC) { return CM_PINCNF_NC; }
 8008ff4:	24ff      	movs	r4, #255	; 0xff
 8008ff6:	e7f5      	b.n	8008fe4 <pinmap_cnf+0x10>
 8008ff8:	0800a77c 	.word	0x0800a77c

08008ffc <_ZN5codal3I2CC1ERNS_3PinES2_>:
namespace codal
{
/**
  * Constructor.
  */
I2C::I2C(Pin &sda, Pin &scl)
 8008ffc:	4b01      	ldr	r3, [pc, #4]	; (8009004 <_ZN5codal3I2CC1ERNS_3PinES2_+0x8>)
 8008ffe:	6003      	str	r3, [r0, #0]
{
}
 8009000:	4770      	bx	lr
 8009002:	bf00      	nop
 8009004:	0800a7dc 	.word	0x0800a7dc

08009008 <_ZN5codal14CodalComponent16periodicCallbackEv>:
        virtual void periodicCallback() {}
 8009008:	4770      	bx	lr

0800900a <_ZN5codal14CodalComponent12idleCallbackEv>:
        virtual void idleCallback() {}
 800900a:	4770      	bx	lr

0800900c <_GLOBAL__sub_I_bluepill>:
}
 800900c:	b508      	push	{r3, lr}
 800900e:	f64f 71ff 	movw	r1, #65535	; 0xffff
 8009012:	2001      	movs	r0, #1
 8009014:	f7fd fe68 	bl	8006ce8 <_Z41__static_initialization_and_destruction_0ii>
 8009018:	bd08      	pop	{r3, pc}

0800901a <_GLOBAL__sub_I_serialPort>:
 800901a:	b508      	push	{r3, lr}
 800901c:	f64f 71ff 	movw	r1, #65535	; 0xffff
 8009020:	2001      	movs	r0, #1
 8009022:	f7fd ff1f 	bl	8006e64 <_Z41__static_initialization_and_destruction_0ii>
 8009026:	bd08      	pop	{r3, pc}

08009028 <_ZN5codal11queue_fiberEPNS_5FiberEPS1_>:
{
 8009028:	b538      	push	{r3, r4, r5, lr}
 800902a:	4604      	mov	r4, r0
 800902c:	460d      	mov	r5, r1
    target_disable_irq();
 800902e:	f7f7 fcc1 	bl	80009b4 <target_disable_irq>
    f->queue = queue;
 8009032:	6165      	str	r5, [r4, #20]
    if (*queue == NULL)
 8009034:	682a      	ldr	r2, [r5, #0]
 8009036:	b92a      	cbnz	r2, 8009044 <_ZN5codal11queue_fiberEPNS_5FiberEPS1_+0x1c>
        f->next = NULL;
 8009038:	2300      	movs	r3, #0
 800903a:	61a3      	str	r3, [r4, #24]
        f->prev = NULL;
 800903c:	61e3      	str	r3, [r4, #28]
        *queue = f;
 800903e:	602c      	str	r4, [r5, #0]
 8009040:	e006      	b.n	8009050 <_ZN5codal11queue_fiberEPNS_5FiberEPS1_+0x28>
            last = last->next;
 8009042:	461a      	mov	r2, r3
        while (last->next != NULL)
 8009044:	6993      	ldr	r3, [r2, #24]
 8009046:	2b00      	cmp	r3, #0
 8009048:	d1fb      	bne.n	8009042 <_ZN5codal11queue_fiberEPNS_5FiberEPS1_+0x1a>
        last->next = f;
 800904a:	6194      	str	r4, [r2, #24]
        f->prev = last;
 800904c:	61e2      	str	r2, [r4, #28]
        f->next = NULL;
 800904e:	61a3      	str	r3, [r4, #24]
    target_enable_irq();
 8009050:	f7f7 fcae 	bl	80009b0 <target_enable_irq>
}
 8009054:	bd38      	pop	{r3, r4, r5, pc}

08009056 <_ZN5codal13dequeue_fiberEPNS_5FiberE>:
    if (f->queue == NULL)
 8009056:	6943      	ldr	r3, [r0, #20]
 8009058:	b1b3      	cbz	r3, 8009088 <_ZN5codal13dequeue_fiberEPNS_5FiberE+0x32>
{
 800905a:	b510      	push	{r4, lr}
 800905c:	4604      	mov	r4, r0
    target_disable_irq();
 800905e:	f7f7 fca9 	bl	80009b4 <target_disable_irq>
    if (f->prev != NULL)
 8009062:	69e3      	ldr	r3, [r4, #28]
 8009064:	b163      	cbz	r3, 8009080 <_ZN5codal13dequeue_fiberEPNS_5FiberE+0x2a>
        f->prev->next = f->next;
 8009066:	69a2      	ldr	r2, [r4, #24]
 8009068:	619a      	str	r2, [r3, #24]
    if(f->next)
 800906a:	69a3      	ldr	r3, [r4, #24]
 800906c:	b10b      	cbz	r3, 8009072 <_ZN5codal13dequeue_fiberEPNS_5FiberE+0x1c>
        f->next->prev = f->prev;
 800906e:	69e2      	ldr	r2, [r4, #28]
 8009070:	61da      	str	r2, [r3, #28]
    f->next = NULL;
 8009072:	2300      	movs	r3, #0
 8009074:	61a3      	str	r3, [r4, #24]
    f->prev = NULL;
 8009076:	61e3      	str	r3, [r4, #28]
    f->queue = NULL;
 8009078:	6163      	str	r3, [r4, #20]
    target_enable_irq();
 800907a:	f7f7 fc99 	bl	80009b0 <target_enable_irq>
}
 800907e:	bd10      	pop	{r4, pc}
        *(f->queue) = f->next;
 8009080:	6963      	ldr	r3, [r4, #20]
 8009082:	69a2      	ldr	r2, [r4, #24]
 8009084:	601a      	str	r2, [r3, #0]
 8009086:	e7f0      	b.n	800906a <_ZN5codal13dequeue_fiberEPNS_5FiberE+0x14>
 8009088:	4770      	bx	lr

0800908a <_ZN5codal12create_fiberEPFvvES1_>:
{
 800908a:	b538      	push	{r3, r4, r5, lr}
 800908c:	4604      	mov	r4, r0
 800908e:	460d      	mov	r5, r1
    if (!fiber_scheduler_running())
 8009090:	f7fe f874 	bl	800717c <_ZN5codal23fiber_scheduler_runningEv>
 8009094:	b130      	cbz	r0, 80090a4 <_ZN5codal12create_fiberEPFvvES1_+0x1a>
    return __create_fiber((uint32_t) entry_fn, (uint32_t)completion_fn, 0, 0);
 8009096:	2300      	movs	r3, #0
 8009098:	461a      	mov	r2, r3
 800909a:	4629      	mov	r1, r5
 800909c:	4620      	mov	r0, r4
 800909e:	f7fe f94f 	bl	8007340 <_Z14__create_fibermmmi>
}
 80090a2:	bd38      	pop	{r3, r4, r5, pc}
        return NULL;
 80090a4:	2000      	movs	r0, #0
 80090a6:	e7fc      	b.n	80090a2 <_ZN5codal12create_fiberEPFvvES1_+0x18>

080090a8 <_ZN5codal12create_fiberEPFvPvES0_S2_>:
{
 80090a8:	b570      	push	{r4, r5, r6, lr}
 80090aa:	4604      	mov	r4, r0
 80090ac:	460e      	mov	r6, r1
 80090ae:	4615      	mov	r5, r2
    if (!fiber_scheduler_running())
 80090b0:	f7fe f864 	bl	800717c <_ZN5codal23fiber_scheduler_runningEv>
 80090b4:	b130      	cbz	r0, 80090c4 <_ZN5codal12create_fiberEPFvPvES0_S2_+0x1c>
    return __create_fiber((uint32_t) entry_fn, (uint32_t)completion_fn, (uint32_t) param, 1);
 80090b6:	2301      	movs	r3, #1
 80090b8:	4632      	mov	r2, r6
 80090ba:	4629      	mov	r1, r5
 80090bc:	4620      	mov	r0, r4
 80090be:	f7fe f93f 	bl	8007340 <_Z14__create_fibermmmi>
}
 80090c2:	bd70      	pop	{r4, r5, r6, pc}
        return NULL;
 80090c4:	2000      	movs	r0, #0
 80090c6:	e7fc      	b.n	80090c2 <_ZN5codal12create_fiberEPFvPvES0_S2_+0x1a>

080090c8 <_ZN5codal20fiber_wait_for_eventEtt>:
{
 80090c8:	b510      	push	{r4, lr}
    int ret = fiber_wake_on_event(id, value);
 80090ca:	f7fe f8f1 	bl	80072b0 <_ZN5codal19fiber_wake_on_eventEtt>
    if(ret == DEVICE_OK)
 80090ce:	4604      	mov	r4, r0
 80090d0:	b108      	cbz	r0, 80090d6 <_ZN5codal20fiber_wait_for_eventEtt+0xe>
}
 80090d2:	4620      	mov	r0, r4
 80090d4:	bd10      	pop	{r4, pc}
        schedule();
 80090d6:	f7fe f991 	bl	80073fc <_ZN5codal8scheduleEv>
    return ret;
 80090da:	e7fa      	b.n	80090d2 <_ZN5codal20fiber_wait_for_eventEtt+0xa>

080090dc <_ZN5codal16launch_new_fiberEPFvvES1_>:
{
 80090dc:	b510      	push	{r4, lr}
 80090de:	460c      	mov	r4, r1
    ep();
 80090e0:	4780      	blx	r0
    cp();
 80090e2:	47a0      	blx	r4
    release_fiber();
 80090e4:	f7fe fa82 	bl	80075ec <_ZN5codal13release_fiberEv>
}
 80090e8:	bd10      	pop	{r4, pc}

080090ea <_ZN5codal13release_fiberEPv>:
{
 80090ea:	b508      	push	{r3, lr}
    if (!fiber_scheduler_running())
 80090ec:	f7fe f846 	bl	800717c <_ZN5codal23fiber_scheduler_runningEv>
 80090f0:	b900      	cbnz	r0, 80090f4 <_ZN5codal13release_fiberEPv+0xa>
}
 80090f2:	bd08      	pop	{r3, pc}
    release_fiber();
 80090f4:	f7fe fa7a 	bl	80075ec <_ZN5codal13release_fiberEv>
 80090f8:	e7fb      	b.n	80090f2 <_ZN5codal13release_fiberEPv+0x8>

080090fa <_ZN5codal22launch_new_fiber_paramEPFvPvES2_S0_>:
{
 80090fa:	b538      	push	{r3, r4, r5, lr}
 80090fc:	4603      	mov	r3, r0
 80090fe:	460d      	mov	r5, r1
 8009100:	4614      	mov	r4, r2
    ep(pm);
 8009102:	4610      	mov	r0, r2
 8009104:	4798      	blx	r3
    cp(pm);
 8009106:	4620      	mov	r0, r4
 8009108:	47a8      	blx	r5
    release_fiber(pm);
 800910a:	4620      	mov	r0, r4
 800910c:	f7ff ffed 	bl	80090ea <_ZN5codal13release_fiberEPv>
}
 8009110:	bd38      	pop	{r3, r4, r5, pc}

08009112 <_ZN5codal9idle_taskEv>:
  * The idle task, which is called when the runtime has no fibers that require execution.
  *
  * This function typically calls idle().
  */
void codal::idle_task()
{
 8009112:	b508      	push	{r3, lr}
    while(1)
    {
        idle();
 8009114:	f7fe f950 	bl	80073b8 <_ZN5codal4idleEv>
        schedule();
 8009118:	f7fe f970 	bl	80073fc <_ZN5codal8scheduleEv>
 800911c:	e7fa      	b.n	8009114 <_ZN5codal9idle_taskEv+0x2>

0800911e <_Z16device_malloc_injR14HeapDefinition>:
{
 800911e:	b5f8      	push	{r3, r4, r5, r6, r7, lr}
    PROCESSOR_WORD_TYPE	blocksNeeded = size % DEVICE_HEAP_BLOCK_SIZE == 0 ? size / DEVICE_HEAP_BLOCK_SIZE : size / DEVICE_HEAP_BLOCK_SIZE + 1;
 8009120:	f010 0f03 	tst.w	r0, #3
 8009124:	d109      	bne.n	800913a <_Z16device_malloc_injR14HeapDefinition+0x1c>
 8009126:	0887      	lsrs	r7, r0, #2
    if (size <= 0)
 8009128:	2800      	cmp	r0, #0
 800912a:	d046      	beq.n	80091ba <_Z16device_malloc_injR14HeapDefinition+0x9c>
 800912c:	460e      	mov	r6, r1
    blocksNeeded++;
 800912e:	1c7d      	adds	r5, r7, #1
    target_disable_irq();
 8009130:	f7f7 fc40 	bl	80009b4 <target_disable_irq>
    block = heap.heap_start;
 8009134:	6834      	ldr	r4, [r6, #0]
    PROCESSOR_WORD_TYPE	blockSize = 0;
 8009136:	2200      	movs	r2, #0
 8009138:	e019      	b.n	800916e <_Z16device_malloc_injR14HeapDefinition+0x50>
    PROCESSOR_WORD_TYPE	blocksNeeded = size % DEVICE_HEAP_BLOCK_SIZE == 0 ? size / DEVICE_HEAP_BLOCK_SIZE : size / DEVICE_HEAP_BLOCK_SIZE + 1;
 800913a:	0887      	lsrs	r7, r0, #2
 800913c:	3701      	adds	r7, #1
 800913e:	e7f3      	b.n	8009128 <_Z16device_malloc_injR14HeapDefinition+0xa>
        blockSize = *block & ~DEVICE_HEAP_BLOCK_FREE;
 8009140:	f023 4200 	bic.w	r2, r3, #2147483648	; 0x80000000
        next = block + blockSize;
 8009144:	eb04 0082 	add.w	r0, r4, r2, lsl #2
        while (*next & DEVICE_HEAP_BLOCK_FREE)
 8009148:	6803      	ldr	r3, [r0, #0]
 800914a:	2b00      	cmp	r3, #0
 800914c:	da0b      	bge.n	8009166 <_Z16device_malloc_injR14HeapDefinition+0x48>
            if (next >= heap.heap_end)
 800914e:	6871      	ldr	r1, [r6, #4]
 8009150:	4281      	cmp	r1, r0
 8009152:	d908      	bls.n	8009166 <_Z16device_malloc_injR14HeapDefinition+0x48>
            blockSize += (*next & ~DEVICE_HEAP_BLOCK_FREE);
 8009154:	f023 4300 	bic.w	r3, r3, #2147483648	; 0x80000000
 8009158:	441a      	add	r2, r3
            *block = blockSize | DEVICE_HEAP_BLOCK_FREE;
 800915a:	f042 4300 	orr.w	r3, r2, #2147483648	; 0x80000000
 800915e:	6023      	str	r3, [r4, #0]
            next = block + blockSize;
 8009160:	eb04 0082 	add.w	r0, r4, r2, lsl #2
        while (*next & DEVICE_HEAP_BLOCK_FREE)
 8009164:	e7f0      	b.n	8009148 <_Z16device_malloc_injR14HeapDefinition+0x2a>
        if (blockSize >= blocksNeeded)
 8009166:	42aa      	cmp	r2, r5
 8009168:	d20a      	bcs.n	8009180 <_Z16device_malloc_injR14HeapDefinition+0x62>
        block += blockSize;
 800916a:	eb04 0482 	add.w	r4, r4, r2, lsl #2
    while (block < heap.heap_end)
 800916e:	6873      	ldr	r3, [r6, #4]
 8009170:	42a3      	cmp	r3, r4
 8009172:	d905      	bls.n	8009180 <_Z16device_malloc_injR14HeapDefinition+0x62>
        if(!(*block & DEVICE_HEAP_BLOCK_FREE))
 8009174:	6823      	ldr	r3, [r4, #0]
 8009176:	2b00      	cmp	r3, #0
 8009178:	dbe2      	blt.n	8009140 <_Z16device_malloc_injR14HeapDefinition+0x22>
            block += *block;
 800917a:	eb04 0483 	add.w	r4, r4, r3, lsl #2
            continue;
 800917e:	e7f6      	b.n	800916e <_Z16device_malloc_injR14HeapDefinition+0x50>
    if (block >= heap.heap_end)
 8009180:	6873      	ldr	r3, [r6, #4]
 8009182:	42a3      	cmp	r3, r4
 8009184:	d90e      	bls.n	80091a4 <_Z16device_malloc_injR14HeapDefinition+0x86>
    if (blockSize <= blocksNeeded+1 || block+blocksNeeded+1 >= heap.heap_end)
 8009186:	3702      	adds	r7, #2
 8009188:	4297      	cmp	r7, r2
 800918a:	d203      	bcs.n	8009194 <_Z16device_malloc_injR14HeapDefinition+0x76>
 800918c:	eb04 0787 	add.w	r7, r4, r7, lsl #2
 8009190:	42bb      	cmp	r3, r7
 8009192:	d80b      	bhi.n	80091ac <_Z16device_malloc_injR14HeapDefinition+0x8e>
        *block &= ~DEVICE_HEAP_BLOCK_FREE;
 8009194:	6823      	ldr	r3, [r4, #0]
 8009196:	f023 4300 	bic.w	r3, r3, #2147483648	; 0x80000000
 800919a:	6023      	str	r3, [r4, #0]
    target_enable_irq();
 800919c:	f7f7 fc08 	bl	80009b0 <target_enable_irq>
    return block+1;
 80091a0:	1d20      	adds	r0, r4, #4
}
 80091a2:	bdf8      	pop	{r3, r4, r5, r6, r7, pc}
        target_enable_irq();
 80091a4:	f7f7 fc04 	bl	80009b0 <target_enable_irq>
        return NULL;
 80091a8:	2000      	movs	r0, #0
 80091aa:	e7fa      	b.n	80091a2 <_Z16device_malloc_injR14HeapDefinition+0x84>
        *splitBlock = blockSize - blocksNeeded;
 80091ac:	1b53      	subs	r3, r2, r5
        *splitBlock |= DEVICE_HEAP_BLOCK_FREE;
 80091ae:	f043 4300 	orr.w	r3, r3, #2147483648	; 0x80000000
 80091b2:	f844 3025 	str.w	r3, [r4, r5, lsl #2]
        *block = blocksNeeded;
 80091b6:	6025      	str	r5, [r4, #0]
 80091b8:	e7f0      	b.n	800919c <_Z16device_malloc_injR14HeapDefinition+0x7e>
        return NULL;
 80091ba:	2000      	movs	r0, #0
 80091bc:	e7f1      	b.n	80091a2 <_Z16device_malloc_injR14HeapDefinition+0x84>

080091be <_ZN5codal8ListenerC1EttPFvNS_5EventEEt>:
  * @param handler A function pointer to call when the event is detected.
  *
  * @param flags User specified, implementation specific flags, that allow behaviour of this events listener
  * to be tuned.
  */
Listener::Listener(uint16_t id, uint16_t value, void (*handler)(Event), uint16_t flags)
 80091be:	b5f8      	push	{r3, r4, r5, r6, r7, lr}
 80091c0:	4604      	mov	r4, r0
 80091c2:	460f      	mov	r7, r1
 80091c4:	4616      	mov	r6, r2
 80091c6:	461d      	mov	r5, r3
 80091c8:	3010      	adds	r0, #16
 80091ca:	f000 fbf0 	bl	80099ae <_ZN5codal5EventC1Ev>
{
	this->id = id;
 80091ce:	8027      	strh	r7, [r4, #0]
	this->value = value;
 80091d0:	8066      	strh	r6, [r4, #2]
	this->cb = handler;
 80091d2:	60a5      	str	r5, [r4, #8]
	this->cb_arg = NULL;
 80091d4:	2300      	movs	r3, #0
 80091d6:	60e3      	str	r3, [r4, #12]
    this->flags = flags;
 80091d8:	f8bd 2018 	ldrh.w	r2, [sp, #24]
 80091dc:	80a2      	strh	r2, [r4, #4]
	this->next = NULL;
 80091de:	61e3      	str	r3, [r4, #28]
    this->evt_queue = NULL;
 80091e0:	61a3      	str	r3, [r4, #24]
}
 80091e2:	4620      	mov	r0, r4
 80091e4:	bdf8      	pop	{r3, r4, r5, r6, r7, pc}

080091e6 <_ZN5codal8ListenerD1Ev>:
}

/**
  * Destructor. Ensures all resources used by this listener are freed.
  */
Listener::~Listener()
 80091e6:	b510      	push	{r4, lr}
 80091e8:	4604      	mov	r4, r0
{
    if(this->flags & MESSAGE_BUS_LISTENER_METHOD)
 80091ea:	8883      	ldrh	r3, [r0, #4]
 80091ec:	f013 0f02 	tst.w	r3, #2
 80091f0:	d101      	bne.n	80091f6 <_ZN5codal8ListenerD1Ev+0x10>
        delete cb_method;
}
 80091f2:	4620      	mov	r0, r4
 80091f4:	bd10      	pop	{r4, pc}
        delete cb_method;
 80091f6:	6880      	ldr	r0, [r0, #8]
 80091f8:	f7f9 fce4 	bl	8002bc4 <_ZdlPv>
 80091fc:	e7f9      	b.n	80091f2 <_ZN5codal8ListenerD1Ev+0xc>

080091fe <_ZN5codal8Listener5queueENS_5EventE>:
  * Queues and event up to be processed.
  *
  * @param e The event to queue
  */
void Listener::queue(Event e)
{
 80091fe:	b570      	push	{r4, r5, r6, lr}
 8009200:	b086      	sub	sp, #24
 8009202:	466b      	mov	r3, sp
 8009204:	e883 0006 	stmia.w	r3, {r1, r2}
    int queueDepth;

    EventQueueItem *p = evt_queue;
 8009208:	6984      	ldr	r4, [r0, #24]

    if (evt_queue == NULL)
 800920a:	b12c      	cbz	r4, 8009218 <_ZN5codal8Listener5queueENS_5EventE+0x1a>
        evt_queue = new EventQueueItem(e);
    else
    {
        queueDepth = 1;
 800920c:	2201      	movs	r2, #1

        while (p->next != NULL)
 800920e:	68a3      	ldr	r3, [r4, #8]
 8009210:	b193      	cbz	r3, 8009238 <_ZN5codal8Listener5queueENS_5EventE+0x3a>
        {
            p = p->next;
            queueDepth++;
 8009212:	3201      	adds	r2, #1
            p = p->next;
 8009214:	461c      	mov	r4, r3
        while (p->next != NULL)
 8009216:	e7fa      	b.n	800920e <_ZN5codal8Listener5queueENS_5EventE+0x10>
 8009218:	4605      	mov	r5, r0
        evt_queue = new EventQueueItem(e);
 800921a:	ac02      	add	r4, sp, #8
 800921c:	e893 0003 	ldmia.w	r3, {r0, r1}
 8009220:	e884 0003 	stmia.w	r4, {r0, r1}
 8009224:	200c      	movs	r0, #12
 8009226:	f7f9 fcc9 	bl	8002bbc <_Znwj>
 800922a:	4606      	mov	r6, r0
 800922c:	e894 0006 	ldmia.w	r4, {r1, r2}
 8009230:	f000 fbe4 	bl	80099fc <_ZN5codal14EventQueueItemC1ENS_5EventE>
 8009234:	61ae      	str	r6, [r5, #24]
 8009236:	e001      	b.n	800923c <_ZN5codal8Listener5queueENS_5EventE+0x3e>
        }

        if (queueDepth < MESSAGE_BUS_LISTENER_MAX_QUEUE_DEPTH)
 8009238:	2a09      	cmp	r2, #9
 800923a:	dd01      	ble.n	8009240 <_ZN5codal8Listener5queueENS_5EventE+0x42>
            p->next = new EventQueueItem(e);
    }
}
 800923c:	b006      	add	sp, #24
 800923e:	bd70      	pop	{r4, r5, r6, pc}
            p->next = new EventQueueItem(e);
 8009240:	ad04      	add	r5, sp, #16
 8009242:	466b      	mov	r3, sp
 8009244:	e893 0003 	ldmia.w	r3, {r0, r1}
 8009248:	e885 0003 	stmia.w	r5, {r0, r1}
 800924c:	200c      	movs	r0, #12
 800924e:	f7f9 fcb5 	bl	8002bbc <_Znwj>
 8009252:	4606      	mov	r6, r0
 8009254:	e895 0006 	ldmia.w	r5, {r1, r2}
 8009258:	f000 fbd0 	bl	80099fc <_ZN5codal14EventQueueItemC1ENS_5EventE>
 800925c:	60a6      	str	r6, [r4, #8]
}
 800925e:	e7ed      	b.n	800923c <_ZN5codal8Listener5queueENS_5EventE+0x3e>

08009260 <_ZN5codal6Serial6lockRxEv>:
    status |= CODAL_SERIAL_RX_IN_USE;
 8009260:	88c3      	ldrh	r3, [r0, #6]
 8009262:	f043 0301 	orr.w	r3, r3, #1
 8009266:	80c3      	strh	r3, [r0, #6]
}
 8009268:	4770      	bx	lr

0800926a <_ZN5codal6Serial8unlockRxEv>:
    status &= ~CODAL_SERIAL_RX_IN_USE;
 800926a:	88c3      	ldrh	r3, [r0, #6]
 800926c:	f023 0301 	bic.w	r3, r3, #1
 8009270:	80c3      	strh	r3, [r0, #6]
}
 8009272:	4770      	bx	lr

08009274 <_ZN5codal6Serial12initialiseRxEv>:
{
 8009274:	b570      	push	{r4, r5, r6, lr}
 8009276:	4604      	mov	r4, r0
    if((status & CODAL_SERIAL_RX_BUFF_INIT))
 8009278:	88c3      	ldrh	r3, [r0, #6]
 800927a:	f013 0f04 	tst.w	r3, #4
 800927e:	d116      	bne.n	80092ae <_ZN5codal6Serial12initialiseRxEv+0x3a>
    status &= ~CODAL_SERIAL_RX_BUFF_INIT;
 8009280:	88e5      	ldrh	r5, [r4, #6]
 8009282:	f025 0504 	bic.w	r5, r5, #4
 8009286:	b2ad      	uxth	r5, r5
 8009288:	80e5      	strh	r5, [r4, #6]
    if((this->rxBuff = (uint8_t *)malloc(rxBuffSize)) == NULL)
 800928a:	7f20      	ldrb	r0, [r4, #28]
 800928c:	f7fe fa4c 	bl	8007728 <device_malloc>
 8009290:	61a0      	str	r0, [r4, #24]
 8009292:	b1a0      	cbz	r0, 80092be <_ZN5codal6Serial12initialiseRxEv+0x4a>
    this->rxBuffHead = 0;
 8009294:	2600      	movs	r6, #0
 8009296:	83e6      	strh	r6, [r4, #30]
    this->rxBuffTail = 0;
 8009298:	8426      	strh	r6, [r4, #32]
    status |= CODAL_SERIAL_RX_BUFF_INIT;
 800929a:	f045 0504 	orr.w	r5, r5, #4
 800929e:	80e5      	strh	r5, [r4, #6]
    enableInterrupt(RxInterrupt);
 80092a0:	6823      	ldr	r3, [r4, #0]
 80092a2:	695b      	ldr	r3, [r3, #20]
 80092a4:	4631      	mov	r1, r6
 80092a6:	4620      	mov	r0, r4
 80092a8:	4798      	blx	r3
    return DEVICE_OK;
 80092aa:	4630      	mov	r0, r6
}
 80092ac:	bd70      	pop	{r4, r5, r6, pc}
        disableInterrupt(RxInterrupt);
 80092ae:	6803      	ldr	r3, [r0, #0]
 80092b0:	699b      	ldr	r3, [r3, #24]
 80092b2:	2100      	movs	r1, #0
 80092b4:	4798      	blx	r3
        free(this->rxBuff);
 80092b6:	69a0      	ldr	r0, [r4, #24]
 80092b8:	f7fe fa60 	bl	800777c <device_free>
 80092bc:	e7e0      	b.n	8009280 <_ZN5codal6Serial12initialiseRxEv+0xc>
        return DEVICE_NO_RESOURCES;
 80092be:	f46f 707b 	mvn.w	r0, #1004	; 0x3ec
 80092c2:	e7f3      	b.n	80092ac <_ZN5codal6Serial12initialiseRxEv+0x38>

080092c4 <_ZN5codal6Serial12circularCopyEPhhS1_tt>:
{
 80092c4:	b470      	push	{r4, r5, r6}
 80092c6:	f8bd 000c 	ldrh.w	r0, [sp, #12]
 80092ca:	f8bd 6010 	ldrh.w	r6, [sp, #16]
    int toBuffIndex = 0;
 80092ce:	2500      	movs	r5, #0
    while(tailPosition != headPosition)
 80092d0:	42b0      	cmp	r0, r6
 80092d2:	d009      	beq.n	80092e8 <_ZN5codal6Serial12circularCopyEPhhS1_tt+0x24>
        linearBuff[toBuffIndex++] = circularBuff[tailPosition];
 80092d4:	5c0c      	ldrb	r4, [r1, r0]
 80092d6:	555c      	strb	r4, [r3, r5]
        tailPosition = (tailPosition + 1) % circularBuffSize;
 80092d8:	3001      	adds	r0, #1
 80092da:	fb90 f4f2 	sdiv	r4, r0, r2
 80092de:	fb02 0014 	mls	r0, r2, r4, r0
 80092e2:	b280      	uxth	r0, r0
        linearBuff[toBuffIndex++] = circularBuff[tailPosition];
 80092e4:	3501      	adds	r5, #1
    while(tailPosition != headPosition)
 80092e6:	e7f3      	b.n	80092d0 <_ZN5codal6Serial12circularCopyEPhhS1_tt+0xc>
}
 80092e8:	bc70      	pop	{r4, r5, r6}
 80092ea:	4770      	bx	lr

080092ec <_ZN5codal6Serial7eventOnENS_13ManagedStringENS_10SerialModeE>:
    if(mode == SYNC_SPINWAIT)
 80092ec:	2a01      	cmp	r2, #1
 80092ee:	d00f      	beq.n	8009310 <_ZN5codal6Serial7eventOnENS_13ManagedStringENS_10SerialModeE+0x24>
{
 80092f0:	b538      	push	{r3, r4, r5, lr}
 80092f2:	4614      	mov	r4, r2
 80092f4:	4605      	mov	r5, r0
    this->delimeters = delimeters;
 80092f6:	3010      	adds	r0, #16
 80092f8:	f000 fbf3 	bl	8009ae2 <_ZN5codal13ManagedStringaSERKS0_>
    if(mode == SYNC_SLEEP)
 80092fc:	2c02      	cmp	r4, #2
 80092fe:	d001      	beq.n	8009304 <_ZN5codal6Serial7eventOnENS_13ManagedStringENS_10SerialModeE+0x18>
    return DEVICE_OK;
 8009300:	2000      	movs	r0, #0
}
 8009302:	bd38      	pop	{r3, r4, r5, pc}
        fiber_wait_for_event(this->id, CODAL_SERIAL_EVT_DELIM_MATCH);
 8009304:	2101      	movs	r1, #1
 8009306:	88a8      	ldrh	r0, [r5, #4]
 8009308:	f7ff fede 	bl	80090c8 <_ZN5codal20fiber_wait_for_eventEtt>
    return DEVICE_OK;
 800930c:	2000      	movs	r0, #0
 800930e:	e7f8      	b.n	8009302 <_ZN5codal6Serial7eventOnENS_13ManagedStringENS_10SerialModeE+0x16>
        return DEVICE_INVALID_PARAMETER;
 8009310:	f46f 707a 	mvn.w	r0, #1000	; 0x3e8
}
 8009314:	4770      	bx	lr

08009316 <_ZN5codal6Serial7rxInUseEv>:
    return (status & CODAL_SERIAL_RX_IN_USE);
 8009316:	88c0      	ldrh	r0, [r0, #6]
}
 8009318:	f000 0001 	and.w	r0, r0, #1
 800931c:	4770      	bx	lr

0800931e <_ZN5codal6Serial9readUntilENS_13ManagedStringENS_10SerialModeE>:
{
 800931e:	e92d 4ff0 	stmdb	sp!, {r4, r5, r6, r7, r8, r9, sl, fp, lr}
 8009322:	b089      	sub	sp, #36	; 0x24
 8009324:	af02      	add	r7, sp, #8
 8009326:	60b8      	str	r0, [r7, #8]
 8009328:	4688      	mov	r8, r1
 800932a:	4615      	mov	r5, r2
 800932c:	607b      	str	r3, [r7, #4]
    if(rxInUse())
 800932e:	4608      	mov	r0, r1
 8009330:	f7ff fff1 	bl	8009316 <_ZN5codal6Serial7rxInUseEv>
 8009334:	60f8      	str	r0, [r7, #12]
 8009336:	b990      	cbnz	r0, 800935e <_ZN5codal6Serial9readUntilENS_13ManagedStringENS_10SerialModeE+0x40>
    if(!(status & CODAL_SERIAL_RX_BUFF_INIT))
 8009338:	f8b8 3006 	ldrh.w	r3, [r8, #6]
 800933c:	f013 0f04 	tst.w	r3, #4
 8009340:	d104      	bne.n	800934c <_ZN5codal6Serial9readUntilENS_13ManagedStringENS_10SerialModeE+0x2e>
        int result = initialiseRx();
 8009342:	4640      	mov	r0, r8
 8009344:	f7ff ff96 	bl	8009274 <_ZN5codal6Serial12initialiseRxEv>
        if(result != DEVICE_OK)
 8009348:	4601      	mov	r1, r0
 800934a:	b960      	cbnz	r0, 8009366 <_ZN5codal6Serial9readUntilENS_13ManagedStringENS_10SerialModeE+0x48>
    lockRx();
 800934c:	4640      	mov	r0, r8
 800934e:	f7ff ff87 	bl	8009260 <_ZN5codal6Serial6lockRxEv>
    int localTail = rxBuffTail;
 8009352:	f8b8 a020 	ldrh.w	sl, [r8, #32]
 8009356:	4656      	mov	r6, sl
    int foundIndex = -1;
 8009358:	f04f 39ff 	mov.w	r9, #4294967295	; 0xffffffff
 800935c:	e063      	b.n	8009426 <_ZN5codal6Serial9readUntilENS_13ManagedStringENS_10SerialModeE+0x108>
        return ManagedString();
 800935e:	68b8      	ldr	r0, [r7, #8]
 8009360:	f000 fbb9 	bl	8009ad6 <_ZN5codal13ManagedStringC1Ev>
 8009364:	e045      	b.n	80093f2 <_ZN5codal6Serial9readUntilENS_13ManagedStringENS_10SerialModeE+0xd4>
            return result;
 8009366:	68b8      	ldr	r0, [r7, #8]
 8009368:	f000 fb83 	bl	8009a72 <_ZN5codal13ManagedStringC1Ei>
 800936c:	e041      	b.n	80093f2 <_ZN5codal6Serial9readUntilENS_13ManagedStringENS_10SerialModeE+0xd4>
    if(mode == SYNC_SPINWAIT)
 800936e:	687b      	ldr	r3, [r7, #4]
 8009370:	2b01      	cmp	r3, #1
 8009372:	d07b      	beq.n	800946c <_ZN5codal6Serial9readUntilENS_13ManagedStringENS_10SerialModeE+0x14e>
    if(mode == SYNC_SLEEP && foundIndex == -1)
 8009374:	687b      	ldr	r3, [r7, #4]
 8009376:	2b02      	cmp	r3, #2
 8009378:	f000 8086 	beq.w	8009488 <_ZN5codal6Serial9readUntilENS_13ManagedStringENS_10SerialModeE+0x16a>
    if(foundIndex >= 0)
 800937c:	f1b9 0f00 	cmp.w	r9, #0
 8009380:	f2c0 80ac 	blt.w	80094dc <_ZN5codal6Serial9readUntilENS_13ManagedStringENS_10SerialModeE+0x1be>
        return ManagedString((char *)localBuff, localBuffSize);
 8009384:	466e      	mov	r6, sp
        int localBuffSize = (preservedTail > foundIndex) ? (rxBuffSize - preservedTail) + foundIndex : foundIndex - preservedTail;
 8009386:	45d1      	cmp	r9, sl
 8009388:	f280 80a5 	bge.w	80094d6 <_ZN5codal6Serial9readUntilENS_13ManagedStringENS_10SerialModeE+0x1b8>
 800938c:	f898 401c 	ldrb.w	r4, [r8, #28]
 8009390:	eba4 040a 	sub.w	r4, r4, sl
 8009394:	444c      	add	r4, r9
        uint8_t localBuff[localBuffSize + 1];
 8009396:	f104 0308 	add.w	r3, r4, #8
 800939a:	f023 0307 	bic.w	r3, r3, #7
 800939e:	ebad 0d03 	sub.w	sp, sp, r3
 80093a2:	ad02      	add	r5, sp, #8
 80093a4:	1c62      	adds	r2, r4, #1
 80093a6:	2100      	movs	r1, #0
 80093a8:	4628      	mov	r0, r5
 80093aa:	f7f9 f90f 	bl	80025cc <memset>
        circularCopy(rxBuff, rxBuffSize, localBuff, preservedTail, foundIndex);
 80093ae:	f898 201c 	ldrb.w	r2, [r8, #28]
 80093b2:	f8d8 1018 	ldr.w	r1, [r8, #24]
 80093b6:	fa1f f389 	uxth.w	r3, r9
 80093ba:	9301      	str	r3, [sp, #4]
 80093bc:	f8cd a000 	str.w	sl, [sp]
 80093c0:	462b      	mov	r3, r5
 80093c2:	4640      	mov	r0, r8
 80093c4:	f7ff ff7e 	bl	80092c4 <_ZN5codal6Serial12circularCopyEPhhS1_tt>
        rxBuffTail = (rxBuffTail + localBuffSize + 1) % rxBuffSize;
 80093c8:	f8b8 3020 	ldrh.w	r3, [r8, #32]
 80093cc:	4423      	add	r3, r4
 80093ce:	3301      	adds	r3, #1
 80093d0:	f898 101c 	ldrb.w	r1, [r8, #28]
 80093d4:	fb93 f2f1 	sdiv	r2, r3, r1
 80093d8:	fb01 3312 	mls	r3, r1, r2, r3
 80093dc:	f8a8 3020 	strh.w	r3, [r8, #32]
        unlockRx();
 80093e0:	4640      	mov	r0, r8
 80093e2:	f7ff ff42 	bl	800926a <_ZN5codal6Serial8unlockRxEv>
        return ManagedString((char *)localBuff, localBuffSize);
 80093e6:	b222      	sxth	r2, r4
 80093e8:	4629      	mov	r1, r5
 80093ea:	68b8      	ldr	r0, [r7, #8]
 80093ec:	f000 fb53 	bl	8009a96 <_ZN5codal13ManagedStringC1EPKcs>
 80093f0:	46b5      	mov	sp, r6
}
 80093f2:	68b8      	ldr	r0, [r7, #8]
 80093f4:	371c      	adds	r7, #28
 80093f6:	46bd      	mov	sp, r7
 80093f8:	e8bd 8ff0 	ldmia.w	sp!, {r4, r5, r6, r7, r8, r9, sl, fp, pc}
        for(int delimeterIterator = 0; delimeterIterator < delimeters.length(); delimeterIterator++)
 80093fc:	3401      	adds	r4, #1
          * display.scroll(s.length()) // scrolls "4"
          * @endcode
          */
        int16_t length() const
        {
            return ptr->len;
 80093fe:	682b      	ldr	r3, [r5, #0]
 8009400:	f9b3 3002 	ldrsh.w	r3, [r3, #2]
 8009404:	42a3      	cmp	r3, r4
 8009406:	dd07      	ble.n	8009418 <_ZN5codal6Serial9readUntilENS_13ManagedStringENS_10SerialModeE+0xfa>
            if(delimeters.charAt(delimeterIterator) == c)
 8009408:	b221      	sxth	r1, r4
 800940a:	4628      	mov	r0, r5
 800940c:	f000 fb78 	bl	8009b00 <_ZN5codal13ManagedString6charAtEs>
 8009410:	4558      	cmp	r0, fp
 8009412:	d1f3      	bne.n	80093fc <_ZN5codal6Serial9readUntilENS_13ManagedStringENS_10SerialModeE+0xde>
                foundIndex = localTail;
 8009414:	46b1      	mov	r9, r6
 8009416:	e7f1      	b.n	80093fc <_ZN5codal6Serial9readUntilENS_13ManagedStringENS_10SerialModeE+0xde>
        localTail = (localTail + 1) % rxBuffSize;
 8009418:	3601      	adds	r6, #1
 800941a:	f898 301c 	ldrb.w	r3, [r8, #28]
 800941e:	fb96 f2f3 	sdiv	r2, r6, r3
 8009422:	fb03 6612 	mls	r6, r3, r2, r6
    while(localTail != rxBuffHead && foundIndex  == -1)
 8009426:	f8b8 301e 	ldrh.w	r3, [r8, #30]
 800942a:	b29b      	uxth	r3, r3
 800942c:	42b3      	cmp	r3, r6
 800942e:	d09e      	beq.n	800936e <_ZN5codal6Serial9readUntilENS_13ManagedStringENS_10SerialModeE+0x50>
 8009430:	f1b9 3fff 	cmp.w	r9, #4294967295	; 0xffffffff
 8009434:	d19b      	bne.n	800936e <_ZN5codal6Serial9readUntilENS_13ManagedStringENS_10SerialModeE+0x50>
        char c = rxBuff[localTail];
 8009436:	f8d8 3018 	ldr.w	r3, [r8, #24]
 800943a:	f813 b006 	ldrb.w	fp, [r3, r6]
        for(int delimeterIterator = 0; delimeterIterator < delimeters.length(); delimeterIterator++)
 800943e:	68fc      	ldr	r4, [r7, #12]
 8009440:	e7dd      	b.n	80093fe <_ZN5codal6Serial9readUntilENS_13ManagedStringENS_10SerialModeE+0xe0>
            for(int delimeterIterator = 0; delimeterIterator < delimeters.length(); delimeterIterator++)
 8009442:	3401      	adds	r4, #1
 8009444:	682b      	ldr	r3, [r5, #0]
 8009446:	f9b3 3002 	ldrsh.w	r3, [r3, #2]
 800944a:	42a3      	cmp	r3, r4
 800944c:	dd07      	ble.n	800945e <_ZN5codal6Serial9readUntilENS_13ManagedStringENS_10SerialModeE+0x140>
                if(delimeters.charAt(delimeterIterator) == c)
 800944e:	b221      	sxth	r1, r4
 8009450:	4628      	mov	r0, r5
 8009452:	f000 fb55 	bl	8009b00 <_ZN5codal13ManagedString6charAtEs>
 8009456:	4558      	cmp	r0, fp
 8009458:	d1f3      	bne.n	8009442 <_ZN5codal6Serial9readUntilENS_13ManagedStringENS_10SerialModeE+0x124>
                    foundIndex = localTail;
 800945a:	46b1      	mov	r9, r6
 800945c:	e7f1      	b.n	8009442 <_ZN5codal6Serial9readUntilENS_13ManagedStringENS_10SerialModeE+0x124>
            localTail = (localTail + 1) % rxBuffSize;
 800945e:	3601      	adds	r6, #1
 8009460:	f898 301c 	ldrb.w	r3, [r8, #28]
 8009464:	fb96 f2f3 	sdiv	r2, r6, r3
 8009468:	fb03 6612 	mls	r6, r3, r2, r6
        while(foundIndex == -1)
 800946c:	f1b9 3fff 	cmp.w	r9, #4294967295	; 0xffffffff
 8009470:	d180      	bne.n	8009374 <_ZN5codal6Serial9readUntilENS_13ManagedStringENS_10SerialModeE+0x56>
            while(localTail == rxBuffHead);
 8009472:	f8b8 301e 	ldrh.w	r3, [r8, #30]
 8009476:	b29b      	uxth	r3, r3
 8009478:	42b3      	cmp	r3, r6
 800947a:	d0fa      	beq.n	8009472 <_ZN5codal6Serial9readUntilENS_13ManagedStringENS_10SerialModeE+0x154>
            char c = rxBuff[localTail];
 800947c:	f8d8 3018 	ldr.w	r3, [r8, #24]
 8009480:	f813 b006 	ldrb.w	fp, [r3, r6]
            for(int delimeterIterator = 0; delimeterIterator < delimeters.length(); delimeterIterator++)
 8009484:	68fc      	ldr	r4, [r7, #12]
 8009486:	e7dd      	b.n	8009444 <_ZN5codal6Serial9readUntilENS_13ManagedStringENS_10SerialModeE+0x126>
    if(mode == SYNC_SLEEP && foundIndex == -1)
 8009488:	f1b9 3fff 	cmp.w	r9, #4294967295	; 0xffffffff
 800948c:	f47f af76 	bne.w	800937c <_ZN5codal6Serial9readUntilENS_13ManagedStringENS_10SerialModeE+0x5e>
        eventOn(delimeters, mode);
 8009490:	4629      	mov	r1, r5
 8009492:	f107 0010 	add.w	r0, r7, #16
 8009496:	f000 fb16 	bl	8009ac6 <_ZN5codal13ManagedStringC1ERKS0_>
 800949a:	687a      	ldr	r2, [r7, #4]
 800949c:	f107 0110 	add.w	r1, r7, #16
 80094a0:	4640      	mov	r0, r8
 80094a2:	f7ff ff23 	bl	80092ec <_ZN5codal6Serial7eventOnENS_13ManagedStringENS_10SerialModeE>
 80094a6:	f107 0010 	add.w	r0, r7, #16
 80094aa:	f000 fab8 	bl	8009a1e <_ZN5codal13ManagedStringD1Ev>
        foundIndex = rxBuffHead - 1;
 80094ae:	f8b8 901e 	ldrh.w	r9, [r8, #30]
 80094b2:	f109 39ff 	add.w	r9, r9, #4294967295	; 0xffffffff
        this->delimeters = ManagedString();
 80094b6:	f108 0410 	add.w	r4, r8, #16
 80094ba:	f107 0014 	add.w	r0, r7, #20
 80094be:	f000 fb0a 	bl	8009ad6 <_ZN5codal13ManagedStringC1Ev>
 80094c2:	f107 0114 	add.w	r1, r7, #20
 80094c6:	4620      	mov	r0, r4
 80094c8:	f000 fb0b 	bl	8009ae2 <_ZN5codal13ManagedStringaSERKS0_>
 80094cc:	f107 0014 	add.w	r0, r7, #20
 80094d0:	f000 faa5 	bl	8009a1e <_ZN5codal13ManagedStringD1Ev>
 80094d4:	e752      	b.n	800937c <_ZN5codal6Serial9readUntilENS_13ManagedStringENS_10SerialModeE+0x5e>
        int localBuffSize = (preservedTail > foundIndex) ? (rxBuffSize - preservedTail) + foundIndex : foundIndex - preservedTail;
 80094d6:	eba9 040a 	sub.w	r4, r9, sl
 80094da:	e75c      	b.n	8009396 <_ZN5codal6Serial9readUntilENS_13ManagedStringENS_10SerialModeE+0x78>
    unlockRx();
 80094dc:	4640      	mov	r0, r8
 80094de:	f7ff fec4 	bl	800926a <_ZN5codal6Serial8unlockRxEv>
    return ManagedString();
 80094e2:	68b8      	ldr	r0, [r7, #8]
 80094e4:	f000 faf7 	bl	8009ad6 <_ZN5codal13ManagedStringC1Ev>
 80094e8:	e783      	b.n	80093f2 <_ZN5codal6Serial9readUntilENS_13ManagedStringENS_10SerialModeE+0xd4>

080094ea <_ZN5codal5Timer17disableInterruptsEv>:
{
 80094ea:	b508      	push	{r3, lr}
    target_disable_irq();
 80094ec:	f7f7 fa62 	bl	80009b4 <target_disable_irq>
}
 80094f0:	2000      	movs	r0, #0
 80094f2:	bd08      	pop	{r3, pc}

080094f4 <_ZN5codal5Timer16enableInterruptsEv>:
{
 80094f4:	b508      	push	{r3, lr}
    target_enable_irq();
 80094f6:	f7f7 fa5b 	bl	80009b0 <target_enable_irq>
}
 80094fa:	2000      	movs	r0, #0
 80094fc:	bd08      	pop	{r3, pc}

080094fe <_ZN5codal5Timer13getTimerEventEv>:
{
 80094fe:	b410      	push	{r4}
    for (int i=0; i<eventListSize; i++)
 8009500:	2300      	movs	r3, #0
 8009502:	6982      	ldr	r2, [r0, #24]
 8009504:	429a      	cmp	r2, r3
 8009506:	dd08      	ble.n	800951a <_ZN5codal5Timer13getTimerEventEv+0x1c>
        if (timerEventList[i].id == 0)
 8009508:	6901      	ldr	r1, [r0, #16]
 800950a:	eb03 0443 	add.w	r4, r3, r3, lsl #1
 800950e:	00a2      	lsls	r2, r4, #2
 8009510:	188c      	adds	r4, r1, r2
 8009512:	5a8a      	ldrh	r2, [r1, r2]
 8009514:	b112      	cbz	r2, 800951c <_ZN5codal5Timer13getTimerEventEv+0x1e>
    for (int i=0; i<eventListSize; i++)
 8009516:	3301      	adds	r3, #1
 8009518:	e7f3      	b.n	8009502 <_ZN5codal5Timer13getTimerEventEv+0x4>
    return NULL;
 800951a:	2400      	movs	r4, #0
}
 800951c:	4620      	mov	r0, r4
 800951e:	bc10      	pop	{r4}
 8009520:	4770      	bx	lr

08009522 <_ZN5codal5Timer17releaseTimerEventEPNS_10TimerEventE>:
    event->id = 0;
 8009522:	2300      	movs	r3, #0
 8009524:	800b      	strh	r3, [r1, #0]
    if (nextTimerEvent == event)
 8009526:	6943      	ldr	r3, [r0, #20]
 8009528:	428b      	cmp	r3, r1
 800952a:	d000      	beq.n	800952e <_ZN5codal5Timer17releaseTimerEventEPNS_10TimerEventE+0xc>
}
 800952c:	4770      	bx	lr
        nextTimerEvent = NULL;
 800952e:	2300      	movs	r3, #0
 8009530:	6143      	str	r3, [r0, #20]
}
 8009532:	e7fb      	b.n	800952c <_ZN5codal5Timer17releaseTimerEventEPNS_10TimerEventE+0xa>

08009534 <_ZN5codal5Timer7getTimeEv>:
{
 8009534:	b510      	push	{r4, lr}
 8009536:	4604      	mov	r4, r0
    syncRequest();
 8009538:	6803      	ldr	r3, [r0, #0]
 800953a:	685b      	ldr	r3, [r3, #4]
 800953c:	4798      	blx	r3
}
 800953e:	6860      	ldr	r0, [r4, #4]
 8009540:	bd10      	pop	{r4, pc}

08009542 <_ZN5codal5Timer9getTimeUsEv>:
{
 8009542:	b510      	push	{r4, lr}
 8009544:	4604      	mov	r4, r0
    syncRequest();
 8009546:	6803      	ldr	r3, [r0, #0]
 8009548:	685b      	ldr	r3, [r3, #4]
 800954a:	4798      	blx	r3
}
 800954c:	68a0      	ldr	r0, [r4, #8]
 800954e:	bd10      	pop	{r4, pc}

08009550 <_ZN5codal5Timer8setEventEmttb>:
{
 8009550:	e92d 43f8 	stmdb	sp!, {r3, r4, r5, r6, r7, r8, r9, lr}
 8009554:	4604      	mov	r4, r0
 8009556:	460e      	mov	r6, r1
 8009558:	4690      	mov	r8, r2
 800955a:	461f      	mov	r7, r3
 800955c:	f89d 9020 	ldrb.w	r9, [sp, #32]
    TimerEvent *evt = getTimerEvent();
 8009560:	f7ff ffcd 	bl	80094fe <_ZN5codal5Timer13getTimerEventEv>
    if (evt == NULL)
 8009564:	b330      	cbz	r0, 80095b4 <_ZN5codal5Timer8setEventEmttb+0x64>
 8009566:	4605      	mov	r5, r0
    evt->set(getTimeUs() + period, repeat ? period: 0, id, value);
 8009568:	4620      	mov	r0, r4
 800956a:	f7ff ffea 	bl	8009542 <_ZN5codal5Timer9getTimeUsEv>
 800956e:	4430      	add	r0, r6
 8009570:	f1b9 0f00 	cmp.w	r9, #0
 8009574:	d01c      	beq.n	80095b0 <_ZN5codal5Timer8setEventEmttb+0x60>
 8009576:	4633      	mov	r3, r6
        CODAL_TIMESTAMP period;
        CODAL_TIMESTAMP timestamp;

        void set(CODAL_TIMESTAMP timestamp, CODAL_TIMESTAMP period, uint16_t id, uint16_t value)
        {
            this->timestamp = timestamp;
 8009578:	60a8      	str	r0, [r5, #8]
            this->period = period;
 800957a:	606b      	str	r3, [r5, #4]
            this->id = id;
 800957c:	f8a5 8000 	strh.w	r8, [r5]
            this->value = value;
 8009580:	806f      	strh	r7, [r5, #2]
    disableInterrupts();
 8009582:	6823      	ldr	r3, [r4, #0]
 8009584:	68db      	ldr	r3, [r3, #12]
 8009586:	4620      	mov	r0, r4
 8009588:	4798      	blx	r3
    if (nextTimerEvent == NULL || evt->timestamp < nextTimerEvent->timestamp)
 800958a:	6963      	ldr	r3, [r4, #20]
 800958c:	b11b      	cbz	r3, 8009596 <_ZN5codal5Timer8setEventEmttb+0x46>
 800958e:	68aa      	ldr	r2, [r5, #8]
 8009590:	689b      	ldr	r3, [r3, #8]
 8009592:	429a      	cmp	r2, r3
 8009594:	d205      	bcs.n	80095a2 <_ZN5codal5Timer8setEventEmttb+0x52>
        nextTimerEvent = evt;
 8009596:	6165      	str	r5, [r4, #20]
        triggerIn(period);
 8009598:	6823      	ldr	r3, [r4, #0]
 800959a:	681b      	ldr	r3, [r3, #0]
 800959c:	4631      	mov	r1, r6
 800959e:	4620      	mov	r0, r4
 80095a0:	4798      	blx	r3
    enableInterrupts();
 80095a2:	6823      	ldr	r3, [r4, #0]
 80095a4:	689b      	ldr	r3, [r3, #8]
 80095a6:	4620      	mov	r0, r4
 80095a8:	4798      	blx	r3
    return DEVICE_OK;
 80095aa:	2000      	movs	r0, #0
}
 80095ac:	e8bd 83f8 	ldmia.w	sp!, {r3, r4, r5, r6, r7, r8, r9, pc}
    evt->set(getTimeUs() + period, repeat ? period: 0, id, value);
 80095b0:	2300      	movs	r3, #0
 80095b2:	e7e1      	b.n	8009578 <_ZN5codal5Timer8setEventEmttb+0x28>
        return DEVICE_NO_RESOURCES;
 80095b4:	f46f 707b 	mvn.w	r0, #1004	; 0x3ec
 80095b8:	e7f8      	b.n	80095ac <_ZN5codal5Timer8setEventEmttb+0x5c>

080095ba <_ZN5codal5Timer12eventEveryUsEmtt>:
{
 80095ba:	b510      	push	{r4, lr}
 80095bc:	b082      	sub	sp, #8
    return setEvent(period, id, value, true);
 80095be:	2401      	movs	r4, #1
 80095c0:	9400      	str	r4, [sp, #0]
 80095c2:	f7ff ffc5 	bl	8009550 <_ZN5codal5Timer8setEventEmttb>
}
 80095c6:	b002      	add	sp, #8
 80095c8:	bd10      	pop	{r4, pc}

080095ca <_ZN5codal5Timer4syncEm>:
    currentTimeUs += t;
 80095ca:	6882      	ldr	r2, [r0, #8]
 80095cc:	440a      	add	r2, r1
 80095ce:	6082      	str	r2, [r0, #8]
    overflow += t;
 80095d0:	68c3      	ldr	r3, [r0, #12]
 80095d2:	440b      	add	r3, r1
 80095d4:	60c3      	str	r3, [r0, #12]
    while(overflow >= 1000)
 80095d6:	68c3      	ldr	r3, [r0, #12]
 80095d8:	f5b3 7f7a 	cmp.w	r3, #1000	; 0x3e8
 80095dc:	d306      	bcc.n	80095ec <_ZN5codal5Timer4syncEm+0x22>
        overflow -= 1000;
 80095de:	f5a3 737a 	sub.w	r3, r3, #1000	; 0x3e8
 80095e2:	60c3      	str	r3, [r0, #12]
        currentTime += 1;
 80095e4:	6843      	ldr	r3, [r0, #4]
 80095e6:	3301      	adds	r3, #1
 80095e8:	6043      	str	r3, [r0, #4]
    while(overflow >= 1000)
 80095ea:	e7f4      	b.n	80095d6 <_ZN5codal5Timer4syncEm+0xc>
}
 80095ec:	4770      	bx	lr

080095ee <_ZN5codal5Timer7triggerEv>:
{
 80095ee:	b5f0      	push	{r4, r5, r6, r7, lr}
 80095f0:	b085      	sub	sp, #20
 80095f2:	4605      	mov	r5, r0
    syncRequest();
 80095f4:	6803      	ldr	r3, [r0, #0]
 80095f6:	685b      	ldr	r3, [r3, #4]
 80095f8:	4798      	blx	r3
        TimerEvent *e = timerEventList;
 80095fa:	692c      	ldr	r4, [r5, #16]
        for (int i=0; i<eventListSize; i++)
 80095fc:	2600      	movs	r6, #0
        eventsFired = 0;
 80095fe:	4637      	mov	r7, r6
 8009600:	e005      	b.n	800960e <_ZN5codal5Timer7triggerEv+0x20>
                    e->timestamp += e->period;
 8009602:	68a3      	ldr	r3, [r4, #8]
 8009604:	4413      	add	r3, r2
 8009606:	60a3      	str	r3, [r4, #8]
                eventsFired++;
 8009608:	3701      	adds	r7, #1
            e++;
 800960a:	340c      	adds	r4, #12
        for (int i=0; i<eventListSize; i++)
 800960c:	3601      	adds	r6, #1
 800960e:	69ab      	ldr	r3, [r5, #24]
 8009610:	42b3      	cmp	r3, r6
 8009612:	dd15      	ble.n	8009640 <_ZN5codal5Timer7triggerEv+0x52>
            if (e->id != 0 && currentTimeUs >= e->timestamp)
 8009614:	8821      	ldrh	r1, [r4, #0]
 8009616:	2900      	cmp	r1, #0
 8009618:	d0f7      	beq.n	800960a <_ZN5codal5Timer7triggerEv+0x1c>
 800961a:	68aa      	ldr	r2, [r5, #8]
 800961c:	68a3      	ldr	r3, [r4, #8]
 800961e:	429a      	cmp	r2, r3
 8009620:	d3f3      	bcc.n	800960a <_ZN5codal5Timer7triggerEv+0x1c>
                Event evt(e->id, e->value, currentTime);
 8009622:	8862      	ldrh	r2, [r4, #2]
 8009624:	2301      	movs	r3, #1
 8009626:	9300      	str	r3, [sp, #0]
 8009628:	686b      	ldr	r3, [r5, #4]
 800962a:	a802      	add	r0, sp, #8
 800962c:	f000 f9d8 	bl	80099e0 <_ZN5codal5EventC1EttmNS_15EventLaunchModeE>
                if (e->period == 0)
 8009630:	6862      	ldr	r2, [r4, #4]
 8009632:	2a00      	cmp	r2, #0
 8009634:	d1e5      	bne.n	8009602 <_ZN5codal5Timer7triggerEv+0x14>
                    releaseTimerEvent(e);
 8009636:	4621      	mov	r1, r4
 8009638:	4628      	mov	r0, r5
 800963a:	f7ff ff72 	bl	8009522 <_ZN5codal5Timer17releaseTimerEventEPNS_10TimerEventE>
 800963e:	e7e3      	b.n	8009608 <_ZN5codal5Timer7triggerEv+0x1a>
    } while (eventsFired);
 8009640:	2f00      	cmp	r7, #0
 8009642:	d1da      	bne.n	80095fa <_ZN5codal5Timer7triggerEv+0xc>
    nextTimerEvent = NULL;
 8009644:	2200      	movs	r2, #0
 8009646:	616a      	str	r2, [r5, #20]
    TimerEvent *e = timerEventList;
 8009648:	692a      	ldr	r2, [r5, #16]
 800964a:	e002      	b.n	8009652 <_ZN5codal5Timer7triggerEv+0x64>
            nextTimerEvent = e;
 800964c:	616a      	str	r2, [r5, #20]
        e++;
 800964e:	320c      	adds	r2, #12
    for (int i=0; i<eventListSize; i++)
 8009650:	3701      	adds	r7, #1
 8009652:	42bb      	cmp	r3, r7
 8009654:	dd0a      	ble.n	800966c <_ZN5codal5Timer7triggerEv+0x7e>
        if (e->id != 0 && (nextTimerEvent == NULL || (e->timestamp < nextTimerEvent->timestamp)))
 8009656:	8811      	ldrh	r1, [r2, #0]
 8009658:	2900      	cmp	r1, #0
 800965a:	d0f8      	beq.n	800964e <_ZN5codal5Timer7triggerEv+0x60>
 800965c:	6969      	ldr	r1, [r5, #20]
 800965e:	2900      	cmp	r1, #0
 8009660:	d0f4      	beq.n	800964c <_ZN5codal5Timer7triggerEv+0x5e>
 8009662:	6890      	ldr	r0, [r2, #8]
 8009664:	6889      	ldr	r1, [r1, #8]
 8009666:	4288      	cmp	r0, r1
 8009668:	d2f1      	bcs.n	800964e <_ZN5codal5Timer7triggerEv+0x60>
 800966a:	e7ef      	b.n	800964c <_ZN5codal5Timer7triggerEv+0x5e>
    if (nextTimerEvent) {
 800966c:	696b      	ldr	r3, [r5, #20]
 800966e:	b143      	cbz	r3, 8009682 <_ZN5codal5Timer7triggerEv+0x94>
        if (currentTimeUs < nextTimerEvent->timestamp)
 8009670:	68aa      	ldr	r2, [r5, #8]
 8009672:	6899      	ldr	r1, [r3, #8]
 8009674:	428a      	cmp	r2, r1
 8009676:	d306      	bcc.n	8009686 <_ZN5codal5Timer7triggerEv+0x98>
            triggerIn(1);
 8009678:	682b      	ldr	r3, [r5, #0]
 800967a:	681b      	ldr	r3, [r3, #0]
 800967c:	2101      	movs	r1, #1
 800967e:	4628      	mov	r0, r5
 8009680:	4798      	blx	r3
}
 8009682:	b005      	add	sp, #20
 8009684:	bdf0      	pop	{r4, r5, r6, r7, pc}
            triggerIn(nextTimerEvent->timestamp - currentTimeUs);
 8009686:	682b      	ldr	r3, [r5, #0]
 8009688:	681b      	ldr	r3, [r3, #0]
 800968a:	1a89      	subs	r1, r1, r2
 800968c:	4628      	mov	r0, r5
 800968e:	4798      	blx	r3
 8009690:	e7f7      	b.n	8009682 <_ZN5codal5Timer7triggerEv+0x94>

08009692 <_ZN5codal5TimerD1Ev>:
}
 8009692:	4770      	bx	lr

08009694 <_ZN5codal10MessageBus9elementAtEi>:
    Listener *l = listeners;
 8009694:	6940      	ldr	r0, [r0, #20]
    while (n > 0)
 8009696:	2900      	cmp	r1, #0
 8009698:	dd03      	ble.n	80096a2 <_ZN5codal10MessageBus9elementAtEi+0xe>
        if (l == NULL)
 800969a:	b110      	cbz	r0, 80096a2 <_ZN5codal10MessageBus9elementAtEi+0xe>
        n--;
 800969c:	3901      	subs	r1, #1
        l = l->next;
 800969e:	69c0      	ldr	r0, [r0, #28]
    while (n > 0)
 80096a0:	e7f9      	b.n	8009696 <_ZN5codal10MessageBus9elementAtEi+0x2>
}
 80096a2:	4770      	bx	lr

080096a4 <_ZN5codal22MemberFunctionCallback10methodCallINS_10MessageBusEEEvPvPmNS_5EventE>:
      * @param method The method to invoke.
      *
      * @param method The Event to supply to the given member function.
      */
    template <typename T>
    void MemberFunctionCallback::methodCall(void *object, uint32_t *method, Event e)
 80096a4:	b510      	push	{r4, lr}
 80096a6:	b084      	sub	sp, #16
 80096a8:	4604      	mov	r4, r0
 80096aa:	4668      	mov	r0, sp
 80096ac:	e880 000c 	stmia.w	r0, {r2, r3}
    {
        T* o = (T*)object;
        void (T::*m)(Event);
        memcpy(&m, method, sizeof(m));
 80096b0:	ab02      	add	r3, sp, #8
 80096b2:	6808      	ldr	r0, [r1, #0]
 80096b4:	6849      	ldr	r1, [r1, #4]
 80096b6:	c303      	stmia	r3!, {r0, r1}

        (o->*m)(e);
 80096b8:	9b03      	ldr	r3, [sp, #12]
 80096ba:	105a      	asrs	r2, r3, #1
 80096bc:	18a0      	adds	r0, r4, r2
 80096be:	f013 0f01 	tst.w	r3, #1
 80096c2:	d008      	beq.n	80096d6 <_ZN5codal22MemberFunctionCallback10methodCallINS_10MessageBusEEEvPvPmNS_5EventE+0x32>
 80096c4:	58a2      	ldr	r2, [r4, r2]
 80096c6:	9b02      	ldr	r3, [sp, #8]
 80096c8:	58d4      	ldr	r4, [r2, r3]
 80096ca:	466b      	mov	r3, sp
 80096cc:	e893 0006 	ldmia.w	r3, {r1, r2}
 80096d0:	47a0      	blx	r4
    }
 80096d2:	b004      	add	sp, #16
 80096d4:	bd10      	pop	{r4, pc}
        (o->*m)(e);
 80096d6:	9c02      	ldr	r4, [sp, #8]
 80096d8:	e7f7      	b.n	80096ca <_ZN5codal22MemberFunctionCallback10methodCallINS_10MessageBusEEEvPvPmNS_5EventE+0x26>

080096da <_Z14async_callbackPv>:
{
 80096da:	b538      	push	{r3, r4, r5, lr}
 80096dc:	4604      	mov	r4, r0
    if (listener->flags & MESSAGE_BUS_LISTENER_BUSY)
 80096de:	8883      	ldrh	r3, [r0, #4]
 80096e0:	f013 0f04 	tst.w	r3, #4
 80096e4:	d005      	beq.n	80096f2 <_Z14async_callbackPv+0x18>
        if (listener->flags & MESSAGE_BUS_LISTENER_DROP_IF_BUSY)
 80096e6:	f013 0f20 	tst.w	r3, #32
 80096ea:	d140      	bne.n	800976e <_Z14async_callbackPv+0x94>
        if (listener->flags & MESSAGE_BUS_LISTENER_QUEUE_IF_BUSY)
 80096ec:	f013 0f10 	tst.w	r3, #16
 80096f0:	d103      	bne.n	80096fa <_Z14async_callbackPv+0x20>
    listener->flags |= MESSAGE_BUS_LISTENER_BUSY;
 80096f2:	f043 0304 	orr.w	r3, r3, #4
 80096f6:	80a3      	strh	r3, [r4, #4]
 80096f8:	e027      	b.n	800974a <_Z14async_callbackPv+0x70>
            listener->queue(listener->evt);
 80096fa:	f100 0310 	add.w	r3, r0, #16
 80096fe:	e893 0006 	ldmia.w	r3, {r1, r2}
 8009702:	f7ff fd7c 	bl	80091fe <_ZN5codal8Listener5queueENS_5EventE>
            return;
 8009706:	e032      	b.n	800976e <_Z14async_callbackPv+0x94>
            listener->cb_method->fire(listener->evt);
 8009708:	f104 0310 	add.w	r3, r4, #16
 800970c:	e893 0006 	ldmia.w	r3, {r1, r2}
 8009710:	68a0      	ldr	r0, [r4, #8]
 8009712:	f000 fa59 	bl	8009bc8 <_ZN5codal22MemberFunctionCallback4fireENS_5EventE>
 8009716:	e005      	b.n	8009724 <_Z14async_callbackPv+0x4a>
            listener->cb(listener->evt);
 8009718:	68a2      	ldr	r2, [r4, #8]
 800971a:	f104 0310 	add.w	r3, r4, #16
 800971e:	e893 0003 	ldmia.w	r3, {r0, r1}
 8009722:	4790      	blx	r2
        if ((listener->flags & MESSAGE_BUS_LISTENER_QUEUE_IF_BUSY) && listener->evt_queue)
 8009724:	88a2      	ldrh	r2, [r4, #4]
 8009726:	f012 0f10 	tst.w	r2, #16
 800972a:	d01d      	beq.n	8009768 <_Z14async_callbackPv+0x8e>
 800972c:	69a3      	ldr	r3, [r4, #24]
 800972e:	b1db      	cbz	r3, 8009768 <_Z14async_callbackPv+0x8e>
            listener->evt = item->evt;
 8009730:	f104 0210 	add.w	r2, r4, #16
 8009734:	e893 0003 	ldmia.w	r3, {r0, r1}
 8009738:	e882 0003 	stmia.w	r2, {r0, r1}
            listener->evt_queue = listener->evt_queue->next;
 800973c:	689a      	ldr	r2, [r3, #8]
 800973e:	61a2      	str	r2, [r4, #24]
            delete item;
 8009740:	4618      	mov	r0, r3
 8009742:	f7f9 fa3f 	bl	8002bc4 <_ZdlPv>
            schedule();
 8009746:	f7fd fe59 	bl	80073fc <_ZN5codal8scheduleEv>
        if (listener->flags & MESSAGE_BUS_LISTENER_METHOD)
 800974a:	88a3      	ldrh	r3, [r4, #4]
 800974c:	f013 0f02 	tst.w	r3, #2
 8009750:	d1da      	bne.n	8009708 <_Z14async_callbackPv+0x2e>
        else if (listener->flags & MESSAGE_BUS_LISTENER_PARAMETERISED)
 8009752:	f013 0f01 	tst.w	r3, #1
 8009756:	d0df      	beq.n	8009718 <_Z14async_callbackPv+0x3e>
            listener->cb_param(listener->evt, listener->cb_arg);
 8009758:	68a5      	ldr	r5, [r4, #8]
 800975a:	68e2      	ldr	r2, [r4, #12]
 800975c:	f104 0310 	add.w	r3, r4, #16
 8009760:	e893 0003 	ldmia.w	r3, {r0, r1}
 8009764:	47a8      	blx	r5
 8009766:	e7dd      	b.n	8009724 <_Z14async_callbackPv+0x4a>
    listener->flags &= ~MESSAGE_BUS_LISTENER_BUSY;
 8009768:	f022 0204 	bic.w	r2, r2, #4
 800976c:	80a2      	strh	r2, [r4, #4]
}
 800976e:	bd38      	pop	{r3, r4, r5, pc}

08009770 <_ZN5codal10MessageBus6removeEPNS_8ListenerE>:
    if (listener == NULL)
 8009770:	2900      	cmp	r1, #0
 8009772:	d032      	beq.n	80097da <_ZN5codal10MessageBus6removeEPNS_8ListenerE+0x6a>
{
 8009774:	b570      	push	{r4, r5, r6, lr}
 8009776:	460d      	mov	r5, r1
    l = listeners;
 8009778:	6944      	ldr	r4, [r0, #20]
    int removed = 0;
 800977a:	2600      	movs	r6, #0
 800977c:	e016      	b.n	80097ac <_ZN5codal10MessageBus6removeEPNS_8ListenerE+0x3c>
            if(((listener->flags & MESSAGE_BUS_LISTENER_METHOD) && (*l->cb_method == *listener->cb_method)) ||
 800977e:	68a9      	ldr	r1, [r5, #8]
 8009780:	68a0      	ldr	r0, [r4, #8]
 8009782:	f000 fa2d 	bl	8009be0 <_ZN5codal22MemberFunctionCallbackeqERKS0_>
 8009786:	b1d8      	cbz	r0, 80097c0 <_ZN5codal10MessageBus6removeEPNS_8ListenerE+0x50>
                if ((listener->id == DEVICE_ID_ANY || listener->id == l->id) && (listener->value == DEVICE_EVT_ANY || listener->value == l->value))
 8009788:	882b      	ldrh	r3, [r5, #0]
 800978a:	b113      	cbz	r3, 8009792 <_ZN5codal10MessageBus6removeEPNS_8ListenerE+0x22>
 800978c:	8822      	ldrh	r2, [r4, #0]
 800978e:	4293      	cmp	r3, r2
 8009790:	d10b      	bne.n	80097aa <_ZN5codal10MessageBus6removeEPNS_8ListenerE+0x3a>
 8009792:	886b      	ldrh	r3, [r5, #2]
 8009794:	b113      	cbz	r3, 800979c <_ZN5codal10MessageBus6removeEPNS_8ListenerE+0x2c>
 8009796:	8862      	ldrh	r2, [r4, #2]
 8009798:	4293      	cmp	r3, r2
 800979a:	d106      	bne.n	80097aa <_ZN5codal10MessageBus6removeEPNS_8ListenerE+0x3a>
                    l->flags |= MESSAGE_BUS_LISTENER_DELETING;
 800979c:	88a3      	ldrh	r3, [r4, #4]
 800979e:	ea6f 4343 	mvn.w	r3, r3, lsl #17
 80097a2:	ea6f 4353 	mvn.w	r3, r3, lsr #17
 80097a6:	80a3      	strh	r3, [r4, #4]
                    removed++;
 80097a8:	3601      	adds	r6, #1
        l = l->next;
 80097aa:	69e4      	ldr	r4, [r4, #28]
    while (l != NULL)
 80097ac:	b18c      	cbz	r4, 80097d2 <_ZN5codal10MessageBus6removeEPNS_8ListenerE+0x62>
        if ((listener->flags & MESSAGE_BUS_LISTENER_METHOD) == (l->flags & MESSAGE_BUS_LISTENER_METHOD))
 80097ae:	88aa      	ldrh	r2, [r5, #4]
 80097b0:	88a3      	ldrh	r3, [r4, #4]
 80097b2:	4053      	eors	r3, r2
 80097b4:	f013 0f02 	tst.w	r3, #2
 80097b8:	d1f7      	bne.n	80097aa <_ZN5codal10MessageBus6removeEPNS_8ListenerE+0x3a>
            if(((listener->flags & MESSAGE_BUS_LISTENER_METHOD) && (*l->cb_method == *listener->cb_method)) ||
 80097ba:	f012 0f02 	tst.w	r2, #2
 80097be:	d1de      	bne.n	800977e <_ZN5codal10MessageBus6removeEPNS_8ListenerE+0xe>
              ((!(listener->flags & MESSAGE_BUS_LISTENER_METHOD) && l->cb == listener->cb)))
 80097c0:	88ab      	ldrh	r3, [r5, #4]
            if(((listener->flags & MESSAGE_BUS_LISTENER_METHOD) && (*l->cb_method == *listener->cb_method)) ||
 80097c2:	f013 0f02 	tst.w	r3, #2
 80097c6:	d1f0      	bne.n	80097aa <_ZN5codal10MessageBus6removeEPNS_8ListenerE+0x3a>
              ((!(listener->flags & MESSAGE_BUS_LISTENER_METHOD) && l->cb == listener->cb)))
 80097c8:	68a2      	ldr	r2, [r4, #8]
 80097ca:	68ab      	ldr	r3, [r5, #8]
 80097cc:	429a      	cmp	r2, r3
 80097ce:	d1ec      	bne.n	80097aa <_ZN5codal10MessageBus6removeEPNS_8ListenerE+0x3a>
 80097d0:	e7da      	b.n	8009788 <_ZN5codal10MessageBus6removeEPNS_8ListenerE+0x18>
    if (removed > 0)
 80097d2:	2e00      	cmp	r6, #0
 80097d4:	dd04      	ble.n	80097e0 <_ZN5codal10MessageBus6removeEPNS_8ListenerE+0x70>
        return DEVICE_OK;
 80097d6:	2000      	movs	r0, #0
}
 80097d8:	bd70      	pop	{r4, r5, r6, pc}
        return DEVICE_INVALID_PARAMETER;
 80097da:	f46f 707a 	mvn.w	r0, #1000	; 0x3e8
}
 80097de:	4770      	bx	lr
        return DEVICE_INVALID_PARAMETER;
 80097e0:	f46f 707a 	mvn.w	r0, #1000	; 0x3e8
 80097e4:	e7f8      	b.n	80097d8 <_ZN5codal10MessageBus6removeEPNS_8ListenerE+0x68>

080097e6 <_ZN5codal10MessageBus12dequeueEventEv>:
{
 80097e6:	b538      	push	{r3, r4, r5, lr}
 80097e8:	4604      	mov	r4, r0
    target_disable_irq();
 80097ea:	f7f7 f8e3 	bl	80009b4 <target_disable_irq>
    if (evt_queue_head != NULL)
 80097ee:	69a5      	ldr	r5, [r4, #24]
 80097f0:	b12d      	cbz	r5, 80097fe <_ZN5codal10MessageBus12dequeueEventEv+0x18>
        evt_queue_head = item->next;
 80097f2:	68ab      	ldr	r3, [r5, #8]
 80097f4:	61a3      	str	r3, [r4, #24]
        if (evt_queue_head == NULL)
 80097f6:	b133      	cbz	r3, 8009806 <_ZN5codal10MessageBus12dequeueEventEv+0x20>
        queueLength--;
 80097f8:	8c63      	ldrh	r3, [r4, #34]	; 0x22
 80097fa:	3b01      	subs	r3, #1
 80097fc:	8463      	strh	r3, [r4, #34]	; 0x22
    target_enable_irq();
 80097fe:	f7f7 f8d7 	bl	80009b0 <target_enable_irq>
}
 8009802:	4628      	mov	r0, r5
 8009804:	bd38      	pop	{r3, r4, r5, pc}
            evt_queue_tail = NULL;
 8009806:	61e3      	str	r3, [r4, #28]
 8009808:	e7f6      	b.n	80097f8 <_ZN5codal10MessageBus12dequeueEventEv+0x12>

0800980a <_ZN5codal10MessageBus21deleteMarkedListenersEv>:
{
 800980a:	e92d 41f0 	stmdb	sp!, {r4, r5, r6, r7, r8, lr}
 800980e:	4607      	mov	r7, r0
    l = listeners;
 8009810:	6944      	ldr	r4, [r0, #20]
    int removed = 0;
 8009812:	2600      	movs	r6, #0
    p = NULL;
 8009814:	4635      	mov	r5, r6
 8009816:	e004      	b.n	8009822 <_ZN5codal10MessageBus21deleteMarkedListenersEv+0x18>
                listeners = l->next;
 8009818:	69e3      	ldr	r3, [r4, #28]
 800981a:	617b      	str	r3, [r7, #20]
 800981c:	e00d      	b.n	800983a <_ZN5codal10MessageBus21deleteMarkedListenersEv+0x30>
        p = l;
 800981e:	4625      	mov	r5, r4
        l = l->next;
 8009820:	69e4      	ldr	r4, [r4, #28]
    while (l != NULL)
 8009822:	b1ac      	cbz	r4, 8009850 <_ZN5codal10MessageBus21deleteMarkedListenersEv+0x46>
        if ((l->flags & MESSAGE_BUS_LISTENER_DELETING) && !(l->flags & MESSAGE_BUS_LISTENER_BUSY))
 8009824:	88a3      	ldrh	r3, [r4, #4]
 8009826:	f413 4f00 	tst.w	r3, #32768	; 0x8000
 800982a:	d0f8      	beq.n	800981e <_ZN5codal10MessageBus21deleteMarkedListenersEv+0x14>
 800982c:	f013 0f04 	tst.w	r3, #4
 8009830:	d1f5      	bne.n	800981e <_ZN5codal10MessageBus21deleteMarkedListenersEv+0x14>
            if (p == NULL)
 8009832:	2d00      	cmp	r5, #0
 8009834:	d0f0      	beq.n	8009818 <_ZN5codal10MessageBus21deleteMarkedListenersEv+0xe>
                p->next = l->next;
 8009836:	69e3      	ldr	r3, [r4, #28]
 8009838:	61eb      	str	r3, [r5, #28]
            l = l->next;
 800983a:	f8d4 801c 	ldr.w	r8, [r4, #28]
            delete t;
 800983e:	4620      	mov	r0, r4
 8009840:	f7ff fcd1 	bl	80091e6 <_ZN5codal8ListenerD1Ev>
 8009844:	4620      	mov	r0, r4
 8009846:	f7f9 f9bd 	bl	8002bc4 <_ZdlPv>
            removed++;
 800984a:	3601      	adds	r6, #1
            l = l->next;
 800984c:	4644      	mov	r4, r8
            continue;
 800984e:	e7e8      	b.n	8009822 <_ZN5codal10MessageBus21deleteMarkedListenersEv+0x18>
}
 8009850:	4630      	mov	r0, r6
 8009852:	e8bd 81f0 	ldmia.w	sp!, {r4, r5, r6, r7, r8, pc}

08009856 <_ZN5codal10MessageBus10queueEventERNS_5EventE>:
{
 8009856:	b5f0      	push	{r4, r5, r6, r7, lr}
 8009858:	b083      	sub	sp, #12
 800985a:	4604      	mov	r4, r0
 800985c:	460e      	mov	r6, r1
    EventQueueItem *prev = evt_queue_tail;
 800985e:	69c5      	ldr	r5, [r0, #28]
    processingComplete = this->process(evt, true);
 8009860:	2201      	movs	r2, #1
 8009862:	f7fe f8af 	bl	80079c4 <_ZN5codal10MessageBus7processERNS_5EventEb>
    if (processingComplete)
 8009866:	b910      	cbnz	r0, 800986e <_ZN5codal10MessageBus10queueEventERNS_5EventE+0x18>
    if (queueLength >= MESSAGE_BUS_LISTENER_MAX_QUEUE_DEPTH)
 8009868:	8c63      	ldrh	r3, [r4, #34]	; 0x22
 800986a:	2b09      	cmp	r3, #9
 800986c:	d901      	bls.n	8009872 <_ZN5codal10MessageBus10queueEventERNS_5EventE+0x1c>
}
 800986e:	b003      	add	sp, #12
 8009870:	bdf0      	pop	{r4, r5, r6, r7, pc}
    EventQueueItem *item = new EventQueueItem(evt);
 8009872:	466f      	mov	r7, sp
 8009874:	e896 0003 	ldmia.w	r6, {r0, r1}
 8009878:	e887 0003 	stmia.w	r7, {r0, r1}
 800987c:	200c      	movs	r0, #12
 800987e:	f7f9 f99d 	bl	8002bbc <_Znwj>
 8009882:	4606      	mov	r6, r0
 8009884:	e897 0006 	ldmia.w	r7, {r1, r2}
 8009888:	f000 f8b8 	bl	80099fc <_ZN5codal14EventQueueItemC1ENS_5EventE>
    target_disable_irq();
 800988c:	f7f7 f892 	bl	80009b4 <target_disable_irq>
    if (prev == NULL)
 8009890:	b155      	cbz	r5, 80098a8 <_ZN5codal10MessageBus10queueEventERNS_5EventE+0x52>
        item->next = prev->next;
 8009892:	68ab      	ldr	r3, [r5, #8]
 8009894:	60b3      	str	r3, [r6, #8]
        prev->next = item;
 8009896:	60ae      	str	r6, [r5, #8]
    if (item->next == NULL)
 8009898:	68b3      	ldr	r3, [r6, #8]
 800989a:	b14b      	cbz	r3, 80098b0 <_ZN5codal10MessageBus10queueEventERNS_5EventE+0x5a>
    queueLength++;
 800989c:	8c63      	ldrh	r3, [r4, #34]	; 0x22
 800989e:	3301      	adds	r3, #1
 80098a0:	8463      	strh	r3, [r4, #34]	; 0x22
    target_enable_irq();
 80098a2:	f7f7 f885 	bl	80009b0 <target_enable_irq>
 80098a6:	e7e2      	b.n	800986e <_ZN5codal10MessageBus10queueEventERNS_5EventE+0x18>
        item->next = evt_queue_head;
 80098a8:	69a3      	ldr	r3, [r4, #24]
 80098aa:	60b3      	str	r3, [r6, #8]
        evt_queue_head = item;
 80098ac:	61a6      	str	r6, [r4, #24]
 80098ae:	e7f3      	b.n	8009898 <_ZN5codal10MessageBus10queueEventERNS_5EventE+0x42>
        evt_queue_tail = item;
 80098b0:	61e6      	str	r6, [r4, #28]
 80098b2:	e7f3      	b.n	800989c <_ZN5codal10MessageBus10queueEventERNS_5EventE+0x46>

080098b4 <_ZN5codal10MessageBus4sendENS_5EventE>:
{
 80098b4:	b500      	push	{lr}
 80098b6:	b083      	sub	sp, #12
 80098b8:	466b      	mov	r3, sp
 80098ba:	e883 0006 	stmia.w	r3, {r1, r2}
    this->queueEvent(evt);
 80098be:	4619      	mov	r1, r3
 80098c0:	f7ff ffc9 	bl	8009856 <_ZN5codal10MessageBus10queueEventERNS_5EventE>
}
 80098c4:	2000      	movs	r0, #0
 80098c6:	b003      	add	sp, #12
 80098c8:	f85d fb04 	ldr.w	pc, [sp], #4

080098cc <_ZN5codal10MessageBus4idleENS_5EventE>:
{
 80098cc:	b530      	push	{r4, r5, lr}
 80098ce:	b083      	sub	sp, #12
 80098d0:	4605      	mov	r5, r0
 80098d2:	ab02      	add	r3, sp, #8
 80098d4:	e903 0006 	stmdb	r3, {r1, r2}
    this->deleteMarkedListeners();
 80098d8:	f7ff ff97 	bl	800980a <_ZN5codal10MessageBus21deleteMarkedListenersEv>
    EventQueueItem *item = this->dequeueEvent();
 80098dc:	4628      	mov	r0, r5
 80098de:	f7ff ff82 	bl	80097e6 <_ZN5codal10MessageBus12dequeueEventEv>
 80098e2:	4604      	mov	r4, r0
    while (item)
 80098e4:	b17c      	cbz	r4, 8009906 <_ZN5codal10MessageBus4idleENS_5EventE+0x3a>
        this->process(item->evt);
 80098e6:	2200      	movs	r2, #0
 80098e8:	4621      	mov	r1, r4
 80098ea:	4628      	mov	r0, r5
 80098ec:	f7fe f86a 	bl	80079c4 <_ZN5codal10MessageBus7processERNS_5EventEb>
        delete item;
 80098f0:	4620      	mov	r0, r4
 80098f2:	f7f9 f967 	bl	8002bc4 <_ZdlPv>
        if(!scheduler_runqueue_empty())
 80098f6:	f7fd fd57 	bl	80073a8 <_ZN5codal24scheduler_runqueue_emptyEv>
 80098fa:	b120      	cbz	r0, 8009906 <_ZN5codal10MessageBus4idleENS_5EventE+0x3a>
        item = this->dequeueEvent();
 80098fc:	4628      	mov	r0, r5
 80098fe:	f7ff ff72 	bl	80097e6 <_ZN5codal10MessageBus12dequeueEventEv>
 8009902:	4604      	mov	r4, r0
    while (item)
 8009904:	e7ee      	b.n	80098e4 <_ZN5codal10MessageBus4idleENS_5EventE+0x18>
}
 8009906:	b003      	add	sp, #12
 8009908:	bd30      	pop	{r4, r5, pc}

0800990a <_ZN5codal8ListenerC1INS_10MessageBusEEEttPT_MS3_FvNS_5EventEEt>:
      *
      * @param flags User specified, implementation specific flags, that allow behaviour of this events listener
      * to be tuned.
      */
    template <typename T>
    Listener::Listener(uint16_t id, uint16_t value, T* object, void (T::*method)(Event), uint16_t flags)
 800990a:	b5f8      	push	{r3, r4, r5, r6, r7, lr}
 800990c:	4604      	mov	r4, r0
 800990e:	460f      	mov	r7, r1
 8009910:	4615      	mov	r5, r2
 8009912:	461e      	mov	r6, r3
 8009914:	3010      	adds	r0, #16
 8009916:	f000 f84a 	bl	80099ae <_ZN5codal5EventC1Ev>
    {
        this->id = id;
 800991a:	8027      	strh	r7, [r4, #0]
        this->value = value;
 800991c:	8065      	strh	r5, [r4, #2]
        this->cb_method = new MemberFunctionCallback(object, method);
 800991e:	2018      	movs	r0, #24
 8009920:	f7f9 f94c 	bl	8002bbc <_Znwj>
 8009924:	4605      	mov	r5, r0
 8009926:	ab06      	add	r3, sp, #24
 8009928:	cb0c      	ldmia	r3, {r2, r3}
 800992a:	4631      	mov	r1, r6
 800992c:	f7fe f896 	bl	8007a5c <_ZN5codal22MemberFunctionCallbackC1INS_10MessageBusEEEPT_MS3_FvNS_5EventEE>
 8009930:	60a5      	str	r5, [r4, #8]
        this->cb_arg = NULL;
 8009932:	2300      	movs	r3, #0
 8009934:	60e3      	str	r3, [r4, #12]
        this->flags = flags | MESSAGE_BUS_LISTENER_METHOD;
 8009936:	f8bd 2020 	ldrh.w	r2, [sp, #32]
 800993a:	f042 0202 	orr.w	r2, r2, #2
 800993e:	80a2      	strh	r2, [r4, #4]
        this->evt_queue = NULL;
 8009940:	61a3      	str	r3, [r4, #24]
        this->next = NULL;
 8009942:	61e3      	str	r3, [r4, #28]
    }
 8009944:	4620      	mov	r0, r4
 8009946:	bdf8      	pop	{r3, r4, r5, r6, r7, pc}

08009948 <_ZN5codal10EventModel6ignoreINS_10MessageBusEEEittPT_MS3_FvNS_5EventEE>:
      * // the previously created listener is now ignored.
      * uBit.messageBus.ignore(DEVICE_ID_BUTTON_B, DEVICE_BUTTON_EVT_CLICK, s, &SomeClass::onButtonBClick);
      * @endcode
      */
    template <typename T>
    int EventModel::ignore(uint16_t id, uint16_t value, T* object, void (T::*handler)(Event))
 8009948:	b530      	push	{r4, r5, lr}
 800994a:	b08d      	sub	sp, #52	; 0x34
    {
        if (handler == NULL)
 800994c:	9c10      	ldr	r4, [sp, #64]	; 0x40
 800994e:	b1b4      	cbz	r4, 800997e <_ZN5codal10EventModel6ignoreINS_10MessageBusEEEittPT_MS3_FvNS_5EventEE+0x36>
 8009950:	460d      	mov	r5, r1
 8009952:	4604      	mov	r4, r0
            return DEVICE_INVALID_PARAMETER;

        Listener listener(id, value, object, handler);
 8009954:	2110      	movs	r1, #16
 8009956:	9102      	str	r1, [sp, #8]
 8009958:	a910      	add	r1, sp, #64	; 0x40
 800995a:	c903      	ldmia	r1, {r0, r1}
 800995c:	e88d 0003 	stmia.w	sp, {r0, r1}
 8009960:	4629      	mov	r1, r5
 8009962:	a804      	add	r0, sp, #16
 8009964:	f7ff ffd1 	bl	800990a <_ZN5codal8ListenerC1INS_10MessageBusEEEttPT_MS3_FvNS_5EventEEt>
        remove(&listener);
 8009968:	6823      	ldr	r3, [r4, #0]
 800996a:	689b      	ldr	r3, [r3, #8]
 800996c:	a904      	add	r1, sp, #16
 800996e:	4620      	mov	r0, r4
 8009970:	4798      	blx	r3
        Listener listener(id, value, object, handler);
 8009972:	a804      	add	r0, sp, #16
 8009974:	f7ff fc37 	bl	80091e6 <_ZN5codal8ListenerD1Ev>

        return DEVICE_OK;
 8009978:	2000      	movs	r0, #0
    }
 800997a:	b00d      	add	sp, #52	; 0x34
 800997c:	bd30      	pop	{r4, r5, pc}
        if (handler == NULL)
 800997e:	9c11      	ldr	r4, [sp, #68]	; 0x44
 8009980:	f014 0f01 	tst.w	r4, #1
 8009984:	d1e4      	bne.n	8009950 <_ZN5codal10EventModel6ignoreINS_10MessageBusEEEittPT_MS3_FvNS_5EventEE+0x8>
            return DEVICE_INVALID_PARAMETER;
 8009986:	f46f 707a 	mvn.w	r0, #1000	; 0x3e8
 800998a:	e7f6      	b.n	800997a <_ZN5codal10EventModel6ignoreINS_10MessageBusEEEittPT_MS3_FvNS_5EventEE+0x32>

0800998c <_ZThn8_N5codal10MessageBusD1Ev>:
        virtual Listener *elementAt(int n);

        /**
          * Destructor for MessageBus, where we deregister this instance from the array of fiber components.
          */
        ~MessageBus();
 800998c:	f1a0 0008 	sub.w	r0, r0, #8
 8009990:	f7fe b8fc 	b.w	8007b8c <_ZN5codal10MessageBusD1Ev>

08009994 <_ZN5codal10MessageBusD0Ev>:
MessageBus::~MessageBus()
 8009994:	b510      	push	{r4, lr}
 8009996:	4604      	mov	r4, r0
}
 8009998:	f7fe f8f8 	bl	8007b8c <_ZN5codal10MessageBusD1Ev>
 800999c:	4620      	mov	r0, r4
 800999e:	f7f9 f911 	bl	8002bc4 <_ZdlPv>
 80099a2:	4620      	mov	r0, r4
 80099a4:	bd10      	pop	{r4, pc}

080099a6 <_ZThn8_N5codal10MessageBusD0Ev>:
 80099a6:	f1a0 0008 	sub.w	r0, r0, #8
 80099aa:	f7ff bff3 	b.w	8009994 <_ZN5codal10MessageBusD0Ev>

080099ae <_ZN5codal5EventC1Ev>:
Event::Event()
 80099ae:	b510      	push	{r4, lr}
 80099b0:	4604      	mov	r4, r0
    this->source = 0;
 80099b2:	2300      	movs	r3, #0
 80099b4:	8003      	strh	r3, [r0, #0]
    this->value = 0;
 80099b6:	8043      	strh	r3, [r0, #2]
    this->timestamp = system_timer_current_time();
 80099b8:	f7fd ff60 	bl	800787c <_ZN5codal25system_timer_current_timeEv>
 80099bc:	6060      	str	r0, [r4, #4]
}
 80099be:	4620      	mov	r0, r4
 80099c0:	bd10      	pop	{r4, pc}

080099c2 <_ZN5codal5EventC1EttNS_15EventLaunchModeE>:
Event::Event(uint16_t source, uint16_t value, EventLaunchMode mode)
 80099c2:	b538      	push	{r3, r4, r5, lr}
 80099c4:	4604      	mov	r4, r0
 80099c6:	461d      	mov	r5, r3
    this->source = source;
 80099c8:	8001      	strh	r1, [r0, #0]
    this->value = value;
 80099ca:	8042      	strh	r2, [r0, #2]
    this->timestamp = system_timer_current_time();
 80099cc:	f7fd ff56 	bl	800787c <_ZN5codal25system_timer_current_timeEv>
 80099d0:	6060      	str	r0, [r4, #4]
    if(mode != CREATE_ONLY)
 80099d2:	b90d      	cbnz	r5, 80099d8 <_ZN5codal5EventC1EttNS_15EventLaunchModeE+0x16>
}
 80099d4:	4620      	mov	r0, r4
 80099d6:	bd38      	pop	{r3, r4, r5, pc}
        this->fire();
 80099d8:	4620      	mov	r0, r4
 80099da:	f7fe f8ff 	bl	8007bdc <_ZN5codal5Event4fireEv>
 80099de:	e7f9      	b.n	80099d4 <_ZN5codal5EventC1EttNS_15EventLaunchModeE+0x12>

080099e0 <_ZN5codal5EventC1EttmNS_15EventLaunchModeE>:
  Event::Event(uint16_t source, uint16_t value, CODAL_TIMESTAMP currentTimeUs, EventLaunchMode mode)
 80099e0:	b510      	push	{r4, lr}
 80099e2:	4604      	mov	r4, r0
 80099e4:	f89d 0008 	ldrb.w	r0, [sp, #8]
      this->source = source;
 80099e8:	8021      	strh	r1, [r4, #0]
      this->value = value;
 80099ea:	8062      	strh	r2, [r4, #2]
      this->timestamp = currentTimeUs;
 80099ec:	6063      	str	r3, [r4, #4]
      if(mode != CREATE_ONLY)
 80099ee:	b908      	cbnz	r0, 80099f4 <_ZN5codal5EventC1EttmNS_15EventLaunchModeE+0x14>
  }
 80099f0:	4620      	mov	r0, r4
 80099f2:	bd10      	pop	{r4, pc}
          this->fire();
 80099f4:	4620      	mov	r0, r4
 80099f6:	f7fe f8f1 	bl	8007bdc <_ZN5codal5Event4fireEv>
 80099fa:	e7f9      	b.n	80099f0 <_ZN5codal5EventC1EttmNS_15EventLaunchModeE+0x10>

080099fc <_ZN5codal14EventQueueItemC1ENS_5EventE>:
  * Constructor.
  * Create a new EventQueueItem.
  *
  * @param evt The event to be queued.
  */
EventQueueItem::EventQueueItem(Event evt)
 80099fc:	b530      	push	{r4, r5, lr}
 80099fe:	b083      	sub	sp, #12
 8009a00:	4604      	mov	r4, r0
 8009a02:	466d      	mov	r5, sp
 8009a04:	e885 0006 	stmia.w	r5, {r1, r2}
 8009a08:	f7ff ffd1 	bl	80099ae <_ZN5codal5EventC1Ev>
{
    this->evt = evt;
 8009a0c:	e895 0003 	ldmia.w	r5, {r0, r1}
 8009a10:	e884 0003 	stmia.w	r4, {r0, r1}
    this->next = NULL;
 8009a14:	2300      	movs	r3, #0
 8009a16:	60a3      	str	r3, [r4, #8]
}
 8009a18:	4620      	mov	r0, r4
 8009a1a:	b003      	add	sp, #12
 8009a1c:	bd30      	pop	{r4, r5, pc}

08009a1e <_ZN5codal13ManagedStringD1Ev>:
ManagedString::~ManagedString()
 8009a1e:	b510      	push	{r4, lr}
 8009a20:	4604      	mov	r4, r0
    ptr->decr();
 8009a22:	6800      	ldr	r0, [r0, #0]
 8009a24:	f000 f895 	bl	8009b52 <_ZN5codal10RefCounted4decrEv>
}
 8009a28:	4620      	mov	r0, r4
 8009a2a:	bd10      	pop	{r4, pc}

08009a2c <_ZN5codal13ManagedString10initStringEPKci>:
{
 8009a2c:	b570      	push	{r4, r5, r6, lr}
 8009a2e:	4605      	mov	r5, r0
 8009a30:	460e      	mov	r6, r1
 8009a32:	4614      	mov	r4, r2
    ptr = (StringData *) malloc(sizeof(StringData) + len + 1);
 8009a34:	1d50      	adds	r0, r2, #5
 8009a36:	f7fd fe77 	bl	8007728 <device_malloc>
 8009a3a:	6028      	str	r0, [r5, #0]
    REF_COUNTED_INIT(ptr);
 8009a3c:	f000 f8a8 	bl	8009b90 <_ZN5codal10RefCounted4initEv>
    ptr->len = len;
 8009a40:	682b      	ldr	r3, [r5, #0]
 8009a42:	805c      	strh	r4, [r3, #2]
    memcpy(ptr->data, str, len);
 8009a44:	6828      	ldr	r0, [r5, #0]
 8009a46:	4622      	mov	r2, r4
 8009a48:	4631      	mov	r1, r6
 8009a4a:	3004      	adds	r0, #4
 8009a4c:	f7f8 fdb1 	bl	80025b2 <memcpy>
    ptr->data[len] = 0;
 8009a50:	682b      	ldr	r3, [r5, #0]
 8009a52:	441c      	add	r4, r3
 8009a54:	2300      	movs	r3, #0
 8009a56:	7123      	strb	r3, [r4, #4]
}
 8009a58:	bd70      	pop	{r4, r5, r6, pc}

08009a5a <_ZN5codal13ManagedStringC1EPNS_10StringDataE>:
ManagedString::ManagedString(StringData *p)
 8009a5a:	b510      	push	{r4, lr}
 8009a5c:	4604      	mov	r4, r0
    if(p == NULL)
 8009a5e:	b129      	cbz	r1, 8009a6c <_ZN5codal13ManagedStringC1EPNS_10StringDataE+0x12>
 8009a60:	4608      	mov	r0, r1
    ptr = p;
 8009a62:	6021      	str	r1, [r4, #0]
    ptr->incr();
 8009a64:	f000 f861 	bl	8009b2a <_ZN5codal10RefCounted4incrEv>
}
 8009a68:	4620      	mov	r0, r4
 8009a6a:	bd10      	pop	{r4, pc}
        initEmpty();
 8009a6c:	f7fe f8c4 	bl	8007bf8 <_ZN5codal13ManagedString9initEmptyEv>
        return;
 8009a70:	e7fa      	b.n	8009a68 <_ZN5codal13ManagedStringC1EPNS_10StringDataE+0xe>

08009a72 <_ZN5codal13ManagedStringC1Ei>:
ManagedString::ManagedString(const int value)
 8009a72:	b510      	push	{r4, lr}
 8009a74:	b084      	sub	sp, #16
 8009a76:	4604      	mov	r4, r0
 8009a78:	4608      	mov	r0, r1
    itoa(value, str);
 8009a7a:	a901      	add	r1, sp, #4
 8009a7c:	f7fe f8de 	bl	8007c3c <_ZN5codal4itoaEiPc>
    initString(str, strlen(str));
 8009a80:	a801      	add	r0, sp, #4
 8009a82:	f7f8 fdae 	bl	80025e2 <strlen>
 8009a86:	4602      	mov	r2, r0
 8009a88:	a901      	add	r1, sp, #4
 8009a8a:	4620      	mov	r0, r4
 8009a8c:	f7ff ffce 	bl	8009a2c <_ZN5codal13ManagedString10initStringEPKci>
}
 8009a90:	4620      	mov	r0, r4
 8009a92:	b004      	add	sp, #16
 8009a94:	bd10      	pop	{r4, pc}

08009a96 <_ZN5codal13ManagedStringC1EPKcs>:
ManagedString::ManagedString(const char *str, const int16_t length)
 8009a96:	b5f8      	push	{r3, r4, r5, r6, r7, lr}
 8009a98:	4604      	mov	r4, r0
    if (str == NULL || *str == 0 || (uint16_t)length > strlen(str)) // XXX length should be unsigned on the interface
 8009a9a:	b149      	cbz	r1, 8009ab0 <_ZN5codal13ManagedStringC1EPKcs+0x1a>
 8009a9c:	4617      	mov	r7, r2
 8009a9e:	460d      	mov	r5, r1
 8009aa0:	780b      	ldrb	r3, [r1, #0]
 8009aa2:	b12b      	cbz	r3, 8009ab0 <_ZN5codal13ManagedStringC1EPKcs+0x1a>
 8009aa4:	b296      	uxth	r6, r2
 8009aa6:	4608      	mov	r0, r1
 8009aa8:	f7f8 fd9b 	bl	80025e2 <strlen>
 8009aac:	4286      	cmp	r6, r0
 8009aae:	d904      	bls.n	8009aba <_ZN5codal13ManagedStringC1EPKcs+0x24>
        initEmpty();
 8009ab0:	4620      	mov	r0, r4
 8009ab2:	f7fe f8a1 	bl	8007bf8 <_ZN5codal13ManagedString9initEmptyEv>
}
 8009ab6:	4620      	mov	r0, r4
 8009ab8:	bdf8      	pop	{r3, r4, r5, r6, r7, pc}
    initString(str, length);
 8009aba:	463a      	mov	r2, r7
 8009abc:	4629      	mov	r1, r5
 8009abe:	4620      	mov	r0, r4
 8009ac0:	f7ff ffb4 	bl	8009a2c <_ZN5codal13ManagedString10initStringEPKci>
 8009ac4:	e7f7      	b.n	8009ab6 <_ZN5codal13ManagedStringC1EPKcs+0x20>

08009ac6 <_ZN5codal13ManagedStringC1ERKS0_>:
ManagedString::ManagedString(const ManagedString &s)
 8009ac6:	b510      	push	{r4, lr}
 8009ac8:	4604      	mov	r4, r0
    ptr = s.ptr;
 8009aca:	6808      	ldr	r0, [r1, #0]
 8009acc:	6020      	str	r0, [r4, #0]
    ptr->incr();
 8009ace:	f000 f82c 	bl	8009b2a <_ZN5codal10RefCounted4incrEv>
}
 8009ad2:	4620      	mov	r0, r4
 8009ad4:	bd10      	pop	{r4, pc}

08009ad6 <_ZN5codal13ManagedStringC1Ev>:
ManagedString::ManagedString()
 8009ad6:	b510      	push	{r4, lr}
 8009ad8:	4604      	mov	r4, r0
    initEmpty();
 8009ada:	f7fe f88d 	bl	8007bf8 <_ZN5codal13ManagedString9initEmptyEv>
}
 8009ade:	4620      	mov	r0, r4
 8009ae0:	bd10      	pop	{r4, pc}

08009ae2 <_ZN5codal13ManagedStringaSERKS0_>:
{
 8009ae2:	b538      	push	{r3, r4, r5, lr}
 8009ae4:	4604      	mov	r4, r0
    if (this->ptr == s.ptr)
 8009ae6:	6800      	ldr	r0, [r0, #0]
 8009ae8:	680b      	ldr	r3, [r1, #0]
 8009aea:	4298      	cmp	r0, r3
 8009aec:	d006      	beq.n	8009afc <_ZN5codal13ManagedStringaSERKS0_+0x1a>
 8009aee:	460d      	mov	r5, r1
    ptr->decr();
 8009af0:	f000 f82f 	bl	8009b52 <_ZN5codal10RefCounted4decrEv>
    ptr = s.ptr;
 8009af4:	6828      	ldr	r0, [r5, #0]
 8009af6:	6020      	str	r0, [r4, #0]
    ptr->incr();
 8009af8:	f000 f817 	bl	8009b2a <_ZN5codal10RefCounted4incrEv>
}
 8009afc:	4620      	mov	r0, r4
 8009afe:	bd38      	pop	{r3, r4, r5, pc}

08009b00 <_ZN5codal13ManagedString6charAtEs>:
    return (index >=0 && index < length()) ? ptr->data[index] : 0;
 8009b00:	2900      	cmp	r1, #0
 8009b02:	db07      	blt.n	8009b14 <_ZN5codal13ManagedString6charAtEs+0x14>
 8009b04:	6803      	ldr	r3, [r0, #0]
 8009b06:	f9b3 2002 	ldrsh.w	r2, [r3, #2]
 8009b0a:	4291      	cmp	r1, r2
 8009b0c:	da04      	bge.n	8009b18 <_ZN5codal13ManagedString6charAtEs+0x18>
 8009b0e:	440b      	add	r3, r1
 8009b10:	7918      	ldrb	r0, [r3, #4]
 8009b12:	4770      	bx	lr
 8009b14:	2000      	movs	r0, #0
 8009b16:	4770      	bx	lr
 8009b18:	2000      	movs	r0, #0
}
 8009b1a:	4770      	bx	lr

08009b1c <_GLOBAL__sub_I__ZN5codal13ManagedString9initEmptyEv>:
ManagedString ManagedString::EmptyString(EMPTY_DATA);
 8009b1c:	b508      	push	{r3, lr}
 8009b1e:	f64f 71ff 	movw	r1, #65535	; 0xffff
 8009b22:	2001      	movs	r0, #1
 8009b24:	f7fe f86e 	bl	8007c04 <_Z41__static_initialization_and_destruction_0ii>
 8009b28:	bd08      	pop	{r3, pc}

08009b2a <_ZN5codal10RefCounted4incrEv>:
  *
  * @return true if the object resides in flash memory, false otherwise.
  */
static inline bool isReadOnlyInline(RefCounted *t)
{
    uint32_t refCount = t->refCount;
 8009b2a:	8803      	ldrh	r3, [r0, #0]

    if (refCount == 0xffff)
 8009b2c:	f64f 72ff 	movw	r2, #65535	; 0xffff
 8009b30:	4293      	cmp	r3, r2
 8009b32:	d00d      	beq.n	8009b50 <_ZN5codal10RefCounted4incrEv+0x26>

/**
  * Increment reference count.
  */
void RefCounted::incr()
{
 8009b34:	b510      	push	{r4, lr}
 8009b36:	4604      	mov	r4, r0
    if (refCount == 1 ||        // object should have been deleted
 8009b38:	2b01      	cmp	r3, #1
 8009b3a:	d002      	beq.n	8009b42 <_ZN5codal10RefCounted4incrEv+0x18>
 8009b3c:	f013 0f01 	tst.w	r3, #1
 8009b40:	d102      	bne.n	8009b48 <_ZN5codal10RefCounted4incrEv+0x1e>
        target_panic(DEVICE_HEAP_ERROR);
 8009b42:	201e      	movs	r0, #30
 8009b44:	f7f6 fed4 	bl	80008f0 <target_panic>
    if (!isReadOnlyInline(this))
        refCount += 2;
 8009b48:	8823      	ldrh	r3, [r4, #0]
 8009b4a:	3302      	adds	r3, #2
 8009b4c:	8023      	strh	r3, [r4, #0]
}
 8009b4e:	bd10      	pop	{r4, pc}
 8009b50:	4770      	bx	lr

08009b52 <_ZN5codal10RefCounted4decrEv>:
    uint32_t refCount = t->refCount;
 8009b52:	8803      	ldrh	r3, [r0, #0]
    if (refCount == 0xffff)
 8009b54:	f64f 72ff 	movw	r2, #65535	; 0xffff
 8009b58:	4293      	cmp	r3, r2
 8009b5a:	d014      	beq.n	8009b86 <_ZN5codal10RefCounted4decrEv+0x34>

/**
  * Decrement reference count.
  */
void RefCounted::decr()
{
 8009b5c:	b510      	push	{r4, lr}
 8009b5e:	4604      	mov	r4, r0
    if (refCount == 1 ||        // object should have been deleted
 8009b60:	2b01      	cmp	r3, #1
 8009b62:	d002      	beq.n	8009b6a <_ZN5codal10RefCounted4decrEv+0x18>
 8009b64:	f013 0f01 	tst.w	r3, #1
 8009b68:	d102      	bne.n	8009b70 <_ZN5codal10RefCounted4decrEv+0x1e>
        target_panic(DEVICE_HEAP_ERROR);
 8009b6a:	201e      	movs	r0, #30
 8009b6c:	f7f6 fec0 	bl	80008f0 <target_panic>
    if (isReadOnlyInline(this))
        return;

    refCount -= 2;
 8009b70:	8823      	ldrh	r3, [r4, #0]
 8009b72:	3b02      	subs	r3, #2
 8009b74:	b29b      	uxth	r3, r3
 8009b76:	8023      	strh	r3, [r4, #0]
    if (refCount == 1) {
 8009b78:	2b01      	cmp	r3, #1
 8009b7a:	d000      	beq.n	8009b7e <_ZN5codal10RefCounted4decrEv+0x2c>
        // if we just call plain free(), the write to refCount will
        // be optimized away, and it will stay '3'; this way we make
        // sure to get a panic on next incr()/decr()
        destroy();
    }
}
 8009b7c:	bd10      	pop	{r4, pc}
        destroy();
 8009b7e:	4620      	mov	r0, r4
 8009b80:	f000 f802 	bl	8009b88 <_ZN5codal10RefCounted7destroyEv>
 8009b84:	e7fa      	b.n	8009b7c <_ZN5codal10RefCounted4decrEv+0x2a>
 8009b86:	4770      	bx	lr

08009b88 <_ZN5codal10RefCounted7destroyEv>:

/**
  * Releases the current instance.
  */
void RefCounted::destroy()
{
 8009b88:	b508      	push	{r3, lr}
    free(this);
 8009b8a:	f7fd fdf7 	bl	800777c <device_free>
}
 8009b8e:	bd08      	pop	{r3, pc}

08009b90 <_ZN5codal10RefCounted4initEv>:
  * Initializes for one outstanding reference.
  */
void RefCounted::init()
{
    // Initialize to one reference (lowest bit set to 1)
    refCount = 3;
 8009b90:	2303      	movs	r3, #3
 8009b92:	8003      	strh	r3, [r0, #0]
}
 8009b94:	4770      	bx	lr

08009b96 <_ZN5codal14string_reverseEPc>:
    if(s == NULL)
 8009b96:	b190      	cbz	r0, 8009bbe <_ZN5codal14string_reverseEPc+0x28>
{
 8009b98:	b538      	push	{r3, r4, r5, lr}
 8009b9a:	4604      	mov	r4, r0
    j = s + strlen(s) - 1;
 8009b9c:	f7f8 fd21 	bl	80025e2 <strlen>
 8009ba0:	3801      	subs	r0, #1
 8009ba2:	4420      	add	r0, r4
    while(s < j)
 8009ba4:	4284      	cmp	r4, r0
 8009ba6:	d20d      	bcs.n	8009bc4 <_ZN5codal14string_reverseEPc+0x2e>
        c = *s;
 8009ba8:	4623      	mov	r3, r4
 8009baa:	f813 1b01 	ldrb.w	r1, [r3], #1
        *s++ = *j;
 8009bae:	4602      	mov	r2, r0
 8009bb0:	f812 5901 	ldrb.w	r5, [r2], #-1
 8009bb4:	7025      	strb	r5, [r4, #0]
        *j-- = c;
 8009bb6:	7001      	strb	r1, [r0, #0]
 8009bb8:	4610      	mov	r0, r2
        *s++ = *j;
 8009bba:	461c      	mov	r4, r3
    while(s < j)
 8009bbc:	e7f2      	b.n	8009ba4 <_ZN5codal14string_reverseEPc+0xe>
        return DEVICE_INVALID_PARAMETER;
 8009bbe:	f46f 707a 	mvn.w	r0, #1000	; 0x3e8
}
 8009bc2:	4770      	bx	lr
    return DEVICE_OK;
 8009bc4:	2000      	movs	r0, #0
}
 8009bc6:	bd38      	pop	{r3, r4, r5, pc}

08009bc8 <_ZN5codal22MemberFunctionCallback4fireENS_5EventE>:
  * Calls the method reference held by this MemberFunctionCallback.
  *
  * @param e The event to deliver to the method
  */
void MemberFunctionCallback::fire(Event e)
{
 8009bc8:	b510      	push	{r4, lr}
 8009bca:	b082      	sub	sp, #8
 8009bcc:	466b      	mov	r3, sp
 8009bce:	e883 0006 	stmia.w	r3, {r1, r2}
    invoke(object, method, e);
 8009bd2:	6944      	ldr	r4, [r0, #20]
 8009bd4:	cb0c      	ldmia	r3, {r2, r3}
 8009bd6:	1d01      	adds	r1, r0, #4
 8009bd8:	6800      	ldr	r0, [r0, #0]
 8009bda:	47a0      	blx	r4
}
 8009bdc:	b002      	add	sp, #8
 8009bde:	bd10      	pop	{r4, pc}

08009be0 <_ZN5codal22MemberFunctionCallbackeqERKS0_>:
  * A comparison of two MemberFunctionCallback objects.
  *
  * @return true if the given MemberFunctionCallback is equivalent to this one, false otherwise.
  */
bool MemberFunctionCallback::operator==(const MemberFunctionCallback &mfc)
{
 8009be0:	b508      	push	{r3, lr}
    return (object == mfc.object && (memcmp(method,mfc.method,sizeof(method))==0));
 8009be2:	6802      	ldr	r2, [r0, #0]
 8009be4:	680b      	ldr	r3, [r1, #0]
 8009be6:	429a      	cmp	r2, r3
 8009be8:	d001      	beq.n	8009bee <_ZN5codal22MemberFunctionCallbackeqERKS0_+0xe>
 8009bea:	2000      	movs	r0, #0
}
 8009bec:	bd08      	pop	{r3, pc}
    return (object == mfc.object && (memcmp(method,mfc.method,sizeof(method))==0));
 8009bee:	2210      	movs	r2, #16
 8009bf0:	3104      	adds	r1, #4
 8009bf2:	3004      	adds	r0, #4
 8009bf4:	f7f8 fccd 	bl	8002592 <memcmp>
 8009bf8:	b108      	cbz	r0, 8009bfe <_ZN5codal22MemberFunctionCallbackeqERKS0_+0x1e>
 8009bfa:	2000      	movs	r0, #0
 8009bfc:	e7f6      	b.n	8009bec <_ZN5codal22MemberFunctionCallbackeqERKS0_+0xc>
 8009bfe:	2001      	movs	r0, #1
 8009c00:	e7f4      	b.n	8009bec <_ZN5codal22MemberFunctionCallbackeqERKS0_+0xc>

08009c02 <_ZN5codal3Pin15setServoPulseUsEm>:
          *         if the given pin does not have analog capability.
          */
        virtual int setServoPulseUs(uint32_t pulseWidth)
        {
            return DEVICE_NOT_IMPLEMENTED;
        }
 8009c02:	f46f 707d 	mvn.w	r0, #1012	; 0x3f4
 8009c06:	4770      	bx	lr

08009c08 <_ZN5codal3Pin17setAnalogPeriodUsEm>:
          *         given pin is not configured as an analog output.
          */
        virtual int setAnalogPeriodUs(uint32_t period)
        {
            return DEVICE_NOT_IMPLEMENTED;
        }
 8009c08:	f46f 707d 	mvn.w	r0, #1012	; 0x3f4
 8009c0c:	4770      	bx	lr

08009c0e <_ZN5codal3Pin8drainPinEv>:
          *         than a digital input, otherwise DEVICE_OK.
          */
        virtual int drainPin()
        {
            return DEVICE_NOT_IMPLEMENTED;
        }
 8009c0e:	f46f 707d 	mvn.w	r0, #1012	; 0x3f4
 8009c12:	4770      	bx	lr

08009c14 <_ZN5codal3_cm3Pin15getDigitalValueEv>:
}
 8009c14:	2001      	movs	r0, #1
 8009c16:	4770      	bx	lr

08009c18 <_ZN5codal3_cm3Pin15getDigitalValueENS_8PullModeE>:
{
 8009c18:	b510      	push	{r4, lr}
 8009c1a:	4604      	mov	r4, r0
    setPull(pull);
 8009c1c:	6803      	ldr	r3, [r0, #0]
 8009c1e:	6c1b      	ldr	r3, [r3, #64]	; 0x40
 8009c20:	4798      	blx	r3
    return getDigitalValue();
 8009c22:	6823      	ldr	r3, [r4, #0]
 8009c24:	685b      	ldr	r3, [r3, #4]
 8009c26:	4620      	mov	r0, r4
 8009c28:	4798      	blx	r3
}
 8009c2a:	bd10      	pop	{r4, pc}

08009c2c <_ZN5codal3_cm3Pin14getAnalogValueEv>:
}
 8009c2c:	20e1      	movs	r0, #225	; 0xe1
 8009c2e:	4770      	bx	lr

08009c30 <_ZN5codal3_cm3Pin7isInputEv>:
    return (status & (IO_STATUS_DIGITAL_IN | IO_STATUS_ANALOG_IN)) == 0 ? 0 : 1;
 8009c30:	8983      	ldrh	r3, [r0, #12]
 8009c32:	f013 0f05 	tst.w	r3, #5
}
 8009c36:	bf14      	ite	ne
 8009c38:	2001      	movne	r0, #1
 8009c3a:	2000      	moveq	r0, #0
 8009c3c:	4770      	bx	lr

08009c3e <_ZN5codal3_cm3Pin8isOutputEv>:
    return (status & (IO_STATUS_DIGITAL_OUT | IO_STATUS_ANALOG_OUT)) == 0 ? 0 : 1;
 8009c3e:	8983      	ldrh	r3, [r0, #12]
 8009c40:	f013 0f0a 	tst.w	r3, #10
}
 8009c44:	bf14      	ite	ne
 8009c46:	2001      	movne	r0, #1
 8009c48:	2000      	moveq	r0, #0
 8009c4a:	4770      	bx	lr

08009c4c <_ZN5codal3_cm3Pin9isDigitalEv>:
    return (status & (IO_STATUS_DIGITAL_IN | IO_STATUS_DIGITAL_OUT)) == 0 ? 0 : 1;
 8009c4c:	8980      	ldrh	r0, [r0, #12]
}
 8009c4e:	f010 0003 	ands.w	r0, r0, #3
 8009c52:	bf18      	it	ne
 8009c54:	2001      	movne	r0, #1
 8009c56:	4770      	bx	lr

08009c58 <_ZN5codal3_cm3Pin8isAnalogEv>:
    return (status & (IO_STATUS_ANALOG_IN | IO_STATUS_ANALOG_OUT)) == 0 ? 0 : 1;
 8009c58:	8983      	ldrh	r3, [r0, #12]
 8009c5a:	f013 0f0c 	tst.w	r3, #12
}
 8009c5e:	bf14      	ite	ne
 8009c60:	2001      	movne	r0, #1
 8009c62:	2000      	moveq	r0, #0
 8009c64:	4770      	bx	lr

08009c66 <_ZN5codal3_cm3Pin7setPullENS_8PullModeE>:
  * @return DEVICE_NOT_SUPPORTED if the current pin configuration is anything other
  *         than a digital input, otherwise DEVICE_OK.
  */
int Pin::setPull(PullMode pull)
{
    pullMode = pull;
 8009c66:	6081      	str	r1, [r0, #8]
        return DEVICE_OK;
    }

    return DEVICE_NOT_SUPPORTED;
#endif  //  TODO
}
 8009c68:	2000      	movs	r0, #0
 8009c6a:	4770      	bx	lr

08009c6c <_ZN5codal3_cm3Pin5setupEhh>:
) {
 8009c6c:	b570      	push	{r4, r5, r6, lr}
 8009c6e:	4604      	mov	r4, r0
 8009c70:	460d      	mov	r5, r1
 8009c72:	4616      	mov	r6, r2
	rcc_periph_clock_enable((enum rcc_periph_clken) this->rcc);
 8009c74:	8a80      	ldrh	r0, [r0, #20]
 8009c76:	f7f7 fd4c 	bl	8001712 <rcc_periph_clock_enable>
	gpio_set_mode(this->port, mode, cnf, this->pin);
 8009c7a:	8ba3      	ldrh	r3, [r4, #28]
 8009c7c:	4632      	mov	r2, r6
 8009c7e:	4629      	mov	r1, r5
 8009c80:	69a0      	ldr	r0, [r4, #24]
 8009c82:	f7f7 fd07 	bl	8001694 <gpio_set_mode>
}
 8009c86:	bd70      	pop	{r4, r5, r6, pc}

08009c88 <_ZN5codal3_cm3Pin10disconnectEv>:
    this->status = 0;
 8009c88:	2300      	movs	r3, #0
 8009c8a:	8183      	strh	r3, [r0, #12]
}
 8009c8c:	4770      	bx	lr

08009c8e <_ZN5codal3_cm3Pin15setServoPulseUsEi>:
}
 8009c8e:	2000      	movs	r0, #0
 8009c90:	4770      	bx	lr

08009c92 <_ZN5codal3_cm3Pin17setAnalogPeriodUsEi>:
{
 8009c92:	b508      	push	{r3, lr}
    if (!(status & IO_STATUS_ANALOG_OUT))
 8009c94:	8983      	ldrh	r3, [r0, #12]
 8009c96:	f013 0f08 	tst.w	r3, #8
 8009c9a:	d001      	beq.n	8009ca0 <_ZN5codal3_cm3Pin17setAnalogPeriodUsEi+0xe>
    return 0;
 8009c9c:	2000      	movs	r0, #0
}
 8009c9e:	bd08      	pop	{r3, pc}
        ret = setAnalogValue(0);
 8009ca0:	6803      	ldr	r3, [r0, #0]
 8009ca2:	68db      	ldr	r3, [r3, #12]
 8009ca4:	2100      	movs	r1, #0
 8009ca6:	4798      	blx	r3
 8009ca8:	e7f9      	b.n	8009c9e <_ZN5codal3_cm3Pin17setAnalogPeriodUsEi+0xc>

08009caa <_ZN5codal3_cm3Pin15setAnalogPeriodEi>:
{
 8009caa:	b508      	push	{r3, lr}
    return setAnalogPeriodUs(period*1000);
 8009cac:	f44f 737a 	mov.w	r3, #1000	; 0x3e8
 8009cb0:	fb03 f101 	mul.w	r1, r3, r1
 8009cb4:	f7ff ffed 	bl	8009c92 <_ZN5codal3_cm3Pin17setAnalogPeriodUsEi>
}
 8009cb8:	bd08      	pop	{r3, pc}

08009cba <_ZN5codal3_cm3Pin13disableEventsEv>:
  * the current instance attached to this Pin instance.
  *
  * @return DEVICE_OK on success.
  */
int Pin::disableEvents()
{
 8009cba:	b508      	push	{r3, lr}
    if (status & (IO_STATUS_EVENT_ON_EDGE | IO_STATUS_EVENT_PULSE_ON_EDGE | IO_STATUS_TOUCH_IN))
 8009cbc:	8983      	ldrh	r3, [r0, #12]
 8009cbe:	f013 0f70 	tst.w	r3, #112	; 0x70
 8009cc2:	d101      	bne.n	8009cc8 <_ZN5codal3_cm3Pin13disableEventsEv+0xe>
        disconnect();

    return DEVICE_OK;
}
 8009cc4:	2000      	movs	r0, #0
 8009cc6:	bd08      	pop	{r3, pc}
        disconnect();
 8009cc8:	f7ff ffde 	bl	8009c88 <_ZN5codal3_cm3Pin10disconnectEv>
 8009ccc:	e7fa      	b.n	8009cc4 <_ZN5codal3_cm3Pin13disableEventsEv+0xa>

08009cce <_ZN5codal3_cm3Pin7eventOnEi>:
  *
  * @note In the DEVICE_PIN_EVENT_ON_PULSE mode, the smallest pulse that was reliably detected was 85us, around 5khz. If more precision is required,
  *       please use the InterruptIn class supplied by ARM mbed.
  */
int Pin::eventOn(int eventType)
{
 8009cce:	b510      	push	{r4, lr}
    switch(eventType)
 8009cd0:	2903      	cmp	r1, #3
 8009cd2:	d803      	bhi.n	8009cdc <_ZN5codal3_cm3Pin7eventOnEi+0xe>
 8009cd4:	e8df f001 	tbb	[pc, r1]
 8009cd8:	050f0f0a 	.word	0x050f0f0a
        case DEVICE_PIN_EVENT_NONE:
            disableEvents();
            break;

        default:
            return DEVICE_INVALID_PARAMETER;
 8009cdc:	f46f 707a 	mvn.w	r0, #1000	; 0x3e8
 8009ce0:	e00a      	b.n	8009cf8 <_ZN5codal3_cm3Pin7eventOnEi+0x2a>
            isTouched();
 8009ce2:	6803      	ldr	r3, [r0, #0]
 8009ce4:	6a9b      	ldr	r3, [r3, #40]	; 0x28
 8009ce6:	4798      	blx	r3
    }

    return DEVICE_OK;
 8009ce8:	2000      	movs	r0, #0
            break;
 8009cea:	e005      	b.n	8009cf8 <_ZN5codal3_cm3Pin7eventOnEi+0x2a>
 8009cec:	460c      	mov	r4, r1
            disableEvents();
 8009cee:	f7ff ffe4 	bl	8009cba <_ZN5codal3_cm3Pin13disableEventsEv>
    return DEVICE_OK;
 8009cf2:	4620      	mov	r0, r4
            break;
 8009cf4:	e000      	b.n	8009cf8 <_ZN5codal3_cm3Pin7eventOnEi+0x2a>
    return DEVICE_OK;
 8009cf6:	2000      	movs	r0, #0
}
 8009cf8:	bd10      	pop	{r4, pc}

08009cfa <_ZN5codal3_cm6Serial15enableInterruptENS_19SerialInterruptTypeE>:
        {
            ////TODO
            int enableInterrupt(SerialInterruptType t) { return 0; }
 8009cfa:	2000      	movs	r0, #0
 8009cfc:	4770      	bx	lr

08009cfe <_ZN5codal3_cm6Serial16disableInterruptENS_19SerialInterruptTypeE>:
            int disableInterrupt(SerialInterruptType t) { return 0; }
 8009cfe:	2000      	movs	r0, #0
 8009d00:	4770      	bx	lr

08009d02 <_ZN5codal3_cm6Serial11setBaudrateEm>:
            int setBaudrate(uint32_t baudrate) { return 0; }
 8009d02:	2000      	movs	r0, #0
 8009d04:	4770      	bx	lr

08009d06 <_ZN5codal3_cm6Serial13configurePinsERNS_3PinES3_>:
            int configurePins(codal::Pin& tx, codal::Pin& rx) { return 0; }
 8009d06:	2000      	movs	r0, #0
 8009d08:	4770      	bx	lr

08009d0a <_ZN5codal3_cm6Serial4putcEc>:
            int putc(char c) { return 1; }
 8009d0a:	2001      	movs	r0, #1
 8009d0c:	4770      	bx	lr

08009d0e <_ZN5codal3_cm6Serial4getcEv>:
            int getc() { return -1; }
 8009d0e:	f04f 30ff 	mov.w	r0, #4294967295	; 0xffffffff
 8009d12:	4770      	bx	lr

08009d14 <_ZN5codal3_cm6Serial6lockRxEv>:
        /**
          * Locks the mutex so that others can't use this serial instance for reception
          */
        void Serial::lockRx()
        {
            status |= CODAL_SERIAL_RX_IN_USE;
 8009d14:	88c3      	ldrh	r3, [r0, #6]
 8009d16:	f043 0301 	orr.w	r3, r3, #1
 8009d1a:	80c3      	strh	r3, [r0, #6]
        }
 8009d1c:	4770      	bx	lr

08009d1e <_ZN5codal3_cm6Serial8unlockRxEv>:
        /**
          * Unlocks the mutex so that others can use this serial instance for reception
          */
        void Serial::unlockRx()
        {
            status &= ~CODAL_SERIAL_RX_IN_USE;
 8009d1e:	88c3      	ldrh	r3, [r0, #6]
 8009d20:	f023 0301 	bic.w	r3, r3, #1
 8009d24:	80c3      	strh	r3, [r0, #6]
        }
 8009d26:	4770      	bx	lr

08009d28 <_ZN5codal3_cm6Serial12initialiseRxEv>:
        /**
          * We do not want to always have our buffers initialised, especially if users to not
          * use them. We only bring them up on demand.
          */
        int Serial::initialiseRx()
        {
 8009d28:	b538      	push	{r3, r4, r5, lr}
 8009d2a:	4604      	mov	r4, r0
            if((status & CODAL_SERIAL_RX_BUFF_INIT))
 8009d2c:	88c3      	ldrh	r3, [r0, #6]
 8009d2e:	f013 0f04 	tst.w	r3, #4
 8009d32:	d110      	bne.n	8009d56 <_ZN5codal3_cm6Serial12initialiseRxEv+0x2e>
                //ensure that we receive no interrupts after freeing our buffer
                detach(RxInterrupt);
                free(this->rxBuff);
            }

            status &= ~CODAL_SERIAL_RX_BUFF_INIT;
 8009d34:	88e5      	ldrh	r5, [r4, #6]
 8009d36:	f025 0504 	bic.w	r5, r5, #4
 8009d3a:	b2ad      	uxth	r5, r5
 8009d3c:	80e5      	strh	r5, [r4, #6]

            if((this->rxBuff = (uint8_t *)malloc(rxBuffSize)) == NULL)
 8009d3e:	7f20      	ldrb	r0, [r4, #28]
 8009d40:	f7fd fcf2 	bl	8007728 <device_malloc>
 8009d44:	61a0      	str	r0, [r4, #24]
 8009d46:	b150      	cbz	r0, 8009d5e <_ZN5codal3_cm6Serial12initialiseRxEv+0x36>
                return DEVICE_NO_RESOURCES;

            this->rxBuffHead = 0;
 8009d48:	2000      	movs	r0, #0
 8009d4a:	83e0      	strh	r0, [r4, #30]
            this->rxBuffTail = 0;
 8009d4c:	8420      	strh	r0, [r4, #32]

            //set the receive interrupt
            status |= CODAL_SERIAL_RX_BUFF_INIT;
 8009d4e:	f045 0504 	orr.w	r5, r5, #4
 8009d52:	80e5      	strh	r5, [r4, #6]
            attach(RxInterrupt, &Serial::dataReceived);

            return DEVICE_OK;
        }
 8009d54:	bd38      	pop	{r3, r4, r5, pc}
                free(this->rxBuff);
 8009d56:	6980      	ldr	r0, [r0, #24]
 8009d58:	f7fd fd10 	bl	800777c <device_free>
 8009d5c:	e7ea      	b.n	8009d34 <_ZN5codal3_cm6Serial12initialiseRxEv+0xc>
                return DEVICE_NO_RESOURCES;
 8009d5e:	f46f 707b 	mvn.w	r0, #1004	; 0x3ec
 8009d62:	e7f7      	b.n	8009d54 <_ZN5codal3_cm6Serial12initialiseRxEv+0x2c>

08009d64 <_ZN5codal3_cm6Serial12circularCopyEPhhS2_tt>:
          *
          * @note this method assumes that the linear buffer has the appropriate amount of
          *       memory to contain the copy operation
          */
        void Serial::circularCopy(uint8_t *circularBuff, uint8_t circularBuffSize, uint8_t *linearBuff, uint16_t tailPosition, uint16_t headPosition)
        {
 8009d64:	b470      	push	{r4, r5, r6}
 8009d66:	f8bd 000c 	ldrh.w	r0, [sp, #12]
 8009d6a:	f8bd 6010 	ldrh.w	r6, [sp, #16]
            int toBuffIndex = 0;
 8009d6e:	2500      	movs	r5, #0

            while(tailPosition != headPosition)
 8009d70:	42b0      	cmp	r0, r6
 8009d72:	d009      	beq.n	8009d88 <_ZN5codal3_cm6Serial12circularCopyEPhhS2_tt+0x24>
            {
                linearBuff[toBuffIndex++] = circularBuff[tailPosition];
 8009d74:	5c0c      	ldrb	r4, [r1, r0]
 8009d76:	555c      	strb	r4, [r3, r5]

                tailPosition = (tailPosition + 1) % circularBuffSize;
 8009d78:	3001      	adds	r0, #1
 8009d7a:	fb90 f4f2 	sdiv	r4, r0, r2
 8009d7e:	fb02 0014 	mls	r0, r2, r4, r0
 8009d82:	b280      	uxth	r0, r0
                linearBuff[toBuffIndex++] = circularBuff[tailPosition];
 8009d84:	3501      	adds	r5, #1
            while(tailPosition != headPosition)
 8009d86:	e7f3      	b.n	8009d70 <_ZN5codal3_cm6Serial12circularCopyEPhhS2_tt+0xc>
            }
        }
 8009d88:	bc70      	pop	{r4, r5, r6}
 8009d8a:	4770      	bx	lr

08009d8c <_ZN5codal3_cm6Serial4baudEi>:
          *
          * @note the underlying implementation chooses the first allowable rate at or above that requested.
          */
        int Serial::baud(int baudrate)
        {
            if(baudrate < 0)
 8009d8c:	2900      	cmp	r1, #0
 8009d8e:	db02      	blt.n	8009d96 <_ZN5codal3_cm6Serial4baudEi+0xa>
                return DEVICE_INVALID_PARAMETER;

            this->baudrate = baudrate;
 8009d90:	6301      	str	r1, [r0, #48]	; 0x30
#ifdef TODO
            RawSerial::baud(baudrate);
#endif  //  TODO

            return DEVICE_OK;
 8009d92:	2000      	movs	r0, #0
 8009d94:	4770      	bx	lr
                return DEVICE_INVALID_PARAMETER;
 8009d96:	f46f 707a 	mvn.w	r0, #1000	; 0x3e8
        }
 8009d9a:	4770      	bx	lr

08009d9c <_ZN5codal3_cm6Serial7eventOnENS_13ManagedStringENS_10SerialModeE>:
          *
          * @note delimeters are matched on a per byte basis.
          */
        int Serial::eventOn(ManagedString delimeters, SerialMode mode)
        {
            if(mode == SYNC_SPINWAIT)
 8009d9c:	2a01      	cmp	r2, #1
 8009d9e:	d00e      	beq.n	8009dbe <_ZN5codal3_cm6Serial7eventOnENS_13ManagedStringENS_10SerialModeE+0x22>
        {
 8009da0:	b510      	push	{r4, lr}
 8009da2:	4614      	mov	r4, r2
                return DEVICE_INVALID_PARAMETER;

            //configure our head match...
            this->delimeters = delimeters;
 8009da4:	3010      	adds	r0, #16
 8009da6:	f7ff fe9c 	bl	8009ae2 <_ZN5codal13ManagedStringaSERKS0_>

            //block!
            if(mode == SYNC_SLEEP)
 8009daa:	2c02      	cmp	r4, #2
 8009dac:	d001      	beq.n	8009db2 <_ZN5codal3_cm6Serial7eventOnENS_13ManagedStringENS_10SerialModeE+0x16>
                fiber_wait_for_event(DEVICE_ID_SERIAL, CODAL_SERIAL_EVT_DELIM_MATCH);

            return DEVICE_OK;
 8009dae:	2000      	movs	r0, #0
        }
 8009db0:	bd10      	pop	{r4, pc}
                fiber_wait_for_event(DEVICE_ID_SERIAL, CODAL_SERIAL_EVT_DELIM_MATCH);
 8009db2:	2101      	movs	r1, #1
 8009db4:	200c      	movs	r0, #12
 8009db6:	f7ff f987 	bl	80090c8 <_ZN5codal20fiber_wait_for_eventEtt>
            return DEVICE_OK;
 8009dba:	2000      	movs	r0, #0
 8009dbc:	e7f8      	b.n	8009db0 <_ZN5codal3_cm6Serial7eventOnENS_13ManagedStringENS_10SerialModeE+0x14>
                return DEVICE_INVALID_PARAMETER;
 8009dbe:	f46f 707a 	mvn.w	r0, #1000	; 0x3e8
        }
 8009dc2:	4770      	bx	lr

08009dc4 <_ZN5codal3_cm6Serial7rxInUseEv>:
          *
          * @note Only one fiber can call read at a time
          */
        int Serial::rxInUse()
        {
            return (status & CODAL_SERIAL_RX_IN_USE);
 8009dc4:	88c0      	ldrh	r0, [r0, #6]
        }
 8009dc6:	f000 0001 	and.w	r0, r0, #1
 8009dca:	4770      	bx	lr

08009dcc <_ZN5codal3_cm6Serial9readUntilENS_13ManagedStringENS_10SerialModeE>:
        {
 8009dcc:	e92d 4ff0 	stmdb	sp!, {r4, r5, r6, r7, r8, r9, sl, fp, lr}
 8009dd0:	b089      	sub	sp, #36	; 0x24
 8009dd2:	af02      	add	r7, sp, #8
 8009dd4:	60b8      	str	r0, [r7, #8]
 8009dd6:	4688      	mov	r8, r1
 8009dd8:	4615      	mov	r5, r2
 8009dda:	607b      	str	r3, [r7, #4]
            if(rxInUse())
 8009ddc:	4608      	mov	r0, r1
 8009dde:	f7ff fff1 	bl	8009dc4 <_ZN5codal3_cm6Serial7rxInUseEv>
 8009de2:	60f8      	str	r0, [r7, #12]
 8009de4:	b990      	cbnz	r0, 8009e0c <_ZN5codal3_cm6Serial9readUntilENS_13ManagedStringENS_10SerialModeE+0x40>
            if(!(status & CODAL_SERIAL_RX_BUFF_INIT))
 8009de6:	f8b8 3006 	ldrh.w	r3, [r8, #6]
 8009dea:	f013 0f04 	tst.w	r3, #4
 8009dee:	d104      	bne.n	8009dfa <_ZN5codal3_cm6Serial9readUntilENS_13ManagedStringENS_10SerialModeE+0x2e>
                int result = initialiseRx();
 8009df0:	4640      	mov	r0, r8
 8009df2:	f7ff ff99 	bl	8009d28 <_ZN5codal3_cm6Serial12initialiseRxEv>
                if(result != DEVICE_OK)
 8009df6:	4601      	mov	r1, r0
 8009df8:	b960      	cbnz	r0, 8009e14 <_ZN5codal3_cm6Serial9readUntilENS_13ManagedStringENS_10SerialModeE+0x48>
            lockRx();
 8009dfa:	4640      	mov	r0, r8
 8009dfc:	f7ff ff8a 	bl	8009d14 <_ZN5codal3_cm6Serial6lockRxEv>
            int localTail = rxBuffTail;
 8009e00:	f8b8 a020 	ldrh.w	sl, [r8, #32]
 8009e04:	4656      	mov	r6, sl
            int foundIndex = -1;
 8009e06:	f04f 39ff 	mov.w	r9, #4294967295	; 0xffffffff
 8009e0a:	e063      	b.n	8009ed4 <_ZN5codal3_cm6Serial9readUntilENS_13ManagedStringENS_10SerialModeE+0x108>
                return ManagedString();
 8009e0c:	68b8      	ldr	r0, [r7, #8]
 8009e0e:	f7ff fe62 	bl	8009ad6 <_ZN5codal13ManagedStringC1Ev>
 8009e12:	e045      	b.n	8009ea0 <_ZN5codal3_cm6Serial9readUntilENS_13ManagedStringENS_10SerialModeE+0xd4>
                    return result;
 8009e14:	68b8      	ldr	r0, [r7, #8]
 8009e16:	f7ff fe2c 	bl	8009a72 <_ZN5codal13ManagedStringC1Ei>
 8009e1a:	e041      	b.n	8009ea0 <_ZN5codal3_cm6Serial9readUntilENS_13ManagedStringENS_10SerialModeE+0xd4>
            if(mode == SYNC_SPINWAIT)
 8009e1c:	687b      	ldr	r3, [r7, #4]
 8009e1e:	2b01      	cmp	r3, #1
 8009e20:	d07b      	beq.n	8009f1a <_ZN5codal3_cm6Serial9readUntilENS_13ManagedStringENS_10SerialModeE+0x14e>
            if(mode == SYNC_SLEEP && foundIndex == -1)
 8009e22:	687b      	ldr	r3, [r7, #4]
 8009e24:	2b02      	cmp	r3, #2
 8009e26:	f000 8086 	beq.w	8009f36 <_ZN5codal3_cm6Serial9readUntilENS_13ManagedStringENS_10SerialModeE+0x16a>
            if(foundIndex >= 0)
 8009e2a:	f1b9 0f00 	cmp.w	r9, #0
 8009e2e:	f2c0 80ac 	blt.w	8009f8a <_ZN5codal3_cm6Serial9readUntilENS_13ManagedStringENS_10SerialModeE+0x1be>
                return ManagedString((char *)localBuff, localBuffSize);
 8009e32:	466e      	mov	r6, sp
                int localBuffSize = (preservedTail > foundIndex) ? (rxBuffSize - preservedTail) + foundIndex : foundIndex - preservedTail;
 8009e34:	45d1      	cmp	r9, sl
 8009e36:	f280 80a5 	bge.w	8009f84 <_ZN5codal3_cm6Serial9readUntilENS_13ManagedStringENS_10SerialModeE+0x1b8>
 8009e3a:	f898 401c 	ldrb.w	r4, [r8, #28]
 8009e3e:	eba4 040a 	sub.w	r4, r4, sl
 8009e42:	444c      	add	r4, r9
                uint8_t localBuff[localBuffSize + 1];
 8009e44:	f104 0308 	add.w	r3, r4, #8
 8009e48:	f023 0307 	bic.w	r3, r3, #7
 8009e4c:	ebad 0d03 	sub.w	sp, sp, r3
 8009e50:	ad02      	add	r5, sp, #8
 8009e52:	1c62      	adds	r2, r4, #1
 8009e54:	2100      	movs	r1, #0
 8009e56:	4628      	mov	r0, r5
 8009e58:	f7f8 fbb8 	bl	80025cc <memset>
                circularCopy(rxBuff, rxBuffSize, localBuff, preservedTail, foundIndex);
 8009e5c:	f898 201c 	ldrb.w	r2, [r8, #28]
 8009e60:	f8d8 1018 	ldr.w	r1, [r8, #24]
 8009e64:	fa1f f389 	uxth.w	r3, r9
 8009e68:	9301      	str	r3, [sp, #4]
 8009e6a:	f8cd a000 	str.w	sl, [sp]
 8009e6e:	462b      	mov	r3, r5
 8009e70:	4640      	mov	r0, r8
 8009e72:	f7ff ff77 	bl	8009d64 <_ZN5codal3_cm6Serial12circularCopyEPhhS2_tt>
                rxBuffTail = (rxBuffTail + localBuffSize + 1) % rxBuffSize;
 8009e76:	f8b8 3020 	ldrh.w	r3, [r8, #32]
 8009e7a:	4423      	add	r3, r4
 8009e7c:	3301      	adds	r3, #1
 8009e7e:	f898 101c 	ldrb.w	r1, [r8, #28]
 8009e82:	fb93 f2f1 	sdiv	r2, r3, r1
 8009e86:	fb01 3312 	mls	r3, r1, r2, r3
 8009e8a:	f8a8 3020 	strh.w	r3, [r8, #32]
                unlockRx();
 8009e8e:	4640      	mov	r0, r8
 8009e90:	f7ff ff45 	bl	8009d1e <_ZN5codal3_cm6Serial8unlockRxEv>
                return ManagedString((char *)localBuff, localBuffSize);
 8009e94:	b222      	sxth	r2, r4
 8009e96:	4629      	mov	r1, r5
 8009e98:	68b8      	ldr	r0, [r7, #8]
 8009e9a:	f7ff fdfc 	bl	8009a96 <_ZN5codal13ManagedStringC1EPKcs>
 8009e9e:	46b5      	mov	sp, r6
        }
 8009ea0:	68b8      	ldr	r0, [r7, #8]
 8009ea2:	371c      	adds	r7, #28
 8009ea4:	46bd      	mov	sp, r7
 8009ea6:	e8bd 8ff0 	ldmia.w	sp!, {r4, r5, r6, r7, r8, r9, sl, fp, pc}
                for(int delimeterIterator = 0; delimeterIterator < delimeters.length(); delimeterIterator++)
 8009eaa:	3401      	adds	r4, #1
 8009eac:	682b      	ldr	r3, [r5, #0]
 8009eae:	f9b3 3002 	ldrsh.w	r3, [r3, #2]
 8009eb2:	42a3      	cmp	r3, r4
 8009eb4:	dd07      	ble.n	8009ec6 <_ZN5codal3_cm6Serial9readUntilENS_13ManagedStringENS_10SerialModeE+0xfa>
                    if(delimeters.charAt(delimeterIterator) == c)
 8009eb6:	b221      	sxth	r1, r4
 8009eb8:	4628      	mov	r0, r5
 8009eba:	f7ff fe21 	bl	8009b00 <_ZN5codal13ManagedString6charAtEs>
 8009ebe:	4558      	cmp	r0, fp
 8009ec0:	d1f3      	bne.n	8009eaa <_ZN5codal3_cm6Serial9readUntilENS_13ManagedStringENS_10SerialModeE+0xde>
                        foundIndex = localTail;
 8009ec2:	46b1      	mov	r9, r6
 8009ec4:	e7f1      	b.n	8009eaa <_ZN5codal3_cm6Serial9readUntilENS_13ManagedStringENS_10SerialModeE+0xde>
                localTail = (localTail + 1) % rxBuffSize;
 8009ec6:	3601      	adds	r6, #1
 8009ec8:	f898 301c 	ldrb.w	r3, [r8, #28]
 8009ecc:	fb96 f2f3 	sdiv	r2, r6, r3
 8009ed0:	fb03 6612 	mls	r6, r3, r2, r6
            while(localTail != rxBuffHead && foundIndex  == -1)
 8009ed4:	f8b8 301e 	ldrh.w	r3, [r8, #30]
 8009ed8:	b29b      	uxth	r3, r3
 8009eda:	42b3      	cmp	r3, r6
 8009edc:	d09e      	beq.n	8009e1c <_ZN5codal3_cm6Serial9readUntilENS_13ManagedStringENS_10SerialModeE+0x50>
 8009ede:	f1b9 3fff 	cmp.w	r9, #4294967295	; 0xffffffff
 8009ee2:	d19b      	bne.n	8009e1c <_ZN5codal3_cm6Serial9readUntilENS_13ManagedStringENS_10SerialModeE+0x50>
                char c = rxBuff[localTail];
 8009ee4:	f8d8 3018 	ldr.w	r3, [r8, #24]
 8009ee8:	f813 b006 	ldrb.w	fp, [r3, r6]
                for(int delimeterIterator = 0; delimeterIterator < delimeters.length(); delimeterIterator++)
 8009eec:	68fc      	ldr	r4, [r7, #12]
 8009eee:	e7dd      	b.n	8009eac <_ZN5codal3_cm6Serial9readUntilENS_13ManagedStringENS_10SerialModeE+0xe0>
                    for(int delimeterIterator = 0; delimeterIterator < delimeters.length(); delimeterIterator++)
 8009ef0:	3401      	adds	r4, #1
 8009ef2:	682b      	ldr	r3, [r5, #0]
 8009ef4:	f9b3 3002 	ldrsh.w	r3, [r3, #2]
 8009ef8:	42a3      	cmp	r3, r4
 8009efa:	dd07      	ble.n	8009f0c <_ZN5codal3_cm6Serial9readUntilENS_13ManagedStringENS_10SerialModeE+0x140>
                        if(delimeters.charAt(delimeterIterator) == c)
 8009efc:	b221      	sxth	r1, r4
 8009efe:	4628      	mov	r0, r5
 8009f00:	f7ff fdfe 	bl	8009b00 <_ZN5codal13ManagedString6charAtEs>
 8009f04:	4558      	cmp	r0, fp
 8009f06:	d1f3      	bne.n	8009ef0 <_ZN5codal3_cm6Serial9readUntilENS_13ManagedStringENS_10SerialModeE+0x124>
                            foundIndex = localTail;
 8009f08:	46b1      	mov	r9, r6
 8009f0a:	e7f1      	b.n	8009ef0 <_ZN5codal3_cm6Serial9readUntilENS_13ManagedStringENS_10SerialModeE+0x124>
                    localTail = (localTail + 1) % rxBuffSize;
 8009f0c:	3601      	adds	r6, #1
 8009f0e:	f898 301c 	ldrb.w	r3, [r8, #28]
 8009f12:	fb96 f2f3 	sdiv	r2, r6, r3
 8009f16:	fb03 6612 	mls	r6, r3, r2, r6
                while(foundIndex == -1)
 8009f1a:	f1b9 3fff 	cmp.w	r9, #4294967295	; 0xffffffff
 8009f1e:	d180      	bne.n	8009e22 <_ZN5codal3_cm6Serial9readUntilENS_13ManagedStringENS_10SerialModeE+0x56>
                    while(localTail == rxBuffHead);
 8009f20:	f8b8 301e 	ldrh.w	r3, [r8, #30]
 8009f24:	b29b      	uxth	r3, r3
 8009f26:	42b3      	cmp	r3, r6
 8009f28:	d0fa      	beq.n	8009f20 <_ZN5codal3_cm6Serial9readUntilENS_13ManagedStringENS_10SerialModeE+0x154>
                    char c = rxBuff[localTail];
 8009f2a:	f8d8 3018 	ldr.w	r3, [r8, #24]
 8009f2e:	f813 b006 	ldrb.w	fp, [r3, r6]
                    for(int delimeterIterator = 0; delimeterIterator < delimeters.length(); delimeterIterator++)
 8009f32:	68fc      	ldr	r4, [r7, #12]
 8009f34:	e7dd      	b.n	8009ef2 <_ZN5codal3_cm6Serial9readUntilENS_13ManagedStringENS_10SerialModeE+0x126>
            if(mode == SYNC_SLEEP && foundIndex == -1)
 8009f36:	f1b9 3fff 	cmp.w	r9, #4294967295	; 0xffffffff
 8009f3a:	f47f af76 	bne.w	8009e2a <_ZN5codal3_cm6Serial9readUntilENS_13ManagedStringENS_10SerialModeE+0x5e>
                eventOn(delimeters, mode);
 8009f3e:	4629      	mov	r1, r5
 8009f40:	f107 0010 	add.w	r0, r7, #16
 8009f44:	f7ff fdbf 	bl	8009ac6 <_ZN5codal13ManagedStringC1ERKS0_>
 8009f48:	687a      	ldr	r2, [r7, #4]
 8009f4a:	f107 0110 	add.w	r1, r7, #16
 8009f4e:	4640      	mov	r0, r8
 8009f50:	f7ff ff24 	bl	8009d9c <_ZN5codal3_cm6Serial7eventOnENS_13ManagedStringENS_10SerialModeE>
 8009f54:	f107 0010 	add.w	r0, r7, #16
 8009f58:	f7ff fd61 	bl	8009a1e <_ZN5codal13ManagedStringD1Ev>
                foundIndex = rxBuffHead - 1;
 8009f5c:	f8b8 901e 	ldrh.w	r9, [r8, #30]
 8009f60:	f109 39ff 	add.w	r9, r9, #4294967295	; 0xffffffff
                this->delimeters = ManagedString();
 8009f64:	f108 0410 	add.w	r4, r8, #16
 8009f68:	f107 0014 	add.w	r0, r7, #20
 8009f6c:	f7ff fdb3 	bl	8009ad6 <_ZN5codal13ManagedStringC1Ev>
 8009f70:	f107 0114 	add.w	r1, r7, #20
 8009f74:	4620      	mov	r0, r4
 8009f76:	f7ff fdb4 	bl	8009ae2 <_ZN5codal13ManagedStringaSERKS0_>
 8009f7a:	f107 0014 	add.w	r0, r7, #20
 8009f7e:	f7ff fd4e 	bl	8009a1e <_ZN5codal13ManagedStringD1Ev>
 8009f82:	e752      	b.n	8009e2a <_ZN5codal3_cm6Serial9readUntilENS_13ManagedStringENS_10SerialModeE+0x5e>
                int localBuffSize = (preservedTail > foundIndex) ? (rxBuffSize - preservedTail) + foundIndex : foundIndex - preservedTail;
 8009f84:	eba9 040a 	sub.w	r4, r9, sl
 8009f88:	e75c      	b.n	8009e44 <_ZN5codal3_cm6Serial9readUntilENS_13ManagedStringENS_10SerialModeE+0x78>
            unlockRx();
 8009f8a:	4640      	mov	r0, r8
 8009f8c:	f7ff fec7 	bl	8009d1e <_ZN5codal3_cm6Serial8unlockRxEv>
            return ManagedString();
 8009f90:	68b8      	ldr	r0, [r7, #8]
 8009f92:	f7ff fda0 	bl	8009ad6 <_ZN5codal13ManagedStringC1Ev>
 8009f96:	e783      	b.n	8009ea0 <_ZN5codal3_cm6Serial9readUntilENS_13ManagedStringENS_10SerialModeE+0xd4>

08009f98 <_GLOBAL__sub_I_restart_callback>:
}
 8009f98:	b508      	push	{r3, lr}
 8009f9a:	f64f 71ff 	movw	r1, #65535	; 0xffff
 8009f9e:	2001      	movs	r0, #1
 8009fa0:	f7fe f864 	bl	800806c <_Z41__static_initialization_and_destruction_0ii>
 8009fa4:	bd08      	pop	{r3, pc}

08009fa6 <_ZN5codal13STM32BluePill16periodicCallbackEv>:
    codal_dmesg_flush();
}

void STM32BluePill::periodicCallback() {
    //  TODO
}
 8009fa6:	4770      	bx	lr

08009fa8 <_ZN5codal13STM32BluePill12idleCallbackEv>:
void STM32BluePill::idleCallback() {
 8009fa8:	b508      	push	{r3, lr}
    codal_dmesg_flush();
 8009faa:	f7fd f81b 	bl	8006fe4 <codal_dmesg_flush>
}
 8009fae:	bd08      	pop	{r3, pc}

08009fb0 <_ZN13UARTInterfaceC1Ejj>:
}
 8009fb0:	4770      	bx	lr

08009fb2 <_GLOBAL__sub_I__ZN13UARTInterfaceC2Ejj>:
}
 8009fb2:	b508      	push	{r3, lr}
 8009fb4:	f64f 71ff 	movw	r1, #65535	; 0xffff
 8009fb8:	2001      	movs	r0, #1
 8009fba:	f7fe ff49 	bl	8008e50 <_Z41__static_initialization_and_destruction_0ii>
 8009fbe:	bd08      	pop	{r3, pc}

08009fc0 <_ZN5codal3_cm3I2C12setFrequencyEm>:
#ifdef TODO            
            i2c.Init.ClockSpeed = frequency;
            needsInit = true;
#endif  //  TODO
            return DEVICE_OK;
        }
 8009fc0:	2000      	movs	r0, #0
 8009fc2:	4770      	bx	lr

08009fc4 <_ZN5codal3_cm3I2C5writeEtPhib>:
            if (res == HAL_OK)
                return DEVICE_OK;
            else
                return DEVICE_I2C_ERROR;
#endif  //  TODO
        }
 8009fc4:	2000      	movs	r0, #0
 8009fc6:	4770      	bx	lr

08009fc8 <_ZN5codal3_cm3I2C4readEtPhib>:
            if (res == HAL_OK)
                return DEVICE_OK;
            else
                return DEVICE_I2C_ERROR;
#endif  //  TODO
        }
 8009fc8:	2000      	movs	r0, #0
 8009fca:	4770      	bx	lr

08009fcc <_ZN5codal3_cm3I2C12readRegisterEthPhib>:
            if (res == HAL_OK)
                return DEVICE_OK;
            else
                return DEVICE_I2C_ERROR;
#endif  //  TODO
        }
 8009fcc:	2000      	movs	r0, #0
 8009fce:	4770      	bx	lr

08009fd0 <_ZN5codal3_cm3SPI12setFrequencyEm>:

        int SPI::setFrequency(uint32_t frequency) {
            freq = frequency;
 8009fd0:	6141      	str	r1, [r0, #20]
            needsInit = true;
 8009fd2:	2301      	movs	r3, #1
 8009fd4:	f880 3020 	strb.w	r3, [r0, #32]
            return DEVICE_OK;
        }
 8009fd8:	2000      	movs	r0, #0
 8009fda:	4770      	bx	lr

08009fdc <_ZN5codal3_cm3SPI5writeEi>:
            CODAL_ASSERT(bits == 8);
            return DEVICE_OK;
        }

        int SPI::write(int data) {
            rxCh = 0;
 8009fdc:	2300      	movs	r3, #0
 8009fde:	f880 3021 	strb.w	r3, [r0, #33]	; 0x21
            txCh = data;
 8009fe2:	f880 1022 	strb.w	r1, [r0, #34]	; 0x22
#ifdef TODO
            if (transfer(&txCh, 1, &rxCh, 1) < 0) { return DEVICE_SPI_ERROR; }
#endif  //  TODO
            return rxCh;
        }
 8009fe6:	4618      	mov	r0, r3
 8009fe8:	4770      	bx	lr

08009fea <_ZN5codal3_cm3SPI8transferEPKhmPhm>:
            LOG("SPI ->");
            schedule();
            LOG("SPI <-");
            return res;
#endif  //  TODO
        }
 8009fea:	2000      	movs	r0, #0
 8009fec:	4770      	bx	lr

08009fee <_ZN5codal3_cm3SPI7setModeEii>:
        int SPI::setMode(int mode, int bits) {
 8009fee:	b508      	push	{r3, lr}
            needsInit = true;
 8009ff0:	2301      	movs	r3, #1
 8009ff2:	f880 3020 	strb.w	r3, [r0, #32]
            CODAL_ASSERT(bits == 8);
 8009ff6:	2a08      	cmp	r2, #8
 8009ff8:	d003      	beq.n	800a002 <_ZN5codal3_cm3SPI7setModeEii+0x14>
 8009ffa:	f240 308d 	movw	r0, #909	; 0x38d
 8009ffe:	f7f6 fc77 	bl	80008f0 <target_panic>
        }
 800a002:	2000      	movs	r0, #0
 800a004:	bd08      	pop	{r3, pc}

0800a006 <_ZN5codal3_cm16_codal_setup_pinEPNS0_3PinEmPK6PinMap>:
        uint32_t _codal_setup_pin(Pin *p, uint32_t prev, const PinMap *map) {
 800a006:	e92d 43f8 	stmdb	sp!, {r3, r4, r5, r6, r7, r8, r9, lr}
            if (!p) { return 0; }
 800a00a:	b310      	cbz	r0, 800a052 <_ZN5codal3_cm16_codal_setup_pinEPNS0_3PinEmPK6PinMap+0x4c>
 800a00c:	4605      	mov	r5, r0
 800a00e:	4614      	mov	r4, r2
 800a010:	460f      	mov	r7, r1
            auto pin = p->name;
 800a012:	f890 8010 	ldrb.w	r8, [r0, #16]
            CmPeripheral peri = pinmap_peripheral(pin, map);
 800a016:	4611      	mov	r1, r2
 800a018:	4640      	mov	r0, r8
 800a01a:	f7fe ffb1 	bl	8008f80 <pinmap_peripheral>
 800a01e:	4606      	mov	r6, r0
            if (peri == CM_PERIPHERAL_NC) { return peri; }
 800a020:	f1b0 3fff 	cmp.w	r0, #4294967295	; 0xffffffff
 800a024:	d016      	beq.n	800a054 <_ZN5codal3_cm16_codal_setup_pinEPNS0_3PinEmPK6PinMap+0x4e>
            auto mode = pinmap_mode(pin, map);
 800a026:	4621      	mov	r1, r4
 800a028:	4640      	mov	r0, r8
 800a02a:	f7fe ffbf 	bl	8008fac <pinmap_mode>
 800a02e:	4681      	mov	r9, r0
            auto cnf = pinmap_cnf(pin, map);
 800a030:	4621      	mov	r1, r4
 800a032:	4640      	mov	r0, r8
 800a034:	f7fe ffce 	bl	8008fd4 <pinmap_cnf>
            p->setup(mode, cnf);
 800a038:	4602      	mov	r2, r0
 800a03a:	4649      	mov	r1, r9
 800a03c:	4628      	mov	r0, r5
 800a03e:	f7ff fe15 	bl	8009c6c <_ZN5codal3_cm3Pin5setupEhh>
            CODAL_ASSERT(!prev || prev == peri);
 800a042:	b13f      	cbz	r7, 800a054 <_ZN5codal3_cm16_codal_setup_pinEPNS0_3PinEmPK6PinMap+0x4e>
 800a044:	42be      	cmp	r6, r7
 800a046:	d005      	beq.n	800a054 <_ZN5codal3_cm16_codal_setup_pinEPNS0_3PinEmPK6PinMap+0x4e>
 800a048:	f240 308d 	movw	r0, #909	; 0x38d
 800a04c:	f7f6 fc50 	bl	80008f0 <target_panic>
 800a050:	e000      	b.n	800a054 <_ZN5codal3_cm16_codal_setup_pinEPNS0_3PinEmPK6PinMap+0x4e>
            if (!p) { return 0; }
 800a052:	2600      	movs	r6, #0
        }
 800a054:	4630      	mov	r0, r6
 800a056:	e8bd 83f8 	ldmia.w	sp!, {r3, r4, r5, r6, r7, r8, r9, pc}

0800a05a <_ZN5codal3_cm3SPI13startTransferEPKhmPhmPFvPvES5_>:

        int SPI::startTransfer(const uint8_t *txBuffer, uint32_t txSize, uint8_t *rxBuffer,
                                uint32_t rxSize, PVoidCallback doneHandler, void *arg) {
 800a05a:	b538      	push	{r3, r4, r5, lr}
 800a05c:	4604      	mov	r4, r0
 800a05e:	4615      	mov	r5, r2
            int res = HAL_OK;
            init();
 800a060:	f7fe ff12 	bl	8008e88 <_ZN5codal3_cm3SPI4initEv>
            ////LOG("SPI start %p/%d %p/%d D=%p", txBuffer, txSize, rxBuffer, rxSize, doneHandler);
            this->doneHandler = doneHandler;
 800a064:	9b05      	ldr	r3, [sp, #20]
 800a066:	61a3      	str	r3, [r4, #24]
            this->doneHandlerArg = arg;
 800a068:	9b06      	ldr	r3, [sp, #24]
 800a06a:	61e3      	str	r3, [r4, #28]
            if (txSize && rxSize) {
 800a06c:	b11d      	cbz	r5, 800a076 <_ZN5codal3_cm3SPI13startTransferEPKhmPhmPFvPvES5_+0x1c>
 800a06e:	9b04      	ldr	r3, [sp, #16]
 800a070:	b10b      	cbz	r3, 800a076 <_ZN5codal3_cm3SPI13startTransferEPKhmPhmPFvPvES5_+0x1c>
                CODAL_ASSERT(txSize == rxSize); // we could support this if needed
 800a072:	429d      	cmp	r5, r3
 800a074:	d101      	bne.n	800a07a <_ZN5codal3_cm3SPI13startTransferEPKhmPhmPFvPvES5_+0x20>
            } else {
                return 0; // nothing to do
            }
            CODAL_ASSERT(res == HAL_OK);
            return 0;
        }
 800a076:	2000      	movs	r0, #0
 800a078:	bd38      	pop	{r3, r4, r5, pc}
                CODAL_ASSERT(txSize == rxSize); // we could support this if needed
 800a07a:	f240 308d 	movw	r0, #909	; 0x38d
 800a07e:	f7f6 fc37 	bl	80008f0 <target_panic>
 800a082:	e7f8      	b.n	800a076 <_ZN5codal3_cm3SPI13startTransferEPKhmPhmPFvPvES5_+0x1c>

0800a084 <_ZL22pinmap_find_peripheralhPK6PinMap>:

static CmPeripheral pinmap_find_peripheral(codal::PinNumber pin, const PinMap* map) {
    //  Return the peripheral for the pin e.g. SPI1.
    while (map->pin != CM_PIN_NC) {
 800a084:	780b      	ldrb	r3, [r1, #0]
 800a086:	2bff      	cmp	r3, #255	; 0xff
 800a088:	d005      	beq.n	800a096 <_ZL22pinmap_find_peripheralhPK6PinMap+0x12>
        if (map->pin == pin) { return map->peripheral; }
 800a08a:	4283      	cmp	r3, r0
 800a08c:	d001      	beq.n	800a092 <_ZL22pinmap_find_peripheralhPK6PinMap+0xe>
        map++;
 800a08e:	310c      	adds	r1, #12
    while (map->pin != CM_PIN_NC) {
 800a090:	e7f8      	b.n	800a084 <_ZL22pinmap_find_peripheralhPK6PinMap>
        if (map->pin == pin) { return map->peripheral; }
 800a092:	6848      	ldr	r0, [r1, #4]
 800a094:	4770      	bx	lr
    }
    return CM_PERIPHERAL_NC;
 800a096:	f04f 30ff 	mov.w	r0, #4294967295	; 0xffffffff
}
 800a09a:	4770      	bx	lr

0800a09c <_ZL16pinmap_find_modehPK6PinMap>:

static CmPinMode pinmap_find_mode(codal::PinNumber pin, const PinMap* map) {
    //  Return the pin mode for the peripheral e.g. GPIO_MODE_OUTPUT_2_MHZ.
    while (map->pin != CM_PIN_NC) {
 800a09c:	780b      	ldrb	r3, [r1, #0]
 800a09e:	2bff      	cmp	r3, #255	; 0xff
 800a0a0:	d005      	beq.n	800a0ae <_ZL16pinmap_find_modehPK6PinMap+0x12>
        if (map->pin == pin) { return map->mode; }
 800a0a2:	4283      	cmp	r3, r0
 800a0a4:	d001      	beq.n	800a0aa <_ZL16pinmap_find_modehPK6PinMap+0xe>
        map++;
 800a0a6:	310c      	adds	r1, #12
    while (map->pin != CM_PIN_NC) {
 800a0a8:	e7f8      	b.n	800a09c <_ZL16pinmap_find_modehPK6PinMap>
        if (map->pin == pin) { return map->mode; }
 800a0aa:	7a48      	ldrb	r0, [r1, #9]
 800a0ac:	4770      	bx	lr
    }
    return CM_PINMODE_NC;
 800a0ae:	20ff      	movs	r0, #255	; 0xff
}
 800a0b0:	4770      	bx	lr

0800a0b2 <_ZL15pinmap_find_cnfhPK6PinMap>:

static CmPinCnf pinmap_find_cnf(codal::PinNumber pin, const PinMap* map) {
    //  Return the pin config for the peripheral e.g. GPIO_CNF_OUTPUT_PUSHPULL.
    while (map->pin != CM_PIN_NC) {
 800a0b2:	780b      	ldrb	r3, [r1, #0]
 800a0b4:	2bff      	cmp	r3, #255	; 0xff
 800a0b6:	d005      	beq.n	800a0c4 <_ZL15pinmap_find_cnfhPK6PinMap+0x12>
        if (map->pin == pin) { return map->cnf; }
 800a0b8:	4283      	cmp	r3, r0
 800a0ba:	d001      	beq.n	800a0c0 <_ZL15pinmap_find_cnfhPK6PinMap+0xe>
        map++;
 800a0bc:	310c      	adds	r1, #12
    while (map->pin != CM_PIN_NC) {
 800a0be:	e7f8      	b.n	800a0b2 <_ZL15pinmap_find_cnfhPK6PinMap>
        if (map->pin == pin) { return map->cnf; }
 800a0c0:	7a88      	ldrb	r0, [r1, #10]
 800a0c2:	4770      	bx	lr
    }
    return CM_PINCNF_NC;
 800a0c4:	20ff      	movs	r0, #255	; 0xff
}
 800a0c6:	4770      	bx	lr

0800a0c8 <_ZN5codal3I2C12setFrequencyEm>:
  * @param frequency The bus frequency in hertz
  */
int I2C::setFrequency(uint32_t frequency)
{
    return DEVICE_NOT_IMPLEMENTED;
}
 800a0c8:	f46f 707d 	mvn.w	r0, #1012	; 0x3f4
 800a0cc:	4770      	bx	lr

0800a0ce <_ZN5codal3I2C5startEv>:
 * Issues a START condition on the I2C bus
 */
int I2C::start()
{
    return DEVICE_NOT_IMPLEMENTED;
}
 800a0ce:	f46f 707d 	mvn.w	r0, #1012	; 0x3f4
 800a0d2:	4770      	bx	lr

0800a0d4 <_ZN5codal3I2C4stopEv>:
 * Issues a STOP condition on the I2C bus
 */
int I2C::stop()
{
    return DEVICE_NOT_IMPLEMENTED;
}
 800a0d4:	f46f 707d 	mvn.w	r0, #1012	; 0x3f4
 800a0d8:	4770      	bx	lr

0800a0da <_ZN5codal3I2C5writeEh>:
* @return DEVICE_OK on success, DEVICE_I2C_ERROR if the the write request failed.
*/
int I2C::write(uint8_t data)
{
    return DEVICE_NOT_IMPLEMENTED;
}
 800a0da:	f46f 707d 	mvn.w	r0, #1012	; 0x3f4
 800a0de:	4770      	bx	lr

0800a0e0 <_ZN5codal3I2C4readENS_15AcknowledgeTypeE>:
* @return the byte read from the I2C bus, or DEVICE_I2C_ERROR if the the write request failed.
*/
int I2C::read(AcknowledgeType ack)
{
    return DEVICE_NOT_IMPLEMENTED;
}
 800a0e0:	f46f 707d 	mvn.w	r0, #1012	; 0x3f4
 800a0e4:	4770      	bx	lr

0800a0e6 <_ZN5codal3I2C5writeEtPhib>:
  * @param len the number of bytes to write
  *
  * @return DEVICE_OK on success, DEVICE_I2C_ERROR if the the write request failed.
  */
  int I2C::write(uint16_t address, uint8_t *data, int len, bool repeated)
  {
 800a0e6:	e92d 43f8 	stmdb	sp!, {r3, r4, r5, r6, r7, r8, r9, lr}
 800a0ea:	f89d 8020 	ldrb.w	r8, [sp, #32]
      if (data == NULL || len <= 0)
 800a0ee:	b31a      	cbz	r2, 800a138 <_ZN5codal3I2C5writeEtPhib+0x52>
 800a0f0:	4617      	mov	r7, r2
 800a0f2:	2b00      	cmp	r3, #0
 800a0f4:	dd23      	ble.n	800a13e <_ZN5codal3I2C5writeEtPhib+0x58>
 800a0f6:	4699      	mov	r9, r3
 800a0f8:	460c      	mov	r4, r1
 800a0fa:	4605      	mov	r5, r0
          return DEVICE_INVALID_PARAMETER; // Send a start condition

      start();
 800a0fc:	6803      	ldr	r3, [r0, #0]
 800a0fe:	685b      	ldr	r3, [r3, #4]
 800a100:	4798      	blx	r3

      // Send the address of the slave, with a write bit set.
      write((uint8_t)address);
 800a102:	682b      	ldr	r3, [r5, #0]
 800a104:	68db      	ldr	r3, [r3, #12]
 800a106:	b2e1      	uxtb	r1, r4
 800a108:	4628      	mov	r0, r5
 800a10a:	4798      	blx	r3

      // Send the body of the data
      for (int i = 0; i < len; i++)
 800a10c:	2400      	movs	r4, #0
 800a10e:	454c      	cmp	r4, r9
 800a110:	da06      	bge.n	800a120 <_ZN5codal3I2C5writeEtPhib+0x3a>
          write(data[i]);
 800a112:	6829      	ldr	r1, [r5, #0]
 800a114:	68ce      	ldr	r6, [r1, #12]
 800a116:	5d39      	ldrb	r1, [r7, r4]
 800a118:	4628      	mov	r0, r5
 800a11a:	47b0      	blx	r6
      for (int i = 0; i < len; i++)
 800a11c:	3401      	adds	r4, #1
 800a11e:	e7f6      	b.n	800a10e <_ZN5codal3I2C5writeEtPhib+0x28>

      // Send a stop condition
      if (!repeated)
 800a120:	f1b8 0f00 	cmp.w	r8, #0
 800a124:	d002      	beq.n	800a12c <_ZN5codal3I2C5writeEtPhib+0x46>
          stop();

      return DEVICE_OK;
 800a126:	2000      	movs	r0, #0
  }
 800a128:	e8bd 83f8 	ldmia.w	sp!, {r3, r4, r5, r6, r7, r8, r9, pc}
          stop();
 800a12c:	682b      	ldr	r3, [r5, #0]
 800a12e:	689b      	ldr	r3, [r3, #8]
 800a130:	4628      	mov	r0, r5
 800a132:	4798      	blx	r3
      return DEVICE_OK;
 800a134:	2000      	movs	r0, #0
 800a136:	e7f7      	b.n	800a128 <_ZN5codal3I2C5writeEtPhib+0x42>
          return DEVICE_INVALID_PARAMETER; // Send a start condition
 800a138:	f46f 707a 	mvn.w	r0, #1000	; 0x3e8
 800a13c:	e7f4      	b.n	800a128 <_ZN5codal3I2C5writeEtPhib+0x42>
 800a13e:	f46f 707a 	mvn.w	r0, #1000	; 0x3e8
 800a142:	e7f1      	b.n	800a128 <_ZN5codal3I2C5writeEtPhib+0x42>

0800a144 <_ZN5codal3I2C13writeRegisterEthh>:
  * @param value The value to write.
  *
  * @return DEVICE_OK on success, DEVICE_I2C_ERROR if the the write request failed.
  */
  int I2C::writeRegister(uint16_t address, uint8_t reg, uint8_t value)
  {
 800a144:	b510      	push	{r4, lr}
 800a146:	b084      	sub	sp, #16
      uint8_t command[2];
      command[0] = reg;
 800a148:	f88d 200c 	strb.w	r2, [sp, #12]
      command[1] = value;
 800a14c:	f88d 300d 	strb.w	r3, [sp, #13]

      return write(address, command, 2);
 800a150:	6803      	ldr	r3, [r0, #0]
 800a152:	2200      	movs	r2, #0
 800a154:	9200      	str	r2, [sp, #0]
 800a156:	695c      	ldr	r4, [r3, #20]
 800a158:	2302      	movs	r3, #2
 800a15a:	aa03      	add	r2, sp, #12
 800a15c:	47a0      	blx	r4
}
 800a15e:	b004      	add	sp, #16
 800a160:	bd10      	pop	{r4, pc}

0800a162 <_ZN5codal3I2C4readEtPhib>:
* @param len the number of bytes to read into the buffer
*
* @return DEVICE_OK on success, DEVICE_I2C_ERROR if the the read request failed.
*/
int I2C::read(uint16_t address, uint8_t *data, int len, bool repeated)
{
 800a162:	e92d 43f8 	stmdb	sp!, {r3, r4, r5, r6, r7, r8, r9, lr}
 800a166:	f89d 9020 	ldrb.w	r9, [sp, #32]
    int i = 0;

    if (data == NULL || len <= 0)
 800a16a:	2a00      	cmp	r2, #0
 800a16c:	d02f      	beq.n	800a1ce <_ZN5codal3I2C4readEtPhib+0x6c>
 800a16e:	4690      	mov	r8, r2
 800a170:	2b00      	cmp	r3, #0
 800a172:	dd2f      	ble.n	800a1d4 <_ZN5codal3I2C4readEtPhib+0x72>
 800a174:	461f      	mov	r7, r3
 800a176:	460c      	mov	r4, r1
 800a178:	4605      	mov	r5, r0
        return DEVICE_INVALID_PARAMETER;

    // Send a start condition
    start();
 800a17a:	6803      	ldr	r3, [r0, #0]
 800a17c:	685b      	ldr	r3, [r3, #4]
 800a17e:	4798      	blx	r3

    // Send the address of the slave, with a read bit set.
    write((uint8_t)(address | 0x01));
 800a180:	682b      	ldr	r3, [r5, #0]
 800a182:	68db      	ldr	r3, [r3, #12]
 800a184:	f044 0101 	orr.w	r1, r4, #1
 800a188:	b2c9      	uxtb	r1, r1
 800a18a:	4628      	mov	r0, r5
 800a18c:	4798      	blx	r3

    // Read the body of the data
    for (i = 0; i < len-1; i++)
 800a18e:	2400      	movs	r4, #0
 800a190:	1e79      	subs	r1, r7, #1
 800a192:	42a1      	cmp	r1, r4
 800a194:	dd08      	ble.n	800a1a8 <_ZN5codal3I2C4readEtPhib+0x46>
        data[i] = read();
 800a196:	6829      	ldr	r1, [r5, #0]
 800a198:	690e      	ldr	r6, [r1, #16]
 800a19a:	2100      	movs	r1, #0
 800a19c:	4628      	mov	r0, r5
 800a19e:	47b0      	blx	r6
 800a1a0:	f808 0004 	strb.w	r0, [r8, r4]
    for (i = 0; i < len-1; i++)
 800a1a4:	3401      	adds	r4, #1
 800a1a6:	e7f3      	b.n	800a190 <_ZN5codal3I2C4readEtPhib+0x2e>

    data[i] = read(NACK);
 800a1a8:	682b      	ldr	r3, [r5, #0]
 800a1aa:	691b      	ldr	r3, [r3, #16]
 800a1ac:	2101      	movs	r1, #1
 800a1ae:	4628      	mov	r0, r5
 800a1b0:	4798      	blx	r3
 800a1b2:	f808 0004 	strb.w	r0, [r8, r4]

    // Send a stop condition
    if (!repeated)
 800a1b6:	f1b9 0f00 	cmp.w	r9, #0
 800a1ba:	d002      	beq.n	800a1c2 <_ZN5codal3I2C4readEtPhib+0x60>
        stop();

    return DEVICE_OK;
 800a1bc:	2000      	movs	r0, #0
}
 800a1be:	e8bd 83f8 	ldmia.w	sp!, {r3, r4, r5, r6, r7, r8, r9, pc}
        stop();
 800a1c2:	682b      	ldr	r3, [r5, #0]
 800a1c4:	689b      	ldr	r3, [r3, #8]
 800a1c6:	4628      	mov	r0, r5
 800a1c8:	4798      	blx	r3
    return DEVICE_OK;
 800a1ca:	2000      	movs	r0, #0
 800a1cc:	e7f7      	b.n	800a1be <_ZN5codal3I2C4readEtPhib+0x5c>
        return DEVICE_INVALID_PARAMETER;
 800a1ce:	f46f 707a 	mvn.w	r0, #1000	; 0x3e8
 800a1d2:	e7f4      	b.n	800a1be <_ZN5codal3I2C4readEtPhib+0x5c>
 800a1d4:	f46f 707a 	mvn.w	r0, #1000	; 0x3e8
 800a1d8:	e7f1      	b.n	800a1be <_ZN5codal3I2C4readEtPhib+0x5c>

0800a1da <_ZN5codal3I2C5writeEth>:
  {
 800a1da:	b530      	push	{r4, r5, lr}
 800a1dc:	b085      	sub	sp, #20
 800a1de:	ac04      	add	r4, sp, #16
 800a1e0:	f804 2d01 	strb.w	r2, [r4, #-1]!
      return write(address, &data, 1);
 800a1e4:	6803      	ldr	r3, [r0, #0]
 800a1e6:	2200      	movs	r2, #0
 800a1e8:	9200      	str	r2, [sp, #0]
 800a1ea:	695d      	ldr	r5, [r3, #20]
 800a1ec:	2301      	movs	r3, #1
 800a1ee:	4622      	mov	r2, r4
 800a1f0:	47a8      	blx	r5
  }
 800a1f2:	b005      	add	sp, #20
 800a1f4:	bd30      	pop	{r4, r5, pc}

0800a1f6 <_ZN5codal3I2C12readRegisterEthPhib>:
* @param repeated Use a repeated START/START/STOP transaction if true, or independent START/STOP/START/STOP transactions if fasle. Default: true
*
* @return DEVICE_OK or DEVICE_I2C_ERROR if the the read request failed.
*/
int I2C::readRegister(uint16_t address, uint8_t reg, uint8_t *data, int length, bool repeated)
{
 800a1f6:	b5f0      	push	{r4, r5, r6, r7, lr}
 800a1f8:	b085      	sub	sp, #20
 800a1fa:	4604      	mov	r4, r0
 800a1fc:	460d      	mov	r5, r1
 800a1fe:	461e      	mov	r6, r3
 800a200:	f89d 302c 	ldrb.w	r3, [sp, #44]	; 0x2c
 800a204:	f88d 200f 	strb.w	r2, [sp, #15]
    int result;

    if (repeated)
 800a208:	b14b      	cbz	r3, 800a21e <_ZN5codal3I2C12readRegisterEthPhib+0x28>
        result = write(address, &reg, 1, true);
 800a20a:	6803      	ldr	r3, [r0, #0]
 800a20c:	695f      	ldr	r7, [r3, #20]
 800a20e:	2301      	movs	r3, #1
 800a210:	9300      	str	r3, [sp, #0]
 800a212:	f10d 020f 	add.w	r2, sp, #15
 800a216:	47b8      	blx	r7
    else
        result = write(address, reg);

    if (result != DEVICE_OK)
 800a218:	b130      	cbz	r0, 800a228 <_ZN5codal3I2C12readRegisterEthPhib+0x32>
    result = read(address, data, length);
    if (result != DEVICE_OK)
        return result;

    return DEVICE_OK;
}
 800a21a:	b005      	add	sp, #20
 800a21c:	bdf0      	pop	{r4, r5, r6, r7, pc}
        result = write(address, reg);
 800a21e:	f89d 200f 	ldrb.w	r2, [sp, #15]
 800a222:	f7ff ffda 	bl	800a1da <_ZN5codal3I2C5writeEth>
 800a226:	e7f7      	b.n	800a218 <_ZN5codal3I2C12readRegisterEthPhib+0x22>
    result = read(address, data, length);
 800a228:	6823      	ldr	r3, [r4, #0]
 800a22a:	69df      	ldr	r7, [r3, #28]
 800a22c:	2300      	movs	r3, #0
 800a22e:	9300      	str	r3, [sp, #0]
 800a230:	9b0a      	ldr	r3, [sp, #40]	; 0x28
 800a232:	4632      	mov	r2, r6
 800a234:	4629      	mov	r1, r5
 800a236:	4620      	mov	r0, r4
 800a238:	47b8      	blx	r7
 800a23a:	e7ee      	b.n	800a21a <_ZN5codal3I2C12readRegisterEthPhib+0x24>

0800a23c <_ZTVN5codal14CodalComponentE>:
	...
 800a244:	6c9d 0800 9009 0800 900b 0800 6d19 0800     .l...........m..
 800a254:	6d31 0800 6573 2074 656c 0064 6174 6772     1m..set led.targ
 800a264:	7465 7720 6961 0074 6c73 6565 0070 0000     et wait.sleep...
 800a274:	6f6c 706f 0000 0000 6c73 0070 7420 0020     loop....slp. t .
 800a284:	202c 6c61 206d 0000                         , alm ..

0800a28c <_ZTVN5codal6SerialE>:
	...
 800a294:	6c9d 0800 9009 0800 900b 0800 0000 0000     .l..............
 800a2a4:	0000 0000 2bb1 0800 2bb1 0800 2bb1 0800     .....+...+...+..
 800a2b4:	2bb1 0800 2bb1 0800 2bb1 0800 931f 0800     .+...+...+......

0800a2c4 <_ZTVN5codal5TimerE>:
	...
 800a2cc:	2bb1 0800 2bb1 0800 94f5 0800 94eb 0800     .+...+..........

0800a2dc <_ZTVN5codal10EventModelE>:
	...
 800a2e4:	78b9 0800 78cd 0800 78d5 0800               .x...x...x..

0800a2f0 <_ZTVN5codal10MessageBusE>:
	...
 800a2f8:	98b5 0800 78dd 0800 9771 0800 9695 0800     .....x..q.......
 800a308:	7b8d 0800 9995 0800 fff8 ffff 0000 0000     .{..............
 800a318:	6c9d 0800 9009 0800 900b 0800 998d 0800     .l..............
 800a328:	99a7 0800                                   ....

0800a32c <_ZL9emptyData>:
 800a32c:	ffff 0000 6970 206e 0000 0000               ....pin ....

0800a338 <_ZTVN5codal3_cm3PinE>:
	...
 800a340:	7ced 0800 9c15 0800 9c19 0800 7ca5 0800     .|...........|..
 800a350:	7d81 0800 9c2d 0800 9c31 0800 9c3f 0800     .}..-...1...?...
 800a360:	9c4d 0800 9c59 0800 7cc5 0800 9c03 0800     M...Y....|......
 800a370:	9cab 0800 9c09 0800 7ccd 0800 7cd5 0800     .........|...|..
 800a380:	9c67 0800 9c0f 0800 9ccf 0800               g...........

0800a38c <_ZTVN5codal3_cm6SerialE>:
	...
 800a394:	6c9d 0800 9009 0800 900b 0800 7df9 0800     .l...........}..
 800a3a4:	7e0d 0800 9cfb 0800 9cff 0800 9d03 0800     .~..............
 800a3b4:	9d07 0800 9d0b 0800 9d0f 0800 9dcd 0800     ................
 800a3c4:	7973 636e 2021 0000 6974 656d 2072 6e69     sync! ..timer in
 800a3d4:	7469 0000 7274 6769 6567 4972 206e 3462     it..triggerIn b4
 800a3e4:	6920 696e 2174 0000                          init!..

0800a3ec <_ZTVN5codal3_cm5TimerE>:
	...
 800a3f4:	7ebd 0800 7ee1 0800 94f5 0800 94eb 0800     .~...~..........
 800a404:	2a2a 202a 7061 2070 7362 2f73 6164 6174     *** app bss/data
 800a414:	6620 6961 656c 2c64 6220 7373 745f 7365      failed, bss_tes
 800a424:	2074 203d 0000 0000 202c 6164 6174 745f     t = ...., data_t
 800a434:	7365 2074 203d 0000 6c66 7375 2068 6174     est = ..flush ta
 800a444:	6b73 0000 6572 7473 7261 2074 6168 646e     sk..restart hand
 800a454:	656c 0072 6572 7473 7261 6974 676e 2e2e     ler.restarting..
 800a464:	002e 0000 6f64 656e 0000 0000 6572 7473     ....done....rest
 800a474:	7261 2074 6163 6c6c 6162 6b63 0000 0000     art callback....
 800a484:	2a2a 202a 5245 4f52 3a52 6d20 7369 6973     *** ERROR: missi
 800a494:	676e 6520 6576 746e 6220 7375 0000 0000     ng event bus....
 800a4a4:	2a2a 202a 5245 4f52 3a52 7520 616e 6c62     *** ERROR: unabl
 800a4b4:	2065 6f74 7320 6e65 2064 6572 7473 7261     e to send restar
 800a4c4:	2074 7665 6e65 2074 0000 0000 6f6e 7320     t event ....no s
 800a4d4:	6863 6465 6c75 7265 202c 7473 7261 2074     cheduler, start 
 800a4e4:	6762 7420 7361 736b 6c20 7461 7265 0000     bg tasks later..
 800a4f4:	7473 7261 2074 6762 7420 7361 736b 0000     start bg tasks..
 800a504:	2a2a 202a 5245 4f52 3a52 6320 6572 7461     *** ERROR: creat
 800a514:	2065 6966 7262 2065 6166 6c69 6465 0000     e fibre failed..
 800a524:	2a2a 202a 5245 4f52 3a52 7520 616e 6c62     *** ERROR: unabl
 800a534:	2065 6f74 6c20 7369 6574 206e 6f66 2072     e to listen for 
 800a544:	6572 7473 7261 2074 7665 6e65 2074 0000     restart event ..
 800a554:	6c62 6575 6970 6c6c 6920 696e 2074 6373     bluepill init sc
 800a564:	6568 7564 656c 0072 6c62 6575 6970 6c6c     heduler.bluepill
 800a574:	6920 696e 2074 6f63 706d 6e6f 6e65 7374      init components
 800a584:	0000 0000 6c62 6575 6970 6c6c 6920 696e     ....bluepill ini
 800a594:	2074 6b6f 0000 0000 6c62 6575 6970 6c6c     t ok....bluepill
 800a5a4:	6320 6e6f 7473 7572 7463 0000                construct..

0800a5b0 <_ZTVN5codal13STM32BluePillE>:
	...
 800a5b8:	81d1 0800 9fa7 0800 9fa9 0800 6dc5 0800     .............m..
 800a5c8:	6e11 0800                                   .n..

0800a5cc <PinMap_SPI_MISO>:
 800a5cc:	0068 0000 3000 4001 0000 0001 0070 0000     h....0.@....p...
 800a5dc:	3800 4000 0000 0001 0074 0000 3c00 4000     .8.@....t....<.@
 800a5ec:	0000 0001 006c 0000 3000 4001 0001 0001     ....l....0.@....
 800a5fc:	0078 0000 3c00 4000 0001 0001 00ff 0000     x....<.@........
 800a60c:	ffff ffff ff00 00ff                         ........

0800a614 <PinMap_SPI_MOSI>:
 800a614:	0069 0000 3000 4001 0300 0002 0071 0000     i....0.@....q...
 800a624:	3800 4000 0300 0002 0075 0000 3c00 4000     .8.@....u....<.@
 800a634:	0300 0002 006d 0000 3000 4001 0301 0002     ....m....0.@....
 800a644:	0079 0000 3c00 4000 0301 0002 00ff 0000     y....<.@........
 800a654:	ffff ffff ff00 00ff                         ........

0800a65c <PinMap_SPI_NSS>:
 800a65c:	0066 0000 3000 4001 0300 0002 006e 0000     f....0.@....n...
 800a66c:	3800 4000 0300 0002 0072 0000 3c00 4000     .8.@....r....<.@
 800a67c:	0300 0002 006a 0000 3000 4001 0301 0002     ....j....0.@....
 800a68c:	0076 0000 3c00 4000 0301 0002 00ff 0000     v....<.@........
 800a69c:	ffff ffff ff00 00ff                         ........

0800a6a4 <PinMap_SPI_SCK>:
 800a6a4:	0067 0000 3000 4001 0300 0002 006f 0000     g....0.@....o...
 800a6b4:	3800 4000 0300 0002 0073 0000 3c00 4000     .8.@....s....<.@
 800a6c4:	0300 0002 006b 0000 3000 4001 0301 0002     ....k....0.@....
 800a6d4:	0077 0000 3c00 4000 0301 0002 00ff 0000     w....<.@........
 800a6e4:	ffff ffff ff00 00ff                         ........

0800a6ec <_ZTVN5codal3_cm3I2CE>:
	...
 800a6f4:	9fc1 0800 a0cf 0800 a0d5 0800 a0db 0800     ................
 800a704:	a0e1 0800 9fc5 0800 a145 0800 9fc9 0800     ........E.......
 800a714:	9fcd 0800 5053 2049 6e69 7473 6e61 6563     ....SPI instance
 800a724:	2520 0070 2a2a 202a 6f63 6164 206c 7073      %p.*** codal sp
 800a734:	2069 6f6d 6973 0020 6d20 7369 206f 0000     i mosi . miso ..
 800a744:	7320 6c63 206b 0000 7073 2069 6f6d 6973      sclk ..spi mosi
 800a754:	0020 0000 6e20 7373 0020 0000                ... nss ...

0800a760 <_ZTVN5codal3_cm3SPIE>:
	...
 800a768:	9fd1 0800 9fef 0800 9fdd 0800 9feb 0800     ................
 800a778:	a05b 0800 6970 6d6e 7061 6e20 746f 6620     [...pinmap not f
 800a788:	756f 646e 6620 726f 6320 666e 0000 0000     ound for cnf....
 800a798:	6970 6d6e 7061 6e20 746f 6620 756f 646e     pinmap not found
 800a7a8:	6620 726f 6d20 646f 0065 0000 6970 6d6e      for mode...pinm
 800a7b8:	7061 6e20 746f 6620 756f 646e 6620 726f     ap not found for
 800a7c8:	7020 7265 7069 6568 6172 006c                peripheral.

0800a7d4 <_ZTVN5codal3I2CE>:
	...
 800a7dc:	a0c9 0800 a0cf 0800 a0d5 0800 a0db 0800     ................
 800a7ec:	a0e1 0800 a0e7 0800 a145 0800 a163 0800     ........E...c...
 800a7fc:	a1f7 0800                                   ....
